ARM GAS  /tmp/ccZHBLNw.s 			page 1


   1              		.syntax unified
   2              		.cpu cortex-m4
   3              		.eabi_attribute 27, 1
   4              		.eabi_attribute 28, 1
   5              		.fpu fpv4-sp-d16
   6              		.eabi_attribute 20, 1
   7              		.eabi_attribute 21, 1
   8              		.eabi_attribute 23, 3
   9              		.eabi_attribute 24, 1
  10              		.eabi_attribute 25, 1
  11              		.eabi_attribute 26, 1
  12              		.eabi_attribute 30, 1
  13              		.eabi_attribute 34, 1
  14              		.eabi_attribute 18, 4
  15              		.thumb
  16              		.file	"stm32f4xx_hal_flash.c"
  17              		.text
  18              	.Ltext0:
  19              		.cfi_sections	.debug_frame
  20              		.section	.text.FLASH_Program_DoubleWord,"ax",%progbits
  21              		.align	2
  22              		.thumb
  23              		.thumb_func
  25              	FLASH_Program_DoubleWord:
  26              	.LFB124:
  27              		.file 1 "../Drivers/STM32F4xx_HAL_Driver/Src/stm32f4xx_hal_flash.c"
   1:../Drivers/STM32F4xx_HAL_Driver/Src/stm32f4xx_hal_flash.c **** /**
   2:../Drivers/STM32F4xx_HAL_Driver/Src/stm32f4xx_hal_flash.c ****   ******************************************************************************
   3:../Drivers/STM32F4xx_HAL_Driver/Src/stm32f4xx_hal_flash.c ****   * @file    stm32f4xx_hal_flash.c
   4:../Drivers/STM32F4xx_HAL_Driver/Src/stm32f4xx_hal_flash.c ****   * @author  MCD Application Team
   5:../Drivers/STM32F4xx_HAL_Driver/Src/stm32f4xx_hal_flash.c ****   * @version V1.1.0
   6:../Drivers/STM32F4xx_HAL_Driver/Src/stm32f4xx_hal_flash.c ****   * @date    19-June-2014
   7:../Drivers/STM32F4xx_HAL_Driver/Src/stm32f4xx_hal_flash.c ****   * @brief   FLASH HAL module driver.
   8:../Drivers/STM32F4xx_HAL_Driver/Src/stm32f4xx_hal_flash.c ****   *          This file provides firmware functions to manage the following 
   9:../Drivers/STM32F4xx_HAL_Driver/Src/stm32f4xx_hal_flash.c ****   *          functionalities of the internal FLASH memory:
  10:../Drivers/STM32F4xx_HAL_Driver/Src/stm32f4xx_hal_flash.c ****   *           + Program operations functions
  11:../Drivers/STM32F4xx_HAL_Driver/Src/stm32f4xx_hal_flash.c ****   *           + Memory Control functions 
  12:../Drivers/STM32F4xx_HAL_Driver/Src/stm32f4xx_hal_flash.c ****   *           + Peripheral Errors functions
  13:../Drivers/STM32F4xx_HAL_Driver/Src/stm32f4xx_hal_flash.c ****   *         
  14:../Drivers/STM32F4xx_HAL_Driver/Src/stm32f4xx_hal_flash.c ****   @verbatim
  15:../Drivers/STM32F4xx_HAL_Driver/Src/stm32f4xx_hal_flash.c ****   ==============================================================================
  16:../Drivers/STM32F4xx_HAL_Driver/Src/stm32f4xx_hal_flash.c ****                         ##### FLASH peripheral features #####
  17:../Drivers/STM32F4xx_HAL_Driver/Src/stm32f4xx_hal_flash.c ****   ==============================================================================
  18:../Drivers/STM32F4xx_HAL_Driver/Src/stm32f4xx_hal_flash.c ****            
  19:../Drivers/STM32F4xx_HAL_Driver/Src/stm32f4xx_hal_flash.c ****   [..] The Flash memory interface manages CPU AHB I-Code and D-Code accesses 
  20:../Drivers/STM32F4xx_HAL_Driver/Src/stm32f4xx_hal_flash.c ****        to the Flash memory. It implements the erase and program Flash memory operations 
  21:../Drivers/STM32F4xx_HAL_Driver/Src/stm32f4xx_hal_flash.c ****        and the read and write protection mechanisms.
  22:../Drivers/STM32F4xx_HAL_Driver/Src/stm32f4xx_hal_flash.c ****       
  23:../Drivers/STM32F4xx_HAL_Driver/Src/stm32f4xx_hal_flash.c ****   [..] The Flash memory interface accelerates code execution with a system of instruction
  24:../Drivers/STM32F4xx_HAL_Driver/Src/stm32f4xx_hal_flash.c ****        prefetch and cache lines. 
  25:../Drivers/STM32F4xx_HAL_Driver/Src/stm32f4xx_hal_flash.c **** 
  26:../Drivers/STM32F4xx_HAL_Driver/Src/stm32f4xx_hal_flash.c ****   [..] The FLASH main features are:
  27:../Drivers/STM32F4xx_HAL_Driver/Src/stm32f4xx_hal_flash.c ****       (+) Flash memory read operations
  28:../Drivers/STM32F4xx_HAL_Driver/Src/stm32f4xx_hal_flash.c ****       (+) Flash memory program/erase operations
  29:../Drivers/STM32F4xx_HAL_Driver/Src/stm32f4xx_hal_flash.c ****       (+) Read / write protections
  30:../Drivers/STM32F4xx_HAL_Driver/Src/stm32f4xx_hal_flash.c ****       (+) Prefetch on I-Code
  31:../Drivers/STM32F4xx_HAL_Driver/Src/stm32f4xx_hal_flash.c ****       (+) 64 cache lines of 128 bits on I-Code
ARM GAS  /tmp/ccZHBLNw.s 			page 2


  32:../Drivers/STM32F4xx_HAL_Driver/Src/stm32f4xx_hal_flash.c ****       (+) 8 cache lines of 128 bits on D-Code
  33:../Drivers/STM32F4xx_HAL_Driver/Src/stm32f4xx_hal_flash.c ****       
  34:../Drivers/STM32F4xx_HAL_Driver/Src/stm32f4xx_hal_flash.c ****       
  35:../Drivers/STM32F4xx_HAL_Driver/Src/stm32f4xx_hal_flash.c ****                      ##### How to use this driver #####
  36:../Drivers/STM32F4xx_HAL_Driver/Src/stm32f4xx_hal_flash.c ****   ==============================================================================
  37:../Drivers/STM32F4xx_HAL_Driver/Src/stm32f4xx_hal_flash.c ****     [..]                             
  38:../Drivers/STM32F4xx_HAL_Driver/Src/stm32f4xx_hal_flash.c ****       This driver provides functions and macros to configure and program the FLASH 
  39:../Drivers/STM32F4xx_HAL_Driver/Src/stm32f4xx_hal_flash.c ****       memory of all STM32F4xx devices.
  40:../Drivers/STM32F4xx_HAL_Driver/Src/stm32f4xx_hal_flash.c ****     
  41:../Drivers/STM32F4xx_HAL_Driver/Src/stm32f4xx_hal_flash.c ****       (#) FLASH Memory IO Programming functions: 
  42:../Drivers/STM32F4xx_HAL_Driver/Src/stm32f4xx_hal_flash.c ****            (++) Lock and Unlock the FLASH interface using HAL_FLASH_Unlock() and 
  43:../Drivers/STM32F4xx_HAL_Driver/Src/stm32f4xx_hal_flash.c ****                 HAL_FLASH_Lock() functions
  44:../Drivers/STM32F4xx_HAL_Driver/Src/stm32f4xx_hal_flash.c ****            (++) Program functions: byte, half word, word and double word
  45:../Drivers/STM32F4xx_HAL_Driver/Src/stm32f4xx_hal_flash.c ****            (++) There Two modes of programming :
  46:../Drivers/STM32F4xx_HAL_Driver/Src/stm32f4xx_hal_flash.c ****             (+++) Polling mode using HAL_FLASH_Program() function
  47:../Drivers/STM32F4xx_HAL_Driver/Src/stm32f4xx_hal_flash.c ****             (+++) Interrupt mode using HAL_FLASH_Program_IT() function
  48:../Drivers/STM32F4xx_HAL_Driver/Src/stm32f4xx_hal_flash.c ****     
  49:../Drivers/STM32F4xx_HAL_Driver/Src/stm32f4xx_hal_flash.c ****       (#) Interrupts and flags management functions : 
  50:../Drivers/STM32F4xx_HAL_Driver/Src/stm32f4xx_hal_flash.c ****            (++) Handle FLASH interrupts by calling HAL_FLASH_IRQHandler()
  51:../Drivers/STM32F4xx_HAL_Driver/Src/stm32f4xx_hal_flash.c ****            (++) Wait for last FLASH operation according to its status
  52:../Drivers/STM32F4xx_HAL_Driver/Src/stm32f4xx_hal_flash.c ****            (++) Get error flag status by calling HAL_SetErrorCode()          
  53:../Drivers/STM32F4xx_HAL_Driver/Src/stm32f4xx_hal_flash.c **** 
  54:../Drivers/STM32F4xx_HAL_Driver/Src/stm32f4xx_hal_flash.c ****     [..] 
  55:../Drivers/STM32F4xx_HAL_Driver/Src/stm32f4xx_hal_flash.c ****       In addition to these functions, this driver includes a set of macros allowing
  56:../Drivers/STM32F4xx_HAL_Driver/Src/stm32f4xx_hal_flash.c ****       to handle the following operations:
  57:../Drivers/STM32F4xx_HAL_Driver/Src/stm32f4xx_hal_flash.c ****        (+) Set the latency
  58:../Drivers/STM32F4xx_HAL_Driver/Src/stm32f4xx_hal_flash.c ****        (+) Enable/Disable the prefetch buffer
  59:../Drivers/STM32F4xx_HAL_Driver/Src/stm32f4xx_hal_flash.c ****        (+) Enable/Disable the Instruction cache and the Data cache
  60:../Drivers/STM32F4xx_HAL_Driver/Src/stm32f4xx_hal_flash.c ****        (+) Reset the Instruction cache and the Data cache
  61:../Drivers/STM32F4xx_HAL_Driver/Src/stm32f4xx_hal_flash.c ****        (+) Enable/Disable the FLASH interrupts
  62:../Drivers/STM32F4xx_HAL_Driver/Src/stm32f4xx_hal_flash.c ****        (+) Monitor the FLASH flags status
  63:../Drivers/STM32F4xx_HAL_Driver/Src/stm32f4xx_hal_flash.c ****           
  64:../Drivers/STM32F4xx_HAL_Driver/Src/stm32f4xx_hal_flash.c ****   @endverbatim
  65:../Drivers/STM32F4xx_HAL_Driver/Src/stm32f4xx_hal_flash.c ****   ******************************************************************************
  66:../Drivers/STM32F4xx_HAL_Driver/Src/stm32f4xx_hal_flash.c ****   * @attention
  67:../Drivers/STM32F4xx_HAL_Driver/Src/stm32f4xx_hal_flash.c ****   *
  68:../Drivers/STM32F4xx_HAL_Driver/Src/stm32f4xx_hal_flash.c ****   * <h2><center>&copy; COPYRIGHT(c) 2014 STMicroelectronics</center></h2>
  69:../Drivers/STM32F4xx_HAL_Driver/Src/stm32f4xx_hal_flash.c ****   *
  70:../Drivers/STM32F4xx_HAL_Driver/Src/stm32f4xx_hal_flash.c ****   * Redistribution and use in source and binary forms, with or without modification,
  71:../Drivers/STM32F4xx_HAL_Driver/Src/stm32f4xx_hal_flash.c ****   * are permitted provided that the following conditions are met:
  72:../Drivers/STM32F4xx_HAL_Driver/Src/stm32f4xx_hal_flash.c ****   *   1. Redistributions of source code must retain the above copyright notice,
  73:../Drivers/STM32F4xx_HAL_Driver/Src/stm32f4xx_hal_flash.c ****   *      this list of conditions and the following disclaimer.
  74:../Drivers/STM32F4xx_HAL_Driver/Src/stm32f4xx_hal_flash.c ****   *   2. Redistributions in binary form must reproduce the above copyright notice,
  75:../Drivers/STM32F4xx_HAL_Driver/Src/stm32f4xx_hal_flash.c ****   *      this list of conditions and the following disclaimer in the documentation
  76:../Drivers/STM32F4xx_HAL_Driver/Src/stm32f4xx_hal_flash.c ****   *      and/or other materials provided with the distribution.
  77:../Drivers/STM32F4xx_HAL_Driver/Src/stm32f4xx_hal_flash.c ****   *   3. Neither the name of STMicroelectronics nor the names of its contributors
  78:../Drivers/STM32F4xx_HAL_Driver/Src/stm32f4xx_hal_flash.c ****   *      may be used to endorse or promote products derived from this software
  79:../Drivers/STM32F4xx_HAL_Driver/Src/stm32f4xx_hal_flash.c ****   *      without specific prior written permission.
  80:../Drivers/STM32F4xx_HAL_Driver/Src/stm32f4xx_hal_flash.c ****   *
  81:../Drivers/STM32F4xx_HAL_Driver/Src/stm32f4xx_hal_flash.c ****   * THIS SOFTWARE IS PROVIDED BY THE COPYRIGHT HOLDERS AND CONTRIBUTORS "AS IS"
  82:../Drivers/STM32F4xx_HAL_Driver/Src/stm32f4xx_hal_flash.c ****   * AND ANY EXPRESS OR IMPLIED WARRANTIES, INCLUDING, BUT NOT LIMITED TO, THE
  83:../Drivers/STM32F4xx_HAL_Driver/Src/stm32f4xx_hal_flash.c ****   * IMPLIED WARRANTIES OF MERCHANTABILITY AND FITNESS FOR A PARTICULAR PURPOSE ARE
  84:../Drivers/STM32F4xx_HAL_Driver/Src/stm32f4xx_hal_flash.c ****   * DISCLAIMED. IN NO EVENT SHALL THE COPYRIGHT HOLDER OR CONTRIBUTORS BE LIABLE
  85:../Drivers/STM32F4xx_HAL_Driver/Src/stm32f4xx_hal_flash.c ****   * FOR ANY DIRECT, INDIRECT, INCIDENTAL, SPECIAL, EXEMPLARY, OR CONSEQUENTIAL
  86:../Drivers/STM32F4xx_HAL_Driver/Src/stm32f4xx_hal_flash.c ****   * DAMAGES (INCLUDING, BUT NOT LIMITED TO, PROCUREMENT OF SUBSTITUTE GOODS OR
  87:../Drivers/STM32F4xx_HAL_Driver/Src/stm32f4xx_hal_flash.c ****   * SERVICES; LOSS OF USE, DATA, OR PROFITS; OR BUSINESS INTERRUPTION) HOWEVER
  88:../Drivers/STM32F4xx_HAL_Driver/Src/stm32f4xx_hal_flash.c ****   * CAUSED AND ON ANY THEORY OF LIABILITY, WHETHER IN CONTRACT, STRICT LIABILITY,
ARM GAS  /tmp/ccZHBLNw.s 			page 3


  89:../Drivers/STM32F4xx_HAL_Driver/Src/stm32f4xx_hal_flash.c ****   * OR TORT (INCLUDING NEGLIGENCE OR OTHERWISE) ARISING IN ANY WAY OUT OF THE USE
  90:../Drivers/STM32F4xx_HAL_Driver/Src/stm32f4xx_hal_flash.c ****   * OF THIS SOFTWARE, EVEN IF ADVISED OF THE POSSIBILITY OF SUCH DAMAGE.
  91:../Drivers/STM32F4xx_HAL_Driver/Src/stm32f4xx_hal_flash.c ****   *
  92:../Drivers/STM32F4xx_HAL_Driver/Src/stm32f4xx_hal_flash.c ****   ******************************************************************************
  93:../Drivers/STM32F4xx_HAL_Driver/Src/stm32f4xx_hal_flash.c ****   */ 
  94:../Drivers/STM32F4xx_HAL_Driver/Src/stm32f4xx_hal_flash.c **** 
  95:../Drivers/STM32F4xx_HAL_Driver/Src/stm32f4xx_hal_flash.c **** /* Includes ------------------------------------------------------------------*/
  96:../Drivers/STM32F4xx_HAL_Driver/Src/stm32f4xx_hal_flash.c **** #include "stm32f4xx_hal.h"
  97:../Drivers/STM32F4xx_HAL_Driver/Src/stm32f4xx_hal_flash.c **** 
  98:../Drivers/STM32F4xx_HAL_Driver/Src/stm32f4xx_hal_flash.c **** /** @addtogroup STM32F4xx_HAL_Driver
  99:../Drivers/STM32F4xx_HAL_Driver/Src/stm32f4xx_hal_flash.c ****   * @{
 100:../Drivers/STM32F4xx_HAL_Driver/Src/stm32f4xx_hal_flash.c ****   */
 101:../Drivers/STM32F4xx_HAL_Driver/Src/stm32f4xx_hal_flash.c **** 
 102:../Drivers/STM32F4xx_HAL_Driver/Src/stm32f4xx_hal_flash.c **** /** @defgroup FLASH
 103:../Drivers/STM32F4xx_HAL_Driver/Src/stm32f4xx_hal_flash.c ****   * @brief FLASH HAL module driver
 104:../Drivers/STM32F4xx_HAL_Driver/Src/stm32f4xx_hal_flash.c ****   * @{
 105:../Drivers/STM32F4xx_HAL_Driver/Src/stm32f4xx_hal_flash.c ****   */
 106:../Drivers/STM32F4xx_HAL_Driver/Src/stm32f4xx_hal_flash.c **** 
 107:../Drivers/STM32F4xx_HAL_Driver/Src/stm32f4xx_hal_flash.c **** #ifdef HAL_FLASH_MODULE_ENABLED
 108:../Drivers/STM32F4xx_HAL_Driver/Src/stm32f4xx_hal_flash.c **** 
 109:../Drivers/STM32F4xx_HAL_Driver/Src/stm32f4xx_hal_flash.c **** /* Private typedef -----------------------------------------------------------*/
 110:../Drivers/STM32F4xx_HAL_Driver/Src/stm32f4xx_hal_flash.c **** /* Private define ------------------------------------------------------------*/
 111:../Drivers/STM32F4xx_HAL_Driver/Src/stm32f4xx_hal_flash.c **** #define SECTOR_MASK               ((uint32_t)0xFFFFFF07)
 112:../Drivers/STM32F4xx_HAL_Driver/Src/stm32f4xx_hal_flash.c **** 
 113:../Drivers/STM32F4xx_HAL_Driver/Src/stm32f4xx_hal_flash.c **** #define HAL_FLASH_TIMEOUT_VALUE   ((uint32_t)50000)/* 50 s */
 114:../Drivers/STM32F4xx_HAL_Driver/Src/stm32f4xx_hal_flash.c **** /* Private macro -------------------------------------------------------------*/
 115:../Drivers/STM32F4xx_HAL_Driver/Src/stm32f4xx_hal_flash.c **** /* Private variables ---------------------------------------------------------*/
 116:../Drivers/STM32F4xx_HAL_Driver/Src/stm32f4xx_hal_flash.c **** /* Variable used for Erase sectors under interruption */
 117:../Drivers/STM32F4xx_HAL_Driver/Src/stm32f4xx_hal_flash.c **** FLASH_ProcessTypeDef pFlash;
 118:../Drivers/STM32F4xx_HAL_Driver/Src/stm32f4xx_hal_flash.c **** 
 119:../Drivers/STM32F4xx_HAL_Driver/Src/stm32f4xx_hal_flash.c **** 
 120:../Drivers/STM32F4xx_HAL_Driver/Src/stm32f4xx_hal_flash.c **** /* Private function prototypes -----------------------------------------------*/
 121:../Drivers/STM32F4xx_HAL_Driver/Src/stm32f4xx_hal_flash.c **** /* Program operations */
 122:../Drivers/STM32F4xx_HAL_Driver/Src/stm32f4xx_hal_flash.c **** static void   FLASH_Program_DoubleWord(uint32_t Address, uint64_t Data);
 123:../Drivers/STM32F4xx_HAL_Driver/Src/stm32f4xx_hal_flash.c **** static void   FLASH_Program_Word(uint32_t Address, uint32_t Data);
 124:../Drivers/STM32F4xx_HAL_Driver/Src/stm32f4xx_hal_flash.c **** static void   FLASH_Program_HalfWord(uint32_t Address, uint16_t Data);
 125:../Drivers/STM32F4xx_HAL_Driver/Src/stm32f4xx_hal_flash.c **** static void   FLASH_Program_Byte(uint32_t Address, uint8_t Data);
 126:../Drivers/STM32F4xx_HAL_Driver/Src/stm32f4xx_hal_flash.c **** static void   FLASH_SetErrorCode(void);
 127:../Drivers/STM32F4xx_HAL_Driver/Src/stm32f4xx_hal_flash.c **** 
 128:../Drivers/STM32F4xx_HAL_Driver/Src/stm32f4xx_hal_flash.c **** HAL_StatusTypeDef FLASH_WaitForLastOperation(uint32_t Timeout);
 129:../Drivers/STM32F4xx_HAL_Driver/Src/stm32f4xx_hal_flash.c **** 
 130:../Drivers/STM32F4xx_HAL_Driver/Src/stm32f4xx_hal_flash.c **** /* Private functions ---------------------------------------------------------*/
 131:../Drivers/STM32F4xx_HAL_Driver/Src/stm32f4xx_hal_flash.c **** /** @defgroup FLASH_Private_Functions FLASH Private functions
 132:../Drivers/STM32F4xx_HAL_Driver/Src/stm32f4xx_hal_flash.c ****   * @{
 133:../Drivers/STM32F4xx_HAL_Driver/Src/stm32f4xx_hal_flash.c ****   */
 134:../Drivers/STM32F4xx_HAL_Driver/Src/stm32f4xx_hal_flash.c ****   
 135:../Drivers/STM32F4xx_HAL_Driver/Src/stm32f4xx_hal_flash.c **** /** @defgroup FLASH_Group1 Programming operation functions 
 136:../Drivers/STM32F4xx_HAL_Driver/Src/stm32f4xx_hal_flash.c ****  *  @brief   Programming operation functions 
 137:../Drivers/STM32F4xx_HAL_Driver/Src/stm32f4xx_hal_flash.c ****  *
 138:../Drivers/STM32F4xx_HAL_Driver/Src/stm32f4xx_hal_flash.c **** @verbatim   
 139:../Drivers/STM32F4xx_HAL_Driver/Src/stm32f4xx_hal_flash.c ****  ===============================================================================
 140:../Drivers/STM32F4xx_HAL_Driver/Src/stm32f4xx_hal_flash.c ****                   ##### Programming operation functions #####
 141:../Drivers/STM32F4xx_HAL_Driver/Src/stm32f4xx_hal_flash.c ****  ===============================================================================  
 142:../Drivers/STM32F4xx_HAL_Driver/Src/stm32f4xx_hal_flash.c ****     [..]
 143:../Drivers/STM32F4xx_HAL_Driver/Src/stm32f4xx_hal_flash.c ****     This subsection provides a set of functions allowing to manage the FLASH 
 144:../Drivers/STM32F4xx_HAL_Driver/Src/stm32f4xx_hal_flash.c ****     program operations.
 145:../Drivers/STM32F4xx_HAL_Driver/Src/stm32f4xx_hal_flash.c **** 
ARM GAS  /tmp/ccZHBLNw.s 			page 4


 146:../Drivers/STM32F4xx_HAL_Driver/Src/stm32f4xx_hal_flash.c **** @endverbatim
 147:../Drivers/STM32F4xx_HAL_Driver/Src/stm32f4xx_hal_flash.c ****   * @{
 148:../Drivers/STM32F4xx_HAL_Driver/Src/stm32f4xx_hal_flash.c ****   */
 149:../Drivers/STM32F4xx_HAL_Driver/Src/stm32f4xx_hal_flash.c **** 
 150:../Drivers/STM32F4xx_HAL_Driver/Src/stm32f4xx_hal_flash.c **** /**
 151:../Drivers/STM32F4xx_HAL_Driver/Src/stm32f4xx_hal_flash.c ****   * @brief  Program byte, halfword, word or double word at a specified address
 152:../Drivers/STM32F4xx_HAL_Driver/Src/stm32f4xx_hal_flash.c ****   * @param  TypeProgram:  Indicate the way to program at a specified address.
 153:../Drivers/STM32F4xx_HAL_Driver/Src/stm32f4xx_hal_flash.c ****   *                           This parameter can be a value of @ref FLASH_Type_Program
 154:../Drivers/STM32F4xx_HAL_Driver/Src/stm32f4xx_hal_flash.c ****   * @param  Address:  specifies the address to be programmed.
 155:../Drivers/STM32F4xx_HAL_Driver/Src/stm32f4xx_hal_flash.c ****   * @param  Data: specifies the data to be programmed
 156:../Drivers/STM32F4xx_HAL_Driver/Src/stm32f4xx_hal_flash.c ****   * 
 157:../Drivers/STM32F4xx_HAL_Driver/Src/stm32f4xx_hal_flash.c ****   * @retval HAL_StatusTypeDef HAL Status
 158:../Drivers/STM32F4xx_HAL_Driver/Src/stm32f4xx_hal_flash.c ****   */
 159:../Drivers/STM32F4xx_HAL_Driver/Src/stm32f4xx_hal_flash.c **** HAL_StatusTypeDef HAL_FLASH_Program(uint32_t TypeProgram, uint32_t Address, uint64_t Data)
 160:../Drivers/STM32F4xx_HAL_Driver/Src/stm32f4xx_hal_flash.c **** {
 161:../Drivers/STM32F4xx_HAL_Driver/Src/stm32f4xx_hal_flash.c ****   HAL_StatusTypeDef status = HAL_ERROR;
 162:../Drivers/STM32F4xx_HAL_Driver/Src/stm32f4xx_hal_flash.c ****   
 163:../Drivers/STM32F4xx_HAL_Driver/Src/stm32f4xx_hal_flash.c ****   /* Process Locked */
 164:../Drivers/STM32F4xx_HAL_Driver/Src/stm32f4xx_hal_flash.c ****   __HAL_LOCK(&pFlash);
 165:../Drivers/STM32F4xx_HAL_Driver/Src/stm32f4xx_hal_flash.c **** 
 166:../Drivers/STM32F4xx_HAL_Driver/Src/stm32f4xx_hal_flash.c ****   /* Check the parameters */
 167:../Drivers/STM32F4xx_HAL_Driver/Src/stm32f4xx_hal_flash.c ****   assert_param(IS_TYPEPROGRAM(TypeProgram));
 168:../Drivers/STM32F4xx_HAL_Driver/Src/stm32f4xx_hal_flash.c **** 
 169:../Drivers/STM32F4xx_HAL_Driver/Src/stm32f4xx_hal_flash.c ****   /* Wait for last operation to be completed */
 170:../Drivers/STM32F4xx_HAL_Driver/Src/stm32f4xx_hal_flash.c ****   status = FLASH_WaitForLastOperation((uint32_t)HAL_FLASH_TIMEOUT_VALUE);
 171:../Drivers/STM32F4xx_HAL_Driver/Src/stm32f4xx_hal_flash.c ****   
 172:../Drivers/STM32F4xx_HAL_Driver/Src/stm32f4xx_hal_flash.c ****   if(status == HAL_OK)
 173:../Drivers/STM32F4xx_HAL_Driver/Src/stm32f4xx_hal_flash.c ****   {
 174:../Drivers/STM32F4xx_HAL_Driver/Src/stm32f4xx_hal_flash.c ****     if(TypeProgram == TYPEPROGRAM_BYTE)
 175:../Drivers/STM32F4xx_HAL_Driver/Src/stm32f4xx_hal_flash.c ****     {
 176:../Drivers/STM32F4xx_HAL_Driver/Src/stm32f4xx_hal_flash.c ****       /*Program byte (8-bit) at a specified address.*/
 177:../Drivers/STM32F4xx_HAL_Driver/Src/stm32f4xx_hal_flash.c ****         FLASH_Program_Byte(Address, (uint8_t) Data);
 178:../Drivers/STM32F4xx_HAL_Driver/Src/stm32f4xx_hal_flash.c ****     }
 179:../Drivers/STM32F4xx_HAL_Driver/Src/stm32f4xx_hal_flash.c ****     else if(TypeProgram == TYPEPROGRAM_HALFWORD)
 180:../Drivers/STM32F4xx_HAL_Driver/Src/stm32f4xx_hal_flash.c ****     {
 181:../Drivers/STM32F4xx_HAL_Driver/Src/stm32f4xx_hal_flash.c ****       /*Program halfword (16-bit) at a specified address.*/
 182:../Drivers/STM32F4xx_HAL_Driver/Src/stm32f4xx_hal_flash.c ****       FLASH_Program_HalfWord(Address, (uint16_t) Data);
 183:../Drivers/STM32F4xx_HAL_Driver/Src/stm32f4xx_hal_flash.c ****     }
 184:../Drivers/STM32F4xx_HAL_Driver/Src/stm32f4xx_hal_flash.c ****     else if(TypeProgram == TYPEPROGRAM_WORD)
 185:../Drivers/STM32F4xx_HAL_Driver/Src/stm32f4xx_hal_flash.c ****     {
 186:../Drivers/STM32F4xx_HAL_Driver/Src/stm32f4xx_hal_flash.c ****       /*Program word (32-bit) at a specified address.*/
 187:../Drivers/STM32F4xx_HAL_Driver/Src/stm32f4xx_hal_flash.c ****       FLASH_Program_Word(Address, (uint32_t) Data);
 188:../Drivers/STM32F4xx_HAL_Driver/Src/stm32f4xx_hal_flash.c ****     }
 189:../Drivers/STM32F4xx_HAL_Driver/Src/stm32f4xx_hal_flash.c ****     else
 190:../Drivers/STM32F4xx_HAL_Driver/Src/stm32f4xx_hal_flash.c ****     {
 191:../Drivers/STM32F4xx_HAL_Driver/Src/stm32f4xx_hal_flash.c ****       /*Program double word (64-bit) at a specified address.*/
 192:../Drivers/STM32F4xx_HAL_Driver/Src/stm32f4xx_hal_flash.c ****       FLASH_Program_DoubleWord(Address, Data);
 193:../Drivers/STM32F4xx_HAL_Driver/Src/stm32f4xx_hal_flash.c ****     }
 194:../Drivers/STM32F4xx_HAL_Driver/Src/stm32f4xx_hal_flash.c **** 
 195:../Drivers/STM32F4xx_HAL_Driver/Src/stm32f4xx_hal_flash.c ****     /* Wait for last operation to be completed */
 196:../Drivers/STM32F4xx_HAL_Driver/Src/stm32f4xx_hal_flash.c ****     status = FLASH_WaitForLastOperation((uint32_t)HAL_FLASH_TIMEOUT_VALUE);
 197:../Drivers/STM32F4xx_HAL_Driver/Src/stm32f4xx_hal_flash.c ****     
 198:../Drivers/STM32F4xx_HAL_Driver/Src/stm32f4xx_hal_flash.c ****     /* If the program operation is completed, disable the PG Bit */
 199:../Drivers/STM32F4xx_HAL_Driver/Src/stm32f4xx_hal_flash.c ****     FLASH->CR &= (~FLASH_CR_PG);
 200:../Drivers/STM32F4xx_HAL_Driver/Src/stm32f4xx_hal_flash.c ****   }
 201:../Drivers/STM32F4xx_HAL_Driver/Src/stm32f4xx_hal_flash.c **** 
 202:../Drivers/STM32F4xx_HAL_Driver/Src/stm32f4xx_hal_flash.c ****   /* Process Unlocked */
ARM GAS  /tmp/ccZHBLNw.s 			page 5


 203:../Drivers/STM32F4xx_HAL_Driver/Src/stm32f4xx_hal_flash.c ****   __HAL_UNLOCK(&pFlash);
 204:../Drivers/STM32F4xx_HAL_Driver/Src/stm32f4xx_hal_flash.c **** 
 205:../Drivers/STM32F4xx_HAL_Driver/Src/stm32f4xx_hal_flash.c ****   return status;
 206:../Drivers/STM32F4xx_HAL_Driver/Src/stm32f4xx_hal_flash.c **** }
 207:../Drivers/STM32F4xx_HAL_Driver/Src/stm32f4xx_hal_flash.c **** 
 208:../Drivers/STM32F4xx_HAL_Driver/Src/stm32f4xx_hal_flash.c **** /**
 209:../Drivers/STM32F4xx_HAL_Driver/Src/stm32f4xx_hal_flash.c ****   * @brief   Program byte, halfword, word or double word at a specified address  with interrupt ena
 210:../Drivers/STM32F4xx_HAL_Driver/Src/stm32f4xx_hal_flash.c ****   * @param  TypeProgram:  Indicate the way to program at a specified address.
 211:../Drivers/STM32F4xx_HAL_Driver/Src/stm32f4xx_hal_flash.c ****   *                           This parameter can be a value of @ref FLASH_Type_Program
 212:../Drivers/STM32F4xx_HAL_Driver/Src/stm32f4xx_hal_flash.c ****   * @param  Address:  specifies the address to be programmed.
 213:../Drivers/STM32F4xx_HAL_Driver/Src/stm32f4xx_hal_flash.c ****   * @param  Data: specifies the data to be programmed
 214:../Drivers/STM32F4xx_HAL_Driver/Src/stm32f4xx_hal_flash.c ****   * 
 215:../Drivers/STM32F4xx_HAL_Driver/Src/stm32f4xx_hal_flash.c ****   * @retval HAL Status
 216:../Drivers/STM32F4xx_HAL_Driver/Src/stm32f4xx_hal_flash.c ****   */
 217:../Drivers/STM32F4xx_HAL_Driver/Src/stm32f4xx_hal_flash.c **** HAL_StatusTypeDef HAL_FLASH_Program_IT(uint32_t TypeProgram, uint32_t Address, uint64_t Data)
 218:../Drivers/STM32F4xx_HAL_Driver/Src/stm32f4xx_hal_flash.c **** {
 219:../Drivers/STM32F4xx_HAL_Driver/Src/stm32f4xx_hal_flash.c ****   HAL_StatusTypeDef status = HAL_OK;
 220:../Drivers/STM32F4xx_HAL_Driver/Src/stm32f4xx_hal_flash.c ****   
 221:../Drivers/STM32F4xx_HAL_Driver/Src/stm32f4xx_hal_flash.c ****   /* Process Locked */
 222:../Drivers/STM32F4xx_HAL_Driver/Src/stm32f4xx_hal_flash.c ****   __HAL_LOCK(&pFlash);
 223:../Drivers/STM32F4xx_HAL_Driver/Src/stm32f4xx_hal_flash.c **** 
 224:../Drivers/STM32F4xx_HAL_Driver/Src/stm32f4xx_hal_flash.c ****   /* Check the parameters */
 225:../Drivers/STM32F4xx_HAL_Driver/Src/stm32f4xx_hal_flash.c ****   assert_param(IS_TYPEPROGRAM(TypeProgram));
 226:../Drivers/STM32F4xx_HAL_Driver/Src/stm32f4xx_hal_flash.c **** 
 227:../Drivers/STM32F4xx_HAL_Driver/Src/stm32f4xx_hal_flash.c ****   /* Enable End of FLASH Operation interrupt */
 228:../Drivers/STM32F4xx_HAL_Driver/Src/stm32f4xx_hal_flash.c ****   __HAL_FLASH_ENABLE_IT(FLASH_IT_EOP);
 229:../Drivers/STM32F4xx_HAL_Driver/Src/stm32f4xx_hal_flash.c ****   
 230:../Drivers/STM32F4xx_HAL_Driver/Src/stm32f4xx_hal_flash.c ****   /* Enable Error source interrupt */
 231:../Drivers/STM32F4xx_HAL_Driver/Src/stm32f4xx_hal_flash.c ****   __HAL_FLASH_ENABLE_IT(FLASH_IT_ERR);
 232:../Drivers/STM32F4xx_HAL_Driver/Src/stm32f4xx_hal_flash.c ****   
 233:../Drivers/STM32F4xx_HAL_Driver/Src/stm32f4xx_hal_flash.c ****   /* Clear pending flags (if any) */  
 234:../Drivers/STM32F4xx_HAL_Driver/Src/stm32f4xx_hal_flash.c ****   __HAL_FLASH_CLEAR_FLAG(FLASH_FLAG_EOP    | FLASH_FLAG_OPERR | FLASH_FLAG_WRPERR |\
 235:../Drivers/STM32F4xx_HAL_Driver/Src/stm32f4xx_hal_flash.c ****                          FLASH_FLAG_PGAERR | FLASH_FLAG_PGPERR| FLASH_FLAG_PGSERR);  
 236:../Drivers/STM32F4xx_HAL_Driver/Src/stm32f4xx_hal_flash.c **** 
 237:../Drivers/STM32F4xx_HAL_Driver/Src/stm32f4xx_hal_flash.c ****   pFlash.ProcedureOnGoing = FLASH_PROC_PROGRAM;
 238:../Drivers/STM32F4xx_HAL_Driver/Src/stm32f4xx_hal_flash.c ****   pFlash.Address = Address;
 239:../Drivers/STM32F4xx_HAL_Driver/Src/stm32f4xx_hal_flash.c **** 
 240:../Drivers/STM32F4xx_HAL_Driver/Src/stm32f4xx_hal_flash.c ****   if(TypeProgram == TYPEPROGRAM_BYTE)
 241:../Drivers/STM32F4xx_HAL_Driver/Src/stm32f4xx_hal_flash.c ****   {
 242:../Drivers/STM32F4xx_HAL_Driver/Src/stm32f4xx_hal_flash.c ****     /*Program byte (8-bit) at a specified address.*/
 243:../Drivers/STM32F4xx_HAL_Driver/Src/stm32f4xx_hal_flash.c ****       FLASH_Program_Byte(Address, (uint8_t) Data);
 244:../Drivers/STM32F4xx_HAL_Driver/Src/stm32f4xx_hal_flash.c ****   }
 245:../Drivers/STM32F4xx_HAL_Driver/Src/stm32f4xx_hal_flash.c ****   else if(TypeProgram == TYPEPROGRAM_HALFWORD)
 246:../Drivers/STM32F4xx_HAL_Driver/Src/stm32f4xx_hal_flash.c ****   {
 247:../Drivers/STM32F4xx_HAL_Driver/Src/stm32f4xx_hal_flash.c ****     /*Program halfword (16-bit) at a specified address.*/
 248:../Drivers/STM32F4xx_HAL_Driver/Src/stm32f4xx_hal_flash.c ****     FLASH_Program_HalfWord(Address, (uint16_t) Data);
 249:../Drivers/STM32F4xx_HAL_Driver/Src/stm32f4xx_hal_flash.c ****   }
 250:../Drivers/STM32F4xx_HAL_Driver/Src/stm32f4xx_hal_flash.c ****   else if(TypeProgram == TYPEPROGRAM_WORD)
 251:../Drivers/STM32F4xx_HAL_Driver/Src/stm32f4xx_hal_flash.c ****   {
 252:../Drivers/STM32F4xx_HAL_Driver/Src/stm32f4xx_hal_flash.c ****     /*Program word (32-bit) at a specified address.*/
 253:../Drivers/STM32F4xx_HAL_Driver/Src/stm32f4xx_hal_flash.c ****     FLASH_Program_Word(Address, (uint32_t) Data);
 254:../Drivers/STM32F4xx_HAL_Driver/Src/stm32f4xx_hal_flash.c ****   }
 255:../Drivers/STM32F4xx_HAL_Driver/Src/stm32f4xx_hal_flash.c ****   else
 256:../Drivers/STM32F4xx_HAL_Driver/Src/stm32f4xx_hal_flash.c ****   {
 257:../Drivers/STM32F4xx_HAL_Driver/Src/stm32f4xx_hal_flash.c ****     /*Program double word (64-bit) at a specified address.*/
 258:../Drivers/STM32F4xx_HAL_Driver/Src/stm32f4xx_hal_flash.c ****     FLASH_Program_DoubleWord(Address, Data);
 259:../Drivers/STM32F4xx_HAL_Driver/Src/stm32f4xx_hal_flash.c ****   }
ARM GAS  /tmp/ccZHBLNw.s 			page 6


 260:../Drivers/STM32F4xx_HAL_Driver/Src/stm32f4xx_hal_flash.c **** 
 261:../Drivers/STM32F4xx_HAL_Driver/Src/stm32f4xx_hal_flash.c ****   return status;
 262:../Drivers/STM32F4xx_HAL_Driver/Src/stm32f4xx_hal_flash.c **** }
 263:../Drivers/STM32F4xx_HAL_Driver/Src/stm32f4xx_hal_flash.c **** 
 264:../Drivers/STM32F4xx_HAL_Driver/Src/stm32f4xx_hal_flash.c **** /**
 265:../Drivers/STM32F4xx_HAL_Driver/Src/stm32f4xx_hal_flash.c ****   * @brief This function handles FLASH interrupt request.
 266:../Drivers/STM32F4xx_HAL_Driver/Src/stm32f4xx_hal_flash.c ****   * @param  None
 267:../Drivers/STM32F4xx_HAL_Driver/Src/stm32f4xx_hal_flash.c ****   * @retval None
 268:../Drivers/STM32F4xx_HAL_Driver/Src/stm32f4xx_hal_flash.c ****   */
 269:../Drivers/STM32F4xx_HAL_Driver/Src/stm32f4xx_hal_flash.c **** void HAL_FLASH_IRQHandler(void)
 270:../Drivers/STM32F4xx_HAL_Driver/Src/stm32f4xx_hal_flash.c **** {
 271:../Drivers/STM32F4xx_HAL_Driver/Src/stm32f4xx_hal_flash.c ****   uint32_t temp;
 272:../Drivers/STM32F4xx_HAL_Driver/Src/stm32f4xx_hal_flash.c ****   
 273:../Drivers/STM32F4xx_HAL_Driver/Src/stm32f4xx_hal_flash.c ****   /* If the program operation is completed, disable the PG Bit */
 274:../Drivers/STM32F4xx_HAL_Driver/Src/stm32f4xx_hal_flash.c ****   FLASH->CR &= (~FLASH_CR_PG);
 275:../Drivers/STM32F4xx_HAL_Driver/Src/stm32f4xx_hal_flash.c **** 
 276:../Drivers/STM32F4xx_HAL_Driver/Src/stm32f4xx_hal_flash.c ****   /* If the erase operation is completed, disable the SER Bit */
 277:../Drivers/STM32F4xx_HAL_Driver/Src/stm32f4xx_hal_flash.c ****   FLASH->CR &= (~FLASH_CR_SER);
 278:../Drivers/STM32F4xx_HAL_Driver/Src/stm32f4xx_hal_flash.c ****   FLASH->CR &= SECTOR_MASK; 
 279:../Drivers/STM32F4xx_HAL_Driver/Src/stm32f4xx_hal_flash.c **** 
 280:../Drivers/STM32F4xx_HAL_Driver/Src/stm32f4xx_hal_flash.c ****   /* if the erase operation is completed, disable the MER Bit */
 281:../Drivers/STM32F4xx_HAL_Driver/Src/stm32f4xx_hal_flash.c ****   FLASH->CR &= (~FLASH_MER_BIT);
 282:../Drivers/STM32F4xx_HAL_Driver/Src/stm32f4xx_hal_flash.c **** 
 283:../Drivers/STM32F4xx_HAL_Driver/Src/stm32f4xx_hal_flash.c ****   /* Check FLASH End of Operation flag  */
 284:../Drivers/STM32F4xx_HAL_Driver/Src/stm32f4xx_hal_flash.c ****   if(__HAL_FLASH_GET_FLAG(FLASH_FLAG_EOP) != RESET)
 285:../Drivers/STM32F4xx_HAL_Driver/Src/stm32f4xx_hal_flash.c ****   {
 286:../Drivers/STM32F4xx_HAL_Driver/Src/stm32f4xx_hal_flash.c ****     if(pFlash.ProcedureOnGoing == FLASH_PROC_SECTERASE)
 287:../Drivers/STM32F4xx_HAL_Driver/Src/stm32f4xx_hal_flash.c ****     {
 288:../Drivers/STM32F4xx_HAL_Driver/Src/stm32f4xx_hal_flash.c ****       /*Nb of sector to erased can be decreased*/
 289:../Drivers/STM32F4xx_HAL_Driver/Src/stm32f4xx_hal_flash.c ****       pFlash.NbSectorsToErase--;
 290:../Drivers/STM32F4xx_HAL_Driver/Src/stm32f4xx_hal_flash.c **** 
 291:../Drivers/STM32F4xx_HAL_Driver/Src/stm32f4xx_hal_flash.c ****       /* Check if there are still sectors to erase*/
 292:../Drivers/STM32F4xx_HAL_Driver/Src/stm32f4xx_hal_flash.c ****       if(pFlash.NbSectorsToErase != 0)
 293:../Drivers/STM32F4xx_HAL_Driver/Src/stm32f4xx_hal_flash.c ****       {
 294:../Drivers/STM32F4xx_HAL_Driver/Src/stm32f4xx_hal_flash.c ****         temp = pFlash.Sector;
 295:../Drivers/STM32F4xx_HAL_Driver/Src/stm32f4xx_hal_flash.c ****         /*Indicate user which sector has been erased*/
 296:../Drivers/STM32F4xx_HAL_Driver/Src/stm32f4xx_hal_flash.c ****         HAL_FLASH_EndOfOperationCallback(temp);
 297:../Drivers/STM32F4xx_HAL_Driver/Src/stm32f4xx_hal_flash.c **** 
 298:../Drivers/STM32F4xx_HAL_Driver/Src/stm32f4xx_hal_flash.c ****         /* Clear pending flags (if any) */  
 299:../Drivers/STM32F4xx_HAL_Driver/Src/stm32f4xx_hal_flash.c ****         __HAL_FLASH_CLEAR_FLAG(FLASH_FLAG_EOP | FLASH_FLAG_OPERR | FLASH_FLAG_WRPERR |\
 300:../Drivers/STM32F4xx_HAL_Driver/Src/stm32f4xx_hal_flash.c ****          FLASH_FLAG_PGAERR | FLASH_FLAG_PGPERR| FLASH_FLAG_PGSERR);  
 301:../Drivers/STM32F4xx_HAL_Driver/Src/stm32f4xx_hal_flash.c **** 
 302:../Drivers/STM32F4xx_HAL_Driver/Src/stm32f4xx_hal_flash.c ****         /*Increment sector number*/
 303:../Drivers/STM32F4xx_HAL_Driver/Src/stm32f4xx_hal_flash.c ****         temp = ++pFlash.Sector;
 304:../Drivers/STM32F4xx_HAL_Driver/Src/stm32f4xx_hal_flash.c ****         FLASH_Erase_Sector(temp, pFlash.VoltageForErase);
 305:../Drivers/STM32F4xx_HAL_Driver/Src/stm32f4xx_hal_flash.c ****       }
 306:../Drivers/STM32F4xx_HAL_Driver/Src/stm32f4xx_hal_flash.c ****       else
 307:../Drivers/STM32F4xx_HAL_Driver/Src/stm32f4xx_hal_flash.c ****       {
 308:../Drivers/STM32F4xx_HAL_Driver/Src/stm32f4xx_hal_flash.c ****         /*No more sectors to Erase, user callback can be called.*/
 309:../Drivers/STM32F4xx_HAL_Driver/Src/stm32f4xx_hal_flash.c ****         /*Reset Sector and stop Erase sectors procedure*/
 310:../Drivers/STM32F4xx_HAL_Driver/Src/stm32f4xx_hal_flash.c ****         pFlash.Sector = temp = 0xFFFFFFFF;
 311:../Drivers/STM32F4xx_HAL_Driver/Src/stm32f4xx_hal_flash.c ****         pFlash.ProcedureOnGoing = FLASH_PROC_NONE;
 312:../Drivers/STM32F4xx_HAL_Driver/Src/stm32f4xx_hal_flash.c ****         /* FLASH EOP interrupt user callback */
 313:../Drivers/STM32F4xx_HAL_Driver/Src/stm32f4xx_hal_flash.c ****         HAL_FLASH_EndOfOperationCallback(temp);
 314:../Drivers/STM32F4xx_HAL_Driver/Src/stm32f4xx_hal_flash.c ****         /* Clear FLASH End of Operation pending bit */
 315:../Drivers/STM32F4xx_HAL_Driver/Src/stm32f4xx_hal_flash.c ****         __HAL_FLASH_CLEAR_FLAG(FLASH_FLAG_EOP);
 316:../Drivers/STM32F4xx_HAL_Driver/Src/stm32f4xx_hal_flash.c ****       }
ARM GAS  /tmp/ccZHBLNw.s 			page 7


 317:../Drivers/STM32F4xx_HAL_Driver/Src/stm32f4xx_hal_flash.c ****     }
 318:../Drivers/STM32F4xx_HAL_Driver/Src/stm32f4xx_hal_flash.c ****     else 
 319:../Drivers/STM32F4xx_HAL_Driver/Src/stm32f4xx_hal_flash.c ****     {
 320:../Drivers/STM32F4xx_HAL_Driver/Src/stm32f4xx_hal_flash.c ****       if (pFlash.ProcedureOnGoing == FLASH_PROC_MASSERASE) 
 321:../Drivers/STM32F4xx_HAL_Driver/Src/stm32f4xx_hal_flash.c ****       {
 322:../Drivers/STM32F4xx_HAL_Driver/Src/stm32f4xx_hal_flash.c ****         /*MassErase ended. Return the selected bank*/
 323:../Drivers/STM32F4xx_HAL_Driver/Src/stm32f4xx_hal_flash.c ****         /* FLASH EOP interrupt user callback */
 324:../Drivers/STM32F4xx_HAL_Driver/Src/stm32f4xx_hal_flash.c ****         HAL_FLASH_EndOfOperationCallback(pFlash.Bank);
 325:../Drivers/STM32F4xx_HAL_Driver/Src/stm32f4xx_hal_flash.c ****       }
 326:../Drivers/STM32F4xx_HAL_Driver/Src/stm32f4xx_hal_flash.c ****       else
 327:../Drivers/STM32F4xx_HAL_Driver/Src/stm32f4xx_hal_flash.c ****       {
 328:../Drivers/STM32F4xx_HAL_Driver/Src/stm32f4xx_hal_flash.c ****         /*Program ended. Return the selected address*/
 329:../Drivers/STM32F4xx_HAL_Driver/Src/stm32f4xx_hal_flash.c ****         /* FLASH EOP interrupt user callback */
 330:../Drivers/STM32F4xx_HAL_Driver/Src/stm32f4xx_hal_flash.c ****         HAL_FLASH_EndOfOperationCallback(pFlash.Address);
 331:../Drivers/STM32F4xx_HAL_Driver/Src/stm32f4xx_hal_flash.c ****       }
 332:../Drivers/STM32F4xx_HAL_Driver/Src/stm32f4xx_hal_flash.c ****       pFlash.ProcedureOnGoing = FLASH_PROC_NONE;
 333:../Drivers/STM32F4xx_HAL_Driver/Src/stm32f4xx_hal_flash.c ****       /* Clear FLASH End of Operation pending bit */
 334:../Drivers/STM32F4xx_HAL_Driver/Src/stm32f4xx_hal_flash.c ****       __HAL_FLASH_CLEAR_FLAG(FLASH_FLAG_EOP);
 335:../Drivers/STM32F4xx_HAL_Driver/Src/stm32f4xx_hal_flash.c ****     }
 336:../Drivers/STM32F4xx_HAL_Driver/Src/stm32f4xx_hal_flash.c **** 
 337:../Drivers/STM32F4xx_HAL_Driver/Src/stm32f4xx_hal_flash.c ****   }
 338:../Drivers/STM32F4xx_HAL_Driver/Src/stm32f4xx_hal_flash.c ****   
 339:../Drivers/STM32F4xx_HAL_Driver/Src/stm32f4xx_hal_flash.c ****   /* Check FLASH operation error flags */
 340:../Drivers/STM32F4xx_HAL_Driver/Src/stm32f4xx_hal_flash.c ****   if(__HAL_FLASH_GET_FLAG((FLASH_FLAG_OPERR | FLASH_FLAG_WRPERR | FLASH_FLAG_PGAERR | \
 341:../Drivers/STM32F4xx_HAL_Driver/Src/stm32f4xx_hal_flash.c ****                            FLASH_FLAG_PGPERR | FLASH_FLAG_PGSERR | FLASH_FLAG_RDERR)) != RESET)
 342:../Drivers/STM32F4xx_HAL_Driver/Src/stm32f4xx_hal_flash.c ****   {
 343:../Drivers/STM32F4xx_HAL_Driver/Src/stm32f4xx_hal_flash.c ****     if(pFlash.ProcedureOnGoing == FLASH_PROC_SECTERASE)
 344:../Drivers/STM32F4xx_HAL_Driver/Src/stm32f4xx_hal_flash.c ****     {
 345:../Drivers/STM32F4xx_HAL_Driver/Src/stm32f4xx_hal_flash.c ****       /*return the faulty sector*/
 346:../Drivers/STM32F4xx_HAL_Driver/Src/stm32f4xx_hal_flash.c ****       temp = pFlash.Sector;
 347:../Drivers/STM32F4xx_HAL_Driver/Src/stm32f4xx_hal_flash.c ****       pFlash.Sector = 0xFFFFFFFF;
 348:../Drivers/STM32F4xx_HAL_Driver/Src/stm32f4xx_hal_flash.c ****     }
 349:../Drivers/STM32F4xx_HAL_Driver/Src/stm32f4xx_hal_flash.c ****     else if (pFlash.ProcedureOnGoing == FLASH_PROC_MASSERASE)
 350:../Drivers/STM32F4xx_HAL_Driver/Src/stm32f4xx_hal_flash.c ****     {
 351:../Drivers/STM32F4xx_HAL_Driver/Src/stm32f4xx_hal_flash.c ****       /*return the faulty bank*/
 352:../Drivers/STM32F4xx_HAL_Driver/Src/stm32f4xx_hal_flash.c ****       temp = pFlash.Bank;
 353:../Drivers/STM32F4xx_HAL_Driver/Src/stm32f4xx_hal_flash.c ****     }
 354:../Drivers/STM32F4xx_HAL_Driver/Src/stm32f4xx_hal_flash.c ****     else
 355:../Drivers/STM32F4xx_HAL_Driver/Src/stm32f4xx_hal_flash.c ****     {
 356:../Drivers/STM32F4xx_HAL_Driver/Src/stm32f4xx_hal_flash.c ****       /*retrun the faulty address*/
 357:../Drivers/STM32F4xx_HAL_Driver/Src/stm32f4xx_hal_flash.c ****       temp = pFlash.Address;
 358:../Drivers/STM32F4xx_HAL_Driver/Src/stm32f4xx_hal_flash.c ****     }
 359:../Drivers/STM32F4xx_HAL_Driver/Src/stm32f4xx_hal_flash.c ****     
 360:../Drivers/STM32F4xx_HAL_Driver/Src/stm32f4xx_hal_flash.c ****     /*Save the Error code*/
 361:../Drivers/STM32F4xx_HAL_Driver/Src/stm32f4xx_hal_flash.c ****     FLASH_SetErrorCode();
 362:../Drivers/STM32F4xx_HAL_Driver/Src/stm32f4xx_hal_flash.c **** 
 363:../Drivers/STM32F4xx_HAL_Driver/Src/stm32f4xx_hal_flash.c ****     /* FLASH error interrupt user callback */
 364:../Drivers/STM32F4xx_HAL_Driver/Src/stm32f4xx_hal_flash.c ****     HAL_FLASH_OperationErrorCallback(temp);
 365:../Drivers/STM32F4xx_HAL_Driver/Src/stm32f4xx_hal_flash.c ****     /* Clear FLASH error pending bits */
 366:../Drivers/STM32F4xx_HAL_Driver/Src/stm32f4xx_hal_flash.c ****     __HAL_FLASH_CLEAR_FLAG(FLASH_FLAG_OPERR  | FLASH_FLAG_WRPERR | FLASH_FLAG_PGAERR |\
 367:../Drivers/STM32F4xx_HAL_Driver/Src/stm32f4xx_hal_flash.c ****                            FLASH_FLAG_PGPERR | FLASH_FLAG_PGSERR | FLASH_FLAG_RDERR);
 368:../Drivers/STM32F4xx_HAL_Driver/Src/stm32f4xx_hal_flash.c **** 
 369:../Drivers/STM32F4xx_HAL_Driver/Src/stm32f4xx_hal_flash.c ****     /*Stop the procedure ongoing*/
 370:../Drivers/STM32F4xx_HAL_Driver/Src/stm32f4xx_hal_flash.c ****     pFlash.ProcedureOnGoing = FLASH_PROC_NONE;
 371:../Drivers/STM32F4xx_HAL_Driver/Src/stm32f4xx_hal_flash.c ****   }
 372:../Drivers/STM32F4xx_HAL_Driver/Src/stm32f4xx_hal_flash.c ****   
 373:../Drivers/STM32F4xx_HAL_Driver/Src/stm32f4xx_hal_flash.c ****   if(pFlash.ProcedureOnGoing == FLASH_PROC_NONE)
ARM GAS  /tmp/ccZHBLNw.s 			page 8


 374:../Drivers/STM32F4xx_HAL_Driver/Src/stm32f4xx_hal_flash.c ****   {
 375:../Drivers/STM32F4xx_HAL_Driver/Src/stm32f4xx_hal_flash.c ****     /* Disable End of FLASH Operation interrupt */
 376:../Drivers/STM32F4xx_HAL_Driver/Src/stm32f4xx_hal_flash.c ****     __HAL_FLASH_DISABLE_IT(FLASH_IT_EOP);
 377:../Drivers/STM32F4xx_HAL_Driver/Src/stm32f4xx_hal_flash.c **** 
 378:../Drivers/STM32F4xx_HAL_Driver/Src/stm32f4xx_hal_flash.c ****     /* Disable Error source interrupt */
 379:../Drivers/STM32F4xx_HAL_Driver/Src/stm32f4xx_hal_flash.c ****     __HAL_FLASH_DISABLE_IT(FLASH_IT_ERR);
 380:../Drivers/STM32F4xx_HAL_Driver/Src/stm32f4xx_hal_flash.c **** 
 381:../Drivers/STM32F4xx_HAL_Driver/Src/stm32f4xx_hal_flash.c ****     /* Process Unlocked */
 382:../Drivers/STM32F4xx_HAL_Driver/Src/stm32f4xx_hal_flash.c ****     __HAL_UNLOCK(&pFlash);
 383:../Drivers/STM32F4xx_HAL_Driver/Src/stm32f4xx_hal_flash.c ****   }
 384:../Drivers/STM32F4xx_HAL_Driver/Src/stm32f4xx_hal_flash.c ****   
 385:../Drivers/STM32F4xx_HAL_Driver/Src/stm32f4xx_hal_flash.c **** }
 386:../Drivers/STM32F4xx_HAL_Driver/Src/stm32f4xx_hal_flash.c **** 
 387:../Drivers/STM32F4xx_HAL_Driver/Src/stm32f4xx_hal_flash.c **** /**
 388:../Drivers/STM32F4xx_HAL_Driver/Src/stm32f4xx_hal_flash.c ****   * @brief  FLASH end of operation interrupt callback
 389:../Drivers/STM32F4xx_HAL_Driver/Src/stm32f4xx_hal_flash.c ****   * @param  ReturnValue: The value saved in this parameter depends on the ongoing procedure
 390:../Drivers/STM32F4xx_HAL_Driver/Src/stm32f4xx_hal_flash.c ****   *                  Mass Erase: Bank number which has been requested to erase
 391:../Drivers/STM32F4xx_HAL_Driver/Src/stm32f4xx_hal_flash.c ****   *                  Sectors Erase: Sector which has been erased 
 392:../Drivers/STM32F4xx_HAL_Driver/Src/stm32f4xx_hal_flash.c ****   *                    (if 0xFFFFFFFF, it means that all the selected sectors have been erased)
 393:../Drivers/STM32F4xx_HAL_Driver/Src/stm32f4xx_hal_flash.c ****   *                  Program: Address which was selected for data program
 394:../Drivers/STM32F4xx_HAL_Driver/Src/stm32f4xx_hal_flash.c ****   * @retval None
 395:../Drivers/STM32F4xx_HAL_Driver/Src/stm32f4xx_hal_flash.c ****   */
 396:../Drivers/STM32F4xx_HAL_Driver/Src/stm32f4xx_hal_flash.c **** __weak void HAL_FLASH_EndOfOperationCallback(uint32_t ReturnValue)
 397:../Drivers/STM32F4xx_HAL_Driver/Src/stm32f4xx_hal_flash.c **** {
 398:../Drivers/STM32F4xx_HAL_Driver/Src/stm32f4xx_hal_flash.c ****   /* NOTE : This function Should not be modified, when the callback is needed,
 399:../Drivers/STM32F4xx_HAL_Driver/Src/stm32f4xx_hal_flash.c ****             the HAL_FLASH_EndOfOperationCallback could be implemented in the user file
 400:../Drivers/STM32F4xx_HAL_Driver/Src/stm32f4xx_hal_flash.c ****    */ 
 401:../Drivers/STM32F4xx_HAL_Driver/Src/stm32f4xx_hal_flash.c **** }
 402:../Drivers/STM32F4xx_HAL_Driver/Src/stm32f4xx_hal_flash.c **** 
 403:../Drivers/STM32F4xx_HAL_Driver/Src/stm32f4xx_hal_flash.c **** /**
 404:../Drivers/STM32F4xx_HAL_Driver/Src/stm32f4xx_hal_flash.c ****   * @brief  FLASH operation error interrupt callback
 405:../Drivers/STM32F4xx_HAL_Driver/Src/stm32f4xx_hal_flash.c ****   * @param  ReturnValue: The value saved in this parameter depends on the ongoing procedure
 406:../Drivers/STM32F4xx_HAL_Driver/Src/stm32f4xx_hal_flash.c ****   *                 Mass Erase: Bank number which has been requested to erase
 407:../Drivers/STM32F4xx_HAL_Driver/Src/stm32f4xx_hal_flash.c ****   *                 Sectors Erase: Sector number which returned an error
 408:../Drivers/STM32F4xx_HAL_Driver/Src/stm32f4xx_hal_flash.c ****   *                 Program: Address which was selected for data program
 409:../Drivers/STM32F4xx_HAL_Driver/Src/stm32f4xx_hal_flash.c ****   * @retval None
 410:../Drivers/STM32F4xx_HAL_Driver/Src/stm32f4xx_hal_flash.c ****   */
 411:../Drivers/STM32F4xx_HAL_Driver/Src/stm32f4xx_hal_flash.c **** __weak void HAL_FLASH_OperationErrorCallback(uint32_t ReturnValue)
 412:../Drivers/STM32F4xx_HAL_Driver/Src/stm32f4xx_hal_flash.c **** {
 413:../Drivers/STM32F4xx_HAL_Driver/Src/stm32f4xx_hal_flash.c ****   /* NOTE : This function Should not be modified, when the callback is needed,
 414:../Drivers/STM32F4xx_HAL_Driver/Src/stm32f4xx_hal_flash.c ****             the HAL_FLASH_OperationErrorCallback could be implemented in the user file
 415:../Drivers/STM32F4xx_HAL_Driver/Src/stm32f4xx_hal_flash.c ****    */ 
 416:../Drivers/STM32F4xx_HAL_Driver/Src/stm32f4xx_hal_flash.c **** }
 417:../Drivers/STM32F4xx_HAL_Driver/Src/stm32f4xx_hal_flash.c **** 
 418:../Drivers/STM32F4xx_HAL_Driver/Src/stm32f4xx_hal_flash.c **** /**
 419:../Drivers/STM32F4xx_HAL_Driver/Src/stm32f4xx_hal_flash.c ****   * @}
 420:../Drivers/STM32F4xx_HAL_Driver/Src/stm32f4xx_hal_flash.c ****   */
 421:../Drivers/STM32F4xx_HAL_Driver/Src/stm32f4xx_hal_flash.c **** 
 422:../Drivers/STM32F4xx_HAL_Driver/Src/stm32f4xx_hal_flash.c **** /** @defgroup FLASH_Group2 Peripheral Control functions 
 423:../Drivers/STM32F4xx_HAL_Driver/Src/stm32f4xx_hal_flash.c ****  *  @brief   management functions 
 424:../Drivers/STM32F4xx_HAL_Driver/Src/stm32f4xx_hal_flash.c ****  *
 425:../Drivers/STM32F4xx_HAL_Driver/Src/stm32f4xx_hal_flash.c **** @verbatim   
 426:../Drivers/STM32F4xx_HAL_Driver/Src/stm32f4xx_hal_flash.c ****  ===============================================================================
 427:../Drivers/STM32F4xx_HAL_Driver/Src/stm32f4xx_hal_flash.c ****                       ##### Peripheral Control functions #####
 428:../Drivers/STM32F4xx_HAL_Driver/Src/stm32f4xx_hal_flash.c ****  ===============================================================================  
 429:../Drivers/STM32F4xx_HAL_Driver/Src/stm32f4xx_hal_flash.c ****     [..]
 430:../Drivers/STM32F4xx_HAL_Driver/Src/stm32f4xx_hal_flash.c ****     This subsection provides a set of functions allowing to control the FLASH 
ARM GAS  /tmp/ccZHBLNw.s 			page 9


 431:../Drivers/STM32F4xx_HAL_Driver/Src/stm32f4xx_hal_flash.c ****     memory operations.
 432:../Drivers/STM32F4xx_HAL_Driver/Src/stm32f4xx_hal_flash.c **** 
 433:../Drivers/STM32F4xx_HAL_Driver/Src/stm32f4xx_hal_flash.c **** @endverbatim
 434:../Drivers/STM32F4xx_HAL_Driver/Src/stm32f4xx_hal_flash.c ****   * @{
 435:../Drivers/STM32F4xx_HAL_Driver/Src/stm32f4xx_hal_flash.c ****   */
 436:../Drivers/STM32F4xx_HAL_Driver/Src/stm32f4xx_hal_flash.c **** 
 437:../Drivers/STM32F4xx_HAL_Driver/Src/stm32f4xx_hal_flash.c **** /**
 438:../Drivers/STM32F4xx_HAL_Driver/Src/stm32f4xx_hal_flash.c ****   * @brief  Unlock the FLASH control register access
 439:../Drivers/STM32F4xx_HAL_Driver/Src/stm32f4xx_hal_flash.c ****   * @param  None
 440:../Drivers/STM32F4xx_HAL_Driver/Src/stm32f4xx_hal_flash.c ****   * @retval HAL Status
 441:../Drivers/STM32F4xx_HAL_Driver/Src/stm32f4xx_hal_flash.c ****   */
 442:../Drivers/STM32F4xx_HAL_Driver/Src/stm32f4xx_hal_flash.c **** HAL_StatusTypeDef HAL_FLASH_Unlock(void)
 443:../Drivers/STM32F4xx_HAL_Driver/Src/stm32f4xx_hal_flash.c **** {
 444:../Drivers/STM32F4xx_HAL_Driver/Src/stm32f4xx_hal_flash.c ****   if((FLASH->CR & FLASH_CR_LOCK) != RESET)
 445:../Drivers/STM32F4xx_HAL_Driver/Src/stm32f4xx_hal_flash.c ****   {
 446:../Drivers/STM32F4xx_HAL_Driver/Src/stm32f4xx_hal_flash.c ****     /* Authorize the FLASH Registers access */
 447:../Drivers/STM32F4xx_HAL_Driver/Src/stm32f4xx_hal_flash.c ****     FLASH->KEYR = FLASH_KEY1;
 448:../Drivers/STM32F4xx_HAL_Driver/Src/stm32f4xx_hal_flash.c ****     FLASH->KEYR = FLASH_KEY2;
 449:../Drivers/STM32F4xx_HAL_Driver/Src/stm32f4xx_hal_flash.c ****   }
 450:../Drivers/STM32F4xx_HAL_Driver/Src/stm32f4xx_hal_flash.c ****   else
 451:../Drivers/STM32F4xx_HAL_Driver/Src/stm32f4xx_hal_flash.c ****   {
 452:../Drivers/STM32F4xx_HAL_Driver/Src/stm32f4xx_hal_flash.c ****     return HAL_ERROR;
 453:../Drivers/STM32F4xx_HAL_Driver/Src/stm32f4xx_hal_flash.c ****   }
 454:../Drivers/STM32F4xx_HAL_Driver/Src/stm32f4xx_hal_flash.c ****   
 455:../Drivers/STM32F4xx_HAL_Driver/Src/stm32f4xx_hal_flash.c ****   return HAL_OK; 
 456:../Drivers/STM32F4xx_HAL_Driver/Src/stm32f4xx_hal_flash.c **** }
 457:../Drivers/STM32F4xx_HAL_Driver/Src/stm32f4xx_hal_flash.c **** 
 458:../Drivers/STM32F4xx_HAL_Driver/Src/stm32f4xx_hal_flash.c **** /**
 459:../Drivers/STM32F4xx_HAL_Driver/Src/stm32f4xx_hal_flash.c ****   * @brief  Locks the FLASH control register access
 460:../Drivers/STM32F4xx_HAL_Driver/Src/stm32f4xx_hal_flash.c ****   * @param  None
 461:../Drivers/STM32F4xx_HAL_Driver/Src/stm32f4xx_hal_flash.c ****   * @retval HAL Status
 462:../Drivers/STM32F4xx_HAL_Driver/Src/stm32f4xx_hal_flash.c ****   */
 463:../Drivers/STM32F4xx_HAL_Driver/Src/stm32f4xx_hal_flash.c **** HAL_StatusTypeDef HAL_FLASH_Lock(void)
 464:../Drivers/STM32F4xx_HAL_Driver/Src/stm32f4xx_hal_flash.c **** {
 465:../Drivers/STM32F4xx_HAL_Driver/Src/stm32f4xx_hal_flash.c ****   /* Set the LOCK Bit to lock the FLASH Registers access */
 466:../Drivers/STM32F4xx_HAL_Driver/Src/stm32f4xx_hal_flash.c ****   FLASH->CR |= FLASH_CR_LOCK;
 467:../Drivers/STM32F4xx_HAL_Driver/Src/stm32f4xx_hal_flash.c ****   
 468:../Drivers/STM32F4xx_HAL_Driver/Src/stm32f4xx_hal_flash.c ****   return HAL_OK;  
 469:../Drivers/STM32F4xx_HAL_Driver/Src/stm32f4xx_hal_flash.c **** }
 470:../Drivers/STM32F4xx_HAL_Driver/Src/stm32f4xx_hal_flash.c **** 
 471:../Drivers/STM32F4xx_HAL_Driver/Src/stm32f4xx_hal_flash.c **** 
 472:../Drivers/STM32F4xx_HAL_Driver/Src/stm32f4xx_hal_flash.c **** /**
 473:../Drivers/STM32F4xx_HAL_Driver/Src/stm32f4xx_hal_flash.c ****   * @brief  Unlock the FLASH Option Control Registers access.
 474:../Drivers/STM32F4xx_HAL_Driver/Src/stm32f4xx_hal_flash.c ****   * @param  None
 475:../Drivers/STM32F4xx_HAL_Driver/Src/stm32f4xx_hal_flash.c ****   * @retval HAL Status
 476:../Drivers/STM32F4xx_HAL_Driver/Src/stm32f4xx_hal_flash.c ****   */
 477:../Drivers/STM32F4xx_HAL_Driver/Src/stm32f4xx_hal_flash.c **** HAL_StatusTypeDef HAL_FLASH_OB_Unlock(void)
 478:../Drivers/STM32F4xx_HAL_Driver/Src/stm32f4xx_hal_flash.c **** {
 479:../Drivers/STM32F4xx_HAL_Driver/Src/stm32f4xx_hal_flash.c ****   if((FLASH->OPTCR & FLASH_OPTCR_OPTLOCK) != RESET)
 480:../Drivers/STM32F4xx_HAL_Driver/Src/stm32f4xx_hal_flash.c ****   {
 481:../Drivers/STM32F4xx_HAL_Driver/Src/stm32f4xx_hal_flash.c ****     /* Authorizes the Option Byte register programming */
 482:../Drivers/STM32F4xx_HAL_Driver/Src/stm32f4xx_hal_flash.c ****     FLASH->OPTKEYR = FLASH_OPT_KEY1;
 483:../Drivers/STM32F4xx_HAL_Driver/Src/stm32f4xx_hal_flash.c ****     FLASH->OPTKEYR = FLASH_OPT_KEY2;
 484:../Drivers/STM32F4xx_HAL_Driver/Src/stm32f4xx_hal_flash.c ****   }
 485:../Drivers/STM32F4xx_HAL_Driver/Src/stm32f4xx_hal_flash.c ****   else
 486:../Drivers/STM32F4xx_HAL_Driver/Src/stm32f4xx_hal_flash.c ****   {
 487:../Drivers/STM32F4xx_HAL_Driver/Src/stm32f4xx_hal_flash.c ****     return HAL_ERROR;
ARM GAS  /tmp/ccZHBLNw.s 			page 10


 488:../Drivers/STM32F4xx_HAL_Driver/Src/stm32f4xx_hal_flash.c ****   }  
 489:../Drivers/STM32F4xx_HAL_Driver/Src/stm32f4xx_hal_flash.c ****   
 490:../Drivers/STM32F4xx_HAL_Driver/Src/stm32f4xx_hal_flash.c ****   return HAL_OK;  
 491:../Drivers/STM32F4xx_HAL_Driver/Src/stm32f4xx_hal_flash.c **** }
 492:../Drivers/STM32F4xx_HAL_Driver/Src/stm32f4xx_hal_flash.c **** 
 493:../Drivers/STM32F4xx_HAL_Driver/Src/stm32f4xx_hal_flash.c **** /**
 494:../Drivers/STM32F4xx_HAL_Driver/Src/stm32f4xx_hal_flash.c ****   * @brief  Lock the FLASH Option Control Registers access.
 495:../Drivers/STM32F4xx_HAL_Driver/Src/stm32f4xx_hal_flash.c ****   * @param  None
 496:../Drivers/STM32F4xx_HAL_Driver/Src/stm32f4xx_hal_flash.c ****   * @retval HAL Status 
 497:../Drivers/STM32F4xx_HAL_Driver/Src/stm32f4xx_hal_flash.c ****   */
 498:../Drivers/STM32F4xx_HAL_Driver/Src/stm32f4xx_hal_flash.c **** HAL_StatusTypeDef HAL_FLASH_OB_Lock(void)
 499:../Drivers/STM32F4xx_HAL_Driver/Src/stm32f4xx_hal_flash.c **** {
 500:../Drivers/STM32F4xx_HAL_Driver/Src/stm32f4xx_hal_flash.c ****   /* Set the OPTLOCK Bit to lock the FLASH Option Byte Registers access */
 501:../Drivers/STM32F4xx_HAL_Driver/Src/stm32f4xx_hal_flash.c ****   FLASH->OPTCR |= FLASH_OPTCR_OPTLOCK;
 502:../Drivers/STM32F4xx_HAL_Driver/Src/stm32f4xx_hal_flash.c ****   
 503:../Drivers/STM32F4xx_HAL_Driver/Src/stm32f4xx_hal_flash.c ****   return HAL_OK;  
 504:../Drivers/STM32F4xx_HAL_Driver/Src/stm32f4xx_hal_flash.c **** }
 505:../Drivers/STM32F4xx_HAL_Driver/Src/stm32f4xx_hal_flash.c **** 
 506:../Drivers/STM32F4xx_HAL_Driver/Src/stm32f4xx_hal_flash.c **** /**
 507:../Drivers/STM32F4xx_HAL_Driver/Src/stm32f4xx_hal_flash.c ****   * @brief  Launch the option byte loading.
 508:../Drivers/STM32F4xx_HAL_Driver/Src/stm32f4xx_hal_flash.c ****   * @param  None
 509:../Drivers/STM32F4xx_HAL_Driver/Src/stm32f4xx_hal_flash.c ****   * @retval HAL Status
 510:../Drivers/STM32F4xx_HAL_Driver/Src/stm32f4xx_hal_flash.c ****   */
 511:../Drivers/STM32F4xx_HAL_Driver/Src/stm32f4xx_hal_flash.c **** HAL_StatusTypeDef HAL_FLASH_OB_Launch(void)
 512:../Drivers/STM32F4xx_HAL_Driver/Src/stm32f4xx_hal_flash.c **** {
 513:../Drivers/STM32F4xx_HAL_Driver/Src/stm32f4xx_hal_flash.c ****   /* Set the OPTSTRT bit in OPTCR register */
 514:../Drivers/STM32F4xx_HAL_Driver/Src/stm32f4xx_hal_flash.c ****   *(__IO uint8_t *)OPTCR_BYTE0_ADDRESS |= FLASH_OPTCR_OPTSTRT;
 515:../Drivers/STM32F4xx_HAL_Driver/Src/stm32f4xx_hal_flash.c **** 
 516:../Drivers/STM32F4xx_HAL_Driver/Src/stm32f4xx_hal_flash.c ****   /* Wait for last operation to be completed */
 517:../Drivers/STM32F4xx_HAL_Driver/Src/stm32f4xx_hal_flash.c ****   return(FLASH_WaitForLastOperation((uint32_t)HAL_FLASH_TIMEOUT_VALUE)); 
 518:../Drivers/STM32F4xx_HAL_Driver/Src/stm32f4xx_hal_flash.c **** }
 519:../Drivers/STM32F4xx_HAL_Driver/Src/stm32f4xx_hal_flash.c **** 
 520:../Drivers/STM32F4xx_HAL_Driver/Src/stm32f4xx_hal_flash.c **** /**
 521:../Drivers/STM32F4xx_HAL_Driver/Src/stm32f4xx_hal_flash.c ****   * @}
 522:../Drivers/STM32F4xx_HAL_Driver/Src/stm32f4xx_hal_flash.c ****   */
 523:../Drivers/STM32F4xx_HAL_Driver/Src/stm32f4xx_hal_flash.c **** 
 524:../Drivers/STM32F4xx_HAL_Driver/Src/stm32f4xx_hal_flash.c **** /** @defgroup FLASH_Group3 Peripheral State and Errors functions 
 525:../Drivers/STM32F4xx_HAL_Driver/Src/stm32f4xx_hal_flash.c ****  *  @brief   Peripheral Errors functions 
 526:../Drivers/STM32F4xx_HAL_Driver/Src/stm32f4xx_hal_flash.c ****  *
 527:../Drivers/STM32F4xx_HAL_Driver/Src/stm32f4xx_hal_flash.c **** @verbatim   
 528:../Drivers/STM32F4xx_HAL_Driver/Src/stm32f4xx_hal_flash.c ****  ===============================================================================
 529:../Drivers/STM32F4xx_HAL_Driver/Src/stm32f4xx_hal_flash.c ****                 ##### Peripheral Errors functions #####
 530:../Drivers/STM32F4xx_HAL_Driver/Src/stm32f4xx_hal_flash.c ****  ===============================================================================  
 531:../Drivers/STM32F4xx_HAL_Driver/Src/stm32f4xx_hal_flash.c ****     [..]
 532:../Drivers/STM32F4xx_HAL_Driver/Src/stm32f4xx_hal_flash.c ****     This subsection permits to get in run-time Errors of the FLASH peripheral.
 533:../Drivers/STM32F4xx_HAL_Driver/Src/stm32f4xx_hal_flash.c **** 
 534:../Drivers/STM32F4xx_HAL_Driver/Src/stm32f4xx_hal_flash.c **** @endverbatim
 535:../Drivers/STM32F4xx_HAL_Driver/Src/stm32f4xx_hal_flash.c ****   * @{
 536:../Drivers/STM32F4xx_HAL_Driver/Src/stm32f4xx_hal_flash.c ****   */
 537:../Drivers/STM32F4xx_HAL_Driver/Src/stm32f4xx_hal_flash.c **** 
 538:../Drivers/STM32F4xx_HAL_Driver/Src/stm32f4xx_hal_flash.c **** /**
 539:../Drivers/STM32F4xx_HAL_Driver/Src/stm32f4xx_hal_flash.c ****   * @brief  Get the specific FLASH error flag.
 540:../Drivers/STM32F4xx_HAL_Driver/Src/stm32f4xx_hal_flash.c ****   * @param  None
 541:../Drivers/STM32F4xx_HAL_Driver/Src/stm32f4xx_hal_flash.c ****   * @retval FLASH_ErrorCode: The returned value can be:
 542:../Drivers/STM32F4xx_HAL_Driver/Src/stm32f4xx_hal_flash.c ****   *            @arg FLASH_ERROR_RD: FLASH Read Protection error flag (PCROP)
 543:../Drivers/STM32F4xx_HAL_Driver/Src/stm32f4xx_hal_flash.c ****   *            @arg FLASH_ERROR_PGS: FLASH Programming Sequence error flag 
 544:../Drivers/STM32F4xx_HAL_Driver/Src/stm32f4xx_hal_flash.c ****   *            @arg FLASH_ERROR_PGP: FLASH Programming Parallelism error flag  
ARM GAS  /tmp/ccZHBLNw.s 			page 11


 545:../Drivers/STM32F4xx_HAL_Driver/Src/stm32f4xx_hal_flash.c ****   *            @arg FLASH_ERROR_PGA: FLASH Programming Alignment error flag
 546:../Drivers/STM32F4xx_HAL_Driver/Src/stm32f4xx_hal_flash.c ****   *            @arg FLASH_ERROR_WRP: FLASH Write protected error flag
 547:../Drivers/STM32F4xx_HAL_Driver/Src/stm32f4xx_hal_flash.c ****   *            @arg FLASH_ERROR_OPERATION: FLASH operation Error flag 
 548:../Drivers/STM32F4xx_HAL_Driver/Src/stm32f4xx_hal_flash.c ****   */
 549:../Drivers/STM32F4xx_HAL_Driver/Src/stm32f4xx_hal_flash.c **** FLASH_ErrorTypeDef HAL_FLASH_GetError(void)
 550:../Drivers/STM32F4xx_HAL_Driver/Src/stm32f4xx_hal_flash.c **** { 
 551:../Drivers/STM32F4xx_HAL_Driver/Src/stm32f4xx_hal_flash.c ****    return pFlash.ErrorCode;
 552:../Drivers/STM32F4xx_HAL_Driver/Src/stm32f4xx_hal_flash.c **** }  
 553:../Drivers/STM32F4xx_HAL_Driver/Src/stm32f4xx_hal_flash.c ****   
 554:../Drivers/STM32F4xx_HAL_Driver/Src/stm32f4xx_hal_flash.c **** /**
 555:../Drivers/STM32F4xx_HAL_Driver/Src/stm32f4xx_hal_flash.c ****   * @}
 556:../Drivers/STM32F4xx_HAL_Driver/Src/stm32f4xx_hal_flash.c ****   */    
 557:../Drivers/STM32F4xx_HAL_Driver/Src/stm32f4xx_hal_flash.c **** 
 558:../Drivers/STM32F4xx_HAL_Driver/Src/stm32f4xx_hal_flash.c **** /**
 559:../Drivers/STM32F4xx_HAL_Driver/Src/stm32f4xx_hal_flash.c ****   * @brief  Wait for a FLASH operation to complete.
 560:../Drivers/STM32F4xx_HAL_Driver/Src/stm32f4xx_hal_flash.c ****   * @param  Timeout: maximum flash operationtimeout
 561:../Drivers/STM32F4xx_HAL_Driver/Src/stm32f4xx_hal_flash.c ****   * @retval HAL Status
 562:../Drivers/STM32F4xx_HAL_Driver/Src/stm32f4xx_hal_flash.c ****   */
 563:../Drivers/STM32F4xx_HAL_Driver/Src/stm32f4xx_hal_flash.c **** HAL_StatusTypeDef FLASH_WaitForLastOperation(uint32_t Timeout)
 564:../Drivers/STM32F4xx_HAL_Driver/Src/stm32f4xx_hal_flash.c **** { 
 565:../Drivers/STM32F4xx_HAL_Driver/Src/stm32f4xx_hal_flash.c ****   uint32_t tickstart = 0;
 566:../Drivers/STM32F4xx_HAL_Driver/Src/stm32f4xx_hal_flash.c ****   /* Wait for the FLASH operation to complete by polling on BUSY flag to be reset.
 567:../Drivers/STM32F4xx_HAL_Driver/Src/stm32f4xx_hal_flash.c ****      Even if the FLASH operation fails, the BUSY flag will be reset and an error
 568:../Drivers/STM32F4xx_HAL_Driver/Src/stm32f4xx_hal_flash.c ****      flag will be set */
 569:../Drivers/STM32F4xx_HAL_Driver/Src/stm32f4xx_hal_flash.c ****   /* Get tick */
 570:../Drivers/STM32F4xx_HAL_Driver/Src/stm32f4xx_hal_flash.c ****   tickstart = HAL_GetTick();
 571:../Drivers/STM32F4xx_HAL_Driver/Src/stm32f4xx_hal_flash.c **** 
 572:../Drivers/STM32F4xx_HAL_Driver/Src/stm32f4xx_hal_flash.c ****   while(__HAL_FLASH_GET_FLAG(FLASH_FLAG_BSY) != RESET) 
 573:../Drivers/STM32F4xx_HAL_Driver/Src/stm32f4xx_hal_flash.c ****   { 
 574:../Drivers/STM32F4xx_HAL_Driver/Src/stm32f4xx_hal_flash.c ****     if(Timeout != HAL_MAX_DELAY)
 575:../Drivers/STM32F4xx_HAL_Driver/Src/stm32f4xx_hal_flash.c ****     {
 576:../Drivers/STM32F4xx_HAL_Driver/Src/stm32f4xx_hal_flash.c ****       if((Timeout == 0)||((HAL_GetTick() - tickstart ) > Timeout))
 577:../Drivers/STM32F4xx_HAL_Driver/Src/stm32f4xx_hal_flash.c ****       {
 578:../Drivers/STM32F4xx_HAL_Driver/Src/stm32f4xx_hal_flash.c ****         return HAL_TIMEOUT;
 579:../Drivers/STM32F4xx_HAL_Driver/Src/stm32f4xx_hal_flash.c ****       }
 580:../Drivers/STM32F4xx_HAL_Driver/Src/stm32f4xx_hal_flash.c ****     } 
 581:../Drivers/STM32F4xx_HAL_Driver/Src/stm32f4xx_hal_flash.c ****   }
 582:../Drivers/STM32F4xx_HAL_Driver/Src/stm32f4xx_hal_flash.c ****   
 583:../Drivers/STM32F4xx_HAL_Driver/Src/stm32f4xx_hal_flash.c ****   if(__HAL_FLASH_GET_FLAG((FLASH_FLAG_OPERR | FLASH_FLAG_WRPERR | FLASH_FLAG_PGAERR | \
 584:../Drivers/STM32F4xx_HAL_Driver/Src/stm32f4xx_hal_flash.c ****                            FLASH_FLAG_PGPERR | FLASH_FLAG_PGSERR | FLASH_FLAG_RDERR)) != RESET)
 585:../Drivers/STM32F4xx_HAL_Driver/Src/stm32f4xx_hal_flash.c ****   {
 586:../Drivers/STM32F4xx_HAL_Driver/Src/stm32f4xx_hal_flash.c ****     /*Save the error code*/
 587:../Drivers/STM32F4xx_HAL_Driver/Src/stm32f4xx_hal_flash.c ****     FLASH_SetErrorCode();
 588:../Drivers/STM32F4xx_HAL_Driver/Src/stm32f4xx_hal_flash.c ****     return HAL_ERROR;
 589:../Drivers/STM32F4xx_HAL_Driver/Src/stm32f4xx_hal_flash.c ****   }
 590:../Drivers/STM32F4xx_HAL_Driver/Src/stm32f4xx_hal_flash.c **** 
 591:../Drivers/STM32F4xx_HAL_Driver/Src/stm32f4xx_hal_flash.c ****   /* If there is an error flag set */
 592:../Drivers/STM32F4xx_HAL_Driver/Src/stm32f4xx_hal_flash.c ****   return HAL_OK;
 593:../Drivers/STM32F4xx_HAL_Driver/Src/stm32f4xx_hal_flash.c ****   
 594:../Drivers/STM32F4xx_HAL_Driver/Src/stm32f4xx_hal_flash.c **** }  
 595:../Drivers/STM32F4xx_HAL_Driver/Src/stm32f4xx_hal_flash.c **** 
 596:../Drivers/STM32F4xx_HAL_Driver/Src/stm32f4xx_hal_flash.c **** /**
 597:../Drivers/STM32F4xx_HAL_Driver/Src/stm32f4xx_hal_flash.c ****   * @brief  Program a double word (64-bit) at a specified address.
 598:../Drivers/STM32F4xx_HAL_Driver/Src/stm32f4xx_hal_flash.c ****   * @note   This function must be used when the device voltage range is from
 599:../Drivers/STM32F4xx_HAL_Driver/Src/stm32f4xx_hal_flash.c ****   *         2.7V to 3.6V and an External Vpp is present.
 600:../Drivers/STM32F4xx_HAL_Driver/Src/stm32f4xx_hal_flash.c ****   *
 601:../Drivers/STM32F4xx_HAL_Driver/Src/stm32f4xx_hal_flash.c ****   * @note   If an erase and a program operations are requested simultaneously,    
ARM GAS  /tmp/ccZHBLNw.s 			page 12


 602:../Drivers/STM32F4xx_HAL_Driver/Src/stm32f4xx_hal_flash.c ****   *         the erase operation is performed before the program one.
 603:../Drivers/STM32F4xx_HAL_Driver/Src/stm32f4xx_hal_flash.c ****   *  
 604:../Drivers/STM32F4xx_HAL_Driver/Src/stm32f4xx_hal_flash.c ****   * @param  Address: specifies the address to be programmed.
 605:../Drivers/STM32F4xx_HAL_Driver/Src/stm32f4xx_hal_flash.c ****   * @param  Data: specifies the data to be programmed.
 606:../Drivers/STM32F4xx_HAL_Driver/Src/stm32f4xx_hal_flash.c ****   * @retval None
 607:../Drivers/STM32F4xx_HAL_Driver/Src/stm32f4xx_hal_flash.c ****   */
 608:../Drivers/STM32F4xx_HAL_Driver/Src/stm32f4xx_hal_flash.c **** static void FLASH_Program_DoubleWord(uint32_t Address, uint64_t Data)
 609:../Drivers/STM32F4xx_HAL_Driver/Src/stm32f4xx_hal_flash.c **** {
  28              		.loc 1 609 0
  29              		.cfi_startproc
  30              		@ args = 0, pretend = 0, frame = 0
  31              		@ frame_needed = 0, uses_anonymous_args = 0
  32              		@ link register save eliminated.
  33              	.LVL0:
  34 0000 10B4     		push	{r4}
  35              	.LCFI0:
  36              		.cfi_def_cfa_offset 4
  37              		.cfi_offset 4, -4
 610:../Drivers/STM32F4xx_HAL_Driver/Src/stm32f4xx_hal_flash.c ****   /* Check the parameters */
 611:../Drivers/STM32F4xx_HAL_Driver/Src/stm32f4xx_hal_flash.c ****   assert_param(IS_FLASH_ADDRESS(Address));
 612:../Drivers/STM32F4xx_HAL_Driver/Src/stm32f4xx_hal_flash.c ****   
 613:../Drivers/STM32F4xx_HAL_Driver/Src/stm32f4xx_hal_flash.c ****   /* If the previous operation is completed, proceed to program the new data */
 614:../Drivers/STM32F4xx_HAL_Driver/Src/stm32f4xx_hal_flash.c ****   FLASH->CR &= CR_PSIZE_MASK;
  38              		.loc 1 614 0
  39 0002 0949     		ldr	r1, .L3
  40 0004 0C69     		ldr	r4, [r1, #16]
  41 0006 24F44074 		bic	r4, r4, #768
  42 000a 0C61     		str	r4, [r1, #16]
 615:../Drivers/STM32F4xx_HAL_Driver/Src/stm32f4xx_hal_flash.c ****   FLASH->CR |= FLASH_PSIZE_DOUBLE_WORD;
  43              		.loc 1 615 0
  44 000c 0C69     		ldr	r4, [r1, #16]
  45 000e 44F44074 		orr	r4, r4, #768
  46 0012 0C61     		str	r4, [r1, #16]
 616:../Drivers/STM32F4xx_HAL_Driver/Src/stm32f4xx_hal_flash.c ****   FLASH->CR |= FLASH_CR_PG;
  47              		.loc 1 616 0
  48 0014 0C69     		ldr	r4, [r1, #16]
  49 0016 44F00104 		orr	r4, r4, #1
  50 001a 0C61     		str	r4, [r1, #16]
 617:../Drivers/STM32F4xx_HAL_Driver/Src/stm32f4xx_hal_flash.c **** 
 618:../Drivers/STM32F4xx_HAL_Driver/Src/stm32f4xx_hal_flash.c ****   *(__IO uint64_t*)Address = Data;
  51              		.loc 1 618 0
  52 001c C0E90023 		strd	r2, [r0]
 619:../Drivers/STM32F4xx_HAL_Driver/Src/stm32f4xx_hal_flash.c **** }
  53              		.loc 1 619 0
  54 0020 5DF8044B 		ldr	r4, [sp], #4
  55              	.LCFI1:
  56              		.cfi_restore 4
  57              		.cfi_def_cfa_offset 0
  58 0024 7047     		bx	lr
  59              	.L4:
  60 0026 00BF     		.align	2
  61              	.L3:
  62 0028 003C0240 		.word	1073888256
  63              		.cfi_endproc
  64              	.LFE124:
  66              		.section	.text.FLASH_Program_Word,"ax",%progbits
  67              		.align	2
ARM GAS  /tmp/ccZHBLNw.s 			page 13


  68              		.thumb
  69              		.thumb_func
  71              	FLASH_Program_Word:
  72              	.LFB125:
 620:../Drivers/STM32F4xx_HAL_Driver/Src/stm32f4xx_hal_flash.c **** 
 621:../Drivers/STM32F4xx_HAL_Driver/Src/stm32f4xx_hal_flash.c **** 
 622:../Drivers/STM32F4xx_HAL_Driver/Src/stm32f4xx_hal_flash.c **** /**
 623:../Drivers/STM32F4xx_HAL_Driver/Src/stm32f4xx_hal_flash.c ****   * @brief  Program word (32-bit) at a specified address.
 624:../Drivers/STM32F4xx_HAL_Driver/Src/stm32f4xx_hal_flash.c ****   * @note   This function must be used when the device voltage range is from
 625:../Drivers/STM32F4xx_HAL_Driver/Src/stm32f4xx_hal_flash.c ****   *         2.7V to 3.6V.
 626:../Drivers/STM32F4xx_HAL_Driver/Src/stm32f4xx_hal_flash.c ****   *
 627:../Drivers/STM32F4xx_HAL_Driver/Src/stm32f4xx_hal_flash.c ****   * @note   If an erase and a program operations are requested simultaneously,    
 628:../Drivers/STM32F4xx_HAL_Driver/Src/stm32f4xx_hal_flash.c ****   *         the erase operation is performed before the program one.
 629:../Drivers/STM32F4xx_HAL_Driver/Src/stm32f4xx_hal_flash.c ****   *  
 630:../Drivers/STM32F4xx_HAL_Driver/Src/stm32f4xx_hal_flash.c ****   * @param  Address: specifies the address to be programmed.
 631:../Drivers/STM32F4xx_HAL_Driver/Src/stm32f4xx_hal_flash.c ****   * @param  Data: specifies the data to be programmed.
 632:../Drivers/STM32F4xx_HAL_Driver/Src/stm32f4xx_hal_flash.c ****   * @retval None
 633:../Drivers/STM32F4xx_HAL_Driver/Src/stm32f4xx_hal_flash.c ****   */
 634:../Drivers/STM32F4xx_HAL_Driver/Src/stm32f4xx_hal_flash.c **** static void FLASH_Program_Word(uint32_t Address, uint32_t Data)
 635:../Drivers/STM32F4xx_HAL_Driver/Src/stm32f4xx_hal_flash.c **** {
  73              		.loc 1 635 0
  74              		.cfi_startproc
  75              		@ args = 0, pretend = 0, frame = 0
  76              		@ frame_needed = 0, uses_anonymous_args = 0
  77              		@ link register save eliminated.
  78              	.LVL1:
 636:../Drivers/STM32F4xx_HAL_Driver/Src/stm32f4xx_hal_flash.c ****   /* Check the parameters */
 637:../Drivers/STM32F4xx_HAL_Driver/Src/stm32f4xx_hal_flash.c ****   assert_param(IS_FLASH_ADDRESS(Address));
 638:../Drivers/STM32F4xx_HAL_Driver/Src/stm32f4xx_hal_flash.c ****   
 639:../Drivers/STM32F4xx_HAL_Driver/Src/stm32f4xx_hal_flash.c ****   /* If the previous operation is completed, proceed to program the new data */
 640:../Drivers/STM32F4xx_HAL_Driver/Src/stm32f4xx_hal_flash.c ****   FLASH->CR &= CR_PSIZE_MASK;
  79              		.loc 1 640 0
  80 0000 074B     		ldr	r3, .L6
  81 0002 1A69     		ldr	r2, [r3, #16]
  82 0004 22F44072 		bic	r2, r2, #768
  83 0008 1A61     		str	r2, [r3, #16]
 641:../Drivers/STM32F4xx_HAL_Driver/Src/stm32f4xx_hal_flash.c ****   FLASH->CR |= FLASH_PSIZE_WORD;
  84              		.loc 1 641 0
  85 000a 1A69     		ldr	r2, [r3, #16]
  86 000c 42F40072 		orr	r2, r2, #512
  87 0010 1A61     		str	r2, [r3, #16]
 642:../Drivers/STM32F4xx_HAL_Driver/Src/stm32f4xx_hal_flash.c ****   FLASH->CR |= FLASH_CR_PG;
  88              		.loc 1 642 0
  89 0012 1A69     		ldr	r2, [r3, #16]
  90 0014 42F00102 		orr	r2, r2, #1
  91 0018 1A61     		str	r2, [r3, #16]
 643:../Drivers/STM32F4xx_HAL_Driver/Src/stm32f4xx_hal_flash.c **** 
 644:../Drivers/STM32F4xx_HAL_Driver/Src/stm32f4xx_hal_flash.c ****   *(__IO uint32_t*)Address = Data;
  92              		.loc 1 644 0
  93 001a 0160     		str	r1, [r0]
  94 001c 7047     		bx	lr
  95              	.L7:
  96 001e 00BF     		.align	2
  97              	.L6:
  98 0020 003C0240 		.word	1073888256
  99              		.cfi_endproc
 100              	.LFE125:
ARM GAS  /tmp/ccZHBLNw.s 			page 14


 102              		.section	.text.FLASH_Program_HalfWord,"ax",%progbits
 103              		.align	2
 104              		.thumb
 105              		.thumb_func
 107              	FLASH_Program_HalfWord:
 108              	.LFB126:
 645:../Drivers/STM32F4xx_HAL_Driver/Src/stm32f4xx_hal_flash.c **** }
 646:../Drivers/STM32F4xx_HAL_Driver/Src/stm32f4xx_hal_flash.c **** 
 647:../Drivers/STM32F4xx_HAL_Driver/Src/stm32f4xx_hal_flash.c **** /**
 648:../Drivers/STM32F4xx_HAL_Driver/Src/stm32f4xx_hal_flash.c ****   * @brief  Program a half-word (16-bit) at a specified address.
 649:../Drivers/STM32F4xx_HAL_Driver/Src/stm32f4xx_hal_flash.c ****   * @note   This function must be used when the device voltage range is from
 650:../Drivers/STM32F4xx_HAL_Driver/Src/stm32f4xx_hal_flash.c ****   *         2.7V to 3.6V.
 651:../Drivers/STM32F4xx_HAL_Driver/Src/stm32f4xx_hal_flash.c ****   *
 652:../Drivers/STM32F4xx_HAL_Driver/Src/stm32f4xx_hal_flash.c ****   * @note   If an erase and a program operations are requested simultaneously,    
 653:../Drivers/STM32F4xx_HAL_Driver/Src/stm32f4xx_hal_flash.c ****   *         the erase operation is performed before the program one.
 654:../Drivers/STM32F4xx_HAL_Driver/Src/stm32f4xx_hal_flash.c ****   *  
 655:../Drivers/STM32F4xx_HAL_Driver/Src/stm32f4xx_hal_flash.c ****   * @param  Address: specifies the address to be programmed.
 656:../Drivers/STM32F4xx_HAL_Driver/Src/stm32f4xx_hal_flash.c ****   * @param  Data: specifies the data to be programmed.
 657:../Drivers/STM32F4xx_HAL_Driver/Src/stm32f4xx_hal_flash.c ****   * @retval None
 658:../Drivers/STM32F4xx_HAL_Driver/Src/stm32f4xx_hal_flash.c ****   */
 659:../Drivers/STM32F4xx_HAL_Driver/Src/stm32f4xx_hal_flash.c **** static void FLASH_Program_HalfWord(uint32_t Address, uint16_t Data)
 660:../Drivers/STM32F4xx_HAL_Driver/Src/stm32f4xx_hal_flash.c **** {
 109              		.loc 1 660 0
 110              		.cfi_startproc
 111              		@ args = 0, pretend = 0, frame = 0
 112              		@ frame_needed = 0, uses_anonymous_args = 0
 113              		@ link register save eliminated.
 114              	.LVL2:
 661:../Drivers/STM32F4xx_HAL_Driver/Src/stm32f4xx_hal_flash.c ****   /* Check the parameters */
 662:../Drivers/STM32F4xx_HAL_Driver/Src/stm32f4xx_hal_flash.c ****   assert_param(IS_FLASH_ADDRESS(Address));
 663:../Drivers/STM32F4xx_HAL_Driver/Src/stm32f4xx_hal_flash.c ****   
 664:../Drivers/STM32F4xx_HAL_Driver/Src/stm32f4xx_hal_flash.c ****   /* If the previous operation is completed, proceed to program the new data */
 665:../Drivers/STM32F4xx_HAL_Driver/Src/stm32f4xx_hal_flash.c ****   FLASH->CR &= CR_PSIZE_MASK;
 115              		.loc 1 665 0
 116 0000 074B     		ldr	r3, .L9
 117 0002 1A69     		ldr	r2, [r3, #16]
 118 0004 22F44072 		bic	r2, r2, #768
 119 0008 1A61     		str	r2, [r3, #16]
 666:../Drivers/STM32F4xx_HAL_Driver/Src/stm32f4xx_hal_flash.c ****   FLASH->CR |= FLASH_PSIZE_HALF_WORD;
 120              		.loc 1 666 0
 121 000a 1A69     		ldr	r2, [r3, #16]
 122 000c 42F48072 		orr	r2, r2, #256
 123 0010 1A61     		str	r2, [r3, #16]
 667:../Drivers/STM32F4xx_HAL_Driver/Src/stm32f4xx_hal_flash.c ****   FLASH->CR |= FLASH_CR_PG;
 124              		.loc 1 667 0
 125 0012 1A69     		ldr	r2, [r3, #16]
 126 0014 42F00102 		orr	r2, r2, #1
 127 0018 1A61     		str	r2, [r3, #16]
 668:../Drivers/STM32F4xx_HAL_Driver/Src/stm32f4xx_hal_flash.c **** 
 669:../Drivers/STM32F4xx_HAL_Driver/Src/stm32f4xx_hal_flash.c ****   *(__IO uint16_t*)Address = Data;
 128              		.loc 1 669 0
 129 001a 0180     		strh	r1, [r0]	@ movhi
 130 001c 7047     		bx	lr
 131              	.L10:
 132 001e 00BF     		.align	2
 133              	.L9:
 134 0020 003C0240 		.word	1073888256
ARM GAS  /tmp/ccZHBLNw.s 			page 15


 135              		.cfi_endproc
 136              	.LFE126:
 138              		.section	.text.FLASH_Program_Byte,"ax",%progbits
 139              		.align	2
 140              		.thumb
 141              		.thumb_func
 143              	FLASH_Program_Byte:
 144              	.LFB127:
 670:../Drivers/STM32F4xx_HAL_Driver/Src/stm32f4xx_hal_flash.c **** }
 671:../Drivers/STM32F4xx_HAL_Driver/Src/stm32f4xx_hal_flash.c **** 
 672:../Drivers/STM32F4xx_HAL_Driver/Src/stm32f4xx_hal_flash.c **** /**
 673:../Drivers/STM32F4xx_HAL_Driver/Src/stm32f4xx_hal_flash.c ****   * @brief  Program byte (8-bit) at a specified address.
 674:../Drivers/STM32F4xx_HAL_Driver/Src/stm32f4xx_hal_flash.c ****   * @note   This function must be used when the device voltage range is from
 675:../Drivers/STM32F4xx_HAL_Driver/Src/stm32f4xx_hal_flash.c ****   *         2.7V to 3.6V.
 676:../Drivers/STM32F4xx_HAL_Driver/Src/stm32f4xx_hal_flash.c ****   *
 677:../Drivers/STM32F4xx_HAL_Driver/Src/stm32f4xx_hal_flash.c ****   * @note   If an erase and a program operations are requested simultaneously,    
 678:../Drivers/STM32F4xx_HAL_Driver/Src/stm32f4xx_hal_flash.c ****   *         the erase operation is performed before the program one.
 679:../Drivers/STM32F4xx_HAL_Driver/Src/stm32f4xx_hal_flash.c ****   *  
 680:../Drivers/STM32F4xx_HAL_Driver/Src/stm32f4xx_hal_flash.c ****   * @param  Address: specifies the address to be programmed.
 681:../Drivers/STM32F4xx_HAL_Driver/Src/stm32f4xx_hal_flash.c ****   * @param  Data: specifies the data to be programmed.
 682:../Drivers/STM32F4xx_HAL_Driver/Src/stm32f4xx_hal_flash.c ****   * @retval None
 683:../Drivers/STM32F4xx_HAL_Driver/Src/stm32f4xx_hal_flash.c ****   */
 684:../Drivers/STM32F4xx_HAL_Driver/Src/stm32f4xx_hal_flash.c **** static void FLASH_Program_Byte(uint32_t Address, uint8_t Data)
 685:../Drivers/STM32F4xx_HAL_Driver/Src/stm32f4xx_hal_flash.c **** {
 145              		.loc 1 685 0
 146              		.cfi_startproc
 147              		@ args = 0, pretend = 0, frame = 0
 148              		@ frame_needed = 0, uses_anonymous_args = 0
 149              		@ link register save eliminated.
 150              	.LVL3:
 686:../Drivers/STM32F4xx_HAL_Driver/Src/stm32f4xx_hal_flash.c ****   /* Check the parameters */
 687:../Drivers/STM32F4xx_HAL_Driver/Src/stm32f4xx_hal_flash.c ****   assert_param(IS_FLASH_ADDRESS(Address));
 688:../Drivers/STM32F4xx_HAL_Driver/Src/stm32f4xx_hal_flash.c ****   
 689:../Drivers/STM32F4xx_HAL_Driver/Src/stm32f4xx_hal_flash.c ****   /* If the previous operation is completed, proceed to program the new data */
 690:../Drivers/STM32F4xx_HAL_Driver/Src/stm32f4xx_hal_flash.c ****   FLASH->CR &= CR_PSIZE_MASK;
 151              		.loc 1 690 0
 152 0000 064B     		ldr	r3, .L12
 153 0002 1A69     		ldr	r2, [r3, #16]
 154 0004 22F44072 		bic	r2, r2, #768
 155 0008 1A61     		str	r2, [r3, #16]
 691:../Drivers/STM32F4xx_HAL_Driver/Src/stm32f4xx_hal_flash.c ****   FLASH->CR |= FLASH_PSIZE_BYTE;
 156              		.loc 1 691 0
 157 000a 1A69     		ldr	r2, [r3, #16]
 158 000c 1A61     		str	r2, [r3, #16]
 692:../Drivers/STM32F4xx_HAL_Driver/Src/stm32f4xx_hal_flash.c ****   FLASH->CR |= FLASH_CR_PG;
 159              		.loc 1 692 0
 160 000e 1A69     		ldr	r2, [r3, #16]
 161 0010 42F00102 		orr	r2, r2, #1
 162 0014 1A61     		str	r2, [r3, #16]
 693:../Drivers/STM32F4xx_HAL_Driver/Src/stm32f4xx_hal_flash.c **** 
 694:../Drivers/STM32F4xx_HAL_Driver/Src/stm32f4xx_hal_flash.c ****   *(__IO uint8_t*)Address = Data;
 163              		.loc 1 694 0
 164 0016 0170     		strb	r1, [r0]
 165 0018 7047     		bx	lr
 166              	.L13:
 167 001a 00BF     		.align	2
 168              	.L12:
ARM GAS  /tmp/ccZHBLNw.s 			page 16


 169 001c 003C0240 		.word	1073888256
 170              		.cfi_endproc
 171              	.LFE127:
 173              		.section	.text.FLASH_SetErrorCode,"ax",%progbits
 174              		.align	2
 175              		.thumb
 176              		.thumb_func
 178              	FLASH_SetErrorCode:
 179              	.LFB128:
 695:../Drivers/STM32F4xx_HAL_Driver/Src/stm32f4xx_hal_flash.c **** }
 696:../Drivers/STM32F4xx_HAL_Driver/Src/stm32f4xx_hal_flash.c **** 
 697:../Drivers/STM32F4xx_HAL_Driver/Src/stm32f4xx_hal_flash.c **** /**
 698:../Drivers/STM32F4xx_HAL_Driver/Src/stm32f4xx_hal_flash.c ****   * @brief  Set the specific FLASH error flag.
 699:../Drivers/STM32F4xx_HAL_Driver/Src/stm32f4xx_hal_flash.c ****   * @param  None
 700:../Drivers/STM32F4xx_HAL_Driver/Src/stm32f4xx_hal_flash.c ****   * @retval None
 701:../Drivers/STM32F4xx_HAL_Driver/Src/stm32f4xx_hal_flash.c ****   */
 702:../Drivers/STM32F4xx_HAL_Driver/Src/stm32f4xx_hal_flash.c **** static void FLASH_SetErrorCode(void)
 703:../Drivers/STM32F4xx_HAL_Driver/Src/stm32f4xx_hal_flash.c **** { 
 180              		.loc 1 703 0
 181              		.cfi_startproc
 182              		@ args = 0, pretend = 0, frame = 0
 183              		@ frame_needed = 0, uses_anonymous_args = 0
 184              		@ link register save eliminated.
 704:../Drivers/STM32F4xx_HAL_Driver/Src/stm32f4xx_hal_flash.c ****   if(__HAL_FLASH_GET_FLAG(FLASH_FLAG_WRPERR) != RESET)
 185              		.loc 1 704 0
 186 0000 1D4B     		ldr	r3, .L21
 187 0002 DB68     		ldr	r3, [r3, #12]
 188 0004 13F0100F 		tst	r3, #16
 189 0008 02D0     		beq	.L15
 705:../Drivers/STM32F4xx_HAL_Driver/Src/stm32f4xx_hal_flash.c ****   {
 706:../Drivers/STM32F4xx_HAL_Driver/Src/stm32f4xx_hal_flash.c ****    pFlash.ErrorCode = FLASH_ERROR_WRP;
 190              		.loc 1 706 0
 191 000a 1022     		movs	r2, #16
 192 000c 1B4B     		ldr	r3, .L21+4
 193 000e 5A76     		strb	r2, [r3, #25]
 194              	.L15:
 707:../Drivers/STM32F4xx_HAL_Driver/Src/stm32f4xx_hal_flash.c ****   }
 708:../Drivers/STM32F4xx_HAL_Driver/Src/stm32f4xx_hal_flash.c ****   
 709:../Drivers/STM32F4xx_HAL_Driver/Src/stm32f4xx_hal_flash.c ****   if(__HAL_FLASH_GET_FLAG(FLASH_FLAG_PGAERR) != RESET)
 195              		.loc 1 709 0
 196 0010 194B     		ldr	r3, .L21
 197 0012 DB68     		ldr	r3, [r3, #12]
 198 0014 13F0200F 		tst	r3, #32
 199 0018 04D0     		beq	.L16
 710:../Drivers/STM32F4xx_HAL_Driver/Src/stm32f4xx_hal_flash.c ****   {
 711:../Drivers/STM32F4xx_HAL_Driver/Src/stm32f4xx_hal_flash.c ****    pFlash.ErrorCode |= FLASH_ERROR_PGA;
 200              		.loc 1 711 0
 201 001a 184A     		ldr	r2, .L21+4
 202 001c 537E     		ldrb	r3, [r2, #25]	@ zero_extendqisi2
 203 001e 43F00803 		orr	r3, r3, #8
 204 0022 5376     		strb	r3, [r2, #25]
 205              	.L16:
 712:../Drivers/STM32F4xx_HAL_Driver/Src/stm32f4xx_hal_flash.c ****   }
 713:../Drivers/STM32F4xx_HAL_Driver/Src/stm32f4xx_hal_flash.c ****   
 714:../Drivers/STM32F4xx_HAL_Driver/Src/stm32f4xx_hal_flash.c ****   if(__HAL_FLASH_GET_FLAG(FLASH_FLAG_PGPERR) != RESET)
 206              		.loc 1 714 0
 207 0024 144B     		ldr	r3, .L21
ARM GAS  /tmp/ccZHBLNw.s 			page 17


 208 0026 DB68     		ldr	r3, [r3, #12]
 209 0028 13F0400F 		tst	r3, #64
 210 002c 04D0     		beq	.L17
 715:../Drivers/STM32F4xx_HAL_Driver/Src/stm32f4xx_hal_flash.c ****   {
 716:../Drivers/STM32F4xx_HAL_Driver/Src/stm32f4xx_hal_flash.c ****     pFlash.ErrorCode |= FLASH_ERROR_PGP;
 211              		.loc 1 716 0
 212 002e 134A     		ldr	r2, .L21+4
 213 0030 537E     		ldrb	r3, [r2, #25]	@ zero_extendqisi2
 214 0032 43F00403 		orr	r3, r3, #4
 215 0036 5376     		strb	r3, [r2, #25]
 216              	.L17:
 717:../Drivers/STM32F4xx_HAL_Driver/Src/stm32f4xx_hal_flash.c ****   }
 718:../Drivers/STM32F4xx_HAL_Driver/Src/stm32f4xx_hal_flash.c ****   
 719:../Drivers/STM32F4xx_HAL_Driver/Src/stm32f4xx_hal_flash.c ****   if(__HAL_FLASH_GET_FLAG(FLASH_FLAG_PGSERR) != RESET)
 217              		.loc 1 719 0
 218 0038 0F4B     		ldr	r3, .L21
 219 003a DB68     		ldr	r3, [r3, #12]
 220 003c 13F0800F 		tst	r3, #128
 221 0040 04D0     		beq	.L18
 720:../Drivers/STM32F4xx_HAL_Driver/Src/stm32f4xx_hal_flash.c ****   {
 721:../Drivers/STM32F4xx_HAL_Driver/Src/stm32f4xx_hal_flash.c ****     pFlash.ErrorCode |= FLASH_ERROR_PGS;
 222              		.loc 1 721 0
 223 0042 0E4A     		ldr	r2, .L21+4
 224 0044 537E     		ldrb	r3, [r2, #25]	@ zero_extendqisi2
 225 0046 43F00203 		orr	r3, r3, #2
 226 004a 5376     		strb	r3, [r2, #25]
 227              	.L18:
 722:../Drivers/STM32F4xx_HAL_Driver/Src/stm32f4xx_hal_flash.c ****   }
 723:../Drivers/STM32F4xx_HAL_Driver/Src/stm32f4xx_hal_flash.c ****   
 724:../Drivers/STM32F4xx_HAL_Driver/Src/stm32f4xx_hal_flash.c ****   if(__HAL_FLASH_GET_FLAG(FLASH_FLAG_RDERR) != RESET)
 228              		.loc 1 724 0
 229 004c 0A4B     		ldr	r3, .L21
 230 004e DB68     		ldr	r3, [r3, #12]
 231 0050 13F4807F 		tst	r3, #256
 232 0054 04D0     		beq	.L19
 725:../Drivers/STM32F4xx_HAL_Driver/Src/stm32f4xx_hal_flash.c ****   {
 726:../Drivers/STM32F4xx_HAL_Driver/Src/stm32f4xx_hal_flash.c ****     pFlash.ErrorCode |= FLASH_ERROR_RD;
 233              		.loc 1 726 0
 234 0056 094A     		ldr	r2, .L21+4
 235 0058 537E     		ldrb	r3, [r2, #25]	@ zero_extendqisi2
 236 005a 43F00103 		orr	r3, r3, #1
 237 005e 5376     		strb	r3, [r2, #25]
 238              	.L19:
 727:../Drivers/STM32F4xx_HAL_Driver/Src/stm32f4xx_hal_flash.c ****   }
 728:../Drivers/STM32F4xx_HAL_Driver/Src/stm32f4xx_hal_flash.c ****   
 729:../Drivers/STM32F4xx_HAL_Driver/Src/stm32f4xx_hal_flash.c ****   if(__HAL_FLASH_GET_FLAG(FLASH_FLAG_OPERR) != RESET)
 239              		.loc 1 729 0
 240 0060 054B     		ldr	r3, .L21
 241 0062 DB68     		ldr	r3, [r3, #12]
 242 0064 13F0020F 		tst	r3, #2
 243 0068 04D0     		beq	.L14
 730:../Drivers/STM32F4xx_HAL_Driver/Src/stm32f4xx_hal_flash.c ****   {
 731:../Drivers/STM32F4xx_HAL_Driver/Src/stm32f4xx_hal_flash.c ****     pFlash.ErrorCode |= FLASH_ERROR_OPERATION;
 244              		.loc 1 731 0
 245 006a 044A     		ldr	r2, .L21+4
 246 006c 537E     		ldrb	r3, [r2, #25]	@ zero_extendqisi2
 247 006e 43F02003 		orr	r3, r3, #32
ARM GAS  /tmp/ccZHBLNw.s 			page 18


 248 0072 5376     		strb	r3, [r2, #25]
 249              	.L14:
 250 0074 7047     		bx	lr
 251              	.L22:
 252 0076 00BF     		.align	2
 253              	.L21:
 254 0078 003C0240 		.word	1073888256
 255 007c 00000000 		.word	pFlash
 256              		.cfi_endproc
 257              	.LFE128:
 259              		.section	.text.HAL_FLASH_Program_IT,"ax",%progbits
 260              		.align	2
 261              		.global	HAL_FLASH_Program_IT
 262              		.thumb
 263              		.thumb_func
 265              	HAL_FLASH_Program_IT:
 266              	.LFB113:
 218:../Drivers/STM32F4xx_HAL_Driver/Src/stm32f4xx_hal_flash.c ****   HAL_StatusTypeDef status = HAL_OK;
 267              		.loc 1 218 0
 268              		.cfi_startproc
 269              		@ args = 0, pretend = 0, frame = 0
 270              		@ frame_needed = 0, uses_anonymous_args = 0
 271              	.LVL4:
 272 0000 70B5     		push	{r4, r5, r6, lr}
 273              	.LCFI2:
 274              		.cfi_def_cfa_offset 16
 275              		.cfi_offset 4, -16
 276              		.cfi_offset 5, -12
 277              		.cfi_offset 6, -8
 278              		.cfi_offset 14, -4
 279              	.LVL5:
 222:../Drivers/STM32F4xx_HAL_Driver/Src/stm32f4xx_hal_flash.c **** 
 280              		.loc 1 222 0
 281 0002 194C     		ldr	r4, .L30
 282 0004 247E     		ldrb	r4, [r4, #24]	@ zero_extendqisi2
 283 0006 012C     		cmp	r4, #1
 284 0008 2CD0     		beq	.L28
 222:../Drivers/STM32F4xx_HAL_Driver/Src/stm32f4xx_hal_flash.c **** 
 285              		.loc 1 222 0 is_stmt 0 discriminator 2
 286 000a 174D     		ldr	r5, .L30
 287 000c 0124     		movs	r4, #1
 288 000e 2C76     		strb	r4, [r5, #24]
 228:../Drivers/STM32F4xx_HAL_Driver/Src/stm32f4xx_hal_flash.c ****   
 289              		.loc 1 228 0 is_stmt 1 discriminator 2
 290 0010 164C     		ldr	r4, .L30+4
 291 0012 2669     		ldr	r6, [r4, #16]
 292 0014 46F08076 		orr	r6, r6, #16777216
 293 0018 2661     		str	r6, [r4, #16]
 231:../Drivers/STM32F4xx_HAL_Driver/Src/stm32f4xx_hal_flash.c ****   
 294              		.loc 1 231 0 discriminator 2
 295 001a 2669     		ldr	r6, [r4, #16]
 296 001c 46F00076 		orr	r6, r6, #33554432
 297 0020 2661     		str	r6, [r4, #16]
 234:../Drivers/STM32F4xx_HAL_Driver/Src/stm32f4xx_hal_flash.c ****                          FLASH_FLAG_PGAERR | FLASH_FLAG_PGPERR| FLASH_FLAG_PGSERR);  
 298              		.loc 1 234 0 discriminator 2
 299 0022 F326     		movs	r6, #243
 300 0024 E660     		str	r6, [r4, #12]
ARM GAS  /tmp/ccZHBLNw.s 			page 19


 237:../Drivers/STM32F4xx_HAL_Driver/Src/stm32f4xx_hal_flash.c ****   pFlash.Address = Address;
 301              		.loc 1 237 0 discriminator 2
 302 0026 0324     		movs	r4, #3
 303 0028 2C70     		strb	r4, [r5]
 238:../Drivers/STM32F4xx_HAL_Driver/Src/stm32f4xx_hal_flash.c **** 
 304              		.loc 1 238 0 discriminator 2
 305 002a 6961     		str	r1, [r5, #20]
 240:../Drivers/STM32F4xx_HAL_Driver/Src/stm32f4xx_hal_flash.c ****   {
 306              		.loc 1 240 0 discriminator 2
 307 002c 28B9     		cbnz	r0, .L25
 243:../Drivers/STM32F4xx_HAL_Driver/Src/stm32f4xx_hal_flash.c ****   }
 308              		.loc 1 243 0
 309 002e 0846     		mov	r0, r1
 310              	.LVL6:
 311 0030 D1B2     		uxtb	r1, r2
 312              	.LVL7:
 313 0032 FFF7FEFF 		bl	FLASH_Program_Byte
 314              	.LVL8:
 261:../Drivers/STM32F4xx_HAL_Driver/Src/stm32f4xx_hal_flash.c **** }
 315              		.loc 1 261 0
 316 0036 0020     		movs	r0, #0
 317 0038 70BD     		pop	{r4, r5, r6, pc}
 318              	.LVL9:
 319              	.L25:
 245:../Drivers/STM32F4xx_HAL_Driver/Src/stm32f4xx_hal_flash.c ****   {
 320              		.loc 1 245 0
 321 003a 0128     		cmp	r0, #1
 322 003c 05D1     		bne	.L26
 248:../Drivers/STM32F4xx_HAL_Driver/Src/stm32f4xx_hal_flash.c ****   }
 323              		.loc 1 248 0
 324 003e 0846     		mov	r0, r1
 325              	.LVL10:
 326 0040 91B2     		uxth	r1, r2
 327              	.LVL11:
 328 0042 FFF7FEFF 		bl	FLASH_Program_HalfWord
 329              	.LVL12:
 261:../Drivers/STM32F4xx_HAL_Driver/Src/stm32f4xx_hal_flash.c **** }
 330              		.loc 1 261 0
 331 0046 0020     		movs	r0, #0
 332 0048 70BD     		pop	{r4, r5, r6, pc}
 333              	.LVL13:
 334              	.L26:
 250:../Drivers/STM32F4xx_HAL_Driver/Src/stm32f4xx_hal_flash.c ****   {
 335              		.loc 1 250 0
 336 004a 0228     		cmp	r0, #2
 337 004c 05D1     		bne	.L27
 253:../Drivers/STM32F4xx_HAL_Driver/Src/stm32f4xx_hal_flash.c ****   }
 338              		.loc 1 253 0
 339 004e 0846     		mov	r0, r1
 340              	.LVL14:
 341 0050 1146     		mov	r1, r2
 342              	.LVL15:
 343 0052 FFF7FEFF 		bl	FLASH_Program_Word
 344              	.LVL16:
 261:../Drivers/STM32F4xx_HAL_Driver/Src/stm32f4xx_hal_flash.c **** }
 345              		.loc 1 261 0
 346 0056 0020     		movs	r0, #0
ARM GAS  /tmp/ccZHBLNw.s 			page 20


 347 0058 70BD     		pop	{r4, r5, r6, pc}
 348              	.LVL17:
 349              	.L27:
 258:../Drivers/STM32F4xx_HAL_Driver/Src/stm32f4xx_hal_flash.c ****   }
 350              		.loc 1 258 0
 351 005a 0846     		mov	r0, r1
 352              	.LVL18:
 353 005c FFF7FEFF 		bl	FLASH_Program_DoubleWord
 354              	.LVL19:
 261:../Drivers/STM32F4xx_HAL_Driver/Src/stm32f4xx_hal_flash.c **** }
 355              		.loc 1 261 0
 356 0060 0020     		movs	r0, #0
 357 0062 70BD     		pop	{r4, r5, r6, pc}
 358              	.LVL20:
 359              	.L28:
 222:../Drivers/STM32F4xx_HAL_Driver/Src/stm32f4xx_hal_flash.c **** 
 360              		.loc 1 222 0
 361 0064 0220     		movs	r0, #2
 362              	.LVL21:
 262:../Drivers/STM32F4xx_HAL_Driver/Src/stm32f4xx_hal_flash.c **** 
 363              		.loc 1 262 0
 364 0066 70BD     		pop	{r4, r5, r6, pc}
 365              	.L31:
 366              		.align	2
 367              	.L30:
 368 0068 00000000 		.word	pFlash
 369 006c 003C0240 		.word	1073888256
 370              		.cfi_endproc
 371              	.LFE113:
 373              		.section	.text.HAL_FLASH_EndOfOperationCallback,"ax",%progbits
 374              		.align	2
 375              		.weak	HAL_FLASH_EndOfOperationCallback
 376              		.thumb
 377              		.thumb_func
 379              	HAL_FLASH_EndOfOperationCallback:
 380              	.LFB115:
 397:../Drivers/STM32F4xx_HAL_Driver/Src/stm32f4xx_hal_flash.c ****   /* NOTE : This function Should not be modified, when the callback is needed,
 381              		.loc 1 397 0
 382              		.cfi_startproc
 383              		@ args = 0, pretend = 0, frame = 0
 384              		@ frame_needed = 0, uses_anonymous_args = 0
 385              		@ link register save eliminated.
 386              	.LVL22:
 387 0000 7047     		bx	lr
 388              		.cfi_endproc
 389              	.LFE115:
 391 0002 00BF     		.section	.text.HAL_FLASH_OperationErrorCallback,"ax",%progbits
 392              		.align	2
 393              		.weak	HAL_FLASH_OperationErrorCallback
 394              		.thumb
 395              		.thumb_func
 397              	HAL_FLASH_OperationErrorCallback:
 398              	.LFB116:
 412:../Drivers/STM32F4xx_HAL_Driver/Src/stm32f4xx_hal_flash.c ****   /* NOTE : This function Should not be modified, when the callback is needed,
 399              		.loc 1 412 0
 400              		.cfi_startproc
 401              		@ args = 0, pretend = 0, frame = 0
ARM GAS  /tmp/ccZHBLNw.s 			page 21


 402              		@ frame_needed = 0, uses_anonymous_args = 0
 403              		@ link register save eliminated.
 404              	.LVL23:
 405 0000 7047     		bx	lr
 406              		.cfi_endproc
 407              	.LFE116:
 409 0002 00BF     		.section	.text.HAL_FLASH_IRQHandler,"ax",%progbits
 410              		.align	2
 411              		.global	HAL_FLASH_IRQHandler
 412              		.thumb
 413              		.thumb_func
 415              	HAL_FLASH_IRQHandler:
 416              	.LFB114:
 270:../Drivers/STM32F4xx_HAL_Driver/Src/stm32f4xx_hal_flash.c ****   uint32_t temp;
 417              		.loc 1 270 0
 418              		.cfi_startproc
 419              		@ args = 0, pretend = 0, frame = 0
 420              		@ frame_needed = 0, uses_anonymous_args = 0
 270:../Drivers/STM32F4xx_HAL_Driver/Src/stm32f4xx_hal_flash.c ****   uint32_t temp;
 421              		.loc 1 270 0
 422 0000 10B5     		push	{r4, lr}
 423              	.LCFI3:
 424              		.cfi_def_cfa_offset 8
 425              		.cfi_offset 4, -8
 426              		.cfi_offset 14, -4
 274:../Drivers/STM32F4xx_HAL_Driver/Src/stm32f4xx_hal_flash.c **** 
 427              		.loc 1 274 0
 428 0002 434B     		ldr	r3, .L46
 429 0004 1A69     		ldr	r2, [r3, #16]
 430 0006 22F00102 		bic	r2, r2, #1
 431 000a 1A61     		str	r2, [r3, #16]
 277:../Drivers/STM32F4xx_HAL_Driver/Src/stm32f4xx_hal_flash.c ****   FLASH->CR &= SECTOR_MASK; 
 432              		.loc 1 277 0
 433 000c 1A69     		ldr	r2, [r3, #16]
 434 000e 22F00202 		bic	r2, r2, #2
 435 0012 1A61     		str	r2, [r3, #16]
 278:../Drivers/STM32F4xx_HAL_Driver/Src/stm32f4xx_hal_flash.c **** 
 436              		.loc 1 278 0
 437 0014 1A69     		ldr	r2, [r3, #16]
 438 0016 22F0F802 		bic	r2, r2, #248
 439 001a 1A61     		str	r2, [r3, #16]
 281:../Drivers/STM32F4xx_HAL_Driver/Src/stm32f4xx_hal_flash.c **** 
 440              		.loc 1 281 0
 441 001c 1A69     		ldr	r2, [r3, #16]
 442 001e 22F00402 		bic	r2, r2, #4
 443 0022 1A61     		str	r2, [r3, #16]
 284:../Drivers/STM32F4xx_HAL_Driver/Src/stm32f4xx_hal_flash.c ****   {
 444              		.loc 1 284 0
 445 0024 DB68     		ldr	r3, [r3, #12]
 446 0026 13F0010F 		tst	r3, #1
 447 002a 38D0     		beq	.L35
 286:../Drivers/STM32F4xx_HAL_Driver/Src/stm32f4xx_hal_flash.c ****     {
 448              		.loc 1 286 0
 449 002c 394B     		ldr	r3, .L46+4
 450 002e 1B78     		ldrb	r3, [r3]	@ zero_extendqisi2
 451 0030 DBB2     		uxtb	r3, r3
 452 0032 012B     		cmp	r3, #1
ARM GAS  /tmp/ccZHBLNw.s 			page 22


 453 0034 1FD1     		bne	.L36
 289:../Drivers/STM32F4xx_HAL_Driver/Src/stm32f4xx_hal_flash.c **** 
 454              		.loc 1 289 0
 455 0036 374B     		ldr	r3, .L46+4
 456 0038 5A68     		ldr	r2, [r3, #4]
 457 003a 013A     		subs	r2, r2, #1
 458 003c 5A60     		str	r2, [r3, #4]
 292:../Drivers/STM32F4xx_HAL_Driver/Src/stm32f4xx_hal_flash.c ****       {
 459              		.loc 1 292 0
 460 003e 5B68     		ldr	r3, [r3, #4]
 461 0040 6BB1     		cbz	r3, .L37
 294:../Drivers/STM32F4xx_HAL_Driver/Src/stm32f4xx_hal_flash.c ****         /*Indicate user which sector has been erased*/
 462              		.loc 1 294 0
 463 0042 344C     		ldr	r4, .L46+4
 464 0044 E068     		ldr	r0, [r4, #12]
 465              	.LVL24:
 296:../Drivers/STM32F4xx_HAL_Driver/Src/stm32f4xx_hal_flash.c **** 
 466              		.loc 1 296 0
 467 0046 FFF7FEFF 		bl	HAL_FLASH_EndOfOperationCallback
 468              	.LVL25:
 299:../Drivers/STM32F4xx_HAL_Driver/Src/stm32f4xx_hal_flash.c ****          FLASH_FLAG_PGAERR | FLASH_FLAG_PGPERR| FLASH_FLAG_PGSERR);  
 469              		.loc 1 299 0
 470 004a F322     		movs	r2, #243
 471 004c 304B     		ldr	r3, .L46
 472 004e DA60     		str	r2, [r3, #12]
 303:../Drivers/STM32F4xx_HAL_Driver/Src/stm32f4xx_hal_flash.c ****         FLASH_Erase_Sector(temp, pFlash.VoltageForErase);
 473              		.loc 1 303 0
 474 0050 E068     		ldr	r0, [r4, #12]
 475 0052 0130     		adds	r0, r0, #1
 476 0054 E060     		str	r0, [r4, #12]
 477              	.LVL26:
 304:../Drivers/STM32F4xx_HAL_Driver/Src/stm32f4xx_hal_flash.c ****       }
 478              		.loc 1 304 0
 479 0056 217A     		ldrb	r1, [r4, #8]	@ zero_extendqisi2
 480 0058 FFF7FEFF 		bl	FLASH_Erase_Sector
 481              	.LVL27:
 482 005c 1FE0     		b	.L35
 483              	.L37:
 484              	.LVL28:
 310:../Drivers/STM32F4xx_HAL_Driver/Src/stm32f4xx_hal_flash.c ****         pFlash.ProcedureOnGoing = FLASH_PROC_NONE;
 485              		.loc 1 310 0
 486 005e 2D4B     		ldr	r3, .L46+4
 487 0060 4FF0FF30 		mov	r0, #-1
 488 0064 D860     		str	r0, [r3, #12]
 311:../Drivers/STM32F4xx_HAL_Driver/Src/stm32f4xx_hal_flash.c ****         /* FLASH EOP interrupt user callback */
 489              		.loc 1 311 0
 490 0066 0022     		movs	r2, #0
 491 0068 1A70     		strb	r2, [r3]
 313:../Drivers/STM32F4xx_HAL_Driver/Src/stm32f4xx_hal_flash.c ****         /* Clear FLASH End of Operation pending bit */
 492              		.loc 1 313 0
 493 006a FFF7FEFF 		bl	HAL_FLASH_EndOfOperationCallback
 494              	.LVL29:
 315:../Drivers/STM32F4xx_HAL_Driver/Src/stm32f4xx_hal_flash.c ****       }
 495              		.loc 1 315 0
 496 006e 0122     		movs	r2, #1
 497 0070 274B     		ldr	r3, .L46
 498 0072 DA60     		str	r2, [r3, #12]
ARM GAS  /tmp/ccZHBLNw.s 			page 23


 499 0074 13E0     		b	.L35
 500              	.LVL30:
 501              	.L36:
 320:../Drivers/STM32F4xx_HAL_Driver/Src/stm32f4xx_hal_flash.c ****       {
 502              		.loc 1 320 0
 503 0076 274B     		ldr	r3, .L46+4
 504 0078 1B78     		ldrb	r3, [r3]	@ zero_extendqisi2
 505 007a DBB2     		uxtb	r3, r3
 506 007c 022B     		cmp	r3, #2
 507 007e 04D1     		bne	.L38
 324:../Drivers/STM32F4xx_HAL_Driver/Src/stm32f4xx_hal_flash.c ****       }
 508              		.loc 1 324 0
 509 0080 244B     		ldr	r3, .L46+4
 510 0082 1869     		ldr	r0, [r3, #16]
 511 0084 FFF7FEFF 		bl	HAL_FLASH_EndOfOperationCallback
 512              	.LVL31:
 513 0088 03E0     		b	.L39
 514              	.L38:
 330:../Drivers/STM32F4xx_HAL_Driver/Src/stm32f4xx_hal_flash.c ****       }
 515              		.loc 1 330 0
 516 008a 224B     		ldr	r3, .L46+4
 517 008c 5869     		ldr	r0, [r3, #20]
 518 008e FFF7FEFF 		bl	HAL_FLASH_EndOfOperationCallback
 519              	.LVL32:
 520              	.L39:
 332:../Drivers/STM32F4xx_HAL_Driver/Src/stm32f4xx_hal_flash.c ****       /* Clear FLASH End of Operation pending bit */
 521              		.loc 1 332 0
 522 0092 0022     		movs	r2, #0
 523 0094 1F4B     		ldr	r3, .L46+4
 524 0096 1A70     		strb	r2, [r3]
 334:../Drivers/STM32F4xx_HAL_Driver/Src/stm32f4xx_hal_flash.c ****     }
 525              		.loc 1 334 0
 526 0098 0122     		movs	r2, #1
 527 009a 1D4B     		ldr	r3, .L46
 528 009c DA60     		str	r2, [r3, #12]
 529              	.L35:
 340:../Drivers/STM32F4xx_HAL_Driver/Src/stm32f4xx_hal_flash.c ****                            FLASH_FLAG_PGPERR | FLASH_FLAG_PGSERR | FLASH_FLAG_RDERR)) != RESET)
 530              		.loc 1 340 0
 531 009e 1C4B     		ldr	r3, .L46
 532 00a0 DB68     		ldr	r3, [r3, #12]
 533 00a2 13F4F97F 		tst	r3, #498
 534 00a6 20D0     		beq	.L40
 343:../Drivers/STM32F4xx_HAL_Driver/Src/stm32f4xx_hal_flash.c ****     {
 535              		.loc 1 343 0
 536 00a8 1A4B     		ldr	r3, .L46+4
 537 00aa 1B78     		ldrb	r3, [r3]	@ zero_extendqisi2
 538 00ac DBB2     		uxtb	r3, r3
 539 00ae 012B     		cmp	r3, #1
 540 00b0 05D1     		bne	.L41
 346:../Drivers/STM32F4xx_HAL_Driver/Src/stm32f4xx_hal_flash.c ****       pFlash.Sector = 0xFFFFFFFF;
 541              		.loc 1 346 0
 542 00b2 184B     		ldr	r3, .L46+4
 543 00b4 DC68     		ldr	r4, [r3, #12]
 544              	.LVL33:
 347:../Drivers/STM32F4xx_HAL_Driver/Src/stm32f4xx_hal_flash.c ****     }
 545              		.loc 1 347 0
 546 00b6 4FF0FF32 		mov	r2, #-1
ARM GAS  /tmp/ccZHBLNw.s 			page 24


 547 00ba DA60     		str	r2, [r3, #12]
 548 00bc 09E0     		b	.L42
 549              	.LVL34:
 550              	.L41:
 349:../Drivers/STM32F4xx_HAL_Driver/Src/stm32f4xx_hal_flash.c ****     {
 551              		.loc 1 349 0
 552 00be 154B     		ldr	r3, .L46+4
 553 00c0 1B78     		ldrb	r3, [r3]	@ zero_extendqisi2
 554 00c2 DBB2     		uxtb	r3, r3
 555 00c4 022B     		cmp	r3, #2
 556 00c6 02D1     		bne	.L43
 352:../Drivers/STM32F4xx_HAL_Driver/Src/stm32f4xx_hal_flash.c ****     }
 557              		.loc 1 352 0
 558 00c8 124B     		ldr	r3, .L46+4
 559 00ca 1C69     		ldr	r4, [r3, #16]
 560              	.LVL35:
 561 00cc 01E0     		b	.L42
 562              	.LVL36:
 563              	.L43:
 357:../Drivers/STM32F4xx_HAL_Driver/Src/stm32f4xx_hal_flash.c ****     }
 564              		.loc 1 357 0
 565 00ce 114B     		ldr	r3, .L46+4
 566 00d0 5C69     		ldr	r4, [r3, #20]
 567              	.LVL37:
 568              	.L42:
 361:../Drivers/STM32F4xx_HAL_Driver/Src/stm32f4xx_hal_flash.c **** 
 569              		.loc 1 361 0
 570 00d2 FFF7FEFF 		bl	FLASH_SetErrorCode
 571              	.LVL38:
 364:../Drivers/STM32F4xx_HAL_Driver/Src/stm32f4xx_hal_flash.c ****     /* Clear FLASH error pending bits */
 572              		.loc 1 364 0
 573 00d6 2046     		mov	r0, r4
 574 00d8 FFF7FEFF 		bl	HAL_FLASH_OperationErrorCallback
 575              	.LVL39:
 366:../Drivers/STM32F4xx_HAL_Driver/Src/stm32f4xx_hal_flash.c ****                            FLASH_FLAG_PGPERR | FLASH_FLAG_PGSERR | FLASH_FLAG_RDERR);
 576              		.loc 1 366 0
 577 00dc 4FF4F972 		mov	r2, #498
 578 00e0 0B4B     		ldr	r3, .L46
 579 00e2 DA60     		str	r2, [r3, #12]
 370:../Drivers/STM32F4xx_HAL_Driver/Src/stm32f4xx_hal_flash.c ****   }
 580              		.loc 1 370 0
 581 00e4 0022     		movs	r2, #0
 582 00e6 0B4B     		ldr	r3, .L46+4
 583 00e8 1A70     		strb	r2, [r3]
 584              	.LVL40:
 585              	.L40:
 373:../Drivers/STM32F4xx_HAL_Driver/Src/stm32f4xx_hal_flash.c ****   {
 586              		.loc 1 373 0
 587 00ea 0A4B     		ldr	r3, .L46+4
 588 00ec 1B78     		ldrb	r3, [r3]	@ zero_extendqisi2
 589 00ee 13F0FF0F 		tst	r3, #255
 590 00f2 0BD1     		bne	.L34
 376:../Drivers/STM32F4xx_HAL_Driver/Src/stm32f4xx_hal_flash.c **** 
 591              		.loc 1 376 0
 592 00f4 064B     		ldr	r3, .L46
 593 00f6 1A69     		ldr	r2, [r3, #16]
 594 00f8 22F08072 		bic	r2, r2, #16777216
ARM GAS  /tmp/ccZHBLNw.s 			page 25


 595 00fc 1A61     		str	r2, [r3, #16]
 379:../Drivers/STM32F4xx_HAL_Driver/Src/stm32f4xx_hal_flash.c **** 
 596              		.loc 1 379 0
 597 00fe 1A69     		ldr	r2, [r3, #16]
 598 0100 22F00072 		bic	r2, r2, #33554432
 599 0104 1A61     		str	r2, [r3, #16]
 382:../Drivers/STM32F4xx_HAL_Driver/Src/stm32f4xx_hal_flash.c ****   }
 600              		.loc 1 382 0
 601 0106 0022     		movs	r2, #0
 602 0108 024B     		ldr	r3, .L46+4
 603 010a 1A76     		strb	r2, [r3, #24]
 604              	.L34:
 605 010c 10BD     		pop	{r4, pc}
 606              	.L47:
 607 010e 00BF     		.align	2
 608              	.L46:
 609 0110 003C0240 		.word	1073888256
 610 0114 00000000 		.word	pFlash
 611              		.cfi_endproc
 612              	.LFE114:
 614              		.section	.text.HAL_FLASH_Unlock,"ax",%progbits
 615              		.align	2
 616              		.global	HAL_FLASH_Unlock
 617              		.thumb
 618              		.thumb_func
 620              	HAL_FLASH_Unlock:
 621              	.LFB117:
 443:../Drivers/STM32F4xx_HAL_Driver/Src/stm32f4xx_hal_flash.c ****   if((FLASH->CR & FLASH_CR_LOCK) != RESET)
 622              		.loc 1 443 0
 623              		.cfi_startproc
 624              		@ args = 0, pretend = 0, frame = 0
 625              		@ frame_needed = 0, uses_anonymous_args = 0
 626              		@ link register save eliminated.
 444:../Drivers/STM32F4xx_HAL_Driver/Src/stm32f4xx_hal_flash.c ****   {
 627              		.loc 1 444 0
 628 0000 064B     		ldr	r3, .L51
 629 0002 1B69     		ldr	r3, [r3, #16]
 630 0004 002B     		cmp	r3, #0
 631 0006 07DA     		bge	.L50
 447:../Drivers/STM32F4xx_HAL_Driver/Src/stm32f4xx_hal_flash.c ****     FLASH->KEYR = FLASH_KEY2;
 632              		.loc 1 447 0
 633 0008 044B     		ldr	r3, .L51
 634 000a 054A     		ldr	r2, .L51+4
 635 000c 5A60     		str	r2, [r3, #4]
 448:../Drivers/STM32F4xx_HAL_Driver/Src/stm32f4xx_hal_flash.c ****   }
 636              		.loc 1 448 0
 637 000e 02F18832 		add	r2, r2, #-2004318072
 638 0012 5A60     		str	r2, [r3, #4]
 455:../Drivers/STM32F4xx_HAL_Driver/Src/stm32f4xx_hal_flash.c **** }
 639              		.loc 1 455 0
 640 0014 0020     		movs	r0, #0
 641 0016 7047     		bx	lr
 642              	.L50:
 452:../Drivers/STM32F4xx_HAL_Driver/Src/stm32f4xx_hal_flash.c ****   }
 643              		.loc 1 452 0
 644 0018 0120     		movs	r0, #1
 456:../Drivers/STM32F4xx_HAL_Driver/Src/stm32f4xx_hal_flash.c **** 
ARM GAS  /tmp/ccZHBLNw.s 			page 26


 645              		.loc 1 456 0
 646 001a 7047     		bx	lr
 647              	.L52:
 648              		.align	2
 649              	.L51:
 650 001c 003C0240 		.word	1073888256
 651 0020 23016745 		.word	1164378403
 652              		.cfi_endproc
 653              	.LFE117:
 655              		.section	.text.HAL_FLASH_Lock,"ax",%progbits
 656              		.align	2
 657              		.global	HAL_FLASH_Lock
 658              		.thumb
 659              		.thumb_func
 661              	HAL_FLASH_Lock:
 662              	.LFB118:
 464:../Drivers/STM32F4xx_HAL_Driver/Src/stm32f4xx_hal_flash.c ****   /* Set the LOCK Bit to lock the FLASH Registers access */
 663              		.loc 1 464 0
 664              		.cfi_startproc
 665              		@ args = 0, pretend = 0, frame = 0
 666              		@ frame_needed = 0, uses_anonymous_args = 0
 667              		@ link register save eliminated.
 466:../Drivers/STM32F4xx_HAL_Driver/Src/stm32f4xx_hal_flash.c ****   
 668              		.loc 1 466 0
 669 0000 034A     		ldr	r2, .L54
 670 0002 1369     		ldr	r3, [r2, #16]
 671 0004 43F00043 		orr	r3, r3, #-2147483648
 672 0008 1361     		str	r3, [r2, #16]
 469:../Drivers/STM32F4xx_HAL_Driver/Src/stm32f4xx_hal_flash.c **** 
 673              		.loc 1 469 0
 674 000a 0020     		movs	r0, #0
 675 000c 7047     		bx	lr
 676              	.L55:
 677 000e 00BF     		.align	2
 678              	.L54:
 679 0010 003C0240 		.word	1073888256
 680              		.cfi_endproc
 681              	.LFE118:
 683              		.section	.text.HAL_FLASH_OB_Unlock,"ax",%progbits
 684              		.align	2
 685              		.global	HAL_FLASH_OB_Unlock
 686              		.thumb
 687              		.thumb_func
 689              	HAL_FLASH_OB_Unlock:
 690              	.LFB119:
 478:../Drivers/STM32F4xx_HAL_Driver/Src/stm32f4xx_hal_flash.c ****   if((FLASH->OPTCR & FLASH_OPTCR_OPTLOCK) != RESET)
 691              		.loc 1 478 0
 692              		.cfi_startproc
 693              		@ args = 0, pretend = 0, frame = 0
 694              		@ frame_needed = 0, uses_anonymous_args = 0
 695              		@ link register save eliminated.
 479:../Drivers/STM32F4xx_HAL_Driver/Src/stm32f4xx_hal_flash.c ****   {
 696              		.loc 1 479 0
 697 0000 074B     		ldr	r3, .L59
 698 0002 5B69     		ldr	r3, [r3, #20]
 699 0004 13F0010F 		tst	r3, #1
 700 0008 07D0     		beq	.L58
ARM GAS  /tmp/ccZHBLNw.s 			page 27


 482:../Drivers/STM32F4xx_HAL_Driver/Src/stm32f4xx_hal_flash.c ****     FLASH->OPTKEYR = FLASH_OPT_KEY2;
 701              		.loc 1 482 0
 702 000a 054B     		ldr	r3, .L59
 703 000c 054A     		ldr	r2, .L59+4
 704 000e 9A60     		str	r2, [r3, #8]
 483:../Drivers/STM32F4xx_HAL_Driver/Src/stm32f4xx_hal_flash.c ****   }
 705              		.loc 1 483 0
 706 0010 02F14432 		add	r2, r2, #1145324612
 707 0014 9A60     		str	r2, [r3, #8]
 490:../Drivers/STM32F4xx_HAL_Driver/Src/stm32f4xx_hal_flash.c **** }
 708              		.loc 1 490 0
 709 0016 0020     		movs	r0, #0
 710 0018 7047     		bx	lr
 711              	.L58:
 487:../Drivers/STM32F4xx_HAL_Driver/Src/stm32f4xx_hal_flash.c ****   }  
 712              		.loc 1 487 0
 713 001a 0120     		movs	r0, #1
 491:../Drivers/STM32F4xx_HAL_Driver/Src/stm32f4xx_hal_flash.c **** 
 714              		.loc 1 491 0
 715 001c 7047     		bx	lr
 716              	.L60:
 717 001e 00BF     		.align	2
 718              	.L59:
 719 0020 003C0240 		.word	1073888256
 720 0024 3B2A1908 		.word	135866939
 721              		.cfi_endproc
 722              	.LFE119:
 724              		.section	.text.HAL_FLASH_OB_Lock,"ax",%progbits
 725              		.align	2
 726              		.global	HAL_FLASH_OB_Lock
 727              		.thumb
 728              		.thumb_func
 730              	HAL_FLASH_OB_Lock:
 731              	.LFB120:
 499:../Drivers/STM32F4xx_HAL_Driver/Src/stm32f4xx_hal_flash.c ****   /* Set the OPTLOCK Bit to lock the FLASH Option Byte Registers access */
 732              		.loc 1 499 0
 733              		.cfi_startproc
 734              		@ args = 0, pretend = 0, frame = 0
 735              		@ frame_needed = 0, uses_anonymous_args = 0
 736              		@ link register save eliminated.
 501:../Drivers/STM32F4xx_HAL_Driver/Src/stm32f4xx_hal_flash.c ****   
 737              		.loc 1 501 0
 738 0000 034A     		ldr	r2, .L62
 739 0002 5369     		ldr	r3, [r2, #20]
 740 0004 43F00103 		orr	r3, r3, #1
 741 0008 5361     		str	r3, [r2, #20]
 504:../Drivers/STM32F4xx_HAL_Driver/Src/stm32f4xx_hal_flash.c **** 
 742              		.loc 1 504 0
 743 000a 0020     		movs	r0, #0
 744 000c 7047     		bx	lr
 745              	.L63:
 746 000e 00BF     		.align	2
 747              	.L62:
 748 0010 003C0240 		.word	1073888256
 749              		.cfi_endproc
 750              	.LFE120:
 752              		.section	.text.HAL_FLASH_GetError,"ax",%progbits
ARM GAS  /tmp/ccZHBLNw.s 			page 28


 753              		.align	2
 754              		.global	HAL_FLASH_GetError
 755              		.thumb
 756              		.thumb_func
 758              	HAL_FLASH_GetError:
 759              	.LFB122:
 550:../Drivers/STM32F4xx_HAL_Driver/Src/stm32f4xx_hal_flash.c ****    return pFlash.ErrorCode;
 760              		.loc 1 550 0
 761              		.cfi_startproc
 762              		@ args = 0, pretend = 0, frame = 0
 763              		@ frame_needed = 0, uses_anonymous_args = 0
 764              		@ link register save eliminated.
 551:../Drivers/STM32F4xx_HAL_Driver/Src/stm32f4xx_hal_flash.c **** }  
 765              		.loc 1 551 0
 766 0000 014B     		ldr	r3, .L65
 767 0002 587E     		ldrb	r0, [r3, #25]	@ zero_extendqisi2
 552:../Drivers/STM32F4xx_HAL_Driver/Src/stm32f4xx_hal_flash.c ****   
 768              		.loc 1 552 0
 769 0004 7047     		bx	lr
 770              	.L66:
 771 0006 00BF     		.align	2
 772              	.L65:
 773 0008 00000000 		.word	pFlash
 774              		.cfi_endproc
 775              	.LFE122:
 777              		.section	.text.FLASH_WaitForLastOperation,"ax",%progbits
 778              		.align	2
 779              		.global	FLASH_WaitForLastOperation
 780              		.thumb
 781              		.thumb_func
 783              	FLASH_WaitForLastOperation:
 784              	.LFB123:
 564:../Drivers/STM32F4xx_HAL_Driver/Src/stm32f4xx_hal_flash.c ****   uint32_t tickstart = 0;
 785              		.loc 1 564 0
 786              		.cfi_startproc
 787              		@ args = 0, pretend = 0, frame = 0
 788              		@ frame_needed = 0, uses_anonymous_args = 0
 789              	.LVL41:
 790 0000 38B5     		push	{r3, r4, r5, lr}
 791              	.LCFI4:
 792              		.cfi_def_cfa_offset 16
 793              		.cfi_offset 3, -16
 794              		.cfi_offset 4, -12
 795              		.cfi_offset 5, -8
 796              		.cfi_offset 14, -4
 797 0002 0446     		mov	r4, r0
 798              	.LVL42:
 570:../Drivers/STM32F4xx_HAL_Driver/Src/stm32f4xx_hal_flash.c **** 
 799              		.loc 1 570 0
 800 0004 FFF7FEFF 		bl	HAL_GetTick
 801              	.LVL43:
 802 0008 0546     		mov	r5, r0
 803              	.LVL44:
 572:../Drivers/STM32F4xx_HAL_Driver/Src/stm32f4xx_hal_flash.c ****   { 
 804              		.loc 1 572 0
 805 000a 08E0     		b	.L69
 806              	.LVL45:
ARM GAS  /tmp/ccZHBLNw.s 			page 29


 807              	.L71:
 574:../Drivers/STM32F4xx_HAL_Driver/Src/stm32f4xx_hal_flash.c ****     {
 808              		.loc 1 574 0
 809 000c B4F1FF3F 		cmp	r4, #-1
 810 0010 05D0     		beq	.L69
 576:../Drivers/STM32F4xx_HAL_Driver/Src/stm32f4xx_hal_flash.c ****       {
 811              		.loc 1 576 0
 812 0012 94B1     		cbz	r4, .L72
 576:../Drivers/STM32F4xx_HAL_Driver/Src/stm32f4xx_hal_flash.c ****       {
 813              		.loc 1 576 0 is_stmt 0 discriminator 1
 814 0014 FFF7FEFF 		bl	HAL_GetTick
 815              	.LVL46:
 816 0018 401B     		subs	r0, r0, r5
 817 001a A042     		cmp	r0, r4
 818 001c 0FD8     		bhi	.L73
 819              	.L69:
 572:../Drivers/STM32F4xx_HAL_Driver/Src/stm32f4xx_hal_flash.c ****   { 
 820              		.loc 1 572 0 is_stmt 1
 821 001e 0A4B     		ldr	r3, .L76
 822 0020 DB68     		ldr	r3, [r3, #12]
 823 0022 13F4803F 		tst	r3, #65536
 824 0026 F1D1     		bne	.L71
 583:../Drivers/STM32F4xx_HAL_Driver/Src/stm32f4xx_hal_flash.c ****                            FLASH_FLAG_PGPERR | FLASH_FLAG_PGSERR | FLASH_FLAG_RDERR)) != RESET)
 825              		.loc 1 583 0
 826 0028 074B     		ldr	r3, .L76
 827 002a DB68     		ldr	r3, [r3, #12]
 828 002c 13F4F97F 		tst	r3, #498
 829 0030 07D0     		beq	.L74
 587:../Drivers/STM32F4xx_HAL_Driver/Src/stm32f4xx_hal_flash.c ****     return HAL_ERROR;
 830              		.loc 1 587 0
 831 0032 FFF7FEFF 		bl	FLASH_SetErrorCode
 832              	.LVL47:
 588:../Drivers/STM32F4xx_HAL_Driver/Src/stm32f4xx_hal_flash.c ****   }
 833              		.loc 1 588 0
 834 0036 0120     		movs	r0, #1
 835 0038 38BD     		pop	{r3, r4, r5, pc}
 836              	.LVL48:
 837              	.L72:
 578:../Drivers/STM32F4xx_HAL_Driver/Src/stm32f4xx_hal_flash.c ****       }
 838              		.loc 1 578 0
 839 003a 0320     		movs	r0, #3
 840 003c 38BD     		pop	{r3, r4, r5, pc}
 841              	.LVL49:
 842              	.L73:
 843 003e 0320     		movs	r0, #3
 844 0040 38BD     		pop	{r3, r4, r5, pc}
 845              	.LVL50:
 846              	.L74:
 592:../Drivers/STM32F4xx_HAL_Driver/Src/stm32f4xx_hal_flash.c ****   
 847              		.loc 1 592 0
 848 0042 0020     		movs	r0, #0
 594:../Drivers/STM32F4xx_HAL_Driver/Src/stm32f4xx_hal_flash.c **** 
 849              		.loc 1 594 0
 850 0044 38BD     		pop	{r3, r4, r5, pc}
 851              	.LVL51:
 852              	.L77:
 853 0046 00BF     		.align	2
ARM GAS  /tmp/ccZHBLNw.s 			page 30


 854              	.L76:
 855 0048 003C0240 		.word	1073888256
 856              		.cfi_endproc
 857              	.LFE123:
 859              		.section	.text.HAL_FLASH_Program,"ax",%progbits
 860              		.align	2
 861              		.global	HAL_FLASH_Program
 862              		.thumb
 863              		.thumb_func
 865              	HAL_FLASH_Program:
 866              	.LFB112:
 160:../Drivers/STM32F4xx_HAL_Driver/Src/stm32f4xx_hal_flash.c ****   HAL_StatusTypeDef status = HAL_ERROR;
 867              		.loc 1 160 0
 868              		.cfi_startproc
 869              		@ args = 0, pretend = 0, frame = 0
 870              		@ frame_needed = 0, uses_anonymous_args = 0
 871              	.LVL52:
 872 0000 F8B5     		push	{r3, r4, r5, r6, r7, lr}
 873              	.LCFI5:
 874              		.cfi_def_cfa_offset 24
 875              		.cfi_offset 3, -24
 876              		.cfi_offset 4, -20
 877              		.cfi_offset 5, -16
 878              		.cfi_offset 6, -12
 879              		.cfi_offset 7, -8
 880              		.cfi_offset 14, -4
 881 0002 1F46     		mov	r7, r3
 882              	.LVL53:
 164:../Drivers/STM32F4xx_HAL_Driver/Src/stm32f4xx_hal_flash.c **** 
 883              		.loc 1 164 0
 884 0004 1C4B     		ldr	r3, .L87
 885 0006 1B7E     		ldrb	r3, [r3, #24]	@ zero_extendqisi2
 886 0008 012B     		cmp	r3, #1
 887 000a 33D0     		beq	.L85
 888 000c 0446     		mov	r4, r0
 889 000e 0E46     		mov	r6, r1
 890 0010 1546     		mov	r5, r2
 164:../Drivers/STM32F4xx_HAL_Driver/Src/stm32f4xx_hal_flash.c **** 
 891              		.loc 1 164 0 is_stmt 0 discriminator 2
 892 0012 0122     		movs	r2, #1
 893              	.LVL54:
 894 0014 184B     		ldr	r3, .L87
 895 0016 1A76     		strb	r2, [r3, #24]
 170:../Drivers/STM32F4xx_HAL_Driver/Src/stm32f4xx_hal_flash.c ****   
 896              		.loc 1 170 0 is_stmt 1 discriminator 2
 897 0018 4CF25030 		movw	r0, #50000
 898              	.LVL55:
 899 001c FFF7FEFF 		bl	FLASH_WaitForLastOperation
 900              	.LVL56:
 172:../Drivers/STM32F4xx_HAL_Driver/Src/stm32f4xx_hal_flash.c ****   {
 901              		.loc 1 172 0 discriminator 2
 902 0020 0346     		mov	r3, r0
 903 0022 10BB     		cbnz	r0, .L80
 174:../Drivers/STM32F4xx_HAL_Driver/Src/stm32f4xx_hal_flash.c ****     {
 904              		.loc 1 174 0
 905 0024 24B9     		cbnz	r4, .L81
 177:../Drivers/STM32F4xx_HAL_Driver/Src/stm32f4xx_hal_flash.c ****     }
ARM GAS  /tmp/ccZHBLNw.s 			page 31


 906              		.loc 1 177 0
 907 0026 3046     		mov	r0, r6
 908              	.LVL57:
 909 0028 E9B2     		uxtb	r1, r5
 910 002a FFF7FEFF 		bl	FLASH_Program_Byte
 911              	.LVL58:
 912 002e 12E0     		b	.L82
 913              	.LVL59:
 914              	.L81:
 179:../Drivers/STM32F4xx_HAL_Driver/Src/stm32f4xx_hal_flash.c ****     {
 915              		.loc 1 179 0
 916 0030 012C     		cmp	r4, #1
 917 0032 04D1     		bne	.L83
 182:../Drivers/STM32F4xx_HAL_Driver/Src/stm32f4xx_hal_flash.c ****     }
 918              		.loc 1 182 0
 919 0034 3046     		mov	r0, r6
 920              	.LVL60:
 921 0036 A9B2     		uxth	r1, r5
 922 0038 FFF7FEFF 		bl	FLASH_Program_HalfWord
 923              	.LVL61:
 924 003c 0BE0     		b	.L82
 925              	.LVL62:
 926              	.L83:
 184:../Drivers/STM32F4xx_HAL_Driver/Src/stm32f4xx_hal_flash.c ****     {
 927              		.loc 1 184 0
 928 003e 022C     		cmp	r4, #2
 929 0040 04D1     		bne	.L84
 187:../Drivers/STM32F4xx_HAL_Driver/Src/stm32f4xx_hal_flash.c ****     }
 930              		.loc 1 187 0
 931 0042 3046     		mov	r0, r6
 932              	.LVL63:
 933 0044 2946     		mov	r1, r5
 934 0046 FFF7FEFF 		bl	FLASH_Program_Word
 935              	.LVL64:
 936 004a 04E0     		b	.L82
 937              	.LVL65:
 938              	.L84:
 192:../Drivers/STM32F4xx_HAL_Driver/Src/stm32f4xx_hal_flash.c ****     }
 939              		.loc 1 192 0
 940 004c 3046     		mov	r0, r6
 941              	.LVL66:
 942 004e 2A46     		mov	r2, r5
 943 0050 3B46     		mov	r3, r7
 944 0052 FFF7FEFF 		bl	FLASH_Program_DoubleWord
 945              	.LVL67:
 946              	.L82:
 196:../Drivers/STM32F4xx_HAL_Driver/Src/stm32f4xx_hal_flash.c ****     
 947              		.loc 1 196 0
 948 0056 4CF25030 		movw	r0, #50000
 949 005a FFF7FEFF 		bl	FLASH_WaitForLastOperation
 950              	.LVL68:
 951 005e 0346     		mov	r3, r0
 952              	.LVL69:
 199:../Drivers/STM32F4xx_HAL_Driver/Src/stm32f4xx_hal_flash.c ****   }
 953              		.loc 1 199 0
 954 0060 0649     		ldr	r1, .L87+4
 955 0062 0A69     		ldr	r2, [r1, #16]
ARM GAS  /tmp/ccZHBLNw.s 			page 32


 956 0064 22F00102 		bic	r2, r2, #1
 957 0068 0A61     		str	r2, [r1, #16]
 958              	.LVL70:
 959              	.L80:
 203:../Drivers/STM32F4xx_HAL_Driver/Src/stm32f4xx_hal_flash.c **** 
 960              		.loc 1 203 0
 961 006a 0021     		movs	r1, #0
 962 006c 024A     		ldr	r2, .L87
 963 006e 1176     		strb	r1, [r2, #24]
 205:../Drivers/STM32F4xx_HAL_Driver/Src/stm32f4xx_hal_flash.c **** }
 964              		.loc 1 205 0
 965 0070 1846     		mov	r0, r3
 966 0072 F8BD     		pop	{r3, r4, r5, r6, r7, pc}
 967              	.LVL71:
 968              	.L85:
 164:../Drivers/STM32F4xx_HAL_Driver/Src/stm32f4xx_hal_flash.c **** 
 969              		.loc 1 164 0
 970 0074 0220     		movs	r0, #2
 971              	.LVL72:
 206:../Drivers/STM32F4xx_HAL_Driver/Src/stm32f4xx_hal_flash.c **** 
 972              		.loc 1 206 0
 973 0076 F8BD     		pop	{r3, r4, r5, r6, r7, pc}
 974              	.L88:
 975              		.align	2
 976              	.L87:
 977 0078 00000000 		.word	pFlash
 978 007c 003C0240 		.word	1073888256
 979              		.cfi_endproc
 980              	.LFE112:
 982              		.section	.text.HAL_FLASH_OB_Launch,"ax",%progbits
 983              		.align	2
 984              		.global	HAL_FLASH_OB_Launch
 985              		.thumb
 986              		.thumb_func
 988              	HAL_FLASH_OB_Launch:
 989              	.LFB121:
 512:../Drivers/STM32F4xx_HAL_Driver/Src/stm32f4xx_hal_flash.c ****   /* Set the OPTSTRT bit in OPTCR register */
 990              		.loc 1 512 0
 991              		.cfi_startproc
 992              		@ args = 0, pretend = 0, frame = 0
 993              		@ frame_needed = 0, uses_anonymous_args = 0
 994 0000 08B5     		push	{r3, lr}
 995              	.LCFI6:
 996              		.cfi_def_cfa_offset 8
 997              		.cfi_offset 3, -8
 998              		.cfi_offset 14, -4
 514:../Drivers/STM32F4xx_HAL_Driver/Src/stm32f4xx_hal_flash.c **** 
 999              		.loc 1 514 0
 1000 0002 054A     		ldr	r2, .L91
 1001 0004 1378     		ldrb	r3, [r2]	@ zero_extendqisi2
 1002 0006 43F00203 		orr	r3, r3, #2
 1003 000a 1370     		strb	r3, [r2]
 517:../Drivers/STM32F4xx_HAL_Driver/Src/stm32f4xx_hal_flash.c **** }
 1004              		.loc 1 517 0
 1005 000c 4CF25030 		movw	r0, #50000
 1006 0010 FFF7FEFF 		bl	FLASH_WaitForLastOperation
 1007              	.LVL73:
ARM GAS  /tmp/ccZHBLNw.s 			page 33


 518:../Drivers/STM32F4xx_HAL_Driver/Src/stm32f4xx_hal_flash.c **** 
 1008              		.loc 1 518 0
 1009 0014 08BD     		pop	{r3, pc}
 1010              	.L92:
 1011 0016 00BF     		.align	2
 1012              	.L91:
 1013 0018 143C0240 		.word	1073888276
 1014              		.cfi_endproc
 1015              	.LFE121:
 1017              		.comm	pFlash,28,4
 1018              		.text
 1019              	.Letext0:
 1020              		.file 2 "/usr/include/newlib/machine/_default_types.h"
 1021              		.file 3 "/usr/include/newlib/sys/_stdint.h"
 1022              		.file 4 "../Drivers/CMSIS/Device/ST/STM32F4xx/Include/stm32f401xe.h"
 1023              		.file 5 "../Drivers/CMSIS/Device/ST/STM32F4xx/Include/stm32f4xx.h"
 1024              		.file 6 "../Drivers/STM32F4xx_HAL_Driver/Inc/stm32f4xx_hal_def.h"
 1025              		.file 7 "../Drivers/STM32F4xx_HAL_Driver/Inc/stm32f4xx_hal_flash.h"
 1026              		.file 8 "../Drivers/CMSIS/Include/core_cm4.h"
 1027              		.file 9 "../Drivers/STM32F4xx_HAL_Driver/Inc/stm32f4xx_hal_flash_ex.h"
 1028              		.file 10 "../Drivers/STM32F4xx_HAL_Driver/Inc/stm32f4xx_hal.h"
ARM GAS  /tmp/ccZHBLNw.s 			page 34

