ARM GAS  /tmp/ccfCLKEL.s 			page 1


   1              		.syntax unified
   2              		.cpu cortex-m4
   3              		.eabi_attribute 27, 1
   4              		.eabi_attribute 28, 1
   5              		.fpu fpv4-sp-d16
   6              		.eabi_attribute 20, 1
   7              		.eabi_attribute 21, 1
   8              		.eabi_attribute 23, 3
   9              		.eabi_attribute 24, 1
  10              		.eabi_attribute 25, 1
  11              		.eabi_attribute 26, 1
  12              		.eabi_attribute 30, 1
  13              		.eabi_attribute 34, 1
  14              		.eabi_attribute 18, 4
  15              		.thumb
  16              		.file	"vl53l0x_api_core.c"
  17              		.text
  18              	.Ltext0:
  19              		.cfi_sections	.debug_frame
  20              		.section	.text.VL53L0X_reverse_bytes,"ax",%progbits
  21              		.align	2
  22              		.global	VL53L0X_reverse_bytes
  23              		.thumb
  24              		.thumb_func
  26              	VL53L0X_reverse_bytes:
  27              	.LFB112:
  28              		.file 1 "../Drivers/BSP/Components/vl53l0x/vl53l0x_api_core.c"
   1:../Drivers/BSP/Components/vl53l0x/vl53l0x_api_core.c **** /*******************************************************************************
   2:../Drivers/BSP/Components/vl53l0x/vl53l0x_api_core.c ****  Copyright © 2016, STMicroelectronics International N.V.
   3:../Drivers/BSP/Components/vl53l0x/vl53l0x_api_core.c ****  All rights reserved.
   4:../Drivers/BSP/Components/vl53l0x/vl53l0x_api_core.c **** 
   5:../Drivers/BSP/Components/vl53l0x/vl53l0x_api_core.c ****  Redistribution and use in source and binary forms, with or without
   6:../Drivers/BSP/Components/vl53l0x/vl53l0x_api_core.c ****  modification, are permitted provided that the following conditions are met:
   7:../Drivers/BSP/Components/vl53l0x/vl53l0x_api_core.c ****  * Redistributions of source code must retain the above copyright
   8:../Drivers/BSP/Components/vl53l0x/vl53l0x_api_core.c ****  notice, this list of conditions and the following disclaimer.
   9:../Drivers/BSP/Components/vl53l0x/vl53l0x_api_core.c ****  * Redistributions in binary form must reproduce the above copyright
  10:../Drivers/BSP/Components/vl53l0x/vl53l0x_api_core.c ****  notice, this list of conditions and the following disclaimer in the
  11:../Drivers/BSP/Components/vl53l0x/vl53l0x_api_core.c ****  documentation and/or other materials provided with the distribution.
  12:../Drivers/BSP/Components/vl53l0x/vl53l0x_api_core.c ****  * Neither the name of STMicroelectronics nor the
  13:../Drivers/BSP/Components/vl53l0x/vl53l0x_api_core.c ****  names of its contributors may be used to endorse or promote products
  14:../Drivers/BSP/Components/vl53l0x/vl53l0x_api_core.c ****  derived from this software without specific prior written permission.
  15:../Drivers/BSP/Components/vl53l0x/vl53l0x_api_core.c **** 
  16:../Drivers/BSP/Components/vl53l0x/vl53l0x_api_core.c ****  THIS SOFTWARE IS PROVIDED BY THE COPYRIGHT HOLDERS AND CONTRIBUTORS "AS IS" AND
  17:../Drivers/BSP/Components/vl53l0x/vl53l0x_api_core.c ****  ANY EXPRESS OR IMPLIED WARRANTIES, INCLUDING, BUT NOT LIMITED TO, THE IMPLIED
  18:../Drivers/BSP/Components/vl53l0x/vl53l0x_api_core.c ****  WARRANTIES OF MERCHANTABILITY, FITNESS FOR A PARTICULAR PURPOSE, AND
  19:../Drivers/BSP/Components/vl53l0x/vl53l0x_api_core.c ****  NON-INFRINGEMENT OF INTELLECTUAL PROPERTY RIGHTS ARE DISCLAIMED.
  20:../Drivers/BSP/Components/vl53l0x/vl53l0x_api_core.c ****  IN NO EVENT SHALL STMICROELECTRONICS INTERNATIONAL N.V. BE LIABLE FOR ANY
  21:../Drivers/BSP/Components/vl53l0x/vl53l0x_api_core.c ****  DIRECT, INDIRECT, INCIDENTAL, SPECIAL, EXEMPLARY, OR CONSEQUENTIAL DAMAGES
  22:../Drivers/BSP/Components/vl53l0x/vl53l0x_api_core.c ****  (INCLUDING, BUT NOT LIMITED TO, PROCUREMENT OF SUBSTITUTE GOODS OR SERVICES;
  23:../Drivers/BSP/Components/vl53l0x/vl53l0x_api_core.c ****  LOSS OF USE, DATA, OR PROFITS; OR BUSINESS INTERRUPTION) HOWEVER CAUSED AND
  24:../Drivers/BSP/Components/vl53l0x/vl53l0x_api_core.c ****  ON ANY THEORY OF LIABILITY, WHETHER IN CONTRACT, STRICT LIABILITY, OR TORT
  25:../Drivers/BSP/Components/vl53l0x/vl53l0x_api_core.c ****  (INCLUDING NEGLIGENCE OR OTHERWISE) ARISING IN ANY WAY OUT OF THE USE OF THIS
  26:../Drivers/BSP/Components/vl53l0x/vl53l0x_api_core.c ****  SOFTWARE, EVEN IF ADVISED OF THE POSSIBILITY OF SUCH DAMAGE.
  27:../Drivers/BSP/Components/vl53l0x/vl53l0x_api_core.c ****  ******************************************************************************/
  28:../Drivers/BSP/Components/vl53l0x/vl53l0x_api_core.c **** 
  29:../Drivers/BSP/Components/vl53l0x/vl53l0x_api_core.c **** #include "vl53l0x_api.h"
  30:../Drivers/BSP/Components/vl53l0x/vl53l0x_api_core.c **** #include "vl53l0x_api_core.h"
ARM GAS  /tmp/ccfCLKEL.s 			page 2


  31:../Drivers/BSP/Components/vl53l0x/vl53l0x_api_core.c **** #include "vl53l0x_api_calibration.h"
  32:../Drivers/BSP/Components/vl53l0x/vl53l0x_api_core.c **** 
  33:../Drivers/BSP/Components/vl53l0x/vl53l0x_api_core.c **** 
  34:../Drivers/BSP/Components/vl53l0x/vl53l0x_api_core.c **** #ifndef __KERNEL__
  35:../Drivers/BSP/Components/vl53l0x/vl53l0x_api_core.c **** #include <stdlib.h>
  36:../Drivers/BSP/Components/vl53l0x/vl53l0x_api_core.c **** #endif
  37:../Drivers/BSP/Components/vl53l0x/vl53l0x_api_core.c **** #define LOG_FUNCTION_START(fmt, ...) \
  38:../Drivers/BSP/Components/vl53l0x/vl53l0x_api_core.c **** 	_LOG_FUNCTION_START(TRACE_MODULE_API, fmt, ##__VA_ARGS__)
  39:../Drivers/BSP/Components/vl53l0x/vl53l0x_api_core.c **** #define LOG_FUNCTION_END(status, ...) \
  40:../Drivers/BSP/Components/vl53l0x/vl53l0x_api_core.c **** 	_LOG_FUNCTION_END(TRACE_MODULE_API, status, ##__VA_ARGS__)
  41:../Drivers/BSP/Components/vl53l0x/vl53l0x_api_core.c **** #define LOG_FUNCTION_END_FMT(status, fmt, ...) \
  42:../Drivers/BSP/Components/vl53l0x/vl53l0x_api_core.c **** 	_LOG_FUNCTION_END_FMT(TRACE_MODULE_API, status, fmt, ##__VA_ARGS__)
  43:../Drivers/BSP/Components/vl53l0x/vl53l0x_api_core.c **** 
  44:../Drivers/BSP/Components/vl53l0x/vl53l0x_api_core.c **** VL53L0X_Error VL53L0X_reverse_bytes(uint8_t *data, uint32_t size)
  45:../Drivers/BSP/Components/vl53l0x/vl53l0x_api_core.c **** {
  29              		.loc 1 45 0
  30              		.cfi_startproc
  31              		@ args = 0, pretend = 0, frame = 0
  32              		@ frame_needed = 0, uses_anonymous_args = 0
  33              		@ link register save eliminated.
  34              	.LVL0:
  35 0000 70B4     		push	{r4, r5, r6}
  36              	.LCFI0:
  37              		.cfi_def_cfa_offset 12
  38              		.cfi_offset 4, -12
  39              		.cfi_offset 5, -8
  40              		.cfi_offset 6, -4
  41              	.LVL1:
  46:../Drivers/BSP/Components/vl53l0x/vl53l0x_api_core.c **** 	VL53L0X_Error Status = VL53L0X_ERROR_NONE;
  47:../Drivers/BSP/Components/vl53l0x/vl53l0x_api_core.c **** 	uint8_t tempData;
  48:../Drivers/BSP/Components/vl53l0x/vl53l0x_api_core.c **** 	uint32_t mirrorIndex;
  49:../Drivers/BSP/Components/vl53l0x/vl53l0x_api_core.c **** 	uint32_t middle = size/2;
  42              		.loc 1 49 0
  43 0002 4E08     		lsrs	r6, r1, #1
  44              	.LVL2:
  50:../Drivers/BSP/Components/vl53l0x/vl53l0x_api_core.c **** 	uint32_t index;
  51:../Drivers/BSP/Components/vl53l0x/vl53l0x_api_core.c **** 
  52:../Drivers/BSP/Components/vl53l0x/vl53l0x_api_core.c **** 	for (index = 0; index < middle; index++) {
  45              		.loc 1 52 0
  46 0004 0023     		movs	r3, #0
  47 0006 06E0     		b	.L2
  48              	.LVL3:
  49              	.L3:
  53:../Drivers/BSP/Components/vl53l0x/vl53l0x_api_core.c **** 		mirrorIndex		 = size - index - 1;
  50              		.loc 1 53 0 discriminator 3
  51 0008 CA1A     		subs	r2, r1, r3
  52 000a 013A     		subs	r2, r2, #1
  53              	.LVL4:
  54:../Drivers/BSP/Components/vl53l0x/vl53l0x_api_core.c **** 		tempData		 = data[index];
  54              		.loc 1 54 0 discriminator 3
  55 000c C45C     		ldrb	r4, [r0, r3]	@ zero_extendqisi2
  56              	.LVL5:
  55:../Drivers/BSP/Components/vl53l0x/vl53l0x_api_core.c **** 		data[index]		 = data[mirrorIndex];
  57              		.loc 1 55 0 discriminator 3
  58 000e 855C     		ldrb	r5, [r0, r2]	@ zero_extendqisi2
  59 0010 C554     		strb	r5, [r0, r3]
  56:../Drivers/BSP/Components/vl53l0x/vl53l0x_api_core.c **** 		data[mirrorIndex] = tempData;
ARM GAS  /tmp/ccfCLKEL.s 			page 3


  60              		.loc 1 56 0 discriminator 3
  61 0012 8454     		strb	r4, [r0, r2]
  52:../Drivers/BSP/Components/vl53l0x/vl53l0x_api_core.c **** 		mirrorIndex		 = size - index - 1;
  62              		.loc 1 52 0 discriminator 3
  63 0014 0133     		adds	r3, r3, #1
  64              	.LVL6:
  65              	.L2:
  52:../Drivers/BSP/Components/vl53l0x/vl53l0x_api_core.c **** 		mirrorIndex		 = size - index - 1;
  66              		.loc 1 52 0 is_stmt 0 discriminator 1
  67 0016 B342     		cmp	r3, r6
  68 0018 F6D3     		bcc	.L3
  57:../Drivers/BSP/Components/vl53l0x/vl53l0x_api_core.c **** 	}
  58:../Drivers/BSP/Components/vl53l0x/vl53l0x_api_core.c **** 	return Status;
  59:../Drivers/BSP/Components/vl53l0x/vl53l0x_api_core.c **** }
  69              		.loc 1 59 0 is_stmt 1
  70 001a 0020     		movs	r0, #0
  71              	.LVL7:
  72 001c 70BC     		pop	{r4, r5, r6}
  73              	.LCFI1:
  74              		.cfi_restore 6
  75              		.cfi_restore 5
  76              		.cfi_restore 4
  77              		.cfi_def_cfa_offset 0
  78              	.LVL8:
  79 001e 7047     		bx	lr
  80              		.cfi_endproc
  81              	.LFE112:
  83              		.section	.text.VL53L0X_measurement_poll_for_completion,"ax",%progbits
  84              		.align	2
  85              		.global	VL53L0X_measurement_poll_for_completion
  86              		.thumb
  87              		.thumb_func
  89              	VL53L0X_measurement_poll_for_completion:
  90              	.LFB113:
  60:../Drivers/BSP/Components/vl53l0x/vl53l0x_api_core.c **** 
  61:../Drivers/BSP/Components/vl53l0x/vl53l0x_api_core.c **** VL53L0X_Error VL53L0X_measurement_poll_for_completion(VL53L0X_DEV Dev)
  62:../Drivers/BSP/Components/vl53l0x/vl53l0x_api_core.c **** {
  91              		.loc 1 62 0
  92              		.cfi_startproc
  93              		@ args = 0, pretend = 0, frame = 8
  94              		@ frame_needed = 0, uses_anonymous_args = 0
  95              	.LVL9:
  96 0000 30B5     		push	{r4, r5, lr}
  97              	.LCFI2:
  98              		.cfi_def_cfa_offset 12
  99              		.cfi_offset 4, -12
 100              		.cfi_offset 5, -8
 101              		.cfi_offset 14, -4
 102 0002 83B0     		sub	sp, sp, #12
 103              	.LCFI3:
 104              		.cfi_def_cfa_offset 24
 105 0004 0546     		mov	r5, r0
 106              	.LVL10:
  63:../Drivers/BSP/Components/vl53l0x/vl53l0x_api_core.c **** 	VL53L0X_Error Status = VL53L0X_ERROR_NONE;
  64:../Drivers/BSP/Components/vl53l0x/vl53l0x_api_core.c **** 	uint8_t NewDataReady = 0;
 107              		.loc 1 64 0
 108 0006 0024     		movs	r4, #0
ARM GAS  /tmp/ccfCLKEL.s 			page 4


 109 0008 8DF80740 		strb	r4, [sp, #7]
 110              	.LVL11:
 111              	.L7:
  65:../Drivers/BSP/Components/vl53l0x/vl53l0x_api_core.c **** 	uint32_t LoopNb;
  66:../Drivers/BSP/Components/vl53l0x/vl53l0x_api_core.c **** 
  67:../Drivers/BSP/Components/vl53l0x/vl53l0x_api_core.c **** 	LOG_FUNCTION_START("");
  68:../Drivers/BSP/Components/vl53l0x/vl53l0x_api_core.c **** 
  69:../Drivers/BSP/Components/vl53l0x/vl53l0x_api_core.c **** 	LoopNb = 0;
  70:../Drivers/BSP/Components/vl53l0x/vl53l0x_api_core.c **** 
  71:../Drivers/BSP/Components/vl53l0x/vl53l0x_api_core.c **** 	do {
  72:../Drivers/BSP/Components/vl53l0x/vl53l0x_api_core.c **** 		Status = VL53L0X_GetMeasurementDataReady(Dev, &NewDataReady);
 112              		.loc 1 72 0
 113 000c 2846     		mov	r0, r5
 114 000e 0DF10701 		add	r1, sp, #7
 115 0012 FFF7FEFF 		bl	VL53L0X_GetMeasurementDataReady
 116              	.LVL12:
  73:../Drivers/BSP/Components/vl53l0x/vl53l0x_api_core.c **** 		if (Status != 0)
 117              		.loc 1 73 0
 118 0016 0246     		mov	r2, r0
 119 0018 60B9     		cbnz	r0, .L6
  74:../Drivers/BSP/Components/vl53l0x/vl53l0x_api_core.c **** 			break; /* the error is set */
  75:../Drivers/BSP/Components/vl53l0x/vl53l0x_api_core.c **** 
  76:../Drivers/BSP/Components/vl53l0x/vl53l0x_api_core.c **** 		if (NewDataReady == 1)
 120              		.loc 1 76 0
 121 001a 9DF80730 		ldrb	r3, [sp, #7]	@ zero_extendqisi2
 122 001e 012B     		cmp	r3, #1
 123 0020 08D0     		beq	.L6
  77:../Drivers/BSP/Components/vl53l0x/vl53l0x_api_core.c **** 			break; /* done note that status == 0 */
  78:../Drivers/BSP/Components/vl53l0x/vl53l0x_api_core.c **** 
  79:../Drivers/BSP/Components/vl53l0x/vl53l0x_api_core.c **** 		LoopNb++;
 124              		.loc 1 79 0
 125 0022 0134     		adds	r4, r4, #1
 126              	.LVL13:
  80:../Drivers/BSP/Components/vl53l0x/vl53l0x_api_core.c **** 		if (LoopNb >= VL53L0X_DEFAULT_MAX_LOOP) {
 127              		.loc 1 80 0
 128 0024 B4F5FA6F 		cmp	r4, #2000
 129 0028 03D2     		bcs	.L8
  81:../Drivers/BSP/Components/vl53l0x/vl53l0x_api_core.c **** 			Status = VL53L0X_ERROR_TIME_OUT;
  82:../Drivers/BSP/Components/vl53l0x/vl53l0x_api_core.c **** 			break;
  83:../Drivers/BSP/Components/vl53l0x/vl53l0x_api_core.c **** 		}
  84:../Drivers/BSP/Components/vl53l0x/vl53l0x_api_core.c **** 
  85:../Drivers/BSP/Components/vl53l0x/vl53l0x_api_core.c **** 		VL53L0X_PollingDelay(Dev);
 130              		.loc 1 85 0
 131 002a 2846     		mov	r0, r5
 132              	.LVL14:
 133 002c FFF7FEFF 		bl	VL53L0X_PollingDelay
 134              	.LVL15:
  86:../Drivers/BSP/Components/vl53l0x/vl53l0x_api_core.c **** 	} while (1);
 135              		.loc 1 86 0
 136 0030 ECE7     		b	.L7
 137              	.LVL16:
 138              	.L8:
  81:../Drivers/BSP/Components/vl53l0x/vl53l0x_api_core.c **** 			Status = VL53L0X_ERROR_TIME_OUT;
 139              		.loc 1 81 0
 140 0032 F922     		movs	r2, #249
 141              	.L6:
 142              	.LVL17:
ARM GAS  /tmp/ccfCLKEL.s 			page 5


  87:../Drivers/BSP/Components/vl53l0x/vl53l0x_api_core.c **** 
  88:../Drivers/BSP/Components/vl53l0x/vl53l0x_api_core.c **** 	LOG_FUNCTION_END(Status);
  89:../Drivers/BSP/Components/vl53l0x/vl53l0x_api_core.c **** 
  90:../Drivers/BSP/Components/vl53l0x/vl53l0x_api_core.c **** 	return Status;
  91:../Drivers/BSP/Components/vl53l0x/vl53l0x_api_core.c **** }
 143              		.loc 1 91 0
 144 0034 50B2     		sxtb	r0, r2
 145 0036 03B0     		add	sp, sp, #12
 146              	.LCFI4:
 147              		.cfi_def_cfa_offset 12
 148              		@ sp needed
 149 0038 30BD     		pop	{r4, r5, pc}
 150              		.cfi_endproc
 151              	.LFE113:
 153 003a 00BF     		.section	.text.VL53L0X_decode_vcsel_period,"ax",%progbits
 154              		.align	2
 155              		.global	VL53L0X_decode_vcsel_period
 156              		.thumb
 157              		.thumb_func
 159              	VL53L0X_decode_vcsel_period:
 160              	.LFB114:
  92:../Drivers/BSP/Components/vl53l0x/vl53l0x_api_core.c **** 
  93:../Drivers/BSP/Components/vl53l0x/vl53l0x_api_core.c **** 
  94:../Drivers/BSP/Components/vl53l0x/vl53l0x_api_core.c **** uint8_t VL53L0X_decode_vcsel_period(uint8_t vcsel_period_reg)
  95:../Drivers/BSP/Components/vl53l0x/vl53l0x_api_core.c **** {
 161              		.loc 1 95 0
 162              		.cfi_startproc
 163              		@ args = 0, pretend = 0, frame = 0
 164              		@ frame_needed = 0, uses_anonymous_args = 0
 165              		@ link register save eliminated.
 166              	.LVL18:
  96:../Drivers/BSP/Components/vl53l0x/vl53l0x_api_core.c **** 	/*!
  97:../Drivers/BSP/Components/vl53l0x/vl53l0x_api_core.c **** 	 * Converts the encoded VCSEL period register value into the real
  98:../Drivers/BSP/Components/vl53l0x/vl53l0x_api_core.c **** 	 * period in PLL clocks
  99:../Drivers/BSP/Components/vl53l0x/vl53l0x_api_core.c **** 	 */
 100:../Drivers/BSP/Components/vl53l0x/vl53l0x_api_core.c **** 
 101:../Drivers/BSP/Components/vl53l0x/vl53l0x_api_core.c **** 	uint8_t vcsel_period_pclks = 0;
 102:../Drivers/BSP/Components/vl53l0x/vl53l0x_api_core.c **** 
 103:../Drivers/BSP/Components/vl53l0x/vl53l0x_api_core.c **** 	vcsel_period_pclks = (vcsel_period_reg + 1) << 1;
 167              		.loc 1 103 0
 168 0000 0130     		adds	r0, r0, #1
 169              	.LVL19:
 170 0002 4000     		lsls	r0, r0, #1
 171              	.LVL20:
 104:../Drivers/BSP/Components/vl53l0x/vl53l0x_api_core.c **** 
 105:../Drivers/BSP/Components/vl53l0x/vl53l0x_api_core.c **** 	return vcsel_period_pclks;
 106:../Drivers/BSP/Components/vl53l0x/vl53l0x_api_core.c **** }
 172              		.loc 1 106 0
 173 0004 00F0FE00 		and	r0, r0, #254
 174              	.LVL21:
 175 0008 7047     		bx	lr
 176              		.cfi_endproc
 177              	.LFE114:
 179 000a 00BF     		.section	.text.VL53L0X_encode_vcsel_period,"ax",%progbits
 180              		.align	2
 181              		.global	VL53L0X_encode_vcsel_period
 182              		.thumb
ARM GAS  /tmp/ccfCLKEL.s 			page 6


 183              		.thumb_func
 185              	VL53L0X_encode_vcsel_period:
 186              	.LFB115:
 107:../Drivers/BSP/Components/vl53l0x/vl53l0x_api_core.c **** 
 108:../Drivers/BSP/Components/vl53l0x/vl53l0x_api_core.c **** uint8_t VL53L0X_encode_vcsel_period(uint8_t vcsel_period_pclks)
 109:../Drivers/BSP/Components/vl53l0x/vl53l0x_api_core.c **** {
 187              		.loc 1 109 0
 188              		.cfi_startproc
 189              		@ args = 0, pretend = 0, frame = 0
 190              		@ frame_needed = 0, uses_anonymous_args = 0
 191              		@ link register save eliminated.
 192              	.LVL22:
 110:../Drivers/BSP/Components/vl53l0x/vl53l0x_api_core.c **** 	/*!
 111:../Drivers/BSP/Components/vl53l0x/vl53l0x_api_core.c **** 	 * Converts the encoded VCSEL period register value into the real period
 112:../Drivers/BSP/Components/vl53l0x/vl53l0x_api_core.c **** 	 * in PLL clocks
 113:../Drivers/BSP/Components/vl53l0x/vl53l0x_api_core.c **** 	 */
 114:../Drivers/BSP/Components/vl53l0x/vl53l0x_api_core.c **** 
 115:../Drivers/BSP/Components/vl53l0x/vl53l0x_api_core.c **** 	uint8_t vcsel_period_reg = 0;
 116:../Drivers/BSP/Components/vl53l0x/vl53l0x_api_core.c **** 
 117:../Drivers/BSP/Components/vl53l0x/vl53l0x_api_core.c **** 	vcsel_period_reg = (vcsel_period_pclks >> 1) - 1;
 193              		.loc 1 117 0
 194 0000 4008     		lsrs	r0, r0, #1
 195              	.LVL23:
 196 0002 0138     		subs	r0, r0, #1
 197              	.LVL24:
 118:../Drivers/BSP/Components/vl53l0x/vl53l0x_api_core.c **** 
 119:../Drivers/BSP/Components/vl53l0x/vl53l0x_api_core.c **** 	return vcsel_period_reg;
 120:../Drivers/BSP/Components/vl53l0x/vl53l0x_api_core.c **** }
 198              		.loc 1 120 0
 199 0004 C0B2     		uxtb	r0, r0
 200 0006 7047     		bx	lr
 201              		.cfi_endproc
 202              	.LFE115:
 204              		.section	.text.VL53L0X_isqrt,"ax",%progbits
 205              		.align	2
 206              		.global	VL53L0X_isqrt
 207              		.thumb
 208              		.thumb_func
 210              	VL53L0X_isqrt:
 211              	.LFB116:
 121:../Drivers/BSP/Components/vl53l0x/vl53l0x_api_core.c **** 
 122:../Drivers/BSP/Components/vl53l0x/vl53l0x_api_core.c **** 
 123:../Drivers/BSP/Components/vl53l0x/vl53l0x_api_core.c **** uint32_t VL53L0X_isqrt(uint32_t num)
 124:../Drivers/BSP/Components/vl53l0x/vl53l0x_api_core.c **** {
 212              		.loc 1 124 0
 213              		.cfi_startproc
 214              		@ args = 0, pretend = 0, frame = 0
 215              		@ frame_needed = 0, uses_anonymous_args = 0
 216              		@ link register save eliminated.
 217              	.LVL25:
 125:../Drivers/BSP/Components/vl53l0x/vl53l0x_api_core.c **** 	/*
 126:../Drivers/BSP/Components/vl53l0x/vl53l0x_api_core.c **** 	 * Implements an integer square root
 127:../Drivers/BSP/Components/vl53l0x/vl53l0x_api_core.c **** 	 *
 128:../Drivers/BSP/Components/vl53l0x/vl53l0x_api_core.c **** 	 * From: http://en.wikipedia.org/wiki/Methods_of_computing_square_roots
 129:../Drivers/BSP/Components/vl53l0x/vl53l0x_api_core.c **** 	 */
 130:../Drivers/BSP/Components/vl53l0x/vl53l0x_api_core.c **** 
 131:../Drivers/BSP/Components/vl53l0x/vl53l0x_api_core.c **** 	uint32_t  res = 0;
ARM GAS  /tmp/ccfCLKEL.s 			page 7


 132:../Drivers/BSP/Components/vl53l0x/vl53l0x_api_core.c **** 	uint32_t  bit = 1 << 30;
 218              		.loc 1 132 0
 219 0000 4FF08043 		mov	r3, #1073741824
 133:../Drivers/BSP/Components/vl53l0x/vl53l0x_api_core.c **** 	/* The second-to-top bit is set:
 134:../Drivers/BSP/Components/vl53l0x/vl53l0x_api_core.c **** 	 *	1 << 14 for 16-bits, 1 << 30 for 32 bits */
 135:../Drivers/BSP/Components/vl53l0x/vl53l0x_api_core.c **** 
 136:../Drivers/BSP/Components/vl53l0x/vl53l0x_api_core.c **** 	 /* "bit" starts at the highest power of four <= the argument. */
 137:../Drivers/BSP/Components/vl53l0x/vl53l0x_api_core.c **** 	while (bit > num)
 220              		.loc 1 137 0
 221 0004 00E0     		b	.L13
 222              	.LVL26:
 223              	.L14:
 138:../Drivers/BSP/Components/vl53l0x/vl53l0x_api_core.c **** 		bit >>= 2;
 224              		.loc 1 138 0
 225 0006 9B08     		lsrs	r3, r3, #2
 226              	.LVL27:
 227              	.L13:
 137:../Drivers/BSP/Components/vl53l0x/vl53l0x_api_core.c **** 		bit >>= 2;
 228              		.loc 1 137 0
 229 0008 8342     		cmp	r3, r0
 230 000a FCD8     		bhi	.L14
 231 000c 0022     		movs	r2, #0
 232 000e 08E0     		b	.L15
 233              	.LVL28:
 234              	.L18:
 139:../Drivers/BSP/Components/vl53l0x/vl53l0x_api_core.c **** 
 140:../Drivers/BSP/Components/vl53l0x/vl53l0x_api_core.c **** 
 141:../Drivers/BSP/Components/vl53l0x/vl53l0x_api_core.c **** 	while (bit != 0) {
 142:../Drivers/BSP/Components/vl53l0x/vl53l0x_api_core.c **** 		if (num >= res + bit) {
 235              		.loc 1 142 0
 236 0010 D118     		adds	r1, r2, r3
 237 0012 8142     		cmp	r1, r0
 238 0014 03D8     		bhi	.L16
 143:../Drivers/BSP/Components/vl53l0x/vl53l0x_api_core.c **** 			num -= res + bit;
 239              		.loc 1 143 0
 240 0016 401A     		subs	r0, r0, r1
 241              	.LVL29:
 144:../Drivers/BSP/Components/vl53l0x/vl53l0x_api_core.c **** 			res = (res >> 1) + bit;
 242              		.loc 1 144 0
 243 0018 03EB5202 		add	r2, r3, r2, lsr #1
 244              	.LVL30:
 245 001c 00E0     		b	.L17
 246              	.L16:
 145:../Drivers/BSP/Components/vl53l0x/vl53l0x_api_core.c **** 		} else
 146:../Drivers/BSP/Components/vl53l0x/vl53l0x_api_core.c **** 			res >>= 1;
 247              		.loc 1 146 0
 248 001e 5208     		lsrs	r2, r2, #1
 249              	.LVL31:
 250              	.L17:
 147:../Drivers/BSP/Components/vl53l0x/vl53l0x_api_core.c **** 
 148:../Drivers/BSP/Components/vl53l0x/vl53l0x_api_core.c **** 		bit >>= 2;
 251              		.loc 1 148 0
 252 0020 9B08     		lsrs	r3, r3, #2
 253              	.LVL32:
 254              	.L15:
 141:../Drivers/BSP/Components/vl53l0x/vl53l0x_api_core.c **** 		if (num >= res + bit) {
 255              		.loc 1 141 0
ARM GAS  /tmp/ccfCLKEL.s 			page 8


 256 0022 002B     		cmp	r3, #0
 257 0024 F4D1     		bne	.L18
 149:../Drivers/BSP/Components/vl53l0x/vl53l0x_api_core.c **** 	}
 150:../Drivers/BSP/Components/vl53l0x/vl53l0x_api_core.c **** 
 151:../Drivers/BSP/Components/vl53l0x/vl53l0x_api_core.c **** 	return res;
 152:../Drivers/BSP/Components/vl53l0x/vl53l0x_api_core.c **** }
 258              		.loc 1 152 0
 259 0026 1046     		mov	r0, r2
 260              	.LVL33:
 261 0028 7047     		bx	lr
 262              		.cfi_endproc
 263              	.LFE116:
 265 002a 00BF     		.section	.text.VL53L0X_quadrature_sum,"ax",%progbits
 266              		.align	2
 267              		.global	VL53L0X_quadrature_sum
 268              		.thumb
 269              		.thumb_func
 271              	VL53L0X_quadrature_sum:
 272              	.LFB117:
 153:../Drivers/BSP/Components/vl53l0x/vl53l0x_api_core.c **** 
 154:../Drivers/BSP/Components/vl53l0x/vl53l0x_api_core.c **** 
 155:../Drivers/BSP/Components/vl53l0x/vl53l0x_api_core.c **** uint32_t VL53L0X_quadrature_sum(uint32_t a, uint32_t b)
 156:../Drivers/BSP/Components/vl53l0x/vl53l0x_api_core.c **** {
 273              		.loc 1 156 0
 274              		.cfi_startproc
 275              		@ args = 0, pretend = 0, frame = 0
 276              		@ frame_needed = 0, uses_anonymous_args = 0
 277              	.LVL34:
 157:../Drivers/BSP/Components/vl53l0x/vl53l0x_api_core.c **** 	/*
 158:../Drivers/BSP/Components/vl53l0x/vl53l0x_api_core.c **** 	 * Implements a quadrature sum
 159:../Drivers/BSP/Components/vl53l0x/vl53l0x_api_core.c **** 	 *
 160:../Drivers/BSP/Components/vl53l0x/vl53l0x_api_core.c **** 	 * rea = sqrt(a^2 + b^2)
 161:../Drivers/BSP/Components/vl53l0x/vl53l0x_api_core.c **** 	 *
 162:../Drivers/BSP/Components/vl53l0x/vl53l0x_api_core.c **** 	 * Trap overflow case max input value is 65535 (16-bit value)
 163:../Drivers/BSP/Components/vl53l0x/vl53l0x_api_core.c **** 	 * as internal calc are 32-bit wide
 164:../Drivers/BSP/Components/vl53l0x/vl53l0x_api_core.c **** 	 *
 165:../Drivers/BSP/Components/vl53l0x/vl53l0x_api_core.c **** 	 * If overflow then seta output to maximum
 166:../Drivers/BSP/Components/vl53l0x/vl53l0x_api_core.c **** 	 */
 167:../Drivers/BSP/Components/vl53l0x/vl53l0x_api_core.c **** 	uint32_t  res = 0;
 168:../Drivers/BSP/Components/vl53l0x/vl53l0x_api_core.c **** 
 169:../Drivers/BSP/Components/vl53l0x/vl53l0x_api_core.c **** 	if (a > 65535 || b > 65535)
 278              		.loc 1 169 0
 279 0000 B0F5803F 		cmp	r0, #65536
 280 0004 0AD2     		bcs	.L21
 281              		.loc 1 169 0 is_stmt 0 discriminator 1
 282 0006 B1F5803F 		cmp	r1, #65536
 283 000a 0AD2     		bcs	.L22
 156:../Drivers/BSP/Components/vl53l0x/vl53l0x_api_core.c **** 	/*
 284              		.loc 1 156 0 is_stmt 1
 285 000c 08B5     		push	{r3, lr}
 286              	.LCFI5:
 287              		.cfi_def_cfa_offset 8
 288              		.cfi_offset 3, -8
 289              		.cfi_offset 14, -4
 170:../Drivers/BSP/Components/vl53l0x/vl53l0x_api_core.c **** 		res = 65535;
 171:../Drivers/BSP/Components/vl53l0x/vl53l0x_api_core.c **** 	else
 172:../Drivers/BSP/Components/vl53l0x/vl53l0x_api_core.c **** 		res = VL53L0X_isqrt(a * a + b * b);
ARM GAS  /tmp/ccfCLKEL.s 			page 9


 290              		.loc 1 172 0
 291 000e 01FB01F1 		mul	r1, r1, r1
 292              	.LVL35:
 293 0012 00FB0010 		mla	r0, r0, r0, r1
 294              	.LVL36:
 295 0016 FFF7FEFF 		bl	VL53L0X_isqrt
 296              	.LVL37:
 297 001a 08BD     		pop	{r3, pc}
 298              	.LVL38:
 299              	.L21:
 300              	.LCFI6:
 301              		.cfi_def_cfa_offset 0
 302              		.cfi_restore 3
 303              		.cfi_restore 14
 170:../Drivers/BSP/Components/vl53l0x/vl53l0x_api_core.c **** 		res = 65535;
 304              		.loc 1 170 0
 305 001c 4FF6FF70 		movw	r0, #65535
 306              	.LVL39:
 307 0020 7047     		bx	lr
 308              	.LVL40:
 309              	.L22:
 310 0022 4FF6FF70 		movw	r0, #65535
 311              	.LVL41:
 312 0026 7047     		bx	lr
 313              		.cfi_endproc
 314              	.LFE117:
 316              		.section	.text.VL53L0X_device_read_strobe,"ax",%progbits
 317              		.align	2
 318              		.global	VL53L0X_device_read_strobe
 319              		.thumb
 320              		.thumb_func
 322              	VL53L0X_device_read_strobe:
 323              	.LFB118:
 173:../Drivers/BSP/Components/vl53l0x/vl53l0x_api_core.c **** 
 174:../Drivers/BSP/Components/vl53l0x/vl53l0x_api_core.c **** 	return res;
 175:../Drivers/BSP/Components/vl53l0x/vl53l0x_api_core.c **** }
 176:../Drivers/BSP/Components/vl53l0x/vl53l0x_api_core.c **** 
 177:../Drivers/BSP/Components/vl53l0x/vl53l0x_api_core.c **** 
 178:../Drivers/BSP/Components/vl53l0x/vl53l0x_api_core.c **** VL53L0X_Error VL53L0X_device_read_strobe(VL53L0X_DEV Dev)
 179:../Drivers/BSP/Components/vl53l0x/vl53l0x_api_core.c **** {
 324              		.loc 1 179 0
 325              		.cfi_startproc
 326              		@ args = 0, pretend = 0, frame = 8
 327              		@ frame_needed = 0, uses_anonymous_args = 0
 328              	.LVL42:
 329 0000 70B5     		push	{r4, r5, r6, lr}
 330              	.LCFI7:
 331              		.cfi_def_cfa_offset 16
 332              		.cfi_offset 4, -16
 333              		.cfi_offset 5, -12
 334              		.cfi_offset 6, -8
 335              		.cfi_offset 14, -4
 336 0002 82B0     		sub	sp, sp, #8
 337              	.LCFI8:
 338              		.cfi_def_cfa_offset 24
 339 0004 0646     		mov	r6, r0
 340              	.LVL43:
ARM GAS  /tmp/ccfCLKEL.s 			page 10


 180:../Drivers/BSP/Components/vl53l0x/vl53l0x_api_core.c **** 	VL53L0X_Error Status = VL53L0X_ERROR_NONE;
 181:../Drivers/BSP/Components/vl53l0x/vl53l0x_api_core.c **** 	uint8_t strobe;
 182:../Drivers/BSP/Components/vl53l0x/vl53l0x_api_core.c **** 	uint32_t LoopNb;
 183:../Drivers/BSP/Components/vl53l0x/vl53l0x_api_core.c **** 	LOG_FUNCTION_START("");
 184:../Drivers/BSP/Components/vl53l0x/vl53l0x_api_core.c **** 
 185:../Drivers/BSP/Components/vl53l0x/vl53l0x_api_core.c **** 	Status |= VL53L0X_WrByte(Dev, 0x83, 0x00);
 341              		.loc 1 185 0
 342 0006 8321     		movs	r1, #131
 343 0008 0022     		movs	r2, #0
 344 000a FFF7FEFF 		bl	VL53L0X_WrByte
 345              	.LVL44:
 186:../Drivers/BSP/Components/vl53l0x/vl53l0x_api_core.c **** 
 187:../Drivers/BSP/Components/vl53l0x/vl53l0x_api_core.c **** 	/* polling
 188:../Drivers/BSP/Components/vl53l0x/vl53l0x_api_core.c **** 	 * use timeout to avoid deadlock*/
 189:../Drivers/BSP/Components/vl53l0x/vl53l0x_api_core.c **** 	if (Status == VL53L0X_ERROR_NONE) {
 346              		.loc 1 189 0
 347 000e 0546     		mov	r5, r0
 348 0010 98B9     		cbnz	r0, .L26
 349 0012 0024     		movs	r4, #0
 350              	.L28:
 351              	.LVL45:
 190:../Drivers/BSP/Components/vl53l0x/vl53l0x_api_core.c **** 		LoopNb = 0;
 191:../Drivers/BSP/Components/vl53l0x/vl53l0x_api_core.c **** 		do {
 192:../Drivers/BSP/Components/vl53l0x/vl53l0x_api_core.c **** 			Status = VL53L0X_RdByte(Dev, 0x83, &strobe);
 352              		.loc 1 192 0
 353 0014 3046     		mov	r0, r6
 354              	.LVL46:
 355 0016 8321     		movs	r1, #131
 356 0018 0DF10702 		add	r2, sp, #7
 357 001c FFF7FEFF 		bl	VL53L0X_RdByte
 358              	.LVL47:
 359 0020 0546     		mov	r5, r0
 360              	.LVL48:
 193:../Drivers/BSP/Components/vl53l0x/vl53l0x_api_core.c **** 			if ((strobe != 0x00) || Status != VL53L0X_ERROR_NONE)
 361              		.loc 1 193 0
 362 0022 9DF80730 		ldrb	r3, [sp, #7]	@ zero_extendqisi2
 363 0026 23B9     		cbnz	r3, .L27
 364              		.loc 1 193 0 is_stmt 0 discriminator 1
 365 0028 18B9     		cbnz	r0, .L27
 194:../Drivers/BSP/Components/vl53l0x/vl53l0x_api_core.c **** 					break;
 195:../Drivers/BSP/Components/vl53l0x/vl53l0x_api_core.c **** 
 196:../Drivers/BSP/Components/vl53l0x/vl53l0x_api_core.c **** 			LoopNb = LoopNb + 1;
 366              		.loc 1 196 0 is_stmt 1
 367 002a 0134     		adds	r4, r4, #1
 368              	.LVL49:
 197:../Drivers/BSP/Components/vl53l0x/vl53l0x_api_core.c **** 		} while (LoopNb < VL53L0X_DEFAULT_MAX_LOOP);
 369              		.loc 1 197 0
 370 002c B4F5FA6F 		cmp	r4, #2000
 371 0030 F0D3     		bcc	.L28
 372              	.L27:
 198:../Drivers/BSP/Components/vl53l0x/vl53l0x_api_core.c **** 
 199:../Drivers/BSP/Components/vl53l0x/vl53l0x_api_core.c **** 		if (LoopNb >= VL53L0X_DEFAULT_MAX_LOOP)
 373              		.loc 1 199 0
 374 0032 B4F5FA6F 		cmp	r4, #2000
 375 0036 00D3     		bcc	.L26
 200:../Drivers/BSP/Components/vl53l0x/vl53l0x_api_core.c **** 			Status = VL53L0X_ERROR_TIME_OUT;
 376              		.loc 1 200 0
ARM GAS  /tmp/ccfCLKEL.s 			page 11


 377 0038 F925     		movs	r5, #249
 378              	.LVL50:
 379              	.L26:
 201:../Drivers/BSP/Components/vl53l0x/vl53l0x_api_core.c **** 
 202:../Drivers/BSP/Components/vl53l0x/vl53l0x_api_core.c **** 	}
 203:../Drivers/BSP/Components/vl53l0x/vl53l0x_api_core.c **** 
 204:../Drivers/BSP/Components/vl53l0x/vl53l0x_api_core.c **** 	Status |= VL53L0X_WrByte(Dev, 0x83, 0x01);
 380              		.loc 1 204 0
 381 003a 3046     		mov	r0, r6
 382 003c 8321     		movs	r1, #131
 383 003e 0122     		movs	r2, #1
 384 0040 FFF7FEFF 		bl	VL53L0X_WrByte
 385              	.LVL51:
 386 0044 2843     		orrs	r0, r0, r5
 387              	.LVL52:
 205:../Drivers/BSP/Components/vl53l0x/vl53l0x_api_core.c **** 
 206:../Drivers/BSP/Components/vl53l0x/vl53l0x_api_core.c **** 	LOG_FUNCTION_END(Status);
 207:../Drivers/BSP/Components/vl53l0x/vl53l0x_api_core.c **** 	return Status;
 208:../Drivers/BSP/Components/vl53l0x/vl53l0x_api_core.c **** 
 209:../Drivers/BSP/Components/vl53l0x/vl53l0x_api_core.c **** }
 388              		.loc 1 209 0
 389 0046 40B2     		sxtb	r0, r0
 390 0048 02B0     		add	sp, sp, #8
 391              	.LCFI9:
 392              		.cfi_def_cfa_offset 16
 393              		@ sp needed
 394 004a 70BD     		pop	{r4, r5, r6, pc}
 395              		.cfi_endproc
 396              	.LFE118:
 398              		.section	.text.VL53L0X_get_info_from_device,"ax",%progbits
 399              		.align	2
 400              		.global	VL53L0X_get_info_from_device
 401              		.thumb
 402              		.thumb_func
 404              	VL53L0X_get_info_from_device:
 405              	.LFB119:
 210:../Drivers/BSP/Components/vl53l0x/vl53l0x_api_core.c **** 
 211:../Drivers/BSP/Components/vl53l0x/vl53l0x_api_core.c **** VL53L0X_Error VL53L0X_get_info_from_device(VL53L0X_DEV Dev, uint8_t option)
 212:../Drivers/BSP/Components/vl53l0x/vl53l0x_api_core.c **** {
 406              		.loc 1 212 0
 407              		.cfi_startproc
 408              		@ args = 0, pretend = 0, frame = 48
 409              		@ frame_needed = 0, uses_anonymous_args = 0
 410              	.LVL53:
 411 0000 2DE9F04F 		push	{r4, r5, r6, r7, r8, r9, r10, fp, lr}
 412              	.LCFI10:
 413              		.cfi_def_cfa_offset 36
 414              		.cfi_offset 4, -36
 415              		.cfi_offset 5, -32
 416              		.cfi_offset 6, -28
 417              		.cfi_offset 7, -24
 418              		.cfi_offset 8, -20
 419              		.cfi_offset 9, -16
 420              		.cfi_offset 10, -12
 421              		.cfi_offset 11, -8
 422              		.cfi_offset 14, -4
 423 0004 8DB0     		sub	sp, sp, #52
ARM GAS  /tmp/ccfCLKEL.s 			page 12


 424              	.LCFI11:
 425              		.cfi_def_cfa_offset 88
 426 0006 0546     		mov	r5, r0
 427 0008 0E46     		mov	r6, r1
 428              	.LVL54:
 213:../Drivers/BSP/Components/vl53l0x/vl53l0x_api_core.c **** 
 214:../Drivers/BSP/Components/vl53l0x/vl53l0x_api_core.c **** 	VL53L0X_Error Status = VL53L0X_ERROR_NONE;
 215:../Drivers/BSP/Components/vl53l0x/vl53l0x_api_core.c **** 	uint8_t byte;
 216:../Drivers/BSP/Components/vl53l0x/vl53l0x_api_core.c **** 	uint32_t TmpDWord;
 217:../Drivers/BSP/Components/vl53l0x/vl53l0x_api_core.c **** 	uint8_t ModuleId;
 218:../Drivers/BSP/Components/vl53l0x/vl53l0x_api_core.c **** 	uint8_t Revision;
 219:../Drivers/BSP/Components/vl53l0x/vl53l0x_api_core.c **** 	uint8_t ReferenceSpadCount = 0;
 220:../Drivers/BSP/Components/vl53l0x/vl53l0x_api_core.c **** 	uint8_t ReferenceSpadType = 0;
 221:../Drivers/BSP/Components/vl53l0x/vl53l0x_api_core.c **** 	uint32_t PartUIDUpper = 0;
 429              		.loc 1 221 0
 430 000a 0023     		movs	r3, #0
 431 000c 0893     		str	r3, [sp, #32]
 222:../Drivers/BSP/Components/vl53l0x/vl53l0x_api_core.c **** 	uint32_t PartUIDLower = 0;
 432              		.loc 1 222 0
 433 000e 0793     		str	r3, [sp, #28]
 434              	.LVL55:
 223:../Drivers/BSP/Components/vl53l0x/vl53l0x_api_core.c **** 	uint32_t OffsetFixed1104_mm = 0;
 224:../Drivers/BSP/Components/vl53l0x/vl53l0x_api_core.c **** 	int16_t OffsetMicroMeters = 0;
 225:../Drivers/BSP/Components/vl53l0x/vl53l0x_api_core.c **** 	uint32_t DistMeasTgtFixed1104_mm = 400 << 4;
 226:../Drivers/BSP/Components/vl53l0x/vl53l0x_api_core.c **** 	uint32_t DistMeasFixed1104_400_mm = 0;
 227:../Drivers/BSP/Components/vl53l0x/vl53l0x_api_core.c **** 	uint32_t SignalRateMeasFixed1104_400_mm = 0;
 228:../Drivers/BSP/Components/vl53l0x/vl53l0x_api_core.c **** 	char ProductId[19];
 229:../Drivers/BSP/Components/vl53l0x/vl53l0x_api_core.c **** 	char *ProductId_tmp;
 230:../Drivers/BSP/Components/vl53l0x/vl53l0x_api_core.c **** 	uint8_t ReadDataFromDeviceDone;
 231:../Drivers/BSP/Components/vl53l0x/vl53l0x_api_core.c **** 	FixPoint1616_t SignalRateMeasFixed400mmFix = 0;
 232:../Drivers/BSP/Components/vl53l0x/vl53l0x_api_core.c **** 	uint8_t NvmRefGoodSpadMap[VL53L0X_REF_SPAD_BUFFER_SIZE];
 233:../Drivers/BSP/Components/vl53l0x/vl53l0x_api_core.c **** 	int i;
 234:../Drivers/BSP/Components/vl53l0x/vl53l0x_api_core.c **** 
 235:../Drivers/BSP/Components/vl53l0x/vl53l0x_api_core.c **** 
 236:../Drivers/BSP/Components/vl53l0x/vl53l0x_api_core.c **** 	LOG_FUNCTION_START("");
 237:../Drivers/BSP/Components/vl53l0x/vl53l0x_api_core.c **** 
 238:../Drivers/BSP/Components/vl53l0x/vl53l0x_api_core.c **** 	ReadDataFromDeviceDone = VL53L0X_GETDEVICESPECIFICPARAMETER(Dev,
 435              		.loc 1 238 0
 436 0010 90F8F070 		ldrb	r7, [r0, #240]	@ zero_extendqisi2
 437              	.LVL56:
 239:../Drivers/BSP/Components/vl53l0x/vl53l0x_api_core.c **** 			ReadDataFromDeviceDone);
 240:../Drivers/BSP/Components/vl53l0x/vl53l0x_api_core.c **** 
 241:../Drivers/BSP/Components/vl53l0x/vl53l0x_api_core.c **** 	/* This access is done only once after that a GetDeviceInfo or
 242:../Drivers/BSP/Components/vl53l0x/vl53l0x_api_core.c **** 	 * datainit is done*/
 243:../Drivers/BSP/Components/vl53l0x/vl53l0x_api_core.c **** 	if (ReadDataFromDeviceDone != 7) {
 438              		.loc 1 243 0
 439 0014 072F     		cmp	r7, #7
 440 0016 00F05882 		beq	.L43
 244:../Drivers/BSP/Components/vl53l0x/vl53l0x_api_core.c **** 
 245:../Drivers/BSP/Components/vl53l0x/vl53l0x_api_core.c **** 		Status |= VL53L0X_WrByte(Dev, 0x80, 0x01);
 441              		.loc 1 245 0
 442 001a 8021     		movs	r1, #128
 443              	.LVL57:
 444 001c 0122     		movs	r2, #1
 445 001e FFF7FEFF 		bl	VL53L0X_WrByte
 446              	.LVL58:
 447 0022 0446     		mov	r4, r0
ARM GAS  /tmp/ccfCLKEL.s 			page 13


 448              	.LVL59:
 246:../Drivers/BSP/Components/vl53l0x/vl53l0x_api_core.c **** 		Status |= VL53L0X_WrByte(Dev, 0xFF, 0x01);
 449              		.loc 1 246 0
 450 0024 2846     		mov	r0, r5
 451 0026 FF21     		movs	r1, #255
 452 0028 0122     		movs	r2, #1
 453 002a FFF7FEFF 		bl	VL53L0X_WrByte
 454              	.LVL60:
 455 002e 2043     		orrs	r0, r0, r4
 456 0030 C4B2     		uxtb	r4, r0
 457              	.LVL61:
 247:../Drivers/BSP/Components/vl53l0x/vl53l0x_api_core.c **** 		Status |= VL53L0X_WrByte(Dev, 0x00, 0x00);
 458              		.loc 1 247 0
 459 0032 2846     		mov	r0, r5
 460 0034 0021     		movs	r1, #0
 461 0036 0A46     		mov	r2, r1
 462 0038 FFF7FEFF 		bl	VL53L0X_WrByte
 463              	.LVL62:
 464 003c 2043     		orrs	r0, r0, r4
 465 003e C4B2     		uxtb	r4, r0
 466              	.LVL63:
 248:../Drivers/BSP/Components/vl53l0x/vl53l0x_api_core.c **** 
 249:../Drivers/BSP/Components/vl53l0x/vl53l0x_api_core.c **** 		Status |= VL53L0X_WrByte(Dev, 0xFF, 0x06);
 467              		.loc 1 249 0
 468 0040 2846     		mov	r0, r5
 469 0042 FF21     		movs	r1, #255
 470 0044 0622     		movs	r2, #6
 471 0046 FFF7FEFF 		bl	VL53L0X_WrByte
 472              	.LVL64:
 473 004a 2043     		orrs	r0, r0, r4
 474 004c C4B2     		uxtb	r4, r0
 475              	.LVL65:
 250:../Drivers/BSP/Components/vl53l0x/vl53l0x_api_core.c **** 		Status |= VL53L0X_RdByte(Dev, 0x83, &byte);
 476              		.loc 1 250 0
 477 004e 2846     		mov	r0, r5
 478 0050 8321     		movs	r1, #131
 479 0052 0DF12F02 		add	r2, sp, #47
 480 0056 FFF7FEFF 		bl	VL53L0X_RdByte
 481              	.LVL66:
 482 005a 2043     		orrs	r0, r0, r4
 483 005c C4B2     		uxtb	r4, r0
 484              	.LVL67:
 251:../Drivers/BSP/Components/vl53l0x/vl53l0x_api_core.c **** 		Status |= VL53L0X_WrByte(Dev, 0x83, byte|4);
 485              		.loc 1 251 0
 486 005e 9DF82F20 		ldrb	r2, [sp, #47]	@ zero_extendqisi2
 487 0062 2846     		mov	r0, r5
 488 0064 8321     		movs	r1, #131
 489 0066 42F00402 		orr	r2, r2, #4
 490 006a FFF7FEFF 		bl	VL53L0X_WrByte
 491              	.LVL68:
 492 006e 2043     		orrs	r0, r0, r4
 493 0070 C4B2     		uxtb	r4, r0
 494              	.LVL69:
 252:../Drivers/BSP/Components/vl53l0x/vl53l0x_api_core.c **** 		Status |= VL53L0X_WrByte(Dev, 0xFF, 0x07);
 495              		.loc 1 252 0
 496 0072 2846     		mov	r0, r5
 497 0074 FF21     		movs	r1, #255
ARM GAS  /tmp/ccfCLKEL.s 			page 14


 498 0076 0722     		movs	r2, #7
 499 0078 FFF7FEFF 		bl	VL53L0X_WrByte
 500              	.LVL70:
 501 007c 2043     		orrs	r0, r0, r4
 502 007e C4B2     		uxtb	r4, r0
 503              	.LVL71:
 253:../Drivers/BSP/Components/vl53l0x/vl53l0x_api_core.c **** 		Status |= VL53L0X_WrByte(Dev, 0x81, 0x01);
 504              		.loc 1 253 0
 505 0080 2846     		mov	r0, r5
 506 0082 8121     		movs	r1, #129
 507 0084 0122     		movs	r2, #1
 508 0086 FFF7FEFF 		bl	VL53L0X_WrByte
 509              	.LVL72:
 510 008a 2043     		orrs	r0, r0, r4
 511 008c C4B2     		uxtb	r4, r0
 512              	.LVL73:
 254:../Drivers/BSP/Components/vl53l0x/vl53l0x_api_core.c **** 
 255:../Drivers/BSP/Components/vl53l0x/vl53l0x_api_core.c **** 		Status |= VL53L0X_PollingDelay(Dev);
 513              		.loc 1 255 0
 514 008e 2846     		mov	r0, r5
 515 0090 FFF7FEFF 		bl	VL53L0X_PollingDelay
 516              	.LVL74:
 517 0094 2043     		orrs	r0, r0, r4
 518 0096 C4B2     		uxtb	r4, r0
 519              	.LVL75:
 256:../Drivers/BSP/Components/vl53l0x/vl53l0x_api_core.c **** 
 257:../Drivers/BSP/Components/vl53l0x/vl53l0x_api_core.c **** 		Status |= VL53L0X_WrByte(Dev, 0x80, 0x01);
 520              		.loc 1 257 0
 521 0098 2846     		mov	r0, r5
 522 009a 8021     		movs	r1, #128
 523 009c 0122     		movs	r2, #1
 524 009e FFF7FEFF 		bl	VL53L0X_WrByte
 525              	.LVL76:
 526 00a2 2043     		orrs	r0, r0, r4
 527 00a4 C4B2     		uxtb	r4, r0
 528              	.LVL77:
 258:../Drivers/BSP/Components/vl53l0x/vl53l0x_api_core.c **** 
 259:../Drivers/BSP/Components/vl53l0x/vl53l0x_api_core.c **** 		if (((option & 1) == 1) &&
 529              		.loc 1 259 0
 530 00a6 16F0010F 		tst	r6, #1
 531 00aa 57D0     		beq	.L44
 532              		.loc 1 259 0 is_stmt 0 discriminator 1
 533 00ac 17F0010F 		tst	r7, #1
 534 00b0 58D1     		bne	.L45
 260:../Drivers/BSP/Components/vl53l0x/vl53l0x_api_core.c **** 			((ReadDataFromDeviceDone & 1) == 0)) {
 261:../Drivers/BSP/Components/vl53l0x/vl53l0x_api_core.c **** 			Status |= VL53L0X_WrByte(Dev, 0x94, 0x6b);
 535              		.loc 1 261 0 is_stmt 1
 536 00b2 2846     		mov	r0, r5
 537 00b4 9421     		movs	r1, #148
 538 00b6 6B22     		movs	r2, #107
 539 00b8 FFF7FEFF 		bl	VL53L0X_WrByte
 540              	.LVL78:
 541 00bc 2043     		orrs	r0, r0, r4
 542 00be C4B2     		uxtb	r4, r0
 543              	.LVL79:
 262:../Drivers/BSP/Components/vl53l0x/vl53l0x_api_core.c **** 			Status |= VL53L0X_device_read_strobe(Dev);
 544              		.loc 1 262 0
ARM GAS  /tmp/ccfCLKEL.s 			page 15


 545 00c0 2846     		mov	r0, r5
 546 00c2 FFF7FEFF 		bl	VL53L0X_device_read_strobe
 547              	.LVL80:
 548 00c6 2043     		orrs	r0, r0, r4
 549 00c8 C4B2     		uxtb	r4, r0
 550              	.LVL81:
 263:../Drivers/BSP/Components/vl53l0x/vl53l0x_api_core.c **** 			Status |= VL53L0X_RdDWord(Dev, 0x90, &TmpDWord);
 551              		.loc 1 263 0
 552 00ca 2846     		mov	r0, r5
 553 00cc 9021     		movs	r1, #144
 554 00ce 0AAA     		add	r2, sp, #40
 555 00d0 FFF7FEFF 		bl	VL53L0X_RdDWord
 556              	.LVL82:
 557 00d4 2043     		orrs	r0, r0, r4
 558 00d6 C4B2     		uxtb	r4, r0
 559              	.LVL83:
 264:../Drivers/BSP/Components/vl53l0x/vl53l0x_api_core.c **** 
 265:../Drivers/BSP/Components/vl53l0x/vl53l0x_api_core.c **** 			ReferenceSpadCount = (uint8_t)((TmpDWord >> 8) & 0x07f);
 560              		.loc 1 265 0
 561 00d8 0A9B     		ldr	r3, [sp, #40]
 562 00da C3F3062B 		ubfx	fp, r3, #8, #7
 563              	.LVL84:
 266:../Drivers/BSP/Components/vl53l0x/vl53l0x_api_core.c **** 			ReferenceSpadType  = (uint8_t)((TmpDWord >> 15) & 0x01);
 564              		.loc 1 266 0
 565 00de C3F3C039 		ubfx	r9, r3, #15, #1
 566              	.LVL85:
 267:../Drivers/BSP/Components/vl53l0x/vl53l0x_api_core.c **** 
 268:../Drivers/BSP/Components/vl53l0x/vl53l0x_api_core.c **** 			Status |= VL53L0X_WrByte(Dev, 0x94, 0x24);
 567              		.loc 1 268 0
 568 00e2 2846     		mov	r0, r5
 569 00e4 9421     		movs	r1, #148
 570 00e6 2422     		movs	r2, #36
 571 00e8 FFF7FEFF 		bl	VL53L0X_WrByte
 572              	.LVL86:
 573 00ec 2043     		orrs	r0, r0, r4
 574 00ee C4B2     		uxtb	r4, r0
 575              	.LVL87:
 269:../Drivers/BSP/Components/vl53l0x/vl53l0x_api_core.c **** 			Status |= VL53L0X_device_read_strobe(Dev);
 576              		.loc 1 269 0
 577 00f0 2846     		mov	r0, r5
 578 00f2 FFF7FEFF 		bl	VL53L0X_device_read_strobe
 579              	.LVL88:
 580 00f6 2043     		orrs	r0, r0, r4
 581 00f8 C4B2     		uxtb	r4, r0
 582              	.LVL89:
 270:../Drivers/BSP/Components/vl53l0x/vl53l0x_api_core.c **** 			Status |= VL53L0X_RdDWord(Dev, 0x90, &TmpDWord);
 583              		.loc 1 270 0
 584 00fa 2846     		mov	r0, r5
 585 00fc 9021     		movs	r1, #144
 586 00fe 0AAA     		add	r2, sp, #40
 587 0100 FFF7FEFF 		bl	VL53L0X_RdDWord
 588              	.LVL90:
 589 0104 2043     		orrs	r0, r0, r4
 590 0106 C4B2     		uxtb	r4, r0
 591              	.LVL91:
 271:../Drivers/BSP/Components/vl53l0x/vl53l0x_api_core.c **** 
 272:../Drivers/BSP/Components/vl53l0x/vl53l0x_api_core.c **** 
ARM GAS  /tmp/ccfCLKEL.s 			page 16


 273:../Drivers/BSP/Components/vl53l0x/vl53l0x_api_core.c **** 			NvmRefGoodSpadMap[0] = (uint8_t)((TmpDWord >> 24)
 592              		.loc 1 273 0
 593 0108 0A9B     		ldr	r3, [sp, #40]
 594 010a 1A0E     		lsrs	r2, r3, #24
 595 010c 8DF80020 		strb	r2, [sp]
 274:../Drivers/BSP/Components/vl53l0x/vl53l0x_api_core.c **** 				& 0xff);
 275:../Drivers/BSP/Components/vl53l0x/vl53l0x_api_core.c **** 			NvmRefGoodSpadMap[1] = (uint8_t)((TmpDWord >> 16)
 596              		.loc 1 275 0
 597 0110 C3F30742 		ubfx	r2, r3, #16, #8
 598 0114 8DF80120 		strb	r2, [sp, #1]
 276:../Drivers/BSP/Components/vl53l0x/vl53l0x_api_core.c **** 				& 0xff);
 277:../Drivers/BSP/Components/vl53l0x/vl53l0x_api_core.c **** 			NvmRefGoodSpadMap[2] = (uint8_t)((TmpDWord >> 8)
 599              		.loc 1 277 0
 600 0118 C3F30722 		ubfx	r2, r3, #8, #8
 601 011c 8DF80220 		strb	r2, [sp, #2]
 278:../Drivers/BSP/Components/vl53l0x/vl53l0x_api_core.c **** 				& 0xff);
 279:../Drivers/BSP/Components/vl53l0x/vl53l0x_api_core.c **** 			NvmRefGoodSpadMap[3] = (uint8_t)(TmpDWord & 0xff);
 602              		.loc 1 279 0
 603 0120 8DF80330 		strb	r3, [sp, #3]
 280:../Drivers/BSP/Components/vl53l0x/vl53l0x_api_core.c **** 
 281:../Drivers/BSP/Components/vl53l0x/vl53l0x_api_core.c **** 			Status |= VL53L0X_WrByte(Dev, 0x94, 0x25);
 604              		.loc 1 281 0
 605 0124 2846     		mov	r0, r5
 606 0126 9421     		movs	r1, #148
 607 0128 2522     		movs	r2, #37
 608 012a FFF7FEFF 		bl	VL53L0X_WrByte
 609              	.LVL92:
 610 012e 2043     		orrs	r0, r0, r4
 611 0130 C4B2     		uxtb	r4, r0
 612              	.LVL93:
 282:../Drivers/BSP/Components/vl53l0x/vl53l0x_api_core.c **** 			Status |= VL53L0X_device_read_strobe(Dev);
 613              		.loc 1 282 0
 614 0132 2846     		mov	r0, r5
 615 0134 FFF7FEFF 		bl	VL53L0X_device_read_strobe
 616              	.LVL94:
 617 0138 2043     		orrs	r0, r0, r4
 618 013a C4B2     		uxtb	r4, r0
 619              	.LVL95:
 283:../Drivers/BSP/Components/vl53l0x/vl53l0x_api_core.c **** 			Status |= VL53L0X_RdDWord(Dev, 0x90, &TmpDWord);
 620              		.loc 1 283 0
 621 013c 2846     		mov	r0, r5
 622 013e 9021     		movs	r1, #144
 623 0140 0AAA     		add	r2, sp, #40
 624 0142 FFF7FEFF 		bl	VL53L0X_RdDWord
 625              	.LVL96:
 626 0146 2043     		orrs	r0, r0, r4
 627 0148 C4B2     		uxtb	r4, r0
 628              	.LVL97:
 284:../Drivers/BSP/Components/vl53l0x/vl53l0x_api_core.c **** 
 285:../Drivers/BSP/Components/vl53l0x/vl53l0x_api_core.c **** 			NvmRefGoodSpadMap[4] = (uint8_t)((TmpDWord >> 24)
 629              		.loc 1 285 0
 630 014a 0A9B     		ldr	r3, [sp, #40]
 631 014c 1A0E     		lsrs	r2, r3, #24
 632 014e 8DF80420 		strb	r2, [sp, #4]
 286:../Drivers/BSP/Components/vl53l0x/vl53l0x_api_core.c **** 				& 0xff);
 287:../Drivers/BSP/Components/vl53l0x/vl53l0x_api_core.c **** 			NvmRefGoodSpadMap[5] = (uint8_t)((TmpDWord >> 16)
 633              		.loc 1 287 0
ARM GAS  /tmp/ccfCLKEL.s 			page 17


 634 0152 C3F30743 		ubfx	r3, r3, #16, #8
 635 0156 8DF80530 		strb	r3, [sp, #5]
 636 015a 06E0     		b	.L33
 637              	.LVL98:
 638              	.L44:
 220:../Drivers/BSP/Components/vl53l0x/vl53l0x_api_core.c **** 	uint32_t PartUIDUpper = 0;
 639              		.loc 1 220 0
 640 015c 4FF00009 		mov	r9, #0
 219:../Drivers/BSP/Components/vl53l0x/vl53l0x_api_core.c **** 	uint8_t ReferenceSpadType = 0;
 641              		.loc 1 219 0
 642 0160 CB46     		mov	fp, r9
 643 0162 02E0     		b	.L33
 644              	.L45:
 220:../Drivers/BSP/Components/vl53l0x/vl53l0x_api_core.c **** 	uint32_t PartUIDUpper = 0;
 645              		.loc 1 220 0
 646 0164 4FF00009 		mov	r9, #0
 219:../Drivers/BSP/Components/vl53l0x/vl53l0x_api_core.c **** 	uint8_t ReferenceSpadType = 0;
 647              		.loc 1 219 0
 648 0168 CB46     		mov	fp, r9
 649              	.LVL99:
 650              	.L33:
 288:../Drivers/BSP/Components/vl53l0x/vl53l0x_api_core.c **** 				& 0xff);
 289:../Drivers/BSP/Components/vl53l0x/vl53l0x_api_core.c **** 		}
 290:../Drivers/BSP/Components/vl53l0x/vl53l0x_api_core.c **** 
 291:../Drivers/BSP/Components/vl53l0x/vl53l0x_api_core.c **** 		if (((option & 2) == 2) &&
 651              		.loc 1 291 0
 652 016a 16F0020F 		tst	r6, #2
 653 016e 00F0DB80 		beq	.L34
 654              		.loc 1 291 0 is_stmt 0 discriminator 1
 655 0172 17F0020F 		tst	r7, #2
 656 0176 40F0D780 		bne	.L34
 292:../Drivers/BSP/Components/vl53l0x/vl53l0x_api_core.c **** 			((ReadDataFromDeviceDone & 2) == 0)) {
 293:../Drivers/BSP/Components/vl53l0x/vl53l0x_api_core.c **** 
 294:../Drivers/BSP/Components/vl53l0x/vl53l0x_api_core.c **** 			Status |= VL53L0X_WrByte(Dev, 0x94, 0x02);
 657              		.loc 1 294 0 is_stmt 1
 658 017a 2846     		mov	r0, r5
 659 017c 9421     		movs	r1, #148
 660 017e 0222     		movs	r2, #2
 661 0180 FFF7FEFF 		bl	VL53L0X_WrByte
 662              	.LVL100:
 663 0184 2043     		orrs	r0, r0, r4
 664 0186 C4B2     		uxtb	r4, r0
 665              	.LVL101:
 295:../Drivers/BSP/Components/vl53l0x/vl53l0x_api_core.c **** 			Status |= VL53L0X_device_read_strobe(Dev);
 666              		.loc 1 295 0
 667 0188 2846     		mov	r0, r5
 668 018a FFF7FEFF 		bl	VL53L0X_device_read_strobe
 669              	.LVL102:
 670 018e 2043     		orrs	r0, r0, r4
 671 0190 C4B2     		uxtb	r4, r0
 672              	.LVL103:
 296:../Drivers/BSP/Components/vl53l0x/vl53l0x_api_core.c **** 			Status |= VL53L0X_RdByte(Dev, 0x90, &ModuleId);
 673              		.loc 1 296 0
 674 0192 2846     		mov	r0, r5
 675 0194 9021     		movs	r1, #144
 676 0196 0DF12702 		add	r2, sp, #39
 677 019a FFF7FEFF 		bl	VL53L0X_RdByte
ARM GAS  /tmp/ccfCLKEL.s 			page 18


 678              	.LVL104:
 679 019e 2043     		orrs	r0, r0, r4
 680 01a0 C4B2     		uxtb	r4, r0
 681              	.LVL105:
 297:../Drivers/BSP/Components/vl53l0x/vl53l0x_api_core.c **** 
 298:../Drivers/BSP/Components/vl53l0x/vl53l0x_api_core.c **** 			Status |= VL53L0X_WrByte(Dev, 0x94, 0x7B);
 682              		.loc 1 298 0
 683 01a2 2846     		mov	r0, r5
 684 01a4 9421     		movs	r1, #148
 685 01a6 7B22     		movs	r2, #123
 686 01a8 FFF7FEFF 		bl	VL53L0X_WrByte
 687              	.LVL106:
 688 01ac 2043     		orrs	r0, r0, r4
 689 01ae C4B2     		uxtb	r4, r0
 690              	.LVL107:
 299:../Drivers/BSP/Components/vl53l0x/vl53l0x_api_core.c **** 			Status |= VL53L0X_device_read_strobe(Dev);
 691              		.loc 1 299 0
 692 01b0 2846     		mov	r0, r5
 693 01b2 FFF7FEFF 		bl	VL53L0X_device_read_strobe
 694              	.LVL108:
 695 01b6 2043     		orrs	r0, r0, r4
 696 01b8 C4B2     		uxtb	r4, r0
 697              	.LVL109:
 300:../Drivers/BSP/Components/vl53l0x/vl53l0x_api_core.c **** 			Status |= VL53L0X_RdByte(Dev, 0x90, &Revision);
 698              		.loc 1 300 0
 699 01ba 2846     		mov	r0, r5
 700 01bc 9021     		movs	r1, #144
 701 01be 0DF12602 		add	r2, sp, #38
 702 01c2 FFF7FEFF 		bl	VL53L0X_RdByte
 703              	.LVL110:
 704 01c6 2043     		orrs	r0, r0, r4
 705 01c8 C4B2     		uxtb	r4, r0
 706              	.LVL111:
 301:../Drivers/BSP/Components/vl53l0x/vl53l0x_api_core.c **** 
 302:../Drivers/BSP/Components/vl53l0x/vl53l0x_api_core.c **** 			Status |= VL53L0X_WrByte(Dev, 0x94, 0x77);
 707              		.loc 1 302 0
 708 01ca 2846     		mov	r0, r5
 709 01cc 9421     		movs	r1, #148
 710 01ce 7722     		movs	r2, #119
 711 01d0 FFF7FEFF 		bl	VL53L0X_WrByte
 712              	.LVL112:
 713 01d4 2043     		orrs	r0, r0, r4
 714 01d6 C4B2     		uxtb	r4, r0
 715              	.LVL113:
 303:../Drivers/BSP/Components/vl53l0x/vl53l0x_api_core.c **** 			Status |= VL53L0X_device_read_strobe(Dev);
 716              		.loc 1 303 0
 717 01d8 2846     		mov	r0, r5
 718 01da FFF7FEFF 		bl	VL53L0X_device_read_strobe
 719              	.LVL114:
 720 01de 2043     		orrs	r0, r0, r4
 721 01e0 C4B2     		uxtb	r4, r0
 722              	.LVL115:
 304:../Drivers/BSP/Components/vl53l0x/vl53l0x_api_core.c **** 			Status |= VL53L0X_RdDWord(Dev, 0x90, &TmpDWord);
 723              		.loc 1 304 0
 724 01e2 2846     		mov	r0, r5
 725 01e4 9021     		movs	r1, #144
 726 01e6 0AAA     		add	r2, sp, #40
ARM GAS  /tmp/ccfCLKEL.s 			page 19


 727 01e8 FFF7FEFF 		bl	VL53L0X_RdDWord
 728              	.LVL116:
 729 01ec 2043     		orrs	r0, r0, r4
 730 01ee C4B2     		uxtb	r4, r0
 731              	.LVL117:
 305:../Drivers/BSP/Components/vl53l0x/vl53l0x_api_core.c **** 
 306:../Drivers/BSP/Components/vl53l0x/vl53l0x_api_core.c **** 			ProductId[0] = (char)((TmpDWord >> 25) & 0x07f);
 732              		.loc 1 306 0
 733 01f0 0A9B     		ldr	r3, [sp, #40]
 734 01f2 5A0E     		lsrs	r2, r3, #25
 735 01f4 8DF80820 		strb	r2, [sp, #8]
 307:../Drivers/BSP/Components/vl53l0x/vl53l0x_api_core.c **** 			ProductId[1] = (char)((TmpDWord >> 18) & 0x07f);
 736              		.loc 1 307 0
 737 01f8 C3F38642 		ubfx	r2, r3, #18, #7
 738 01fc 8DF80920 		strb	r2, [sp, #9]
 308:../Drivers/BSP/Components/vl53l0x/vl53l0x_api_core.c **** 			ProductId[2] = (char)((TmpDWord >> 11) & 0x07f);
 739              		.loc 1 308 0
 740 0200 C3F3C622 		ubfx	r2, r3, #11, #7
 741 0204 8DF80A20 		strb	r2, [sp, #10]
 309:../Drivers/BSP/Components/vl53l0x/vl53l0x_api_core.c **** 			ProductId[3] = (char)((TmpDWord >> 4) & 0x07f);
 742              		.loc 1 309 0
 743 0208 C3F30612 		ubfx	r2, r3, #4, #7
 744 020c 8DF80B20 		strb	r2, [sp, #11]
 310:../Drivers/BSP/Components/vl53l0x/vl53l0x_api_core.c **** 
 311:../Drivers/BSP/Components/vl53l0x/vl53l0x_api_core.c **** 			byte = (uint8_t)((TmpDWord & 0x00f) << 3);
 745              		.loc 1 311 0
 746 0210 03F00F03 		and	r3, r3, #15
 747 0214 DB00     		lsls	r3, r3, #3
 748 0216 8DF82F30 		strb	r3, [sp, #47]
 312:../Drivers/BSP/Components/vl53l0x/vl53l0x_api_core.c **** 
 313:../Drivers/BSP/Components/vl53l0x/vl53l0x_api_core.c **** 			Status |= VL53L0X_WrByte(Dev, 0x94, 0x78);
 749              		.loc 1 313 0
 750 021a 2846     		mov	r0, r5
 751 021c 9421     		movs	r1, #148
 752 021e 7822     		movs	r2, #120
 753 0220 FFF7FEFF 		bl	VL53L0X_WrByte
 754              	.LVL118:
 755 0224 2043     		orrs	r0, r0, r4
 756 0226 C4B2     		uxtb	r4, r0
 757              	.LVL119:
 314:../Drivers/BSP/Components/vl53l0x/vl53l0x_api_core.c **** 			Status |= VL53L0X_device_read_strobe(Dev);
 758              		.loc 1 314 0
 759 0228 2846     		mov	r0, r5
 760 022a FFF7FEFF 		bl	VL53L0X_device_read_strobe
 761              	.LVL120:
 762 022e 2043     		orrs	r0, r0, r4
 763 0230 C4B2     		uxtb	r4, r0
 764              	.LVL121:
 315:../Drivers/BSP/Components/vl53l0x/vl53l0x_api_core.c **** 			Status |= VL53L0X_RdDWord(Dev, 0x90, &TmpDWord);
 765              		.loc 1 315 0
 766 0232 2846     		mov	r0, r5
 767 0234 9021     		movs	r1, #144
 768 0236 0AAA     		add	r2, sp, #40
 769 0238 FFF7FEFF 		bl	VL53L0X_RdDWord
 770              	.LVL122:
 771 023c 2043     		orrs	r0, r0, r4
 772 023e C4B2     		uxtb	r4, r0
ARM GAS  /tmp/ccfCLKEL.s 			page 20


 773              	.LVL123:
 316:../Drivers/BSP/Components/vl53l0x/vl53l0x_api_core.c **** 
 317:../Drivers/BSP/Components/vl53l0x/vl53l0x_api_core.c **** 			ProductId[4] = (char)(byte +
 318:../Drivers/BSP/Components/vl53l0x/vl53l0x_api_core.c **** 					((TmpDWord >> 29) & 0x07f));
 774              		.loc 1 318 0
 775 0240 0A9B     		ldr	r3, [sp, #40]
 317:../Drivers/BSP/Components/vl53l0x/vl53l0x_api_core.c **** 					((TmpDWord >> 29) & 0x07f));
 776              		.loc 1 317 0
 777 0242 9DF82F20 		ldrb	r2, [sp, #47]	@ zero_extendqisi2
 778 0246 02EB5372 		add	r2, r2, r3, lsr #29
 779 024a 8DF80C20 		strb	r2, [sp, #12]
 319:../Drivers/BSP/Components/vl53l0x/vl53l0x_api_core.c **** 			ProductId[5] = (char)((TmpDWord >> 22) & 0x07f);
 780              		.loc 1 319 0
 781 024e C3F38652 		ubfx	r2, r3, #22, #7
 782 0252 8DF80D20 		strb	r2, [sp, #13]
 320:../Drivers/BSP/Components/vl53l0x/vl53l0x_api_core.c **** 			ProductId[6] = (char)((TmpDWord >> 15) & 0x07f);
 783              		.loc 1 320 0
 784 0256 C3F3C632 		ubfx	r2, r3, #15, #7
 785 025a 8DF80E20 		strb	r2, [sp, #14]
 321:../Drivers/BSP/Components/vl53l0x/vl53l0x_api_core.c **** 			ProductId[7] = (char)((TmpDWord >> 8) & 0x07f);
 786              		.loc 1 321 0
 787 025e C3F30622 		ubfx	r2, r3, #8, #7
 788 0262 8DF80F20 		strb	r2, [sp, #15]
 322:../Drivers/BSP/Components/vl53l0x/vl53l0x_api_core.c **** 			ProductId[8] = (char)((TmpDWord >> 1) & 0x07f);
 789              		.loc 1 322 0
 790 0266 C3F34602 		ubfx	r2, r3, #1, #7
 791 026a 8DF81020 		strb	r2, [sp, #16]
 323:../Drivers/BSP/Components/vl53l0x/vl53l0x_api_core.c **** 
 324:../Drivers/BSP/Components/vl53l0x/vl53l0x_api_core.c **** 			byte = (uint8_t)((TmpDWord & 0x001) << 6);
 792              		.loc 1 324 0
 793 026e 03F00103 		and	r3, r3, #1
 794 0272 9B01     		lsls	r3, r3, #6
 795 0274 8DF82F30 		strb	r3, [sp, #47]
 325:../Drivers/BSP/Components/vl53l0x/vl53l0x_api_core.c **** 
 326:../Drivers/BSP/Components/vl53l0x/vl53l0x_api_core.c **** 			Status |= VL53L0X_WrByte(Dev, 0x94, 0x79);
 796              		.loc 1 326 0
 797 0278 2846     		mov	r0, r5
 798 027a 9421     		movs	r1, #148
 799 027c 7922     		movs	r2, #121
 800 027e FFF7FEFF 		bl	VL53L0X_WrByte
 801              	.LVL124:
 802 0282 2043     		orrs	r0, r0, r4
 803 0284 C4B2     		uxtb	r4, r0
 804              	.LVL125:
 327:../Drivers/BSP/Components/vl53l0x/vl53l0x_api_core.c **** 
 328:../Drivers/BSP/Components/vl53l0x/vl53l0x_api_core.c **** 			Status |= VL53L0X_device_read_strobe(Dev);
 805              		.loc 1 328 0
 806 0286 2846     		mov	r0, r5
 807 0288 FFF7FEFF 		bl	VL53L0X_device_read_strobe
 808              	.LVL126:
 809 028c 2043     		orrs	r0, r0, r4
 810 028e C4B2     		uxtb	r4, r0
 811              	.LVL127:
 329:../Drivers/BSP/Components/vl53l0x/vl53l0x_api_core.c **** 
 330:../Drivers/BSP/Components/vl53l0x/vl53l0x_api_core.c **** 			Status |= VL53L0X_RdDWord(Dev, 0x90, &TmpDWord);
 812              		.loc 1 330 0
 813 0290 2846     		mov	r0, r5
ARM GAS  /tmp/ccfCLKEL.s 			page 21


 814 0292 9021     		movs	r1, #144
 815 0294 0AAA     		add	r2, sp, #40
 816 0296 FFF7FEFF 		bl	VL53L0X_RdDWord
 817              	.LVL128:
 818 029a 2043     		orrs	r0, r0, r4
 819 029c C4B2     		uxtb	r4, r0
 820              	.LVL129:
 331:../Drivers/BSP/Components/vl53l0x/vl53l0x_api_core.c **** 
 332:../Drivers/BSP/Components/vl53l0x/vl53l0x_api_core.c **** 			ProductId[9] = (char)(byte +
 333:../Drivers/BSP/Components/vl53l0x/vl53l0x_api_core.c **** 					((TmpDWord >> 26) & 0x07f));
 821              		.loc 1 333 0
 822 029e 0A9B     		ldr	r3, [sp, #40]
 332:../Drivers/BSP/Components/vl53l0x/vl53l0x_api_core.c **** 					((TmpDWord >> 26) & 0x07f));
 823              		.loc 1 332 0
 824 02a0 9DF82F20 		ldrb	r2, [sp, #47]	@ zero_extendqisi2
 825 02a4 02EB9362 		add	r2, r2, r3, lsr #26
 826 02a8 8DF81120 		strb	r2, [sp, #17]
 334:../Drivers/BSP/Components/vl53l0x/vl53l0x_api_core.c **** 			ProductId[10] = (char)((TmpDWord >> 19) & 0x07f);
 827              		.loc 1 334 0
 828 02ac C3F3C642 		ubfx	r2, r3, #19, #7
 829 02b0 8DF81220 		strb	r2, [sp, #18]
 335:../Drivers/BSP/Components/vl53l0x/vl53l0x_api_core.c **** 			ProductId[11] = (char)((TmpDWord >> 12) & 0x07f);
 830              		.loc 1 335 0
 831 02b4 C3F30632 		ubfx	r2, r3, #12, #7
 832 02b8 8DF81320 		strb	r2, [sp, #19]
 336:../Drivers/BSP/Components/vl53l0x/vl53l0x_api_core.c **** 			ProductId[12] = (char)((TmpDWord >> 5) & 0x07f);
 833              		.loc 1 336 0
 834 02bc C3F34612 		ubfx	r2, r3, #5, #7
 835 02c0 8DF81420 		strb	r2, [sp, #20]
 337:../Drivers/BSP/Components/vl53l0x/vl53l0x_api_core.c **** 
 338:../Drivers/BSP/Components/vl53l0x/vl53l0x_api_core.c **** 			byte = (uint8_t)((TmpDWord & 0x01f) << 2);
 836              		.loc 1 338 0
 837 02c4 03F01F03 		and	r3, r3, #31
 838 02c8 9B00     		lsls	r3, r3, #2
 839 02ca 8DF82F30 		strb	r3, [sp, #47]
 339:../Drivers/BSP/Components/vl53l0x/vl53l0x_api_core.c **** 
 340:../Drivers/BSP/Components/vl53l0x/vl53l0x_api_core.c **** 			Status |= VL53L0X_WrByte(Dev, 0x94, 0x7A);
 840              		.loc 1 340 0
 841 02ce 2846     		mov	r0, r5
 842 02d0 9421     		movs	r1, #148
 843 02d2 7A22     		movs	r2, #122
 844 02d4 FFF7FEFF 		bl	VL53L0X_WrByte
 845              	.LVL130:
 846 02d8 2043     		orrs	r0, r0, r4
 847 02da C4B2     		uxtb	r4, r0
 848              	.LVL131:
 341:../Drivers/BSP/Components/vl53l0x/vl53l0x_api_core.c **** 
 342:../Drivers/BSP/Components/vl53l0x/vl53l0x_api_core.c **** 			Status |= VL53L0X_device_read_strobe(Dev);
 849              		.loc 1 342 0
 850 02dc 2846     		mov	r0, r5
 851 02de FFF7FEFF 		bl	VL53L0X_device_read_strobe
 852              	.LVL132:
 853 02e2 2043     		orrs	r0, r0, r4
 854 02e4 C4B2     		uxtb	r4, r0
 855              	.LVL133:
 343:../Drivers/BSP/Components/vl53l0x/vl53l0x_api_core.c **** 
 344:../Drivers/BSP/Components/vl53l0x/vl53l0x_api_core.c **** 			Status |= VL53L0X_RdDWord(Dev, 0x90, &TmpDWord);
ARM GAS  /tmp/ccfCLKEL.s 			page 22


 856              		.loc 1 344 0
 857 02e6 2846     		mov	r0, r5
 858 02e8 9021     		movs	r1, #144
 859 02ea 0AAA     		add	r2, sp, #40
 860 02ec FFF7FEFF 		bl	VL53L0X_RdDWord
 861              	.LVL134:
 862 02f0 2043     		orrs	r0, r0, r4
 863 02f2 C4B2     		uxtb	r4, r0
 864              	.LVL135:
 345:../Drivers/BSP/Components/vl53l0x/vl53l0x_api_core.c **** 
 346:../Drivers/BSP/Components/vl53l0x/vl53l0x_api_core.c **** 			ProductId[13] = (char)(byte +
 347:../Drivers/BSP/Components/vl53l0x/vl53l0x_api_core.c **** 					((TmpDWord >> 30) & 0x07f));
 865              		.loc 1 347 0
 866 02f4 0A9B     		ldr	r3, [sp, #40]
 346:../Drivers/BSP/Components/vl53l0x/vl53l0x_api_core.c **** 					((TmpDWord >> 30) & 0x07f));
 867              		.loc 1 346 0
 868 02f6 9DF82F20 		ldrb	r2, [sp, #47]	@ zero_extendqisi2
 869 02fa 02EB9372 		add	r2, r2, r3, lsr #30
 870 02fe 8DF81520 		strb	r2, [sp, #21]
 348:../Drivers/BSP/Components/vl53l0x/vl53l0x_api_core.c **** 			ProductId[14] = (char)((TmpDWord >> 23) & 0x07f);
 871              		.loc 1 348 0
 872 0302 C3F3C652 		ubfx	r2, r3, #23, #7
 873 0306 8DF81620 		strb	r2, [sp, #22]
 349:../Drivers/BSP/Components/vl53l0x/vl53l0x_api_core.c **** 			ProductId[15] = (char)((TmpDWord >> 16) & 0x07f);
 874              		.loc 1 349 0
 875 030a C3F30642 		ubfx	r2, r3, #16, #7
 876 030e 8DF81720 		strb	r2, [sp, #23]
 350:../Drivers/BSP/Components/vl53l0x/vl53l0x_api_core.c **** 			ProductId[16] = (char)((TmpDWord >> 9) & 0x07f);
 877              		.loc 1 350 0
 878 0312 C3F34622 		ubfx	r2, r3, #9, #7
 879 0316 8DF81820 		strb	r2, [sp, #24]
 351:../Drivers/BSP/Components/vl53l0x/vl53l0x_api_core.c **** 			ProductId[17] = (char)((TmpDWord >> 2) & 0x07f);
 880              		.loc 1 351 0
 881 031a C3F38603 		ubfx	r3, r3, #2, #7
 882 031e 8DF81930 		strb	r3, [sp, #25]
 352:../Drivers/BSP/Components/vl53l0x/vl53l0x_api_core.c **** 			ProductId[18] = '\0';
 883              		.loc 1 352 0
 884 0322 0023     		movs	r3, #0
 885 0324 8DF81A30 		strb	r3, [sp, #26]
 886              	.L34:
 353:../Drivers/BSP/Components/vl53l0x/vl53l0x_api_core.c **** 
 354:../Drivers/BSP/Components/vl53l0x/vl53l0x_api_core.c **** 		}
 355:../Drivers/BSP/Components/vl53l0x/vl53l0x_api_core.c **** 
 356:../Drivers/BSP/Components/vl53l0x/vl53l0x_api_core.c **** 		if (((option & 4) == 4) &&
 887              		.loc 1 356 0
 888 0328 16F0040F 		tst	r6, #4
 889 032c 00F08980 		beq	.L46
 890              		.loc 1 356 0 is_stmt 0 discriminator 1
 891 0330 17F0040F 		tst	r7, #4
 892 0334 40F08980 		bne	.L47
 357:../Drivers/BSP/Components/vl53l0x/vl53l0x_api_core.c **** 			((ReadDataFromDeviceDone & 4) == 0)) {
 358:../Drivers/BSP/Components/vl53l0x/vl53l0x_api_core.c **** 
 359:../Drivers/BSP/Components/vl53l0x/vl53l0x_api_core.c **** 			Status |= VL53L0X_WrByte(Dev, 0x94, 0x7B);
 893              		.loc 1 359 0 is_stmt 1
 894 0338 2846     		mov	r0, r5
 895 033a 9421     		movs	r1, #148
 896 033c 7B22     		movs	r2, #123
ARM GAS  /tmp/ccfCLKEL.s 			page 23


 897 033e FFF7FEFF 		bl	VL53L0X_WrByte
 898              	.LVL136:
 899 0342 2043     		orrs	r0, r0, r4
 900 0344 C4B2     		uxtb	r4, r0
 901              	.LVL137:
 360:../Drivers/BSP/Components/vl53l0x/vl53l0x_api_core.c **** 			Status |= VL53L0X_device_read_strobe(Dev);
 902              		.loc 1 360 0
 903 0346 2846     		mov	r0, r5
 904 0348 FFF7FEFF 		bl	VL53L0X_device_read_strobe
 905              	.LVL138:
 906 034c 2043     		orrs	r0, r0, r4
 907 034e C4B2     		uxtb	r4, r0
 908              	.LVL139:
 361:../Drivers/BSP/Components/vl53l0x/vl53l0x_api_core.c **** 			Status |= VL53L0X_RdDWord(Dev, 0x90, &PartUIDUpper);
 909              		.loc 1 361 0
 910 0350 2846     		mov	r0, r5
 911 0352 9021     		movs	r1, #144
 912 0354 08AA     		add	r2, sp, #32
 913 0356 FFF7FEFF 		bl	VL53L0X_RdDWord
 914              	.LVL140:
 915 035a 2043     		orrs	r0, r0, r4
 916 035c C4B2     		uxtb	r4, r0
 917              	.LVL141:
 362:../Drivers/BSP/Components/vl53l0x/vl53l0x_api_core.c **** 
 363:../Drivers/BSP/Components/vl53l0x/vl53l0x_api_core.c **** 			Status |= VL53L0X_WrByte(Dev, 0x94, 0x7C);
 918              		.loc 1 363 0
 919 035e 2846     		mov	r0, r5
 920 0360 9421     		movs	r1, #148
 921 0362 7C22     		movs	r2, #124
 922 0364 FFF7FEFF 		bl	VL53L0X_WrByte
 923              	.LVL142:
 924 0368 2043     		orrs	r0, r0, r4
 925 036a C4B2     		uxtb	r4, r0
 926              	.LVL143:
 364:../Drivers/BSP/Components/vl53l0x/vl53l0x_api_core.c **** 			Status |= VL53L0X_device_read_strobe(Dev);
 927              		.loc 1 364 0
 928 036c 2846     		mov	r0, r5
 929 036e FFF7FEFF 		bl	VL53L0X_device_read_strobe
 930              	.LVL144:
 931 0372 2043     		orrs	r0, r0, r4
 932 0374 C4B2     		uxtb	r4, r0
 933              	.LVL145:
 365:../Drivers/BSP/Components/vl53l0x/vl53l0x_api_core.c **** 			Status |= VL53L0X_RdDWord(Dev, 0x90, &PartUIDLower);
 934              		.loc 1 365 0
 935 0376 2846     		mov	r0, r5
 936 0378 9021     		movs	r1, #144
 937 037a 07AA     		add	r2, sp, #28
 938 037c FFF7FEFF 		bl	VL53L0X_RdDWord
 939              	.LVL146:
 940 0380 2043     		orrs	r0, r0, r4
 941 0382 C4B2     		uxtb	r4, r0
 942              	.LVL147:
 366:../Drivers/BSP/Components/vl53l0x/vl53l0x_api_core.c **** 
 367:../Drivers/BSP/Components/vl53l0x/vl53l0x_api_core.c **** 			Status |= VL53L0X_WrByte(Dev, 0x94, 0x73);
 943              		.loc 1 367 0
 944 0384 2846     		mov	r0, r5
 945 0386 9421     		movs	r1, #148
ARM GAS  /tmp/ccfCLKEL.s 			page 24


 946 0388 7322     		movs	r2, #115
 947 038a FFF7FEFF 		bl	VL53L0X_WrByte
 948              	.LVL148:
 949 038e 2043     		orrs	r0, r0, r4
 950 0390 C4B2     		uxtb	r4, r0
 951              	.LVL149:
 368:../Drivers/BSP/Components/vl53l0x/vl53l0x_api_core.c **** 			Status |= VL53L0X_device_read_strobe(Dev);
 952              		.loc 1 368 0
 953 0392 2846     		mov	r0, r5
 954 0394 FFF7FEFF 		bl	VL53L0X_device_read_strobe
 955              	.LVL150:
 956 0398 2043     		orrs	r0, r0, r4
 957 039a C4B2     		uxtb	r4, r0
 958              	.LVL151:
 369:../Drivers/BSP/Components/vl53l0x/vl53l0x_api_core.c **** 			Status |= VL53L0X_RdDWord(Dev, 0x90, &TmpDWord);
 959              		.loc 1 369 0
 960 039c 2846     		mov	r0, r5
 961 039e 9021     		movs	r1, #144
 962 03a0 0AAA     		add	r2, sp, #40
 963 03a2 FFF7FEFF 		bl	VL53L0X_RdDWord
 964              	.LVL152:
 965 03a6 2043     		orrs	r0, r0, r4
 966 03a8 C4B2     		uxtb	r4, r0
 967              	.LVL153:
 370:../Drivers/BSP/Components/vl53l0x/vl53l0x_api_core.c **** 
 371:../Drivers/BSP/Components/vl53l0x/vl53l0x_api_core.c **** 			SignalRateMeasFixed1104_400_mm = (TmpDWord &
 372:../Drivers/BSP/Components/vl53l0x/vl53l0x_api_core.c **** 				0x0000000ff) << 8;
 968              		.loc 1 372 0
 969 03aa 0A9B     		ldr	r3, [sp, #40]
 970 03ac 4FEA0328 		lsl	r8, r3, #8
 371:../Drivers/BSP/Components/vl53l0x/vl53l0x_api_core.c **** 				0x0000000ff) << 8;
 971              		.loc 1 371 0
 972 03b0 1FFA88F8 		uxth	r8, r8
 973              	.LVL154:
 373:../Drivers/BSP/Components/vl53l0x/vl53l0x_api_core.c **** 
 374:../Drivers/BSP/Components/vl53l0x/vl53l0x_api_core.c **** 			Status |= VL53L0X_WrByte(Dev, 0x94, 0x74);
 974              		.loc 1 374 0
 975 03b4 2846     		mov	r0, r5
 976 03b6 9421     		movs	r1, #148
 977 03b8 7422     		movs	r2, #116
 978 03ba FFF7FEFF 		bl	VL53L0X_WrByte
 979              	.LVL155:
 980 03be 2043     		orrs	r0, r0, r4
 981 03c0 C4B2     		uxtb	r4, r0
 982              	.LVL156:
 375:../Drivers/BSP/Components/vl53l0x/vl53l0x_api_core.c **** 			Status |= VL53L0X_device_read_strobe(Dev);
 983              		.loc 1 375 0
 984 03c2 2846     		mov	r0, r5
 985 03c4 FFF7FEFF 		bl	VL53L0X_device_read_strobe
 986              	.LVL157:
 987 03c8 2043     		orrs	r0, r0, r4
 988 03ca C4B2     		uxtb	r4, r0
 989              	.LVL158:
 376:../Drivers/BSP/Components/vl53l0x/vl53l0x_api_core.c **** 			Status |= VL53L0X_RdDWord(Dev, 0x90, &TmpDWord);
 990              		.loc 1 376 0
 991 03cc 2846     		mov	r0, r5
 992 03ce 9021     		movs	r1, #144
ARM GAS  /tmp/ccfCLKEL.s 			page 25


 993 03d0 0AAA     		add	r2, sp, #40
 994 03d2 FFF7FEFF 		bl	VL53L0X_RdDWord
 995              	.LVL159:
 996 03d6 2043     		orrs	r0, r0, r4
 997 03d8 C4B2     		uxtb	r4, r0
 998              	.LVL160:
 377:../Drivers/BSP/Components/vl53l0x/vl53l0x_api_core.c **** 
 378:../Drivers/BSP/Components/vl53l0x/vl53l0x_api_core.c **** 			SignalRateMeasFixed1104_400_mm |= ((TmpDWord &
 379:../Drivers/BSP/Components/vl53l0x/vl53l0x_api_core.c **** 				0xff000000) >> 24);
 999              		.loc 1 379 0
 1000 03da 9DF82B30 		ldrb	r3, [sp, #43]	@ zero_extendqisi2
 378:../Drivers/BSP/Components/vl53l0x/vl53l0x_api_core.c **** 				0xff000000) >> 24);
 1001              		.loc 1 378 0
 1002 03de 43EA0808 		orr	r8, r3, r8
 1003              	.LVL161:
 380:../Drivers/BSP/Components/vl53l0x/vl53l0x_api_core.c **** 
 381:../Drivers/BSP/Components/vl53l0x/vl53l0x_api_core.c **** 			Status |= VL53L0X_WrByte(Dev, 0x94, 0x75);
 1004              		.loc 1 381 0
 1005 03e2 2846     		mov	r0, r5
 1006 03e4 9421     		movs	r1, #148
 1007 03e6 7522     		movs	r2, #117
 1008 03e8 FFF7FEFF 		bl	VL53L0X_WrByte
 1009              	.LVL162:
 1010 03ec 2043     		orrs	r0, r0, r4
 1011 03ee C4B2     		uxtb	r4, r0
 1012              	.LVL163:
 382:../Drivers/BSP/Components/vl53l0x/vl53l0x_api_core.c **** 			Status |= VL53L0X_device_read_strobe(Dev);
 1013              		.loc 1 382 0
 1014 03f0 2846     		mov	r0, r5
 1015 03f2 FFF7FEFF 		bl	VL53L0X_device_read_strobe
 1016              	.LVL164:
 1017 03f6 2043     		orrs	r0, r0, r4
 1018 03f8 C4B2     		uxtb	r4, r0
 1019              	.LVL165:
 383:../Drivers/BSP/Components/vl53l0x/vl53l0x_api_core.c **** 			Status |= VL53L0X_RdDWord(Dev, 0x90, &TmpDWord);
 1020              		.loc 1 383 0
 1021 03fa 2846     		mov	r0, r5
 1022 03fc 9021     		movs	r1, #144
 1023 03fe 0AAA     		add	r2, sp, #40
 1024 0400 FFF7FEFF 		bl	VL53L0X_RdDWord
 1025              	.LVL166:
 1026 0404 2043     		orrs	r0, r0, r4
 1027 0406 C4B2     		uxtb	r4, r0
 1028              	.LVL167:
 384:../Drivers/BSP/Components/vl53l0x/vl53l0x_api_core.c **** 
 385:../Drivers/BSP/Components/vl53l0x/vl53l0x_api_core.c **** 			DistMeasFixed1104_400_mm = (TmpDWord & 0x0000000ff)
 386:../Drivers/BSP/Components/vl53l0x/vl53l0x_api_core.c **** 							<< 8;
 1029              		.loc 1 386 0
 1030 0408 0A9B     		ldr	r3, [sp, #40]
 1031 040a 4FEA032A 		lsl	r10, r3, #8
 385:../Drivers/BSP/Components/vl53l0x/vl53l0x_api_core.c **** 							<< 8;
 1032              		.loc 1 385 0
 1033 040e 1FFA8AFA 		uxth	r10, r10
 1034              	.LVL168:
 387:../Drivers/BSP/Components/vl53l0x/vl53l0x_api_core.c **** 
 388:../Drivers/BSP/Components/vl53l0x/vl53l0x_api_core.c **** 			Status |= VL53L0X_WrByte(Dev, 0x94, 0x76);
 1035              		.loc 1 388 0
ARM GAS  /tmp/ccfCLKEL.s 			page 26


 1036 0412 2846     		mov	r0, r5
 1037 0414 9421     		movs	r1, #148
 1038 0416 7622     		movs	r2, #118
 1039 0418 FFF7FEFF 		bl	VL53L0X_WrByte
 1040              	.LVL169:
 1041 041c 2043     		orrs	r0, r0, r4
 1042 041e C4B2     		uxtb	r4, r0
 1043              	.LVL170:
 389:../Drivers/BSP/Components/vl53l0x/vl53l0x_api_core.c **** 			Status |= VL53L0X_device_read_strobe(Dev);
 1044              		.loc 1 389 0
 1045 0420 2846     		mov	r0, r5
 1046 0422 FFF7FEFF 		bl	VL53L0X_device_read_strobe
 1047              	.LVL171:
 1048 0426 2043     		orrs	r0, r0, r4
 1049 0428 C4B2     		uxtb	r4, r0
 1050              	.LVL172:
 390:../Drivers/BSP/Components/vl53l0x/vl53l0x_api_core.c **** 			Status |= VL53L0X_RdDWord(Dev, 0x90, &TmpDWord);
 1051              		.loc 1 390 0
 1052 042a 2846     		mov	r0, r5
 1053 042c 9021     		movs	r1, #144
 1054 042e 0AAA     		add	r2, sp, #40
 1055 0430 FFF7FEFF 		bl	VL53L0X_RdDWord
 1056              	.LVL173:
 1057 0434 2043     		orrs	r0, r0, r4
 1058 0436 C4B2     		uxtb	r4, r0
 1059              	.LVL174:
 391:../Drivers/BSP/Components/vl53l0x/vl53l0x_api_core.c **** 
 392:../Drivers/BSP/Components/vl53l0x/vl53l0x_api_core.c **** 			DistMeasFixed1104_400_mm |= ((TmpDWord & 0xff000000)
 393:../Drivers/BSP/Components/vl53l0x/vl53l0x_api_core.c **** 							>> 24);
 1060              		.loc 1 393 0
 1061 0438 9DF82B30 		ldrb	r3, [sp, #43]	@ zero_extendqisi2
 392:../Drivers/BSP/Components/vl53l0x/vl53l0x_api_core.c **** 							>> 24);
 1062              		.loc 1 392 0
 1063 043c 43EA0A0A 		orr	r10, r3, r10
 1064              	.LVL175:
 1065 0440 06E0     		b	.L35
 1066              	.LVL176:
 1067              	.L46:
 227:../Drivers/BSP/Components/vl53l0x/vl53l0x_api_core.c **** 	char ProductId[19];
 1068              		.loc 1 227 0
 1069 0442 4FF00008 		mov	r8, #0
 226:../Drivers/BSP/Components/vl53l0x/vl53l0x_api_core.c **** 	uint32_t SignalRateMeasFixed1104_400_mm = 0;
 1070              		.loc 1 226 0
 1071 0446 C246     		mov	r10, r8
 1072 0448 02E0     		b	.L35
 1073              	.L47:
 227:../Drivers/BSP/Components/vl53l0x/vl53l0x_api_core.c **** 	char ProductId[19];
 1074              		.loc 1 227 0
 1075 044a 4FF00008 		mov	r8, #0
 226:../Drivers/BSP/Components/vl53l0x/vl53l0x_api_core.c **** 	uint32_t SignalRateMeasFixed1104_400_mm = 0;
 1076              		.loc 1 226 0
 1077 044e C246     		mov	r10, r8
 1078              	.LVL177:
 1079              	.L35:
 394:../Drivers/BSP/Components/vl53l0x/vl53l0x_api_core.c **** 		}
 395:../Drivers/BSP/Components/vl53l0x/vl53l0x_api_core.c **** 
 396:../Drivers/BSP/Components/vl53l0x/vl53l0x_api_core.c **** 		Status |= VL53L0X_WrByte(Dev, 0x81, 0x00);
ARM GAS  /tmp/ccfCLKEL.s 			page 27


 1080              		.loc 1 396 0
 1081 0450 2846     		mov	r0, r5
 1082 0452 8121     		movs	r1, #129
 1083 0454 0022     		movs	r2, #0
 1084 0456 FFF7FEFF 		bl	VL53L0X_WrByte
 1085              	.LVL178:
 1086 045a 2043     		orrs	r0, r0, r4
 1087 045c C4B2     		uxtb	r4, r0
 1088              	.LVL179:
 397:../Drivers/BSP/Components/vl53l0x/vl53l0x_api_core.c **** 		Status |= VL53L0X_WrByte(Dev, 0xFF, 0x06);
 1089              		.loc 1 397 0
 1090 045e 2846     		mov	r0, r5
 1091 0460 FF21     		movs	r1, #255
 1092 0462 0622     		movs	r2, #6
 1093 0464 FFF7FEFF 		bl	VL53L0X_WrByte
 1094              	.LVL180:
 1095 0468 2043     		orrs	r0, r0, r4
 1096 046a C4B2     		uxtb	r4, r0
 1097              	.LVL181:
 398:../Drivers/BSP/Components/vl53l0x/vl53l0x_api_core.c **** 		Status |= VL53L0X_RdByte(Dev, 0x83, &byte);
 1098              		.loc 1 398 0
 1099 046c 2846     		mov	r0, r5
 1100 046e 8321     		movs	r1, #131
 1101 0470 0DF12F02 		add	r2, sp, #47
 1102 0474 FFF7FEFF 		bl	VL53L0X_RdByte
 1103              	.LVL182:
 1104 0478 2043     		orrs	r0, r0, r4
 1105 047a C4B2     		uxtb	r4, r0
 1106              	.LVL183:
 399:../Drivers/BSP/Components/vl53l0x/vl53l0x_api_core.c **** 		Status |= VL53L0X_WrByte(Dev, 0x83, byte&0xfb);
 1107              		.loc 1 399 0
 1108 047c 9DF82F20 		ldrb	r2, [sp, #47]	@ zero_extendqisi2
 1109 0480 2846     		mov	r0, r5
 1110 0482 8321     		movs	r1, #131
 1111 0484 02F0FB02 		and	r2, r2, #251
 1112 0488 FFF7FEFF 		bl	VL53L0X_WrByte
 1113              	.LVL184:
 1114 048c 2043     		orrs	r0, r0, r4
 1115 048e C4B2     		uxtb	r4, r0
 1116              	.LVL185:
 400:../Drivers/BSP/Components/vl53l0x/vl53l0x_api_core.c **** 		Status |= VL53L0X_WrByte(Dev, 0xFF, 0x01);
 1117              		.loc 1 400 0
 1118 0490 2846     		mov	r0, r5
 1119 0492 FF21     		movs	r1, #255
 1120 0494 0122     		movs	r2, #1
 1121 0496 FFF7FEFF 		bl	VL53L0X_WrByte
 1122              	.LVL186:
 1123 049a 2043     		orrs	r0, r0, r4
 1124 049c C4B2     		uxtb	r4, r0
 1125              	.LVL187:
 401:../Drivers/BSP/Components/vl53l0x/vl53l0x_api_core.c **** 		Status |= VL53L0X_WrByte(Dev, 0x00, 0x01);
 1126              		.loc 1 401 0
 1127 049e 2846     		mov	r0, r5
 1128 04a0 0021     		movs	r1, #0
 1129 04a2 0122     		movs	r2, #1
 1130 04a4 FFF7FEFF 		bl	VL53L0X_WrByte
 1131              	.LVL188:
ARM GAS  /tmp/ccfCLKEL.s 			page 28


 1132 04a8 2043     		orrs	r0, r0, r4
 1133 04aa C4B2     		uxtb	r4, r0
 1134              	.LVL189:
 402:../Drivers/BSP/Components/vl53l0x/vl53l0x_api_core.c **** 
 403:../Drivers/BSP/Components/vl53l0x/vl53l0x_api_core.c **** 		Status |= VL53L0X_WrByte(Dev, 0xFF, 0x00);
 1135              		.loc 1 403 0
 1136 04ac 2846     		mov	r0, r5
 1137 04ae FF21     		movs	r1, #255
 1138 04b0 0022     		movs	r2, #0
 1139 04b2 FFF7FEFF 		bl	VL53L0X_WrByte
 1140              	.LVL190:
 1141 04b6 2043     		orrs	r0, r0, r4
 1142 04b8 C4B2     		uxtb	r4, r0
 1143              	.LVL191:
 404:../Drivers/BSP/Components/vl53l0x/vl53l0x_api_core.c **** 		Status |= VL53L0X_WrByte(Dev, 0x80, 0x00);
 1144              		.loc 1 404 0
 1145 04ba 2846     		mov	r0, r5
 1146 04bc 8021     		movs	r1, #128
 1147 04be 0022     		movs	r2, #0
 1148 04c0 FFF7FEFF 		bl	VL53L0X_WrByte
 1149              	.LVL192:
 1150 04c4 2043     		orrs	r0, r0, r4
 1151 04c6 C4B2     		uxtb	r4, r0
 1152              	.LVL193:
 1153 04c8 05E0     		b	.L32
 1154              	.LVL194:
 1155              	.L43:
 227:../Drivers/BSP/Components/vl53l0x/vl53l0x_api_core.c **** 	char ProductId[19];
 1156              		.loc 1 227 0
 1157 04ca 4FF00008 		mov	r8, #0
 226:../Drivers/BSP/Components/vl53l0x/vl53l0x_api_core.c **** 	uint32_t SignalRateMeasFixed1104_400_mm = 0;
 1158              		.loc 1 226 0
 1159 04ce C246     		mov	r10, r8
 220:../Drivers/BSP/Components/vl53l0x/vl53l0x_api_core.c **** 	uint32_t PartUIDUpper = 0;
 1160              		.loc 1 220 0
 1161 04d0 C146     		mov	r9, r8
 219:../Drivers/BSP/Components/vl53l0x/vl53l0x_api_core.c **** 	uint8_t ReferenceSpadType = 0;
 1162              		.loc 1 219 0
 1163 04d2 C346     		mov	fp, r8
 214:../Drivers/BSP/Components/vl53l0x/vl53l0x_api_core.c **** 	uint8_t byte;
 1164              		.loc 1 214 0
 1165 04d4 4446     		mov	r4, r8
 1166              	.LVL195:
 1167              	.L32:
 405:../Drivers/BSP/Components/vl53l0x/vl53l0x_api_core.c **** 	}
 406:../Drivers/BSP/Components/vl53l0x/vl53l0x_api_core.c **** 
 407:../Drivers/BSP/Components/vl53l0x/vl53l0x_api_core.c **** 	if ((Status == VL53L0X_ERROR_NONE) &&
 1168              		.loc 1 407 0
 1169 04d6 002C     		cmp	r4, #0
 1170 04d8 4DD1     		bne	.L36
 1171              		.loc 1 407 0 is_stmt 0 discriminator 1
 1172 04da 072F     		cmp	r7, #7
 1173 04dc 4BD0     		beq	.L36
 408:../Drivers/BSP/Components/vl53l0x/vl53l0x_api_core.c **** 		(ReadDataFromDeviceDone != 7)) {
 409:../Drivers/BSP/Components/vl53l0x/vl53l0x_api_core.c **** 		/* Assign to variable if status is ok */
 410:../Drivers/BSP/Components/vl53l0x/vl53l0x_api_core.c **** 		if (((option & 1) == 1) &&
 1174              		.loc 1 410 0 is_stmt 1
ARM GAS  /tmp/ccfCLKEL.s 			page 29


 1175 04de 16F0010F 		tst	r6, #1
 1176 04e2 12D0     		beq	.L37
 1177              		.loc 1 410 0 is_stmt 0 discriminator 1
 1178 04e4 17F0010F 		tst	r7, #1
 1179 04e8 0FD1     		bne	.L37
 411:../Drivers/BSP/Components/vl53l0x/vl53l0x_api_core.c **** 			((ReadDataFromDeviceDone & 1) == 0)) {
 412:../Drivers/BSP/Components/vl53l0x/vl53l0x_api_core.c **** 			VL53L0X_SETDEVICESPECIFICPARAMETER(Dev,
 1180              		.loc 1 412 0 is_stmt 1
 1181 04ea 85F813B1 		strb	fp, [r5, #275]
 413:../Drivers/BSP/Components/vl53l0x/vl53l0x_api_core.c **** 				ReferenceSpadCount, ReferenceSpadCount);
 414:../Drivers/BSP/Components/vl53l0x/vl53l0x_api_core.c **** 
 415:../Drivers/BSP/Components/vl53l0x/vl53l0x_api_core.c **** 			VL53L0X_SETDEVICESPECIFICPARAMETER(Dev,
 1182              		.loc 1 415 0
 1183 04ee 85F81491 		strb	r9, [r5, #276]
 1184              	.LVL196:
 416:../Drivers/BSP/Components/vl53l0x/vl53l0x_api_core.c **** 				ReferenceSpadType, ReferenceSpadType);
 417:../Drivers/BSP/Components/vl53l0x/vl53l0x_api_core.c **** 
 418:../Drivers/BSP/Components/vl53l0x/vl53l0x_api_core.c **** 			for (i = 0; i < VL53L0X_REF_SPAD_BUFFER_SIZE; i++) {
 1185              		.loc 1 418 0
 1186 04f2 0023     		movs	r3, #0
 1187 04f4 07E0     		b	.L38
 1188              	.LVL197:
 1189              	.L39:
 419:../Drivers/BSP/Components/vl53l0x/vl53l0x_api_core.c **** 				Dev->Data.SpadData.RefGoodSpadMap[i] =
 420:../Drivers/BSP/Components/vl53l0x/vl53l0x_api_core.c **** 					NvmRefGoodSpadMap[i];
 1190              		.loc 1 420 0 discriminator 3
 1191 04f6 0CAA     		add	r2, sp, #48
 1192 04f8 1A44     		add	r2, r2, r3
 1193 04fa 12F8301C 		ldrb	r1, [r2, #-48]	@ zero_extendqisi2
 419:../Drivers/BSP/Components/vl53l0x/vl53l0x_api_core.c **** 				Dev->Data.SpadData.RefGoodSpadMap[i] =
 1194              		.loc 1 419 0 discriminator 3
 1195 04fe EA18     		adds	r2, r5, r3
 1196 0500 82F82A11 		strb	r1, [r2, #298]
 418:../Drivers/BSP/Components/vl53l0x/vl53l0x_api_core.c **** 				Dev->Data.SpadData.RefGoodSpadMap[i] =
 1197              		.loc 1 418 0 discriminator 3
 1198 0504 0133     		adds	r3, r3, #1
 1199              	.LVL198:
 1200              	.L38:
 418:../Drivers/BSP/Components/vl53l0x/vl53l0x_api_core.c **** 				Dev->Data.SpadData.RefGoodSpadMap[i] =
 1201              		.loc 1 418 0 is_stmt 0 discriminator 1
 1202 0506 052B     		cmp	r3, #5
 1203 0508 F5DD     		ble	.L39
 1204              	.LVL199:
 1205              	.L37:
 421:../Drivers/BSP/Components/vl53l0x/vl53l0x_api_core.c **** 			}
 422:../Drivers/BSP/Components/vl53l0x/vl53l0x_api_core.c **** 		}
 423:../Drivers/BSP/Components/vl53l0x/vl53l0x_api_core.c **** 
 424:../Drivers/BSP/Components/vl53l0x/vl53l0x_api_core.c **** 		if (((option & 2) == 2) &&
 1206              		.loc 1 424 0 is_stmt 1
 1207 050a 16F0020F 		tst	r6, #2
 1208 050e 0FD0     		beq	.L40
 1209              		.loc 1 424 0 is_stmt 0 discriminator 1
 1210 0510 17F0020F 		tst	r7, #2
 1211 0514 0CD1     		bne	.L40
 425:../Drivers/BSP/Components/vl53l0x/vl53l0x_api_core.c **** 			((ReadDataFromDeviceDone & 2) == 0)) {
 426:../Drivers/BSP/Components/vl53l0x/vl53l0x_api_core.c **** 			VL53L0X_SETDEVICESPECIFICPARAMETER(Dev,
 1212              		.loc 1 426 0 is_stmt 1
ARM GAS  /tmp/ccfCLKEL.s 			page 30


 1213 0516 9DF82730 		ldrb	r3, [sp, #39]	@ zero_extendqisi2
 1214 051a 85F8F130 		strb	r3, [r5, #241]
 427:../Drivers/BSP/Components/vl53l0x/vl53l0x_api_core.c **** 					ModuleId, ModuleId);
 428:../Drivers/BSP/Components/vl53l0x/vl53l0x_api_core.c **** 
 429:../Drivers/BSP/Components/vl53l0x/vl53l0x_api_core.c **** 			VL53L0X_SETDEVICESPECIFICPARAMETER(Dev,
 1215              		.loc 1 429 0
 1216 051e 9DF82630 		ldrb	r3, [sp, #38]	@ zero_extendqisi2
 1217 0522 85F8F230 		strb	r3, [r5, #242]
 1218              	.LVL200:
 430:../Drivers/BSP/Components/vl53l0x/vl53l0x_api_core.c **** 					Revision, Revision);
 431:../Drivers/BSP/Components/vl53l0x/vl53l0x_api_core.c **** 
 432:../Drivers/BSP/Components/vl53l0x/vl53l0x_api_core.c **** 			ProductId_tmp = VL53L0X_GETDEVICESPECIFICPARAMETER(Dev,
 433:../Drivers/BSP/Components/vl53l0x/vl53l0x_api_core.c **** 					ProductId);
 434:../Drivers/BSP/Components/vl53l0x/vl53l0x_api_core.c **** 			VL53L0X_COPYSTRING(ProductId_tmp, ProductId);
 1219              		.loc 1 434 0
 1220 0526 05F1F300 		add	r0, r5, #243
 1221              	.LVL201:
 1222 052a 02A9     		add	r1, sp, #8
 1223 052c FFF7FEFF 		bl	strcpy
 1224              	.LVL202:
 1225              	.L40:
 435:../Drivers/BSP/Components/vl53l0x/vl53l0x_api_core.c **** 
 436:../Drivers/BSP/Components/vl53l0x/vl53l0x_api_core.c **** 		}
 437:../Drivers/BSP/Components/vl53l0x/vl53l0x_api_core.c **** 
 438:../Drivers/BSP/Components/vl53l0x/vl53l0x_api_core.c **** 		if (((option & 4) == 4) &&
 1226              		.loc 1 438 0
 1227 0530 16F0040F 		tst	r6, #4
 1228 0534 1CD0     		beq	.L41
 1229              		.loc 1 438 0 is_stmt 0 discriminator 1
 1230 0536 17F0040F 		tst	r7, #4
 1231 053a 19D1     		bne	.L41
 439:../Drivers/BSP/Components/vl53l0x/vl53l0x_api_core.c **** 			((ReadDataFromDeviceDone & 4) == 0)) {
 440:../Drivers/BSP/Components/vl53l0x/vl53l0x_api_core.c **** 			VL53L0X_SETDEVICESPECIFICPARAMETER(Dev,
 1232              		.loc 1 440 0 is_stmt 1
 1233 053c 089B     		ldr	r3, [sp, #32]
 1234 053e C5F81831 		str	r3, [r5, #280]
 441:../Drivers/BSP/Components/vl53l0x/vl53l0x_api_core.c **** 						PartUIDUpper, PartUIDUpper);
 442:../Drivers/BSP/Components/vl53l0x/vl53l0x_api_core.c **** 
 443:../Drivers/BSP/Components/vl53l0x/vl53l0x_api_core.c **** 			VL53L0X_SETDEVICESPECIFICPARAMETER(Dev,
 1235              		.loc 1 443 0
 1236 0542 079B     		ldr	r3, [sp, #28]
 1237 0544 C5F81C31 		str	r3, [r5, #284]
 444:../Drivers/BSP/Components/vl53l0x/vl53l0x_api_core.c **** 						PartUIDLower, PartUIDLower);
 445:../Drivers/BSP/Components/vl53l0x/vl53l0x_api_core.c **** 
 446:../Drivers/BSP/Components/vl53l0x/vl53l0x_api_core.c **** 			SignalRateMeasFixed400mmFix =
 1238              		.loc 1 446 0
 1239 0548 4FEA4823 		lsl	r3, r8, #9
 1240              	.LVL203:
 447:../Drivers/BSP/Components/vl53l0x/vl53l0x_api_core.c **** 				VL53L0X_FIXPOINT97TOFIXPOINT1616(
 448:../Drivers/BSP/Components/vl53l0x/vl53l0x_api_core.c **** 					SignalRateMeasFixed1104_400_mm);
 449:../Drivers/BSP/Components/vl53l0x/vl53l0x_api_core.c **** 
 450:../Drivers/BSP/Components/vl53l0x/vl53l0x_api_core.c **** 			VL53L0X_SETDEVICESPECIFICPARAMETER(Dev,
 1241              		.loc 1 450 0
 1242 054c C5F82031 		str	r3, [r5, #288]
 451:../Drivers/BSP/Components/vl53l0x/vl53l0x_api_core.c **** 				SignalRateMeasFixed400mm,
 452:../Drivers/BSP/Components/vl53l0x/vl53l0x_api_core.c **** 				SignalRateMeasFixed400mmFix);
 453:../Drivers/BSP/Components/vl53l0x/vl53l0x_api_core.c **** 
ARM GAS  /tmp/ccfCLKEL.s 			page 31


 454:../Drivers/BSP/Components/vl53l0x/vl53l0x_api_core.c **** 			OffsetMicroMeters = 0;
 455:../Drivers/BSP/Components/vl53l0x/vl53l0x_api_core.c **** 			if (DistMeasFixed1104_400_mm != 0) {
 1243              		.loc 1 455 0
 1244 0550 BAF1000F 		cmp	r10, #0
 1245 0554 09D0     		beq	.L48
 456:../Drivers/BSP/Components/vl53l0x/vl53l0x_api_core.c **** 					OffsetFixed1104_mm =
 1246              		.loc 1 456 0
 1247 0556 AAF5C85A 		sub	r10, r10, #6400
 1248              	.LVL204:
 457:../Drivers/BSP/Components/vl53l0x/vl53l0x_api_core.c **** 						DistMeasFixed1104_400_mm -
 458:../Drivers/BSP/Components/vl53l0x/vl53l0x_api_core.c **** 						DistMeasTgtFixed1104_mm;
 459:../Drivers/BSP/Components/vl53l0x/vl53l0x_api_core.c **** 					OffsetMicroMeters = (OffsetFixed1104_mm
 460:../Drivers/BSP/Components/vl53l0x/vl53l0x_api_core.c **** 						* 1000) >> 4;
 1249              		.loc 1 460 0
 1250 055a 4FF47A73 		mov	r3, #1000
 1251              	.LVL205:
 1252 055e 03FB0AF3 		mul	r3, r3, r10
 1253 0562 1B09     		lsrs	r3, r3, #4
 1254              	.LVL206:
 461:../Drivers/BSP/Components/vl53l0x/vl53l0x_api_core.c **** 					OffsetMicroMeters *= -1;
 1255              		.loc 1 461 0
 1256 0564 5B42     		negs	r3, r3
 1257              	.LVL207:
 1258 0566 9BB2     		uxth	r3, r3
 1259              	.LVL208:
 1260 0568 00E0     		b	.L42
 1261              	.LVL209:
 1262              	.L48:
 454:../Drivers/BSP/Components/vl53l0x/vl53l0x_api_core.c **** 			if (DistMeasFixed1104_400_mm != 0) {
 1263              		.loc 1 454 0
 1264 056a 0023     		movs	r3, #0
 1265              	.LVL210:
 1266              	.L42:
 462:../Drivers/BSP/Components/vl53l0x/vl53l0x_api_core.c **** 			}
 463:../Drivers/BSP/Components/vl53l0x/vl53l0x_api_core.c **** 
 464:../Drivers/BSP/Components/vl53l0x/vl53l0x_api_core.c **** 			PALDevDataSet(Dev,
 1267              		.loc 1 464 0
 1268 056c 1BB2     		sxth	r3, r3
 1269 056e EB60     		str	r3, [r5, #12]
 1270              	.LVL211:
 1271              	.L41:
 465:../Drivers/BSP/Components/vl53l0x/vl53l0x_api_core.c **** 				Part2PartOffsetAdjustmentNVMMicroMeter,
 466:../Drivers/BSP/Components/vl53l0x/vl53l0x_api_core.c **** 				OffsetMicroMeters);
 467:../Drivers/BSP/Components/vl53l0x/vl53l0x_api_core.c **** 		}
 468:../Drivers/BSP/Components/vl53l0x/vl53l0x_api_core.c **** 		byte = (uint8_t)(ReadDataFromDeviceDone|option);
 1272              		.loc 1 468 0
 1273 0570 3E43     		orrs	r6, r6, r7
 1274              	.LVL212:
 469:../Drivers/BSP/Components/vl53l0x/vl53l0x_api_core.c **** 		VL53L0X_SETDEVICESPECIFICPARAMETER(Dev, ReadDataFromDeviceDone,
 1275              		.loc 1 469 0
 1276 0572 85F8F060 		strb	r6, [r5, #240]
 1277              	.LVL213:
 1278              	.L36:
 470:../Drivers/BSP/Components/vl53l0x/vl53l0x_api_core.c **** 				byte);
 471:../Drivers/BSP/Components/vl53l0x/vl53l0x_api_core.c **** 	}
 472:../Drivers/BSP/Components/vl53l0x/vl53l0x_api_core.c **** 
 473:../Drivers/BSP/Components/vl53l0x/vl53l0x_api_core.c **** 	LOG_FUNCTION_END(Status);
ARM GAS  /tmp/ccfCLKEL.s 			page 32


 474:../Drivers/BSP/Components/vl53l0x/vl53l0x_api_core.c **** 	return Status;
 475:../Drivers/BSP/Components/vl53l0x/vl53l0x_api_core.c **** }
 1279              		.loc 1 475 0
 1280 0576 60B2     		sxtb	r0, r4
 1281 0578 0DB0     		add	sp, sp, #52
 1282              	.LCFI12:
 1283              		.cfi_def_cfa_offset 36
 1284              		@ sp needed
 1285 057a BDE8F08F 		pop	{r4, r5, r6, r7, r8, r9, r10, fp, pc}
 1286              		.cfi_endproc
 1287              	.LFE119:
 1289 057e 00BF     		.section	.text.VL53L0X_calc_macro_period_ps,"ax",%progbits
 1290              		.align	2
 1291              		.global	VL53L0X_calc_macro_period_ps
 1292              		.thumb
 1293              		.thumb_func
 1295              	VL53L0X_calc_macro_period_ps:
 1296              	.LFB120:
 476:../Drivers/BSP/Components/vl53l0x/vl53l0x_api_core.c **** 
 477:../Drivers/BSP/Components/vl53l0x/vl53l0x_api_core.c **** 
 478:../Drivers/BSP/Components/vl53l0x/vl53l0x_api_core.c **** uint32_t VL53L0X_calc_macro_period_ps(VL53L0X_DEV Dev, uint8_t vcsel_period_pclks)
 479:../Drivers/BSP/Components/vl53l0x/vl53l0x_api_core.c **** {
 1297              		.loc 1 479 0
 1298              		.cfi_startproc
 1299              		@ args = 0, pretend = 0, frame = 0
 1300              		@ frame_needed = 0, uses_anonymous_args = 0
 1301              		@ link register save eliminated.
 1302              	.LVL214:
 480:../Drivers/BSP/Components/vl53l0x/vl53l0x_api_core.c **** 	uint64_t PLL_period_ps;
 481:../Drivers/BSP/Components/vl53l0x/vl53l0x_api_core.c **** 	uint32_t macro_period_vclks;
 482:../Drivers/BSP/Components/vl53l0x/vl53l0x_api_core.c **** 	uint32_t macro_period_ps;
 483:../Drivers/BSP/Components/vl53l0x/vl53l0x_api_core.c **** 
 484:../Drivers/BSP/Components/vl53l0x/vl53l0x_api_core.c **** 	LOG_FUNCTION_START("");
 485:../Drivers/BSP/Components/vl53l0x/vl53l0x_api_core.c **** 
 486:../Drivers/BSP/Components/vl53l0x/vl53l0x_api_core.c **** 	/* The above calculation will produce rounding errors,
 487:../Drivers/BSP/Components/vl53l0x/vl53l0x_api_core.c **** 	   therefore set fixed value
 488:../Drivers/BSP/Components/vl53l0x/vl53l0x_api_core.c **** 	*/
 489:../Drivers/BSP/Components/vl53l0x/vl53l0x_api_core.c **** 	PLL_period_ps = 1655;
 490:../Drivers/BSP/Components/vl53l0x/vl53l0x_api_core.c **** 
 491:../Drivers/BSP/Components/vl53l0x/vl53l0x_api_core.c **** 	macro_period_vclks = 2304;
 492:../Drivers/BSP/Components/vl53l0x/vl53l0x_api_core.c **** 	macro_period_ps = (uint32_t)(macro_period_vclks
 493:../Drivers/BSP/Components/vl53l0x/vl53l0x_api_core.c **** 			* vcsel_period_pclks * PLL_period_ps);
 1303              		.loc 1 493 0
 1304 0000 01EBC101 		add	r1, r1, r1, lsl #3
 1305              	.LVL215:
 1306 0004 0902     		lsls	r1, r1, #8
 1307              	.LVL216:
 494:../Drivers/BSP/Components/vl53l0x/vl53l0x_api_core.c **** 
 495:../Drivers/BSP/Components/vl53l0x/vl53l0x_api_core.c **** 	LOG_FUNCTION_END("");
 496:../Drivers/BSP/Components/vl53l0x/vl53l0x_api_core.c **** 	return macro_period_ps;
 497:../Drivers/BSP/Components/vl53l0x/vl53l0x_api_core.c **** }
 1308              		.loc 1 497 0
 1309 0006 40F27760 		movw	r0, #1655
 1310              	.LVL217:
 1311 000a 00FB01F0 		mul	r0, r0, r1
 1312              	.LVL218:
 1313 000e 7047     		bx	lr
ARM GAS  /tmp/ccfCLKEL.s 			page 33


 1314              		.cfi_endproc
 1315              	.LFE120:
 1317              		.section	.text.VL53L0X_encode_timeout,"ax",%progbits
 1318              		.align	2
 1319              		.global	VL53L0X_encode_timeout
 1320              		.thumb
 1321              		.thumb_func
 1323              	VL53L0X_encode_timeout:
 1324              	.LFB121:
 498:../Drivers/BSP/Components/vl53l0x/vl53l0x_api_core.c **** 
 499:../Drivers/BSP/Components/vl53l0x/vl53l0x_api_core.c **** uint16_t VL53L0X_encode_timeout(uint32_t timeout_macro_clks)
 500:../Drivers/BSP/Components/vl53l0x/vl53l0x_api_core.c **** {
 1325              		.loc 1 500 0
 1326              		.cfi_startproc
 1327              		@ args = 0, pretend = 0, frame = 0
 1328              		@ frame_needed = 0, uses_anonymous_args = 0
 1329              		@ link register save eliminated.
 1330              	.LVL219:
 501:../Drivers/BSP/Components/vl53l0x/vl53l0x_api_core.c **** 	/*!
 502:../Drivers/BSP/Components/vl53l0x/vl53l0x_api_core.c **** 	 * Encode timeout in macro periods in (LSByte * 2^MSByte) + 1 format
 503:../Drivers/BSP/Components/vl53l0x/vl53l0x_api_core.c **** 	 */
 504:../Drivers/BSP/Components/vl53l0x/vl53l0x_api_core.c **** 
 505:../Drivers/BSP/Components/vl53l0x/vl53l0x_api_core.c **** 	uint16_t encoded_timeout = 0;
 506:../Drivers/BSP/Components/vl53l0x/vl53l0x_api_core.c **** 	uint32_t ls_byte = 0;
 507:../Drivers/BSP/Components/vl53l0x/vl53l0x_api_core.c **** 	uint16_t ms_byte = 0;
 508:../Drivers/BSP/Components/vl53l0x/vl53l0x_api_core.c **** 
 509:../Drivers/BSP/Components/vl53l0x/vl53l0x_api_core.c **** 	if (timeout_macro_clks > 0) {
 1331              		.loc 1 509 0
 1332 0000 68B1     		cbz	r0, .L55
 510:../Drivers/BSP/Components/vl53l0x/vl53l0x_api_core.c **** 		ls_byte = timeout_macro_clks - 1;
 1333              		.loc 1 510 0
 1334 0002 431E     		subs	r3, r0, #1
 1335              	.LVL220:
 507:../Drivers/BSP/Components/vl53l0x/vl53l0x_api_core.c **** 
 1336              		.loc 1 507 0
 1337 0004 0020     		movs	r0, #0
 1338              	.LVL221:
 511:../Drivers/BSP/Components/vl53l0x/vl53l0x_api_core.c **** 
 512:../Drivers/BSP/Components/vl53l0x/vl53l0x_api_core.c **** 		while ((ls_byte & 0xFFFFFF00) > 0) {
 1339              		.loc 1 512 0
 1340 0006 02E0     		b	.L53
 1341              	.LVL222:
 1342              	.L54:
 513:../Drivers/BSP/Components/vl53l0x/vl53l0x_api_core.c **** 			ls_byte = ls_byte >> 1;
 1343              		.loc 1 513 0
 1344 0008 5B08     		lsrs	r3, r3, #1
 1345              	.LVL223:
 514:../Drivers/BSP/Components/vl53l0x/vl53l0x_api_core.c **** 			ms_byte++;
 1346              		.loc 1 514 0
 1347 000a 0130     		adds	r0, r0, #1
 1348              	.LVL224:
 1349 000c 80B2     		uxth	r0, r0
 1350              	.LVL225:
 1351              	.L53:
 512:../Drivers/BSP/Components/vl53l0x/vl53l0x_api_core.c **** 			ls_byte = ls_byte >> 1;
 1352              		.loc 1 512 0
 1353 000e 33F0FF02 		bics	r2, r3, #255
ARM GAS  /tmp/ccfCLKEL.s 			page 34


 1354 0012 F9D1     		bne	.L54
 515:../Drivers/BSP/Components/vl53l0x/vl53l0x_api_core.c **** 		}
 516:../Drivers/BSP/Components/vl53l0x/vl53l0x_api_core.c **** 
 517:../Drivers/BSP/Components/vl53l0x/vl53l0x_api_core.c **** 		encoded_timeout = (ms_byte << 8)
 1355              		.loc 1 517 0
 1356 0014 DBB2     		uxtb	r3, r3
 1357              	.LVL226:
 1358 0016 03EB0020 		add	r0, r3, r0, lsl #8
 1359              	.LVL227:
 1360 001a 80B2     		uxth	r0, r0
 1361              	.LVL228:
 1362 001c 7047     		bx	lr
 1363              	.LVL229:
 1364              	.L55:
 505:../Drivers/BSP/Components/vl53l0x/vl53l0x_api_core.c **** 	uint32_t ls_byte = 0;
 1365              		.loc 1 505 0
 1366 001e 0020     		movs	r0, #0
 1367              	.LVL230:
 518:../Drivers/BSP/Components/vl53l0x/vl53l0x_api_core.c **** 				+ (uint16_t) (ls_byte & 0x000000FF);
 519:../Drivers/BSP/Components/vl53l0x/vl53l0x_api_core.c **** 	}
 520:../Drivers/BSP/Components/vl53l0x/vl53l0x_api_core.c **** 
 521:../Drivers/BSP/Components/vl53l0x/vl53l0x_api_core.c **** 	return encoded_timeout;
 522:../Drivers/BSP/Components/vl53l0x/vl53l0x_api_core.c **** 
 523:../Drivers/BSP/Components/vl53l0x/vl53l0x_api_core.c **** }
 1368              		.loc 1 523 0
 1369 0020 7047     		bx	lr
 1370              		.cfi_endproc
 1371              	.LFE121:
 1373 0022 00BF     		.section	.text.VL53L0X_decode_timeout,"ax",%progbits
 1374              		.align	2
 1375              		.global	VL53L0X_decode_timeout
 1376              		.thumb
 1377              		.thumb_func
 1379              	VL53L0X_decode_timeout:
 1380              	.LFB122:
 524:../Drivers/BSP/Components/vl53l0x/vl53l0x_api_core.c **** 
 525:../Drivers/BSP/Components/vl53l0x/vl53l0x_api_core.c **** uint32_t VL53L0X_decode_timeout(uint16_t encoded_timeout)
 526:../Drivers/BSP/Components/vl53l0x/vl53l0x_api_core.c **** {
 1381              		.loc 1 526 0
 1382              		.cfi_startproc
 1383              		@ args = 0, pretend = 0, frame = 0
 1384              		@ frame_needed = 0, uses_anonymous_args = 0
 1385              		@ link register save eliminated.
 1386              	.LVL231:
 527:../Drivers/BSP/Components/vl53l0x/vl53l0x_api_core.c **** 	/*!
 528:../Drivers/BSP/Components/vl53l0x/vl53l0x_api_core.c **** 	 * Decode 16-bit timeout register value - format (LSByte * 2^MSByte) + 1
 529:../Drivers/BSP/Components/vl53l0x/vl53l0x_api_core.c **** 	 */
 530:../Drivers/BSP/Components/vl53l0x/vl53l0x_api_core.c **** 
 531:../Drivers/BSP/Components/vl53l0x/vl53l0x_api_core.c **** 	uint32_t timeout_macro_clks = 0;
 532:../Drivers/BSP/Components/vl53l0x/vl53l0x_api_core.c **** 
 533:../Drivers/BSP/Components/vl53l0x/vl53l0x_api_core.c **** 	timeout_macro_clks = ((uint32_t) (encoded_timeout & 0x00FF)
 1387              		.loc 1 533 0
 1388 0000 C2B2     		uxtb	r2, r0
 534:../Drivers/BSP/Components/vl53l0x/vl53l0x_api_core.c **** 			<< (uint32_t) ((encoded_timeout & 0xFF00) >> 8)) + 1;
 1389              		.loc 1 534 0
 1390 0002 030A     		lsrs	r3, r0, #8
 1391 0004 02FA03F0 		lsl	r0, r2, r3
ARM GAS  /tmp/ccfCLKEL.s 			page 35


 1392              	.LVL232:
 535:../Drivers/BSP/Components/vl53l0x/vl53l0x_api_core.c **** 
 536:../Drivers/BSP/Components/vl53l0x/vl53l0x_api_core.c **** 	return timeout_macro_clks;
 537:../Drivers/BSP/Components/vl53l0x/vl53l0x_api_core.c **** }
 1393              		.loc 1 537 0
 1394 0008 0130     		adds	r0, r0, #1
 1395              	.LVL233:
 1396 000a 7047     		bx	lr
 1397              		.cfi_endproc
 1398              	.LFE122:
 1400              		.section	.text.VL53L0X_calc_timeout_mclks,"ax",%progbits
 1401              		.align	2
 1402              		.global	VL53L0X_calc_timeout_mclks
 1403              		.thumb
 1404              		.thumb_func
 1406              	VL53L0X_calc_timeout_mclks:
 1407              	.LFB123:
 538:../Drivers/BSP/Components/vl53l0x/vl53l0x_api_core.c **** 
 539:../Drivers/BSP/Components/vl53l0x/vl53l0x_api_core.c **** 
 540:../Drivers/BSP/Components/vl53l0x/vl53l0x_api_core.c **** /* To convert ms into register value */
 541:../Drivers/BSP/Components/vl53l0x/vl53l0x_api_core.c **** uint32_t VL53L0X_calc_timeout_mclks(VL53L0X_DEV Dev,
 542:../Drivers/BSP/Components/vl53l0x/vl53l0x_api_core.c **** 		uint32_t timeout_period_us,
 543:../Drivers/BSP/Components/vl53l0x/vl53l0x_api_core.c **** 		uint8_t vcsel_period_pclks)
 544:../Drivers/BSP/Components/vl53l0x/vl53l0x_api_core.c **** {
 1408              		.loc 1 544 0
 1409              		.cfi_startproc
 1410              		@ args = 0, pretend = 0, frame = 0
 1411              		@ frame_needed = 0, uses_anonymous_args = 0
 1412              	.LVL234:
 1413 0000 10B5     		push	{r4, lr}
 1414              	.LCFI13:
 1415              		.cfi_def_cfa_offset 8
 1416              		.cfi_offset 4, -8
 1417              		.cfi_offset 14, -4
 1418 0002 0C46     		mov	r4, r1
 1419              	.LVL235:
 545:../Drivers/BSP/Components/vl53l0x/vl53l0x_api_core.c **** 	uint32_t macro_period_ps;
 546:../Drivers/BSP/Components/vl53l0x/vl53l0x_api_core.c **** 	uint32_t macro_period_ns;
 547:../Drivers/BSP/Components/vl53l0x/vl53l0x_api_core.c **** 	uint32_t timeout_period_mclks = 0;
 548:../Drivers/BSP/Components/vl53l0x/vl53l0x_api_core.c **** 
 549:../Drivers/BSP/Components/vl53l0x/vl53l0x_api_core.c **** 	macro_period_ps = VL53L0X_calc_macro_period_ps(Dev, vcsel_period_pclks);
 1420              		.loc 1 549 0
 1421 0004 1146     		mov	r1, r2
 1422              	.LVL236:
 1423 0006 FFF7FEFF 		bl	VL53L0X_calc_macro_period_ps
 1424              	.LVL237:
 550:../Drivers/BSP/Components/vl53l0x/vl53l0x_api_core.c **** 	macro_period_ns = (macro_period_ps + 500) / 1000;
 1425              		.loc 1 550 0
 1426 000a 00F5FA70 		add	r0, r0, #500
 1427              	.LVL238:
 1428 000e 064B     		ldr	r3, .L59
 1429 0010 A3FB0023 		umull	r2, r3, r3, r0
 1430 0014 9809     		lsrs	r0, r3, #6
 1431              	.LVL239:
 551:../Drivers/BSP/Components/vl53l0x/vl53l0x_api_core.c **** 
 552:../Drivers/BSP/Components/vl53l0x/vl53l0x_api_core.c **** 	timeout_period_mclks =
 553:../Drivers/BSP/Components/vl53l0x/vl53l0x_api_core.c **** 		(uint32_t) (((timeout_period_us * 1000)
ARM GAS  /tmp/ccfCLKEL.s 			page 36


 554:../Drivers/BSP/Components/vl53l0x/vl53l0x_api_core.c **** 		+ (macro_period_ns / 2)) / macro_period_ns);
 1432              		.loc 1 554 0
 1433 0016 DB09     		lsrs	r3, r3, #7
 1434 0018 4FF47A72 		mov	r2, #1000
 1435 001c 02FB0433 		mla	r3, r2, r4, r3
 1436              	.LVL240:
 555:../Drivers/BSP/Components/vl53l0x/vl53l0x_api_core.c **** 
 556:../Drivers/BSP/Components/vl53l0x/vl53l0x_api_core.c ****     return timeout_period_mclks;
 557:../Drivers/BSP/Components/vl53l0x/vl53l0x_api_core.c **** }
 1437              		.loc 1 557 0
 1438 0020 B3FBF0F0 		udiv	r0, r3, r0
 1439              	.LVL241:
 1440 0024 10BD     		pop	{r4, pc}
 1441              	.LVL242:
 1442              	.L60:
 1443 0026 00BF     		.align	2
 1444              	.L59:
 1445 0028 D34D6210 		.word	274877907
 1446              		.cfi_endproc
 1447              	.LFE123:
 1449              		.section	.text.VL53L0X_calc_timeout_us,"ax",%progbits
 1450              		.align	2
 1451              		.global	VL53L0X_calc_timeout_us
 1452              		.thumb
 1453              		.thumb_func
 1455              	VL53L0X_calc_timeout_us:
 1456              	.LFB124:
 558:../Drivers/BSP/Components/vl53l0x/vl53l0x_api_core.c **** 
 559:../Drivers/BSP/Components/vl53l0x/vl53l0x_api_core.c **** /* To convert register value into us */
 560:../Drivers/BSP/Components/vl53l0x/vl53l0x_api_core.c **** uint32_t VL53L0X_calc_timeout_us(VL53L0X_DEV Dev,
 561:../Drivers/BSP/Components/vl53l0x/vl53l0x_api_core.c **** 		uint16_t timeout_period_mclks,
 562:../Drivers/BSP/Components/vl53l0x/vl53l0x_api_core.c **** 		uint8_t vcsel_period_pclks)
 563:../Drivers/BSP/Components/vl53l0x/vl53l0x_api_core.c **** {
 1457              		.loc 1 563 0
 1458              		.cfi_startproc
 1459              		@ args = 0, pretend = 0, frame = 0
 1460              		@ frame_needed = 0, uses_anonymous_args = 0
 1461              	.LVL243:
 1462 0000 10B5     		push	{r4, lr}
 1463              	.LCFI14:
 1464              		.cfi_def_cfa_offset 8
 1465              		.cfi_offset 4, -8
 1466              		.cfi_offset 14, -4
 1467 0002 0C46     		mov	r4, r1
 1468              	.LVL244:
 564:../Drivers/BSP/Components/vl53l0x/vl53l0x_api_core.c **** 	uint32_t macro_period_ps;
 565:../Drivers/BSP/Components/vl53l0x/vl53l0x_api_core.c **** 	uint32_t macro_period_ns;
 566:../Drivers/BSP/Components/vl53l0x/vl53l0x_api_core.c **** 	uint32_t actual_timeout_period_us = 0;
 567:../Drivers/BSP/Components/vl53l0x/vl53l0x_api_core.c **** 
 568:../Drivers/BSP/Components/vl53l0x/vl53l0x_api_core.c **** 	macro_period_ps = VL53L0X_calc_macro_period_ps(Dev, vcsel_period_pclks);
 1469              		.loc 1 568 0
 1470 0004 1146     		mov	r1, r2
 1471              	.LVL245:
 1472 0006 FFF7FEFF 		bl	VL53L0X_calc_macro_period_ps
 1473              	.LVL246:
 569:../Drivers/BSP/Components/vl53l0x/vl53l0x_api_core.c **** 	macro_period_ns = (macro_period_ps + 500) / 1000;
 1474              		.loc 1 569 0
ARM GAS  /tmp/ccfCLKEL.s 			page 37


 1475 000a 00F5FA71 		add	r1, r0, #500
 1476 000e 0648     		ldr	r0, .L63
 1477              	.LVL247:
 1478 0010 A0FB0131 		umull	r3, r1, r0, r1
 1479              	.LVL248:
 1480 0014 8909     		lsrs	r1, r1, #6
 1481              	.LVL249:
 570:../Drivers/BSP/Components/vl53l0x/vl53l0x_api_core.c **** 
 571:../Drivers/BSP/Components/vl53l0x/vl53l0x_api_core.c **** 	actual_timeout_period_us =
 572:../Drivers/BSP/Components/vl53l0x/vl53l0x_api_core.c **** 		((timeout_period_mclks * macro_period_ns) + 500) / 1000;
 1482              		.loc 1 572 0
 1483 0016 01FB04F1 		mul	r1, r1, r4
 1484              	.LVL250:
 1485 001a 01F5FA71 		add	r1, r1, #500
 571:../Drivers/BSP/Components/vl53l0x/vl53l0x_api_core.c **** 		((timeout_period_mclks * macro_period_ns) + 500) / 1000;
 1486              		.loc 1 571 0
 1487 001e A0FB0130 		umull	r3, r0, r0, r1
 1488              	.LVL251:
 573:../Drivers/BSP/Components/vl53l0x/vl53l0x_api_core.c **** 
 574:../Drivers/BSP/Components/vl53l0x/vl53l0x_api_core.c **** 	return actual_timeout_period_us;
 575:../Drivers/BSP/Components/vl53l0x/vl53l0x_api_core.c **** }
 1489              		.loc 1 575 0
 1490 0022 8009     		lsrs	r0, r0, #6
 1491              	.LVL252:
 1492 0024 10BD     		pop	{r4, pc}
 1493              	.L64:
 1494 0026 00BF     		.align	2
 1495              	.L63:
 1496 0028 D34D6210 		.word	274877907
 1497              		.cfi_endproc
 1498              	.LFE124:
 1500              		.section	.text.get_sequence_step_timeout,"ax",%progbits
 1501              		.align	2
 1502              		.global	get_sequence_step_timeout
 1503              		.thumb
 1504              		.thumb_func
 1506              	get_sequence_step_timeout:
 1507              	.LFB125:
 576:../Drivers/BSP/Components/vl53l0x/vl53l0x_api_core.c **** 
 577:../Drivers/BSP/Components/vl53l0x/vl53l0x_api_core.c **** 
 578:../Drivers/BSP/Components/vl53l0x/vl53l0x_api_core.c **** VL53L0X_Error get_sequence_step_timeout(VL53L0X_DEV Dev,
 579:../Drivers/BSP/Components/vl53l0x/vl53l0x_api_core.c **** 				VL53L0X_SequenceStepId SequenceStepId,
 580:../Drivers/BSP/Components/vl53l0x/vl53l0x_api_core.c **** 				uint32_t *pTimeOutMicroSecs)
 581:../Drivers/BSP/Components/vl53l0x/vl53l0x_api_core.c **** {
 1508              		.loc 1 581 0
 1509              		.cfi_startproc
 1510              		@ args = 0, pretend = 0, frame = 16
 1511              		@ frame_needed = 0, uses_anonymous_args = 0
 1512              	.LVL253:
 1513 0000 F0B5     		push	{r4, r5, r6, r7, lr}
 1514              	.LCFI15:
 1515              		.cfi_def_cfa_offset 20
 1516              		.cfi_offset 4, -20
 1517              		.cfi_offset 5, -16
 1518              		.cfi_offset 6, -12
 1519              		.cfi_offset 7, -8
 1520              		.cfi_offset 14, -4
ARM GAS  /tmp/ccfCLKEL.s 			page 38


 1521 0002 85B0     		sub	sp, sp, #20
 1522              	.LCFI16:
 1523              		.cfi_def_cfa_offset 40
 1524 0004 0546     		mov	r5, r0
 1525 0006 1646     		mov	r6, r2
 1526              	.LVL254:
 582:../Drivers/BSP/Components/vl53l0x/vl53l0x_api_core.c **** 	VL53L0X_Error Status = VL53L0X_ERROR_NONE;
 583:../Drivers/BSP/Components/vl53l0x/vl53l0x_api_core.c **** 	uint8_t CurrentVCSELPulsePeriodPClk;
 584:../Drivers/BSP/Components/vl53l0x/vl53l0x_api_core.c **** 	uint8_t EncodedTimeOutByte = 0;
 1527              		.loc 1 584 0
 1528 0008 0023     		movs	r3, #0
 1529 000a 8DF80E30 		strb	r3, [sp, #14]
 1530              	.LVL255:
 585:../Drivers/BSP/Components/vl53l0x/vl53l0x_api_core.c **** 	uint32_t TimeoutMicroSeconds = 0;
 586:../Drivers/BSP/Components/vl53l0x/vl53l0x_api_core.c **** 	uint16_t PreRangeEncodedTimeOut = 0;
 1531              		.loc 1 586 0
 1532 000e ADF80C30 		strh	r3, [sp, #12]	@ movhi
 1533              	.LVL256:
 587:../Drivers/BSP/Components/vl53l0x/vl53l0x_api_core.c **** 	uint16_t MsrcTimeOutMClks;
 588:../Drivers/BSP/Components/vl53l0x/vl53l0x_api_core.c **** 	uint16_t PreRangeTimeOutMClks;
 589:../Drivers/BSP/Components/vl53l0x/vl53l0x_api_core.c **** 	uint16_t FinalRangeTimeOutMClks = 0;
 590:../Drivers/BSP/Components/vl53l0x/vl53l0x_api_core.c **** 	uint16_t FinalRangeEncodedTimeOut;
 591:../Drivers/BSP/Components/vl53l0x/vl53l0x_api_core.c **** 	VL53L0X_SchedulerSequenceSteps_t SchedulerSequenceSteps;
 592:../Drivers/BSP/Components/vl53l0x/vl53l0x_api_core.c **** 
 593:../Drivers/BSP/Components/vl53l0x/vl53l0x_api_core.c **** 	if ((SequenceStepId == VL53L0X_SEQUENCESTEP_TCC)	 ||
 1534              		.loc 1 593 0
 1535 0012 0229     		cmp	r1, #2
 1536 0014 18D8     		bhi	.L66
 594:../Drivers/BSP/Components/vl53l0x/vl53l0x_api_core.c **** 		(SequenceStepId == VL53L0X_SEQUENCESTEP_DSS)	 ||
 595:../Drivers/BSP/Components/vl53l0x/vl53l0x_api_core.c **** 		(SequenceStepId == VL53L0X_SEQUENCESTEP_MSRC)) {
 596:../Drivers/BSP/Components/vl53l0x/vl53l0x_api_core.c **** 
 597:../Drivers/BSP/Components/vl53l0x/vl53l0x_api_core.c **** 		Status = VL53L0X_GetVcselPulsePeriod(Dev,
 1537              		.loc 1 597 0
 1538 0016 1946     		mov	r1, r3
 1539              	.LVL257:
 1540 0018 0DF10F02 		add	r2, sp, #15
 1541              	.LVL258:
 1542 001c FFF7FEFF 		bl	VL53L0X_GetVcselPulsePeriod
 1543              	.LVL259:
 598:../Drivers/BSP/Components/vl53l0x/vl53l0x_api_core.c **** 					VL53L0X_VCSEL_PERIOD_PRE_RANGE,
 599:../Drivers/BSP/Components/vl53l0x/vl53l0x_api_core.c **** 					&CurrentVCSELPulsePeriodPClk);
 600:../Drivers/BSP/Components/vl53l0x/vl53l0x_api_core.c **** 		if (Status == VL53L0X_ERROR_NONE) {
 1544              		.loc 1 600 0
 1545 0020 0446     		mov	r4, r0
 1546 0022 30B9     		cbnz	r0, .L67
 601:../Drivers/BSP/Components/vl53l0x/vl53l0x_api_core.c **** 			Status = VL53L0X_RdByte(Dev,
 1547              		.loc 1 601 0
 1548 0024 2846     		mov	r0, r5
 1549              	.LVL260:
 1550 0026 4621     		movs	r1, #70
 1551 0028 0DF10E02 		add	r2, sp, #14
 1552 002c FFF7FEFF 		bl	VL53L0X_RdByte
 1553              	.LVL261:
 1554 0030 0446     		mov	r4, r0
 1555              	.LVL262:
 1556              	.L67:
 602:../Drivers/BSP/Components/vl53l0x/vl53l0x_api_core.c **** 					VL53L0X_REG_MSRC_CONFIG_TIMEOUT_MACROP,
ARM GAS  /tmp/ccfCLKEL.s 			page 39


 603:../Drivers/BSP/Components/vl53l0x/vl53l0x_api_core.c **** 					&EncodedTimeOutByte);
 604:../Drivers/BSP/Components/vl53l0x/vl53l0x_api_core.c **** 		}
 605:../Drivers/BSP/Components/vl53l0x/vl53l0x_api_core.c **** 		MsrcTimeOutMClks = VL53L0X_decode_timeout(EncodedTimeOutByte);
 1557              		.loc 1 605 0
 1558 0032 9DF80E00 		ldrb	r0, [sp, #14]	@ zero_extendqisi2
 1559 0036 FFF7FEFF 		bl	VL53L0X_decode_timeout
 1560              	.LVL263:
 1561 003a 81B2     		uxth	r1, r0
 1562              	.LVL264:
 606:../Drivers/BSP/Components/vl53l0x/vl53l0x_api_core.c **** 
 607:../Drivers/BSP/Components/vl53l0x/vl53l0x_api_core.c **** 		TimeoutMicroSeconds = VL53L0X_calc_timeout_us(Dev,
 1563              		.loc 1 607 0
 1564 003c 2846     		mov	r0, r5
 1565 003e 9DF80F20 		ldrb	r2, [sp, #15]	@ zero_extendqisi2
 1566 0042 FFF7FEFF 		bl	VL53L0X_calc_timeout_us
 1567              	.LVL265:
 1568 0046 65E0     		b	.L68
 1569              	.LVL266:
 1570              	.L66:
 608:../Drivers/BSP/Components/vl53l0x/vl53l0x_api_core.c **** 						MsrcTimeOutMClks,
 609:../Drivers/BSP/Components/vl53l0x/vl53l0x_api_core.c **** 						CurrentVCSELPulsePeriodPClk);
 610:../Drivers/BSP/Components/vl53l0x/vl53l0x_api_core.c **** 	} else if (SequenceStepId == VL53L0X_SEQUENCESTEP_PRE_RANGE) {
 1571              		.loc 1 610 0
 1572 0048 0329     		cmp	r1, #3
 1573 004a 20D1     		bne	.L69
 611:../Drivers/BSP/Components/vl53l0x/vl53l0x_api_core.c **** 		/* Retrieve PRE-RANGE VCSEL Period */
 612:../Drivers/BSP/Components/vl53l0x/vl53l0x_api_core.c **** 		Status = VL53L0X_GetVcselPulsePeriod(Dev,
 1574              		.loc 1 612 0
 1575 004c 0021     		movs	r1, #0
 1576              	.LVL267:
 1577 004e 0DF10F02 		add	r2, sp, #15
 1578              	.LVL268:
 1579 0052 FFF7FEFF 		bl	VL53L0X_GetVcselPulsePeriod
 1580              	.LVL269:
 613:../Drivers/BSP/Components/vl53l0x/vl53l0x_api_core.c **** 						VL53L0X_VCSEL_PERIOD_PRE_RANGE,
 614:../Drivers/BSP/Components/vl53l0x/vl53l0x_api_core.c **** 						&CurrentVCSELPulsePeriodPClk);
 615:../Drivers/BSP/Components/vl53l0x/vl53l0x_api_core.c **** 
 616:../Drivers/BSP/Components/vl53l0x/vl53l0x_api_core.c **** 		/* Retrieve PRE-RANGE Timeout in Macro periods (MCLKS) */
 617:../Drivers/BSP/Components/vl53l0x/vl53l0x_api_core.c **** 		if (Status == VL53L0X_ERROR_NONE) {
 1581              		.loc 1 617 0
 1582 0056 0446     		mov	r4, r0
 1583 0058 0028     		cmp	r0, #0
 1584 005a 57D1     		bne	.L74
 618:../Drivers/BSP/Components/vl53l0x/vl53l0x_api_core.c **** 
 619:../Drivers/BSP/Components/vl53l0x/vl53l0x_api_core.c **** 			/* Retrieve PRE-RANGE VCSEL Period */
 620:../Drivers/BSP/Components/vl53l0x/vl53l0x_api_core.c **** 			Status = VL53L0X_GetVcselPulsePeriod(Dev,
 1585              		.loc 1 620 0
 1586 005c 2846     		mov	r0, r5
 1587              	.LVL270:
 1588 005e 0021     		movs	r1, #0
 1589 0060 0DF10F02 		add	r2, sp, #15
 1590 0064 FFF7FEFF 		bl	VL53L0X_GetVcselPulsePeriod
 1591              	.LVL271:
 621:../Drivers/BSP/Components/vl53l0x/vl53l0x_api_core.c **** 					VL53L0X_VCSEL_PERIOD_PRE_RANGE,
 622:../Drivers/BSP/Components/vl53l0x/vl53l0x_api_core.c **** 					&CurrentVCSELPulsePeriodPClk);
 623:../Drivers/BSP/Components/vl53l0x/vl53l0x_api_core.c **** 
 624:../Drivers/BSP/Components/vl53l0x/vl53l0x_api_core.c **** 			if (Status == VL53L0X_ERROR_NONE) {
ARM GAS  /tmp/ccfCLKEL.s 			page 40


 1592              		.loc 1 624 0
 1593 0068 0446     		mov	r4, r0
 1594 006a 28B9     		cbnz	r0, .L70
 625:../Drivers/BSP/Components/vl53l0x/vl53l0x_api_core.c **** 				Status = VL53L0X_RdWord(Dev,
 1595              		.loc 1 625 0
 1596 006c 2846     		mov	r0, r5
 1597              	.LVL272:
 1598 006e 5121     		movs	r1, #81
 1599 0070 03AA     		add	r2, sp, #12
 1600 0072 FFF7FEFF 		bl	VL53L0X_RdWord
 1601              	.LVL273:
 1602 0076 0446     		mov	r4, r0
 1603              	.LVL274:
 1604              	.L70:
 626:../Drivers/BSP/Components/vl53l0x/vl53l0x_api_core.c **** 				VL53L0X_REG_PRE_RANGE_CONFIG_TIMEOUT_MACROP_HI,
 627:../Drivers/BSP/Components/vl53l0x/vl53l0x_api_core.c **** 				&PreRangeEncodedTimeOut);
 628:../Drivers/BSP/Components/vl53l0x/vl53l0x_api_core.c **** 			}
 629:../Drivers/BSP/Components/vl53l0x/vl53l0x_api_core.c **** 
 630:../Drivers/BSP/Components/vl53l0x/vl53l0x_api_core.c **** 			PreRangeTimeOutMClks = VL53L0X_decode_timeout(
 1605              		.loc 1 630 0
 1606 0078 BDF80C00 		ldrh	r0, [sp, #12]
 1607 007c FFF7FEFF 		bl	VL53L0X_decode_timeout
 1608              	.LVL275:
 1609 0080 81B2     		uxth	r1, r0
 1610              	.LVL276:
 631:../Drivers/BSP/Components/vl53l0x/vl53l0x_api_core.c **** 					PreRangeEncodedTimeOut);
 632:../Drivers/BSP/Components/vl53l0x/vl53l0x_api_core.c **** 
 633:../Drivers/BSP/Components/vl53l0x/vl53l0x_api_core.c **** 			TimeoutMicroSeconds = VL53L0X_calc_timeout_us(Dev,
 1611              		.loc 1 633 0
 1612 0082 2846     		mov	r0, r5
 1613 0084 9DF80F20 		ldrb	r2, [sp, #15]	@ zero_extendqisi2
 1614 0088 FFF7FEFF 		bl	VL53L0X_calc_timeout_us
 1615              	.LVL277:
 1616 008c 42E0     		b	.L68
 1617              	.LVL278:
 1618              	.L69:
 634:../Drivers/BSP/Components/vl53l0x/vl53l0x_api_core.c **** 					PreRangeTimeOutMClks,
 635:../Drivers/BSP/Components/vl53l0x/vl53l0x_api_core.c **** 					CurrentVCSELPulsePeriodPClk);
 636:../Drivers/BSP/Components/vl53l0x/vl53l0x_api_core.c **** 		}
 637:../Drivers/BSP/Components/vl53l0x/vl53l0x_api_core.c **** 	} else if (SequenceStepId == VL53L0X_SEQUENCESTEP_FINAL_RANGE) {
 1619              		.loc 1 637 0
 1620 008e 0429     		cmp	r1, #4
 1621 0090 3ED1     		bne	.L75
 638:../Drivers/BSP/Components/vl53l0x/vl53l0x_api_core.c **** 
 639:../Drivers/BSP/Components/vl53l0x/vl53l0x_api_core.c **** 		VL53L0X_GetSequenceStepEnables(Dev, &SchedulerSequenceSteps);
 1622              		.loc 1 639 0
 1623 0092 01A9     		add	r1, sp, #4
 1624              	.LVL279:
 1625 0094 FFF7FEFF 		bl	VL53L0X_GetSequenceStepEnables
 1626              	.LVL280:
 640:../Drivers/BSP/Components/vl53l0x/vl53l0x_api_core.c **** 		PreRangeTimeOutMClks = 0;
 641:../Drivers/BSP/Components/vl53l0x/vl53l0x_api_core.c **** 
 642:../Drivers/BSP/Components/vl53l0x/vl53l0x_api_core.c **** 		if (SchedulerSequenceSteps.PreRangeOn) {
 1627              		.loc 1 642 0
 1628 0098 9DF80730 		ldrb	r3, [sp, #7]	@ zero_extendqisi2
 1629 009c 9BB1     		cbz	r3, .L76
 643:../Drivers/BSP/Components/vl53l0x/vl53l0x_api_core.c **** 			/* Retrieve PRE-RANGE VCSEL Period */
ARM GAS  /tmp/ccfCLKEL.s 			page 41


 644:../Drivers/BSP/Components/vl53l0x/vl53l0x_api_core.c **** 			Status = VL53L0X_GetVcselPulsePeriod(Dev,
 1630              		.loc 1 644 0
 1631 009e 2846     		mov	r0, r5
 1632 00a0 0021     		movs	r1, #0
 1633 00a2 0DF10F02 		add	r2, sp, #15
 1634 00a6 FFF7FEFF 		bl	VL53L0X_GetVcselPulsePeriod
 1635              	.LVL281:
 645:../Drivers/BSP/Components/vl53l0x/vl53l0x_api_core.c **** 				VL53L0X_VCSEL_PERIOD_PRE_RANGE,
 646:../Drivers/BSP/Components/vl53l0x/vl53l0x_api_core.c **** 				&CurrentVCSELPulsePeriodPClk);
 647:../Drivers/BSP/Components/vl53l0x/vl53l0x_api_core.c **** 
 648:../Drivers/BSP/Components/vl53l0x/vl53l0x_api_core.c **** 			/* Retrieve PRE-RANGE Timeout in Macro periods
 649:../Drivers/BSP/Components/vl53l0x/vl53l0x_api_core.c **** 			 * (MCLKS) */
 650:../Drivers/BSP/Components/vl53l0x/vl53l0x_api_core.c **** 			if (Status == VL53L0X_ERROR_NONE) {
 1636              		.loc 1 650 0
 1637 00aa 0446     		mov	r4, r0
 1638 00ac 70B9     		cbnz	r0, .L77
 651:../Drivers/BSP/Components/vl53l0x/vl53l0x_api_core.c **** 				Status = VL53L0X_RdWord(Dev,
 1639              		.loc 1 651 0
 1640 00ae 2846     		mov	r0, r5
 1641              	.LVL282:
 1642 00b0 5121     		movs	r1, #81
 1643 00b2 03AA     		add	r2, sp, #12
 1644 00b4 FFF7FEFF 		bl	VL53L0X_RdWord
 1645              	.LVL283:
 1646 00b8 0446     		mov	r4, r0
 1647              	.LVL284:
 652:../Drivers/BSP/Components/vl53l0x/vl53l0x_api_core.c **** 				VL53L0X_REG_PRE_RANGE_CONFIG_TIMEOUT_MACROP_HI,
 653:../Drivers/BSP/Components/vl53l0x/vl53l0x_api_core.c **** 				&PreRangeEncodedTimeOut);
 654:../Drivers/BSP/Components/vl53l0x/vl53l0x_api_core.c **** 				PreRangeTimeOutMClks = VL53L0X_decode_timeout(
 1648              		.loc 1 654 0
 1649 00ba BDF80C00 		ldrh	r0, [sp, #12]
 1650 00be FFF7FEFF 		bl	VL53L0X_decode_timeout
 1651              	.LVL285:
 1652 00c2 87B2     		uxth	r7, r0
 1653              	.LVL286:
 1654 00c4 03E0     		b	.L71
 1655              	.LVL287:
 1656              	.L76:
 640:../Drivers/BSP/Components/vl53l0x/vl53l0x_api_core.c **** 
 1657              		.loc 1 640 0
 1658 00c6 0027     		movs	r7, #0
 582:../Drivers/BSP/Components/vl53l0x/vl53l0x_api_core.c **** 	uint8_t CurrentVCSELPulsePeriodPClk;
 1659              		.loc 1 582 0
 1660 00c8 3C46     		mov	r4, r7
 1661 00ca 00E0     		b	.L71
 1662              	.LVL288:
 1663              	.L77:
 640:../Drivers/BSP/Components/vl53l0x/vl53l0x_api_core.c **** 
 1664              		.loc 1 640 0
 1665 00cc 0027     		movs	r7, #0
 1666              	.LVL289:
 1667              	.L71:
 655:../Drivers/BSP/Components/vl53l0x/vl53l0x_api_core.c **** 						PreRangeEncodedTimeOut);
 656:../Drivers/BSP/Components/vl53l0x/vl53l0x_api_core.c **** 			}
 657:../Drivers/BSP/Components/vl53l0x/vl53l0x_api_core.c **** 		}
 658:../Drivers/BSP/Components/vl53l0x/vl53l0x_api_core.c **** 
 659:../Drivers/BSP/Components/vl53l0x/vl53l0x_api_core.c **** 		if (Status == VL53L0X_ERROR_NONE) {
ARM GAS  /tmp/ccfCLKEL.s 			page 42


 1668              		.loc 1 659 0
 1669 00ce 34B9     		cbnz	r4, .L72
 660:../Drivers/BSP/Components/vl53l0x/vl53l0x_api_core.c **** 			/* Retrieve FINAL-RANGE VCSEL Period */
 661:../Drivers/BSP/Components/vl53l0x/vl53l0x_api_core.c **** 			Status = VL53L0X_GetVcselPulsePeriod(Dev,
 1670              		.loc 1 661 0
 1671 00d0 2846     		mov	r0, r5
 1672 00d2 0121     		movs	r1, #1
 1673 00d4 0DF10F02 		add	r2, sp, #15
 1674 00d8 FFF7FEFF 		bl	VL53L0X_GetVcselPulsePeriod
 1675              	.LVL290:
 1676 00dc 0446     		mov	r4, r0
 1677              	.LVL291:
 1678              	.L72:
 662:../Drivers/BSP/Components/vl53l0x/vl53l0x_api_core.c **** 					VL53L0X_VCSEL_PERIOD_FINAL_RANGE,
 663:../Drivers/BSP/Components/vl53l0x/vl53l0x_api_core.c **** 					&CurrentVCSELPulsePeriodPClk);
 664:../Drivers/BSP/Components/vl53l0x/vl53l0x_api_core.c **** 		}
 665:../Drivers/BSP/Components/vl53l0x/vl53l0x_api_core.c **** 
 666:../Drivers/BSP/Components/vl53l0x/vl53l0x_api_core.c **** 		/* Retrieve FINAL-RANGE Timeout in Macro periods (MCLKS) */
 667:../Drivers/BSP/Components/vl53l0x/vl53l0x_api_core.c **** 		if (Status == VL53L0X_ERROR_NONE) {
 1679              		.loc 1 667 0
 1680 00de 64B9     		cbnz	r4, .L78
 668:../Drivers/BSP/Components/vl53l0x/vl53l0x_api_core.c **** 			Status = VL53L0X_RdWord(Dev,
 1681              		.loc 1 668 0
 1682 00e0 2846     		mov	r0, r5
 1683 00e2 7121     		movs	r1, #113
 1684 00e4 0DF10A02 		add	r2, sp, #10
 1685 00e8 FFF7FEFF 		bl	VL53L0X_RdWord
 1686              	.LVL292:
 1687 00ec 0446     		mov	r4, r0
 1688              	.LVL293:
 669:../Drivers/BSP/Components/vl53l0x/vl53l0x_api_core.c **** 				VL53L0X_REG_FINAL_RANGE_CONFIG_TIMEOUT_MACROP_HI,
 670:../Drivers/BSP/Components/vl53l0x/vl53l0x_api_core.c **** 				&FinalRangeEncodedTimeOut);
 671:../Drivers/BSP/Components/vl53l0x/vl53l0x_api_core.c **** 			FinalRangeTimeOutMClks = VL53L0X_decode_timeout(
 1689              		.loc 1 671 0
 1690 00ee BDF80A00 		ldrh	r0, [sp, #10]
 1691 00f2 FFF7FEFF 		bl	VL53L0X_decode_timeout
 1692              	.LVL294:
 1693 00f6 80B2     		uxth	r0, r0
 1694              	.LVL295:
 1695 00f8 00E0     		b	.L73
 1696              	.LVL296:
 1697              	.L78:
 589:../Drivers/BSP/Components/vl53l0x/vl53l0x_api_core.c **** 	uint16_t FinalRangeEncodedTimeOut;
 1698              		.loc 1 589 0
 1699 00fa 0020     		movs	r0, #0
 1700              	.LVL297:
 1701              	.L73:
 672:../Drivers/BSP/Components/vl53l0x/vl53l0x_api_core.c **** 					FinalRangeEncodedTimeOut);
 673:../Drivers/BSP/Components/vl53l0x/vl53l0x_api_core.c **** 		}
 674:../Drivers/BSP/Components/vl53l0x/vl53l0x_api_core.c **** 
 675:../Drivers/BSP/Components/vl53l0x/vl53l0x_api_core.c **** 		FinalRangeTimeOutMClks -= PreRangeTimeOutMClks;
 1702              		.loc 1 675 0
 1703 00fc C11B     		subs	r1, r0, r7
 1704              	.LVL298:
 676:../Drivers/BSP/Components/vl53l0x/vl53l0x_api_core.c **** 		TimeoutMicroSeconds = VL53L0X_calc_timeout_us(Dev,
 1705              		.loc 1 676 0
 1706 00fe 2846     		mov	r0, r5
ARM GAS  /tmp/ccfCLKEL.s 			page 43


 1707 0100 89B2     		uxth	r1, r1
 1708 0102 9DF80F20 		ldrb	r2, [sp, #15]	@ zero_extendqisi2
 1709 0106 FFF7FEFF 		bl	VL53L0X_calc_timeout_us
 1710              	.LVL299:
 1711 010a 03E0     		b	.L68
 1712              	.LVL300:
 1713              	.L74:
 585:../Drivers/BSP/Components/vl53l0x/vl53l0x_api_core.c **** 	uint16_t PreRangeEncodedTimeOut = 0;
 1714              		.loc 1 585 0
 1715 010c 0020     		movs	r0, #0
 1716              	.LVL301:
 1717 010e 01E0     		b	.L68
 1718              	.LVL302:
 1719              	.L75:
 1720 0110 0020     		movs	r0, #0
 1721              	.LVL303:
 582:../Drivers/BSP/Components/vl53l0x/vl53l0x_api_core.c **** 	uint8_t CurrentVCSELPulsePeriodPClk;
 1722              		.loc 1 582 0
 1723 0112 0446     		mov	r4, r0
 1724              	.LVL304:
 1725              	.L68:
 677:../Drivers/BSP/Components/vl53l0x/vl53l0x_api_core.c **** 						FinalRangeTimeOutMClks,
 678:../Drivers/BSP/Components/vl53l0x/vl53l0x_api_core.c **** 						CurrentVCSELPulsePeriodPClk);
 679:../Drivers/BSP/Components/vl53l0x/vl53l0x_api_core.c **** 	}
 680:../Drivers/BSP/Components/vl53l0x/vl53l0x_api_core.c **** 
 681:../Drivers/BSP/Components/vl53l0x/vl53l0x_api_core.c **** 	*pTimeOutMicroSecs = TimeoutMicroSeconds;
 1726              		.loc 1 681 0
 1727 0114 3060     		str	r0, [r6]
 682:../Drivers/BSP/Components/vl53l0x/vl53l0x_api_core.c **** 
 683:../Drivers/BSP/Components/vl53l0x/vl53l0x_api_core.c **** 	return Status;
 684:../Drivers/BSP/Components/vl53l0x/vl53l0x_api_core.c **** }
 1728              		.loc 1 684 0
 1729 0116 60B2     		sxtb	r0, r4
 1730              	.LVL305:
 1731 0118 05B0     		add	sp, sp, #20
 1732              	.LCFI17:
 1733              		.cfi_def_cfa_offset 20
 1734              		@ sp needed
 1735 011a F0BD     		pop	{r4, r5, r6, r7, pc}
 1736              		.cfi_endproc
 1737              	.LFE125:
 1739              		.section	.text.set_sequence_step_timeout,"ax",%progbits
 1740              		.align	2
 1741              		.global	set_sequence_step_timeout
 1742              		.thumb
 1743              		.thumb_func
 1745              	set_sequence_step_timeout:
 1746              	.LFB126:
 685:../Drivers/BSP/Components/vl53l0x/vl53l0x_api_core.c **** 
 686:../Drivers/BSP/Components/vl53l0x/vl53l0x_api_core.c **** 
 687:../Drivers/BSP/Components/vl53l0x/vl53l0x_api_core.c **** VL53L0X_Error set_sequence_step_timeout(VL53L0X_DEV Dev,
 688:../Drivers/BSP/Components/vl53l0x/vl53l0x_api_core.c **** 					VL53L0X_SequenceStepId SequenceStepId,
 689:../Drivers/BSP/Components/vl53l0x/vl53l0x_api_core.c **** 					uint32_t TimeOutMicroSecs)
 690:../Drivers/BSP/Components/vl53l0x/vl53l0x_api_core.c **** {
 1747              		.loc 1 690 0
 1748              		.cfi_startproc
 1749              		@ args = 0, pretend = 0, frame = 16
ARM GAS  /tmp/ccfCLKEL.s 			page 44


 1750              		@ frame_needed = 0, uses_anonymous_args = 0
 1751              	.LVL306:
 1752 0000 F0B5     		push	{r4, r5, r6, r7, lr}
 1753              	.LCFI18:
 1754              		.cfi_def_cfa_offset 20
 1755              		.cfi_offset 4, -20
 1756              		.cfi_offset 5, -16
 1757              		.cfi_offset 6, -12
 1758              		.cfi_offset 7, -8
 1759              		.cfi_offset 14, -4
 1760 0002 85B0     		sub	sp, sp, #20
 1761              	.LCFI19:
 1762              		.cfi_def_cfa_offset 40
 1763 0004 0546     		mov	r5, r0
 1764 0006 1646     		mov	r6, r2
 1765              	.LVL307:
 691:../Drivers/BSP/Components/vl53l0x/vl53l0x_api_core.c **** 	VL53L0X_Error Status = VL53L0X_ERROR_NONE;
 692:../Drivers/BSP/Components/vl53l0x/vl53l0x_api_core.c **** 	uint8_t CurrentVCSELPulsePeriodPClk;
 693:../Drivers/BSP/Components/vl53l0x/vl53l0x_api_core.c **** 	uint8_t MsrcEncodedTimeOut;
 694:../Drivers/BSP/Components/vl53l0x/vl53l0x_api_core.c **** 	uint16_t PreRangeEncodedTimeOut;
 695:../Drivers/BSP/Components/vl53l0x/vl53l0x_api_core.c **** 	uint16_t PreRangeTimeOutMClks;
 696:../Drivers/BSP/Components/vl53l0x/vl53l0x_api_core.c **** 	uint16_t MsrcRangeTimeOutMClks;
 697:../Drivers/BSP/Components/vl53l0x/vl53l0x_api_core.c **** 	uint32_t FinalRangeTimeOutMClks;
 698:../Drivers/BSP/Components/vl53l0x/vl53l0x_api_core.c **** 	uint16_t FinalRangeEncodedTimeOut;
 699:../Drivers/BSP/Components/vl53l0x/vl53l0x_api_core.c **** 	VL53L0X_SchedulerSequenceSteps_t SchedulerSequenceSteps;
 700:../Drivers/BSP/Components/vl53l0x/vl53l0x_api_core.c **** 
 701:../Drivers/BSP/Components/vl53l0x/vl53l0x_api_core.c **** 	if ((SequenceStepId == VL53L0X_SEQUENCESTEP_TCC)	 ||
 1766              		.loc 1 701 0
 1767 0008 0229     		cmp	r1, #2
 1768 000a 20D8     		bhi	.L81
 702:../Drivers/BSP/Components/vl53l0x/vl53l0x_api_core.c **** 		(SequenceStepId == VL53L0X_SEQUENCESTEP_DSS)	 ||
 703:../Drivers/BSP/Components/vl53l0x/vl53l0x_api_core.c **** 		(SequenceStepId == VL53L0X_SEQUENCESTEP_MSRC)) {
 704:../Drivers/BSP/Components/vl53l0x/vl53l0x_api_core.c **** 
 705:../Drivers/BSP/Components/vl53l0x/vl53l0x_api_core.c **** 		Status = VL53L0X_GetVcselPulsePeriod(Dev,
 1769              		.loc 1 705 0
 1770 000c 0021     		movs	r1, #0
 1771              	.LVL308:
 1772 000e 0DF10F02 		add	r2, sp, #15
 1773              	.LVL309:
 1774 0012 FFF7FEFF 		bl	VL53L0X_GetVcselPulsePeriod
 1775              	.LVL310:
 706:../Drivers/BSP/Components/vl53l0x/vl53l0x_api_core.c **** 					VL53L0X_VCSEL_PERIOD_PRE_RANGE,
 707:../Drivers/BSP/Components/vl53l0x/vl53l0x_api_core.c **** 					&CurrentVCSELPulsePeriodPClk);
 708:../Drivers/BSP/Components/vl53l0x/vl53l0x_api_core.c **** 
 709:../Drivers/BSP/Components/vl53l0x/vl53l0x_api_core.c **** 		if (Status == VL53L0X_ERROR_NONE) {
 1776              		.loc 1 709 0
 1777 0016 0446     		mov	r4, r0
 1778 0018 80B9     		cbnz	r0, .L82
 710:../Drivers/BSP/Components/vl53l0x/vl53l0x_api_core.c **** 			MsrcRangeTimeOutMClks = VL53L0X_calc_timeout_mclks(Dev,
 1779              		.loc 1 710 0
 1780 001a 2846     		mov	r0, r5
 1781              	.LVL311:
 1782 001c 3146     		mov	r1, r6
 1783 001e 9DF80F20 		ldrb	r2, [sp, #15]	@ zero_extendqisi2
 1784 0022 FFF7FEFF 		bl	VL53L0X_calc_timeout_mclks
 1785              	.LVL312:
 1786 0026 83B2     		uxth	r3, r0
ARM GAS  /tmp/ccfCLKEL.s 			page 45


 1787              	.LVL313:
 711:../Drivers/BSP/Components/vl53l0x/vl53l0x_api_core.c **** 					TimeOutMicroSecs,
 712:../Drivers/BSP/Components/vl53l0x/vl53l0x_api_core.c **** 					(uint8_t)CurrentVCSELPulsePeriodPClk);
 713:../Drivers/BSP/Components/vl53l0x/vl53l0x_api_core.c **** 
 714:../Drivers/BSP/Components/vl53l0x/vl53l0x_api_core.c **** 			if (MsrcRangeTimeOutMClks > 256)
 1788              		.loc 1 714 0
 1789 0028 B3F5807F 		cmp	r3, #256
 1790 002c 03D8     		bhi	.L90
 715:../Drivers/BSP/Components/vl53l0x/vl53l0x_api_core.c **** 				MsrcEncodedTimeOut = 255;
 716:../Drivers/BSP/Components/vl53l0x/vl53l0x_api_core.c **** 			else
 717:../Drivers/BSP/Components/vl53l0x/vl53l0x_api_core.c **** 				MsrcEncodedTimeOut =
 1791              		.loc 1 717 0
 1792 002e 0138     		subs	r0, r0, #1
 1793 0030 00F0FF07 		and	r7, r0, #255
 1794              	.LVL314:
 1795 0034 00E0     		b	.L83
 1796              	.LVL315:
 1797              	.L90:
 715:../Drivers/BSP/Components/vl53l0x/vl53l0x_api_core.c **** 				MsrcEncodedTimeOut = 255;
 1798              		.loc 1 715 0
 1799 0036 FF27     		movs	r7, #255
 1800              	.L83:
 1801              	.LVL316:
 718:../Drivers/BSP/Components/vl53l0x/vl53l0x_api_core.c **** 					(uint8_t)MsrcRangeTimeOutMClks - 1;
 719:../Drivers/BSP/Components/vl53l0x/vl53l0x_api_core.c **** 
 720:../Drivers/BSP/Components/vl53l0x/vl53l0x_api_core.c **** 			VL53L0X_SETDEVICESPECIFICPARAMETER(Dev,
 1802              		.loc 1 720 0
 1803 0038 A5F8D870 		strh	r7, [r5, #216]	@ movhi
 1804              	.LVL317:
 1805              	.L82:
 721:../Drivers/BSP/Components/vl53l0x/vl53l0x_api_core.c **** 				LastEncodedTimeout,
 722:../Drivers/BSP/Components/vl53l0x/vl53l0x_api_core.c **** 				MsrcEncodedTimeOut);
 723:../Drivers/BSP/Components/vl53l0x/vl53l0x_api_core.c **** 		}
 724:../Drivers/BSP/Components/vl53l0x/vl53l0x_api_core.c **** 
 725:../Drivers/BSP/Components/vl53l0x/vl53l0x_api_core.c **** 		if (Status == VL53L0X_ERROR_NONE) {
 1806              		.loc 1 725 0
 1807 003c 002C     		cmp	r4, #0
 1808 003e 65D1     		bne	.L84
 726:../Drivers/BSP/Components/vl53l0x/vl53l0x_api_core.c **** 			Status = VL53L0X_WrByte(Dev,
 1809              		.loc 1 726 0
 1810 0040 2846     		mov	r0, r5
 1811 0042 4621     		movs	r1, #70
 1812 0044 3A46     		mov	r2, r7
 1813 0046 FFF7FEFF 		bl	VL53L0X_WrByte
 1814              	.LVL318:
 1815 004a 0446     		mov	r4, r0
 1816              	.LVL319:
 1817 004c 5EE0     		b	.L84
 1818              	.LVL320:
 1819              	.L81:
 727:../Drivers/BSP/Components/vl53l0x/vl53l0x_api_core.c **** 				VL53L0X_REG_MSRC_CONFIG_TIMEOUT_MACROP,
 728:../Drivers/BSP/Components/vl53l0x/vl53l0x_api_core.c **** 				MsrcEncodedTimeOut);
 729:../Drivers/BSP/Components/vl53l0x/vl53l0x_api_core.c **** 		}
 730:../Drivers/BSP/Components/vl53l0x/vl53l0x_api_core.c **** 	} else {
 731:../Drivers/BSP/Components/vl53l0x/vl53l0x_api_core.c **** 
 732:../Drivers/BSP/Components/vl53l0x/vl53l0x_api_core.c **** 		if (SequenceStepId == VL53L0X_SEQUENCESTEP_PRE_RANGE) {
 1820              		.loc 1 732 0
ARM GAS  /tmp/ccfCLKEL.s 			page 46


 1821 004e 0329     		cmp	r1, #3
 1822 0050 1ED1     		bne	.L85
 733:../Drivers/BSP/Components/vl53l0x/vl53l0x_api_core.c **** 
 734:../Drivers/BSP/Components/vl53l0x/vl53l0x_api_core.c **** 			if (Status == VL53L0X_ERROR_NONE) {
 735:../Drivers/BSP/Components/vl53l0x/vl53l0x_api_core.c **** 				Status = VL53L0X_GetVcselPulsePeriod(Dev,
 1823              		.loc 1 735 0
 1824 0052 0021     		movs	r1, #0
 1825              	.LVL321:
 1826 0054 0DF10F02 		add	r2, sp, #15
 1827              	.LVL322:
 1828 0058 FFF7FEFF 		bl	VL53L0X_GetVcselPulsePeriod
 1829              	.LVL323:
 1830 005c 0446     		mov	r4, r0
 1831              	.LVL324:
 736:../Drivers/BSP/Components/vl53l0x/vl53l0x_api_core.c **** 						VL53L0X_VCSEL_PERIOD_PRE_RANGE,
 737:../Drivers/BSP/Components/vl53l0x/vl53l0x_api_core.c **** 						&CurrentVCSELPulsePeriodPClk);
 738:../Drivers/BSP/Components/vl53l0x/vl53l0x_api_core.c **** 				PreRangeTimeOutMClks =
 739:../Drivers/BSP/Components/vl53l0x/vl53l0x_api_core.c **** 					VL53L0X_calc_timeout_mclks(Dev,
 1832              		.loc 1 739 0
 1833 005e 2846     		mov	r0, r5
 1834 0060 3146     		mov	r1, r6
 1835 0062 9DF80F20 		ldrb	r2, [sp, #15]	@ zero_extendqisi2
 1836 0066 FFF7FEFF 		bl	VL53L0X_calc_timeout_mclks
 1837              	.LVL325:
 740:../Drivers/BSP/Components/vl53l0x/vl53l0x_api_core.c **** 					TimeOutMicroSecs,
 741:../Drivers/BSP/Components/vl53l0x/vl53l0x_api_core.c **** 					(uint8_t)CurrentVCSELPulsePeriodPClk);
 742:../Drivers/BSP/Components/vl53l0x/vl53l0x_api_core.c **** 				PreRangeEncodedTimeOut = VL53L0X_encode_timeout(
 1838              		.loc 1 742 0
 1839 006a 80B2     		uxth	r0, r0
 1840 006c FFF7FEFF 		bl	VL53L0X_encode_timeout
 1841              	.LVL326:
 1842 0070 0246     		mov	r2, r0
 1843 0072 ADF80C00 		strh	r0, [sp, #12]	@ movhi
 743:../Drivers/BSP/Components/vl53l0x/vl53l0x_api_core.c **** 					PreRangeTimeOutMClks);
 744:../Drivers/BSP/Components/vl53l0x/vl53l0x_api_core.c **** 
 745:../Drivers/BSP/Components/vl53l0x/vl53l0x_api_core.c **** 				VL53L0X_SETDEVICESPECIFICPARAMETER(Dev,
 1844              		.loc 1 745 0
 1845 0076 A5F8D800 		strh	r0, [r5, #216]	@ movhi
 746:../Drivers/BSP/Components/vl53l0x/vl53l0x_api_core.c **** 					LastEncodedTimeout,
 747:../Drivers/BSP/Components/vl53l0x/vl53l0x_api_core.c **** 					PreRangeEncodedTimeOut);
 748:../Drivers/BSP/Components/vl53l0x/vl53l0x_api_core.c **** 			}
 749:../Drivers/BSP/Components/vl53l0x/vl53l0x_api_core.c **** 
 750:../Drivers/BSP/Components/vl53l0x/vl53l0x_api_core.c **** 			if (Status == VL53L0X_ERROR_NONE) {
 1846              		.loc 1 750 0
 1847 007a 24B9     		cbnz	r4, .L86
 751:../Drivers/BSP/Components/vl53l0x/vl53l0x_api_core.c **** 				Status = VL53L0X_WrWord(Dev,
 1848              		.loc 1 751 0
 1849 007c 2846     		mov	r0, r5
 1850 007e 5121     		movs	r1, #81
 1851 0080 FFF7FEFF 		bl	VL53L0X_WrWord
 1852              	.LVL327:
 1853 0084 0446     		mov	r4, r0
 1854              	.LVL328:
 1855              	.L86:
 752:../Drivers/BSP/Components/vl53l0x/vl53l0x_api_core.c **** 				VL53L0X_REG_PRE_RANGE_CONFIG_TIMEOUT_MACROP_HI,
 753:../Drivers/BSP/Components/vl53l0x/vl53l0x_api_core.c **** 				PreRangeEncodedTimeOut);
 754:../Drivers/BSP/Components/vl53l0x/vl53l0x_api_core.c **** 			}
ARM GAS  /tmp/ccfCLKEL.s 			page 47


 755:../Drivers/BSP/Components/vl53l0x/vl53l0x_api_core.c **** 
 756:../Drivers/BSP/Components/vl53l0x/vl53l0x_api_core.c **** 			if (Status == VL53L0X_ERROR_NONE) {
 1856              		.loc 1 756 0
 1857 0086 002C     		cmp	r4, #0
 1858 0088 40D1     		bne	.L84
 757:../Drivers/BSP/Components/vl53l0x/vl53l0x_api_core.c **** 				VL53L0X_SETDEVICESPECIFICPARAMETER(
 1859              		.loc 1 757 0
 1860 008a C5F8E460 		str	r6, [r5, #228]
 1861 008e 3DE0     		b	.L84
 1862              	.LVL329:
 1863              	.L85:
 758:../Drivers/BSP/Components/vl53l0x/vl53l0x_api_core.c **** 					Dev,
 759:../Drivers/BSP/Components/vl53l0x/vl53l0x_api_core.c **** 					PreRangeTimeoutMicroSecs,
 760:../Drivers/BSP/Components/vl53l0x/vl53l0x_api_core.c **** 					TimeOutMicroSecs);
 761:../Drivers/BSP/Components/vl53l0x/vl53l0x_api_core.c **** 			}
 762:../Drivers/BSP/Components/vl53l0x/vl53l0x_api_core.c **** 		} else if (SequenceStepId == VL53L0X_SEQUENCESTEP_FINAL_RANGE) {
 1864              		.loc 1 762 0
 1865 0090 0429     		cmp	r1, #4
 1866 0092 3AD1     		bne	.L91
 763:../Drivers/BSP/Components/vl53l0x/vl53l0x_api_core.c **** 
 764:../Drivers/BSP/Components/vl53l0x/vl53l0x_api_core.c **** 			/* For the final range timeout, the pre-range timeout
 765:../Drivers/BSP/Components/vl53l0x/vl53l0x_api_core.c **** 			 * must be added. To do this both final and pre-range
 766:../Drivers/BSP/Components/vl53l0x/vl53l0x_api_core.c **** 			 * timeouts must be expressed in macro periods MClks
 767:../Drivers/BSP/Components/vl53l0x/vl53l0x_api_core.c **** 			 * because they have different vcsel periods.
 768:../Drivers/BSP/Components/vl53l0x/vl53l0x_api_core.c **** 			 */
 769:../Drivers/BSP/Components/vl53l0x/vl53l0x_api_core.c **** 
 770:../Drivers/BSP/Components/vl53l0x/vl53l0x_api_core.c **** 			VL53L0X_GetSequenceStepEnables(Dev,
 1867              		.loc 1 770 0
 1868 0094 01A9     		add	r1, sp, #4
 1869              	.LVL330:
 1870 0096 FFF7FEFF 		bl	VL53L0X_GetSequenceStepEnables
 1871              	.LVL331:
 771:../Drivers/BSP/Components/vl53l0x/vl53l0x_api_core.c **** 					&SchedulerSequenceSteps);
 772:../Drivers/BSP/Components/vl53l0x/vl53l0x_api_core.c **** 			PreRangeTimeOutMClks = 0;
 773:../Drivers/BSP/Components/vl53l0x/vl53l0x_api_core.c **** 			if (SchedulerSequenceSteps.PreRangeOn) {
 1872              		.loc 1 773 0
 1873 009a 9DF80730 		ldrb	r3, [sp, #7]	@ zero_extendqisi2
 1874 009e 9BB1     		cbz	r3, .L92
 774:../Drivers/BSP/Components/vl53l0x/vl53l0x_api_core.c **** 
 775:../Drivers/BSP/Components/vl53l0x/vl53l0x_api_core.c **** 				/* Retrieve PRE-RANGE VCSEL Period */
 776:../Drivers/BSP/Components/vl53l0x/vl53l0x_api_core.c **** 				Status = VL53L0X_GetVcselPulsePeriod(Dev,
 1875              		.loc 1 776 0
 1876 00a0 2846     		mov	r0, r5
 1877 00a2 0021     		movs	r1, #0
 1878 00a4 0DF10F02 		add	r2, sp, #15
 1879 00a8 FFF7FEFF 		bl	VL53L0X_GetVcselPulsePeriod
 1880              	.LVL332:
 777:../Drivers/BSP/Components/vl53l0x/vl53l0x_api_core.c **** 					VL53L0X_VCSEL_PERIOD_PRE_RANGE,
 778:../Drivers/BSP/Components/vl53l0x/vl53l0x_api_core.c **** 					&CurrentVCSELPulsePeriodPClk);
 779:../Drivers/BSP/Components/vl53l0x/vl53l0x_api_core.c **** 
 780:../Drivers/BSP/Components/vl53l0x/vl53l0x_api_core.c **** 				/* Retrieve PRE-RANGE Timeout in Macro periods
 781:../Drivers/BSP/Components/vl53l0x/vl53l0x_api_core.c **** 				 * (MCLKS) */
 782:../Drivers/BSP/Components/vl53l0x/vl53l0x_api_core.c **** 				if (Status == VL53L0X_ERROR_NONE) {
 1881              		.loc 1 782 0
 1882 00ac 0446     		mov	r4, r0
 1883 00ae 70B9     		cbnz	r0, .L93
 783:../Drivers/BSP/Components/vl53l0x/vl53l0x_api_core.c **** 					Status = VL53L0X_RdWord(Dev, 0x51,
ARM GAS  /tmp/ccfCLKEL.s 			page 48


 1884              		.loc 1 783 0
 1885 00b0 2846     		mov	r0, r5
 1886              	.LVL333:
 1887 00b2 5121     		movs	r1, #81
 1888 00b4 03AA     		add	r2, sp, #12
 1889 00b6 FFF7FEFF 		bl	VL53L0X_RdWord
 1890              	.LVL334:
 1891 00ba 0446     		mov	r4, r0
 1892              	.LVL335:
 784:../Drivers/BSP/Components/vl53l0x/vl53l0x_api_core.c **** 						&PreRangeEncodedTimeOut);
 785:../Drivers/BSP/Components/vl53l0x/vl53l0x_api_core.c **** 					PreRangeTimeOutMClks =
 786:../Drivers/BSP/Components/vl53l0x/vl53l0x_api_core.c **** 						VL53L0X_decode_timeout(
 1893              		.loc 1 786 0
 1894 00bc BDF80C00 		ldrh	r0, [sp, #12]
 1895 00c0 FFF7FEFF 		bl	VL53L0X_decode_timeout
 1896              	.LVL336:
 785:../Drivers/BSP/Components/vl53l0x/vl53l0x_api_core.c **** 						VL53L0X_decode_timeout(
 1897              		.loc 1 785 0
 1898 00c4 87B2     		uxth	r7, r0
 1899              	.LVL337:
 1900 00c6 03E0     		b	.L87
 1901              	.LVL338:
 1902              	.L92:
 772:../Drivers/BSP/Components/vl53l0x/vl53l0x_api_core.c **** 			if (SchedulerSequenceSteps.PreRangeOn) {
 1903              		.loc 1 772 0
 1904 00c8 0027     		movs	r7, #0
 691:../Drivers/BSP/Components/vl53l0x/vl53l0x_api_core.c **** 	uint8_t CurrentVCSELPulsePeriodPClk;
 1905              		.loc 1 691 0
 1906 00ca 3C46     		mov	r4, r7
 1907 00cc 00E0     		b	.L87
 1908              	.LVL339:
 1909              	.L93:
 772:../Drivers/BSP/Components/vl53l0x/vl53l0x_api_core.c **** 			if (SchedulerSequenceSteps.PreRangeOn) {
 1910              		.loc 1 772 0
 1911 00ce 0027     		movs	r7, #0
 1912              	.LVL340:
 1913              	.L87:
 787:../Drivers/BSP/Components/vl53l0x/vl53l0x_api_core.c **** 							PreRangeEncodedTimeOut);
 788:../Drivers/BSP/Components/vl53l0x/vl53l0x_api_core.c **** 				}
 789:../Drivers/BSP/Components/vl53l0x/vl53l0x_api_core.c **** 			}
 790:../Drivers/BSP/Components/vl53l0x/vl53l0x_api_core.c **** 
 791:../Drivers/BSP/Components/vl53l0x/vl53l0x_api_core.c **** 			/* Calculate FINAL RANGE Timeout in Macro Periods
 792:../Drivers/BSP/Components/vl53l0x/vl53l0x_api_core.c **** 			 * (MCLKS) and add PRE-RANGE value
 793:../Drivers/BSP/Components/vl53l0x/vl53l0x_api_core.c **** 			 */
 794:../Drivers/BSP/Components/vl53l0x/vl53l0x_api_core.c **** 			if (Status == VL53L0X_ERROR_NONE) {
 1914              		.loc 1 794 0
 1915 00d0 34B9     		cbnz	r4, .L88
 795:../Drivers/BSP/Components/vl53l0x/vl53l0x_api_core.c **** 
 796:../Drivers/BSP/Components/vl53l0x/vl53l0x_api_core.c **** 				Status = VL53L0X_GetVcselPulsePeriod(Dev,
 1916              		.loc 1 796 0
 1917 00d2 2846     		mov	r0, r5
 1918 00d4 0121     		movs	r1, #1
 1919 00d6 0DF10F02 		add	r2, sp, #15
 1920 00da FFF7FEFF 		bl	VL53L0X_GetVcselPulsePeriod
 1921              	.LVL341:
 1922 00de 0446     		mov	r4, r0
 1923              	.LVL342:
ARM GAS  /tmp/ccfCLKEL.s 			page 49


 1924              	.L88:
 797:../Drivers/BSP/Components/vl53l0x/vl53l0x_api_core.c **** 						VL53L0X_VCSEL_PERIOD_FINAL_RANGE,
 798:../Drivers/BSP/Components/vl53l0x/vl53l0x_api_core.c **** 						&CurrentVCSELPulsePeriodPClk);
 799:../Drivers/BSP/Components/vl53l0x/vl53l0x_api_core.c **** 			}
 800:../Drivers/BSP/Components/vl53l0x/vl53l0x_api_core.c **** 			if (Status == VL53L0X_ERROR_NONE) {
 1925              		.loc 1 800 0
 1926 00e0 A4B9     		cbnz	r4, .L84
 801:../Drivers/BSP/Components/vl53l0x/vl53l0x_api_core.c **** 
 802:../Drivers/BSP/Components/vl53l0x/vl53l0x_api_core.c **** 				FinalRangeTimeOutMClks =
 1927              		.loc 1 802 0
 1928 00e2 2846     		mov	r0, r5
 1929 00e4 3146     		mov	r1, r6
 1930 00e6 9DF80F20 		ldrb	r2, [sp, #15]	@ zero_extendqisi2
 1931 00ea FFF7FEFF 		bl	VL53L0X_calc_timeout_mclks
 1932              	.LVL343:
 803:../Drivers/BSP/Components/vl53l0x/vl53l0x_api_core.c **** 					VL53L0X_calc_timeout_mclks(Dev,
 804:../Drivers/BSP/Components/vl53l0x/vl53l0x_api_core.c **** 					TimeOutMicroSecs,
 805:../Drivers/BSP/Components/vl53l0x/vl53l0x_api_core.c **** 					(uint8_t) CurrentVCSELPulsePeriodPClk);
 806:../Drivers/BSP/Components/vl53l0x/vl53l0x_api_core.c **** 
 807:../Drivers/BSP/Components/vl53l0x/vl53l0x_api_core.c **** 				FinalRangeTimeOutMClks += PreRangeTimeOutMClks;
 808:../Drivers/BSP/Components/vl53l0x/vl53l0x_api_core.c **** 
 809:../Drivers/BSP/Components/vl53l0x/vl53l0x_api_core.c **** 				FinalRangeEncodedTimeOut =
 1933              		.loc 1 809 0
 1934 00ee 3844     		add	r0, r0, r7
 1935              	.LVL344:
 1936 00f0 FFF7FEFF 		bl	VL53L0X_encode_timeout
 1937              	.LVL345:
 1938 00f4 0246     		mov	r2, r0
 1939              	.LVL346:
 810:../Drivers/BSP/Components/vl53l0x/vl53l0x_api_core.c **** 				VL53L0X_encode_timeout(FinalRangeTimeOutMClks);
 811:../Drivers/BSP/Components/vl53l0x/vl53l0x_api_core.c **** 
 812:../Drivers/BSP/Components/vl53l0x/vl53l0x_api_core.c **** 				if (Status == VL53L0X_ERROR_NONE) {
 1940              		.loc 1 812 0
 1941 00f6 24B9     		cbnz	r4, .L89
 813:../Drivers/BSP/Components/vl53l0x/vl53l0x_api_core.c **** 					Status = VL53L0X_WrWord(Dev, 0x71,
 1942              		.loc 1 813 0
 1943 00f8 2846     		mov	r0, r5
 1944 00fa 7121     		movs	r1, #113
 1945 00fc FFF7FEFF 		bl	VL53L0X_WrWord
 1946              	.LVL347:
 1947 0100 0446     		mov	r4, r0
 1948              	.LVL348:
 1949              	.L89:
 814:../Drivers/BSP/Components/vl53l0x/vl53l0x_api_core.c **** 					FinalRangeEncodedTimeOut);
 815:../Drivers/BSP/Components/vl53l0x/vl53l0x_api_core.c **** 				}
 816:../Drivers/BSP/Components/vl53l0x/vl53l0x_api_core.c **** 
 817:../Drivers/BSP/Components/vl53l0x/vl53l0x_api_core.c **** 				if (Status == VL53L0X_ERROR_NONE) {
 1950              		.loc 1 817 0
 1951 0102 1CB9     		cbnz	r4, .L84
 818:../Drivers/BSP/Components/vl53l0x/vl53l0x_api_core.c **** 					VL53L0X_SETDEVICESPECIFICPARAMETER(
 1952              		.loc 1 818 0
 1953 0104 C5F8DC60 		str	r6, [r5, #220]
 1954 0108 00E0     		b	.L84
 1955              	.LVL349:
 1956              	.L91:
 819:../Drivers/BSP/Components/vl53l0x/vl53l0x_api_core.c **** 						Dev,
 820:../Drivers/BSP/Components/vl53l0x/vl53l0x_api_core.c **** 						FinalRangeTimeoutMicroSecs,
ARM GAS  /tmp/ccfCLKEL.s 			page 50


 821:../Drivers/BSP/Components/vl53l0x/vl53l0x_api_core.c **** 						TimeOutMicroSecs);
 822:../Drivers/BSP/Components/vl53l0x/vl53l0x_api_core.c **** 				}
 823:../Drivers/BSP/Components/vl53l0x/vl53l0x_api_core.c **** 			}
 824:../Drivers/BSP/Components/vl53l0x/vl53l0x_api_core.c **** 		} else
 825:../Drivers/BSP/Components/vl53l0x/vl53l0x_api_core.c **** 			Status = VL53L0X_ERROR_INVALID_PARAMS;
 1957              		.loc 1 825 0
 1958 010a FC24     		movs	r4, #252
 1959              	.LVL350:
 1960              	.L84:
 826:../Drivers/BSP/Components/vl53l0x/vl53l0x_api_core.c **** 
 827:../Drivers/BSP/Components/vl53l0x/vl53l0x_api_core.c **** 	}
 828:../Drivers/BSP/Components/vl53l0x/vl53l0x_api_core.c **** 	return Status;
 829:../Drivers/BSP/Components/vl53l0x/vl53l0x_api_core.c **** }
 1961              		.loc 1 829 0
 1962 010c 60B2     		sxtb	r0, r4
 1963 010e 05B0     		add	sp, sp, #20
 1964              	.LCFI20:
 1965              		.cfi_def_cfa_offset 20
 1966              		@ sp needed
 1967 0110 F0BD     		pop	{r4, r5, r6, r7, pc}
 1968              		.cfi_endproc
 1969              	.LFE126:
 1971 0112 00BF     		.section	.text.VL53L0X_set_vcsel_pulse_period,"ax",%progbits
 1972              		.align	2
 1973              		.global	VL53L0X_set_vcsel_pulse_period
 1974              		.thumb
 1975              		.thumb_func
 1977              	VL53L0X_set_vcsel_pulse_period:
 1978              	.LFB127:
 830:../Drivers/BSP/Components/vl53l0x/vl53l0x_api_core.c **** 
 831:../Drivers/BSP/Components/vl53l0x/vl53l0x_api_core.c **** VL53L0X_Error VL53L0X_set_vcsel_pulse_period(VL53L0X_DEV Dev,
 832:../Drivers/BSP/Components/vl53l0x/vl53l0x_api_core.c **** 	VL53L0X_VcselPeriod VcselPeriodType, uint8_t VCSELPulsePeriodPCLK)
 833:../Drivers/BSP/Components/vl53l0x/vl53l0x_api_core.c **** {
 1979              		.loc 1 833 0
 1980              		.cfi_startproc
 1981              		@ args = 0, pretend = 0, frame = 16
 1982              		@ frame_needed = 0, uses_anonymous_args = 0
 1983              	.LVL351:
 1984 0000 F0B5     		push	{r4, r5, r6, r7, lr}
 1985              	.LCFI21:
 1986              		.cfi_def_cfa_offset 20
 1987              		.cfi_offset 4, -20
 1988              		.cfi_offset 5, -16
 1989              		.cfi_offset 6, -12
 1990              		.cfi_offset 7, -8
 1991              		.cfi_offset 14, -4
 1992 0002 85B0     		sub	sp, sp, #20
 1993              	.LCFI22:
 1994              		.cfi_def_cfa_offset 40
 1995 0004 0746     		mov	r7, r0
 1996 0006 0E46     		mov	r6, r1
 1997 0008 1546     		mov	r5, r2
 1998              	.LVL352:
 834:../Drivers/BSP/Components/vl53l0x/vl53l0x_api_core.c **** 	VL53L0X_Error Status = VL53L0X_ERROR_NONE;
 835:../Drivers/BSP/Components/vl53l0x/vl53l0x_api_core.c **** 	uint8_t vcsel_period_reg;
 836:../Drivers/BSP/Components/vl53l0x/vl53l0x_api_core.c **** 	uint8_t MinPreVcselPeriodPCLK = 12;
 837:../Drivers/BSP/Components/vl53l0x/vl53l0x_api_core.c **** 	uint8_t MaxPreVcselPeriodPCLK = 18;
ARM GAS  /tmp/ccfCLKEL.s 			page 51


 838:../Drivers/BSP/Components/vl53l0x/vl53l0x_api_core.c **** 	uint8_t MinFinalVcselPeriodPCLK = 8;
 839:../Drivers/BSP/Components/vl53l0x/vl53l0x_api_core.c **** 	uint8_t MaxFinalVcselPeriodPCLK = 14;
 840:../Drivers/BSP/Components/vl53l0x/vl53l0x_api_core.c **** 	uint32_t MeasurementTimingBudgetMicroSeconds;
 841:../Drivers/BSP/Components/vl53l0x/vl53l0x_api_core.c **** 	uint32_t FinalRangeTimeoutMicroSeconds;
 842:../Drivers/BSP/Components/vl53l0x/vl53l0x_api_core.c **** 	uint32_t PreRangeTimeoutMicroSeconds;
 843:../Drivers/BSP/Components/vl53l0x/vl53l0x_api_core.c **** 	uint32_t MsrcTimeoutMicroSeconds;
 844:../Drivers/BSP/Components/vl53l0x/vl53l0x_api_core.c **** 	uint8_t PhaseCalInt = 0;
 1999              		.loc 1 844 0
 2000 000a 0023     		movs	r3, #0
 2001 000c 8DF80330 		strb	r3, [sp, #3]
 845:../Drivers/BSP/Components/vl53l0x/vl53l0x_api_core.c **** 
 846:../Drivers/BSP/Components/vl53l0x/vl53l0x_api_core.c **** 	/* Check if valid clock period requested */
 847:../Drivers/BSP/Components/vl53l0x/vl53l0x_api_core.c **** 
 848:../Drivers/BSP/Components/vl53l0x/vl53l0x_api_core.c **** 	if ((VCSELPulsePeriodPCLK % 2) != 0) {
 2002              		.loc 1 848 0
 2003 0010 12F0010F 		tst	r2, #1
 2004 0014 0CD1     		bne	.L118
 849:../Drivers/BSP/Components/vl53l0x/vl53l0x_api_core.c **** 		/* Value must be an even number */
 850:../Drivers/BSP/Components/vl53l0x/vl53l0x_api_core.c **** 		Status = VL53L0X_ERROR_INVALID_PARAMS;
 851:../Drivers/BSP/Components/vl53l0x/vl53l0x_api_core.c **** 	} else if (VcselPeriodType == VL53L0X_VCSEL_PERIOD_PRE_RANGE &&
 2005              		.loc 1 851 0
 2006 0016 19B9     		cbnz	r1, .L97
 2007              		.loc 1 851 0 is_stmt 0 discriminator 1
 2008 0018 0B2A     		cmp	r2, #11
 2009 001a 0BD9     		bls	.L119
 852:../Drivers/BSP/Components/vl53l0x/vl53l0x_api_core.c **** 		(VCSELPulsePeriodPCLK < MinPreVcselPeriodPCLK ||
 2010              		.loc 1 852 0 is_stmt 1
 2011 001c 122A     		cmp	r2, #18
 2012 001e 0BD8     		bhi	.L120
 2013              	.L97:
 853:../Drivers/BSP/Components/vl53l0x/vl53l0x_api_core.c **** 		VCSELPulsePeriodPCLK > MaxPreVcselPeriodPCLK)) {
 854:../Drivers/BSP/Components/vl53l0x/vl53l0x_api_core.c **** 		Status = VL53L0X_ERROR_INVALID_PARAMS;
 855:../Drivers/BSP/Components/vl53l0x/vl53l0x_api_core.c **** 	} else if (VcselPeriodType == VL53L0X_VCSEL_PERIOD_FINAL_RANGE &&
 2014              		.loc 1 855 0
 2015 0020 012E     		cmp	r6, #1
 2016 0022 0BD1     		bne	.L121
 2017              		.loc 1 855 0 is_stmt 0 discriminator 1
 2018 0024 072D     		cmp	r5, #7
 2019 0026 0BD9     		bls	.L122
 856:../Drivers/BSP/Components/vl53l0x/vl53l0x_api_core.c **** 		(VCSELPulsePeriodPCLK < MinFinalVcselPeriodPCLK ||
 2020              		.loc 1 856 0 is_stmt 1
 2021 0028 0E2D     		cmp	r5, #14
 2022 002a 0BD8     		bhi	.L123
 834:../Drivers/BSP/Components/vl53l0x/vl53l0x_api_core.c **** 	uint8_t vcsel_period_reg;
 2023              		.loc 1 834 0
 2024 002c 0023     		movs	r3, #0
 2025 002e 0AE0     		b	.L96
 2026              	.L118:
 850:../Drivers/BSP/Components/vl53l0x/vl53l0x_api_core.c **** 	} else if (VcselPeriodType == VL53L0X_VCSEL_PERIOD_PRE_RANGE &&
 2027              		.loc 1 850 0
 2028 0030 FC23     		movs	r3, #252
 2029 0032 08E0     		b	.L96
 2030              	.L119:
 854:../Drivers/BSP/Components/vl53l0x/vl53l0x_api_core.c **** 	} else if (VcselPeriodType == VL53L0X_VCSEL_PERIOD_FINAL_RANGE &&
 2031              		.loc 1 854 0
 2032 0034 FC23     		movs	r3, #252
 2033 0036 06E0     		b	.L96
ARM GAS  /tmp/ccfCLKEL.s 			page 52


 2034              	.L120:
 2035 0038 FC23     		movs	r3, #252
 2036 003a 04E0     		b	.L96
 2037              	.L121:
 834:../Drivers/BSP/Components/vl53l0x/vl53l0x_api_core.c **** 	uint8_t vcsel_period_reg;
 2038              		.loc 1 834 0
 2039 003c 0023     		movs	r3, #0
 2040 003e 02E0     		b	.L96
 2041              	.L122:
 857:../Drivers/BSP/Components/vl53l0x/vl53l0x_api_core.c **** 		 VCSELPulsePeriodPCLK > MaxFinalVcselPeriodPCLK)) {
 858:../Drivers/BSP/Components/vl53l0x/vl53l0x_api_core.c **** 
 859:../Drivers/BSP/Components/vl53l0x/vl53l0x_api_core.c **** 		Status = VL53L0X_ERROR_INVALID_PARAMS;
 2042              		.loc 1 859 0
 2043 0040 FC23     		movs	r3, #252
 2044 0042 00E0     		b	.L96
 2045              	.L123:
 2046 0044 FC23     		movs	r3, #252
 2047              	.L96:
 2048              	.LVL353:
 860:../Drivers/BSP/Components/vl53l0x/vl53l0x_api_core.c **** 	}
 861:../Drivers/BSP/Components/vl53l0x/vl53l0x_api_core.c **** 
 862:../Drivers/BSP/Components/vl53l0x/vl53l0x_api_core.c **** 	/* Apply specific settings for the requested clock period */
 863:../Drivers/BSP/Components/vl53l0x/vl53l0x_api_core.c **** 
 864:../Drivers/BSP/Components/vl53l0x/vl53l0x_api_core.c **** 	if (Status != VL53L0X_ERROR_NONE)
 2049              		.loc 1 864 0
 2050 0046 002B     		cmp	r3, #0
 2051 0048 40F05681 		bne	.L98
 865:../Drivers/BSP/Components/vl53l0x/vl53l0x_api_core.c **** 		return Status;
 866:../Drivers/BSP/Components/vl53l0x/vl53l0x_api_core.c **** 
 867:../Drivers/BSP/Components/vl53l0x/vl53l0x_api_core.c **** 
 868:../Drivers/BSP/Components/vl53l0x/vl53l0x_api_core.c **** 	if (VcselPeriodType == VL53L0X_VCSEL_PERIOD_PRE_RANGE) {
 2052              		.loc 1 868 0
 2053 004c C6BB     		cbnz	r6, .L99
 869:../Drivers/BSP/Components/vl53l0x/vl53l0x_api_core.c **** 
 870:../Drivers/BSP/Components/vl53l0x/vl53l0x_api_core.c **** 		/* Set phase check limits */
 871:../Drivers/BSP/Components/vl53l0x/vl53l0x_api_core.c **** 		if (VCSELPulsePeriodPCLK == 12) {
 2054              		.loc 1 871 0
 2055 004e 0C2D     		cmp	r5, #12
 2056 0050 0BD1     		bne	.L100
 872:../Drivers/BSP/Components/vl53l0x/vl53l0x_api_core.c **** 
 873:../Drivers/BSP/Components/vl53l0x/vl53l0x_api_core.c **** 			Status = VL53L0X_WrByte(Dev,
 2057              		.loc 1 873 0
 2058 0052 3846     		mov	r0, r7
 2059              	.LVL354:
 2060 0054 5721     		movs	r1, #87
 2061              	.LVL355:
 2062 0056 1822     		movs	r2, #24
 2063              	.LVL356:
 2064 0058 FFF7FEFF 		bl	VL53L0X_WrByte
 2065              	.LVL357:
 874:../Drivers/BSP/Components/vl53l0x/vl53l0x_api_core.c **** 				VL53L0X_REG_PRE_RANGE_CONFIG_VALID_PHASE_HIGH,
 875:../Drivers/BSP/Components/vl53l0x/vl53l0x_api_core.c **** 				0x18);
 876:../Drivers/BSP/Components/vl53l0x/vl53l0x_api_core.c **** 			Status = VL53L0X_WrByte(Dev,
 2066              		.loc 1 876 0
 2067 005c 3846     		mov	r0, r7
 2068 005e 5621     		movs	r1, #86
 2069 0060 0822     		movs	r2, #8
ARM GAS  /tmp/ccfCLKEL.s 			page 53


 2070 0062 FFF7FEFF 		bl	VL53L0X_WrByte
 2071              	.LVL358:
 2072 0066 0346     		mov	r3, r0
 2073              	.LVL359:
 2074 0068 F0E0     		b	.L101
 2075              	.LVL360:
 2076              	.L100:
 877:../Drivers/BSP/Components/vl53l0x/vl53l0x_api_core.c **** 				VL53L0X_REG_PRE_RANGE_CONFIG_VALID_PHASE_LOW,
 878:../Drivers/BSP/Components/vl53l0x/vl53l0x_api_core.c **** 				0x08);
 879:../Drivers/BSP/Components/vl53l0x/vl53l0x_api_core.c **** 		} else if (VCSELPulsePeriodPCLK == 14) {
 2077              		.loc 1 879 0
 2078 006a 0E2D     		cmp	r5, #14
 2079 006c 0BD1     		bne	.L102
 880:../Drivers/BSP/Components/vl53l0x/vl53l0x_api_core.c **** 
 881:../Drivers/BSP/Components/vl53l0x/vl53l0x_api_core.c **** 			Status = VL53L0X_WrByte(Dev,
 2080              		.loc 1 881 0
 2081 006e 3846     		mov	r0, r7
 2082              	.LVL361:
 2083 0070 5721     		movs	r1, #87
 2084              	.LVL362:
 2085 0072 3022     		movs	r2, #48
 2086              	.LVL363:
 2087 0074 FFF7FEFF 		bl	VL53L0X_WrByte
 2088              	.LVL364:
 882:../Drivers/BSP/Components/vl53l0x/vl53l0x_api_core.c **** 				VL53L0X_REG_PRE_RANGE_CONFIG_VALID_PHASE_HIGH,
 883:../Drivers/BSP/Components/vl53l0x/vl53l0x_api_core.c **** 				0x30);
 884:../Drivers/BSP/Components/vl53l0x/vl53l0x_api_core.c **** 			Status = VL53L0X_WrByte(Dev,
 2089              		.loc 1 884 0
 2090 0078 3846     		mov	r0, r7
 2091 007a 5621     		movs	r1, #86
 2092 007c 0822     		movs	r2, #8
 2093 007e FFF7FEFF 		bl	VL53L0X_WrByte
 2094              	.LVL365:
 2095 0082 0346     		mov	r3, r0
 2096              	.LVL366:
 2097 0084 E2E0     		b	.L101
 2098              	.LVL367:
 2099              	.L102:
 885:../Drivers/BSP/Components/vl53l0x/vl53l0x_api_core.c **** 				VL53L0X_REG_PRE_RANGE_CONFIG_VALID_PHASE_LOW,
 886:../Drivers/BSP/Components/vl53l0x/vl53l0x_api_core.c **** 				0x08);
 887:../Drivers/BSP/Components/vl53l0x/vl53l0x_api_core.c **** 		} else if (VCSELPulsePeriodPCLK == 16) {
 2100              		.loc 1 887 0
 2101 0086 102D     		cmp	r5, #16
 2102 0088 0BD1     		bne	.L103
 888:../Drivers/BSP/Components/vl53l0x/vl53l0x_api_core.c **** 
 889:../Drivers/BSP/Components/vl53l0x/vl53l0x_api_core.c **** 			Status = VL53L0X_WrByte(Dev,
 2103              		.loc 1 889 0
 2104 008a 3846     		mov	r0, r7
 2105              	.LVL368:
 2106 008c 5721     		movs	r1, #87
 2107              	.LVL369:
 2108 008e 4022     		movs	r2, #64
 2109              	.LVL370:
 2110 0090 FFF7FEFF 		bl	VL53L0X_WrByte
 2111              	.LVL371:
 890:../Drivers/BSP/Components/vl53l0x/vl53l0x_api_core.c **** 				VL53L0X_REG_PRE_RANGE_CONFIG_VALID_PHASE_HIGH,
 891:../Drivers/BSP/Components/vl53l0x/vl53l0x_api_core.c **** 				0x40);
ARM GAS  /tmp/ccfCLKEL.s 			page 54


 892:../Drivers/BSP/Components/vl53l0x/vl53l0x_api_core.c **** 			Status = VL53L0X_WrByte(Dev,
 2112              		.loc 1 892 0
 2113 0094 3846     		mov	r0, r7
 2114 0096 5621     		movs	r1, #86
 2115 0098 0822     		movs	r2, #8
 2116 009a FFF7FEFF 		bl	VL53L0X_WrByte
 2117              	.LVL372:
 2118 009e 0346     		mov	r3, r0
 2119              	.LVL373:
 2120 00a0 D4E0     		b	.L101
 2121              	.LVL374:
 2122              	.L103:
 893:../Drivers/BSP/Components/vl53l0x/vl53l0x_api_core.c **** 				VL53L0X_REG_PRE_RANGE_CONFIG_VALID_PHASE_LOW,
 894:../Drivers/BSP/Components/vl53l0x/vl53l0x_api_core.c **** 				0x08);
 895:../Drivers/BSP/Components/vl53l0x/vl53l0x_api_core.c **** 		} else if (VCSELPulsePeriodPCLK == 18) {
 2123              		.loc 1 895 0
 2124 00a2 122D     		cmp	r5, #18
 2125 00a4 40F0D280 		bne	.L101
 896:../Drivers/BSP/Components/vl53l0x/vl53l0x_api_core.c **** 
 897:../Drivers/BSP/Components/vl53l0x/vl53l0x_api_core.c **** 			Status = VL53L0X_WrByte(Dev,
 2126              		.loc 1 897 0
 2127 00a8 3846     		mov	r0, r7
 2128              	.LVL375:
 2129 00aa 5721     		movs	r1, #87
 2130              	.LVL376:
 2131 00ac 5022     		movs	r2, #80
 2132              	.LVL377:
 2133 00ae FFF7FEFF 		bl	VL53L0X_WrByte
 2134              	.LVL378:
 898:../Drivers/BSP/Components/vl53l0x/vl53l0x_api_core.c **** 				VL53L0X_REG_PRE_RANGE_CONFIG_VALID_PHASE_HIGH,
 899:../Drivers/BSP/Components/vl53l0x/vl53l0x_api_core.c **** 				0x50);
 900:../Drivers/BSP/Components/vl53l0x/vl53l0x_api_core.c **** 			Status = VL53L0X_WrByte(Dev,
 2135              		.loc 1 900 0
 2136 00b2 3846     		mov	r0, r7
 2137 00b4 5621     		movs	r1, #86
 2138 00b6 0822     		movs	r2, #8
 2139 00b8 FFF7FEFF 		bl	VL53L0X_WrByte
 2140              	.LVL379:
 2141 00bc 0346     		mov	r3, r0
 2142              	.LVL380:
 2143 00be C5E0     		b	.L101
 2144              	.LVL381:
 2145              	.L99:
 901:../Drivers/BSP/Components/vl53l0x/vl53l0x_api_core.c **** 				VL53L0X_REG_PRE_RANGE_CONFIG_VALID_PHASE_LOW,
 902:../Drivers/BSP/Components/vl53l0x/vl53l0x_api_core.c **** 				0x08);
 903:../Drivers/BSP/Components/vl53l0x/vl53l0x_api_core.c **** 		}
 904:../Drivers/BSP/Components/vl53l0x/vl53l0x_api_core.c **** 	} else if (VcselPeriodType == VL53L0X_VCSEL_PERIOD_FINAL_RANGE) {
 2146              		.loc 1 904 0
 2147 00c0 012E     		cmp	r6, #1
 2148 00c2 40F0C380 		bne	.L101
 905:../Drivers/BSP/Components/vl53l0x/vl53l0x_api_core.c **** 
 906:../Drivers/BSP/Components/vl53l0x/vl53l0x_api_core.c **** 		if (VCSELPulsePeriodPCLK == 8) {
 2149              		.loc 1 906 0
 2150 00c6 082D     		cmp	r5, #8
 2151 00c8 2ED1     		bne	.L104
 907:../Drivers/BSP/Components/vl53l0x/vl53l0x_api_core.c **** 
 908:../Drivers/BSP/Components/vl53l0x/vl53l0x_api_core.c **** 			Status = VL53L0X_WrByte(Dev,
ARM GAS  /tmp/ccfCLKEL.s 			page 55


 2152              		.loc 1 908 0
 2153 00ca 3846     		mov	r0, r7
 2154              	.LVL382:
 2155 00cc 4821     		movs	r1, #72
 2156              	.LVL383:
 2157 00ce 1022     		movs	r2, #16
 2158              	.LVL384:
 2159 00d0 FFF7FEFF 		bl	VL53L0X_WrByte
 2160              	.LVL385:
 909:../Drivers/BSP/Components/vl53l0x/vl53l0x_api_core.c **** 				VL53L0X_REG_FINAL_RANGE_CONFIG_VALID_PHASE_HIGH,
 910:../Drivers/BSP/Components/vl53l0x/vl53l0x_api_core.c **** 				0x10);
 911:../Drivers/BSP/Components/vl53l0x/vl53l0x_api_core.c **** 			Status = VL53L0X_WrByte(Dev,
 2161              		.loc 1 911 0
 2162 00d4 3846     		mov	r0, r7
 2163 00d6 4721     		movs	r1, #71
 2164 00d8 0822     		movs	r2, #8
 2165 00da FFF7FEFF 		bl	VL53L0X_WrByte
 2166              	.LVL386:
 2167 00de 0446     		mov	r4, r0
 2168              	.LVL387:
 912:../Drivers/BSP/Components/vl53l0x/vl53l0x_api_core.c **** 				VL53L0X_REG_FINAL_RANGE_CONFIG_VALID_PHASE_LOW,
 913:../Drivers/BSP/Components/vl53l0x/vl53l0x_api_core.c **** 				0x08);
 914:../Drivers/BSP/Components/vl53l0x/vl53l0x_api_core.c **** 
 915:../Drivers/BSP/Components/vl53l0x/vl53l0x_api_core.c **** 			Status |= VL53L0X_WrByte(Dev,
 2169              		.loc 1 915 0
 2170 00e0 3846     		mov	r0, r7
 2171 00e2 3221     		movs	r1, #50
 2172 00e4 0222     		movs	r2, #2
 2173 00e6 FFF7FEFF 		bl	VL53L0X_WrByte
 2174              	.LVL388:
 2175 00ea 2043     		orrs	r0, r0, r4
 2176 00ec C4B2     		uxtb	r4, r0
 2177              	.LVL389:
 916:../Drivers/BSP/Components/vl53l0x/vl53l0x_api_core.c **** 				VL53L0X_REG_GLOBAL_CONFIG_VCSEL_WIDTH, 0x02);
 917:../Drivers/BSP/Components/vl53l0x/vl53l0x_api_core.c **** 			Status |= VL53L0X_WrByte(Dev,
 2178              		.loc 1 917 0
 2179 00ee 3846     		mov	r0, r7
 2180 00f0 3021     		movs	r1, #48
 2181 00f2 0C22     		movs	r2, #12
 2182 00f4 FFF7FEFF 		bl	VL53L0X_WrByte
 2183              	.LVL390:
 2184 00f8 2043     		orrs	r0, r0, r4
 2185 00fa C4B2     		uxtb	r4, r0
 2186              	.LVL391:
 918:../Drivers/BSP/Components/vl53l0x/vl53l0x_api_core.c **** 				VL53L0X_REG_ALGO_PHASECAL_CONFIG_TIMEOUT, 0x0C);
 919:../Drivers/BSP/Components/vl53l0x/vl53l0x_api_core.c **** 
 920:../Drivers/BSP/Components/vl53l0x/vl53l0x_api_core.c **** 			Status |= VL53L0X_WrByte(Dev, 0xff, 0x01);
 2187              		.loc 1 920 0
 2188 00fc 3846     		mov	r0, r7
 2189 00fe FF21     		movs	r1, #255
 2190 0100 0122     		movs	r2, #1
 2191 0102 FFF7FEFF 		bl	VL53L0X_WrByte
 2192              	.LVL392:
 2193 0106 2043     		orrs	r0, r0, r4
 2194 0108 C4B2     		uxtb	r4, r0
 2195              	.LVL393:
 921:../Drivers/BSP/Components/vl53l0x/vl53l0x_api_core.c **** 			Status |= VL53L0X_WrByte(Dev,
ARM GAS  /tmp/ccfCLKEL.s 			page 56


 2196              		.loc 1 921 0
 2197 010a 3846     		mov	r0, r7
 2198 010c 3021     		movs	r1, #48
 2199 010e 0A46     		mov	r2, r1
 2200 0110 FFF7FEFF 		bl	VL53L0X_WrByte
 2201              	.LVL394:
 2202 0114 2043     		orrs	r0, r0, r4
 2203 0116 C4B2     		uxtb	r4, r0
 2204              	.LVL395:
 922:../Drivers/BSP/Components/vl53l0x/vl53l0x_api_core.c **** 				VL53L0X_REG_ALGO_PHASECAL_LIM,
 923:../Drivers/BSP/Components/vl53l0x/vl53l0x_api_core.c **** 				0x30);
 924:../Drivers/BSP/Components/vl53l0x/vl53l0x_api_core.c **** 			Status |= VL53L0X_WrByte(Dev, 0xff, 0x00);
 2205              		.loc 1 924 0
 2206 0118 3846     		mov	r0, r7
 2207 011a FF21     		movs	r1, #255
 2208 011c 0022     		movs	r2, #0
 2209 011e FFF7FEFF 		bl	VL53L0X_WrByte
 2210              	.LVL396:
 2211 0122 2043     		orrs	r0, r0, r4
 2212 0124 C3B2     		uxtb	r3, r0
 2213              	.LVL397:
 2214 0126 91E0     		b	.L101
 2215              	.LVL398:
 2216              	.L104:
 925:../Drivers/BSP/Components/vl53l0x/vl53l0x_api_core.c **** 		} else if (VCSELPulsePeriodPCLK == 10) {
 2217              		.loc 1 925 0
 2218 0128 0A2D     		cmp	r5, #10
 2219 012a 2ED1     		bne	.L105
 926:../Drivers/BSP/Components/vl53l0x/vl53l0x_api_core.c **** 
 927:../Drivers/BSP/Components/vl53l0x/vl53l0x_api_core.c **** 			Status = VL53L0X_WrByte(Dev,
 2220              		.loc 1 927 0
 2221 012c 3846     		mov	r0, r7
 2222              	.LVL399:
 2223 012e 4821     		movs	r1, #72
 2224              	.LVL400:
 2225 0130 2822     		movs	r2, #40
 2226              	.LVL401:
 2227 0132 FFF7FEFF 		bl	VL53L0X_WrByte
 2228              	.LVL402:
 928:../Drivers/BSP/Components/vl53l0x/vl53l0x_api_core.c **** 				VL53L0X_REG_FINAL_RANGE_CONFIG_VALID_PHASE_HIGH,
 929:../Drivers/BSP/Components/vl53l0x/vl53l0x_api_core.c **** 				0x28);
 930:../Drivers/BSP/Components/vl53l0x/vl53l0x_api_core.c **** 			Status = VL53L0X_WrByte(Dev,
 2229              		.loc 1 930 0
 2230 0136 3846     		mov	r0, r7
 2231 0138 4721     		movs	r1, #71
 2232 013a 0822     		movs	r2, #8
 2233 013c FFF7FEFF 		bl	VL53L0X_WrByte
 2234              	.LVL403:
 2235 0140 0446     		mov	r4, r0
 2236              	.LVL404:
 931:../Drivers/BSP/Components/vl53l0x/vl53l0x_api_core.c **** 				VL53L0X_REG_FINAL_RANGE_CONFIG_VALID_PHASE_LOW,
 932:../Drivers/BSP/Components/vl53l0x/vl53l0x_api_core.c **** 				0x08);
 933:../Drivers/BSP/Components/vl53l0x/vl53l0x_api_core.c **** 
 934:../Drivers/BSP/Components/vl53l0x/vl53l0x_api_core.c **** 			Status |= VL53L0X_WrByte(Dev,
 2237              		.loc 1 934 0
 2238 0142 3846     		mov	r0, r7
 2239 0144 3221     		movs	r1, #50
ARM GAS  /tmp/ccfCLKEL.s 			page 57


 2240 0146 0322     		movs	r2, #3
 2241 0148 FFF7FEFF 		bl	VL53L0X_WrByte
 2242              	.LVL405:
 2243 014c 2043     		orrs	r0, r0, r4
 2244 014e C4B2     		uxtb	r4, r0
 2245              	.LVL406:
 935:../Drivers/BSP/Components/vl53l0x/vl53l0x_api_core.c **** 				VL53L0X_REG_GLOBAL_CONFIG_VCSEL_WIDTH, 0x03);
 936:../Drivers/BSP/Components/vl53l0x/vl53l0x_api_core.c **** 			Status |= VL53L0X_WrByte(Dev,
 2246              		.loc 1 936 0
 2247 0150 3846     		mov	r0, r7
 2248 0152 3021     		movs	r1, #48
 2249 0154 0922     		movs	r2, #9
 2250 0156 FFF7FEFF 		bl	VL53L0X_WrByte
 2251              	.LVL407:
 2252 015a 2043     		orrs	r0, r0, r4
 2253 015c C4B2     		uxtb	r4, r0
 2254              	.LVL408:
 937:../Drivers/BSP/Components/vl53l0x/vl53l0x_api_core.c **** 				VL53L0X_REG_ALGO_PHASECAL_CONFIG_TIMEOUT, 0x09);
 938:../Drivers/BSP/Components/vl53l0x/vl53l0x_api_core.c **** 
 939:../Drivers/BSP/Components/vl53l0x/vl53l0x_api_core.c **** 			Status |= VL53L0X_WrByte(Dev, 0xff, 0x01);
 2255              		.loc 1 939 0
 2256 015e 3846     		mov	r0, r7
 2257 0160 FF21     		movs	r1, #255
 2258 0162 0122     		movs	r2, #1
 2259 0164 FFF7FEFF 		bl	VL53L0X_WrByte
 2260              	.LVL409:
 2261 0168 2043     		orrs	r0, r0, r4
 2262 016a C4B2     		uxtb	r4, r0
 2263              	.LVL410:
 940:../Drivers/BSP/Components/vl53l0x/vl53l0x_api_core.c **** 			Status |= VL53L0X_WrByte(Dev,
 2264              		.loc 1 940 0
 2265 016c 3846     		mov	r0, r7
 2266 016e 3021     		movs	r1, #48
 2267 0170 2022     		movs	r2, #32
 2268 0172 FFF7FEFF 		bl	VL53L0X_WrByte
 2269              	.LVL411:
 2270 0176 2043     		orrs	r0, r0, r4
 2271 0178 C4B2     		uxtb	r4, r0
 2272              	.LVL412:
 941:../Drivers/BSP/Components/vl53l0x/vl53l0x_api_core.c **** 				VL53L0X_REG_ALGO_PHASECAL_LIM,
 942:../Drivers/BSP/Components/vl53l0x/vl53l0x_api_core.c **** 				0x20);
 943:../Drivers/BSP/Components/vl53l0x/vl53l0x_api_core.c **** 			Status |= VL53L0X_WrByte(Dev, 0xff, 0x00);
 2273              		.loc 1 943 0
 2274 017a 3846     		mov	r0, r7
 2275 017c FF21     		movs	r1, #255
 2276 017e 0022     		movs	r2, #0
 2277 0180 FFF7FEFF 		bl	VL53L0X_WrByte
 2278              	.LVL413:
 2279 0184 2043     		orrs	r0, r0, r4
 2280 0186 C3B2     		uxtb	r3, r0
 2281              	.LVL414:
 2282 0188 60E0     		b	.L101
 2283              	.LVL415:
 2284              	.L105:
 944:../Drivers/BSP/Components/vl53l0x/vl53l0x_api_core.c **** 		} else if (VCSELPulsePeriodPCLK == 12) {
 2285              		.loc 1 944 0
 2286 018a 0C2D     		cmp	r5, #12
ARM GAS  /tmp/ccfCLKEL.s 			page 58


 2287 018c 2ED1     		bne	.L106
 945:../Drivers/BSP/Components/vl53l0x/vl53l0x_api_core.c **** 
 946:../Drivers/BSP/Components/vl53l0x/vl53l0x_api_core.c **** 			Status = VL53L0X_WrByte(Dev,
 2288              		.loc 1 946 0
 2289 018e 3846     		mov	r0, r7
 2290              	.LVL416:
 2291 0190 4821     		movs	r1, #72
 2292              	.LVL417:
 2293 0192 3822     		movs	r2, #56
 2294              	.LVL418:
 2295 0194 FFF7FEFF 		bl	VL53L0X_WrByte
 2296              	.LVL419:
 947:../Drivers/BSP/Components/vl53l0x/vl53l0x_api_core.c **** 				VL53L0X_REG_FINAL_RANGE_CONFIG_VALID_PHASE_HIGH,
 948:../Drivers/BSP/Components/vl53l0x/vl53l0x_api_core.c **** 				0x38);
 949:../Drivers/BSP/Components/vl53l0x/vl53l0x_api_core.c **** 			Status = VL53L0X_WrByte(Dev,
 2297              		.loc 1 949 0
 2298 0198 3846     		mov	r0, r7
 2299 019a 4721     		movs	r1, #71
 2300 019c 0822     		movs	r2, #8
 2301 019e FFF7FEFF 		bl	VL53L0X_WrByte
 2302              	.LVL420:
 2303 01a2 0446     		mov	r4, r0
 2304              	.LVL421:
 950:../Drivers/BSP/Components/vl53l0x/vl53l0x_api_core.c **** 				VL53L0X_REG_FINAL_RANGE_CONFIG_VALID_PHASE_LOW,
 951:../Drivers/BSP/Components/vl53l0x/vl53l0x_api_core.c **** 				0x08);
 952:../Drivers/BSP/Components/vl53l0x/vl53l0x_api_core.c **** 
 953:../Drivers/BSP/Components/vl53l0x/vl53l0x_api_core.c **** 			Status |= VL53L0X_WrByte(Dev,
 2305              		.loc 1 953 0
 2306 01a4 3846     		mov	r0, r7
 2307 01a6 3221     		movs	r1, #50
 2308 01a8 0322     		movs	r2, #3
 2309 01aa FFF7FEFF 		bl	VL53L0X_WrByte
 2310              	.LVL422:
 2311 01ae 2043     		orrs	r0, r0, r4
 2312 01b0 C4B2     		uxtb	r4, r0
 2313              	.LVL423:
 954:../Drivers/BSP/Components/vl53l0x/vl53l0x_api_core.c **** 				VL53L0X_REG_GLOBAL_CONFIG_VCSEL_WIDTH, 0x03);
 955:../Drivers/BSP/Components/vl53l0x/vl53l0x_api_core.c **** 			Status |= VL53L0X_WrByte(Dev,
 2314              		.loc 1 955 0
 2315 01b2 3846     		mov	r0, r7
 2316 01b4 3021     		movs	r1, #48
 2317 01b6 0822     		movs	r2, #8
 2318 01b8 FFF7FEFF 		bl	VL53L0X_WrByte
 2319              	.LVL424:
 2320 01bc 2043     		orrs	r0, r0, r4
 2321 01be C4B2     		uxtb	r4, r0
 2322              	.LVL425:
 956:../Drivers/BSP/Components/vl53l0x/vl53l0x_api_core.c **** 				VL53L0X_REG_ALGO_PHASECAL_CONFIG_TIMEOUT, 0x08);
 957:../Drivers/BSP/Components/vl53l0x/vl53l0x_api_core.c **** 
 958:../Drivers/BSP/Components/vl53l0x/vl53l0x_api_core.c **** 			Status |= VL53L0X_WrByte(Dev, 0xff, 0x01);
 2323              		.loc 1 958 0
 2324 01c0 3846     		mov	r0, r7
 2325 01c2 FF21     		movs	r1, #255
 2326 01c4 0122     		movs	r2, #1
 2327 01c6 FFF7FEFF 		bl	VL53L0X_WrByte
 2328              	.LVL426:
 2329 01ca 2043     		orrs	r0, r0, r4
ARM GAS  /tmp/ccfCLKEL.s 			page 59


 2330 01cc C4B2     		uxtb	r4, r0
 2331              	.LVL427:
 959:../Drivers/BSP/Components/vl53l0x/vl53l0x_api_core.c **** 			Status |= VL53L0X_WrByte(Dev,
 2332              		.loc 1 959 0
 2333 01ce 3846     		mov	r0, r7
 2334 01d0 3021     		movs	r1, #48
 2335 01d2 2022     		movs	r2, #32
 2336 01d4 FFF7FEFF 		bl	VL53L0X_WrByte
 2337              	.LVL428:
 2338 01d8 2043     		orrs	r0, r0, r4
 2339 01da C4B2     		uxtb	r4, r0
 2340              	.LVL429:
 960:../Drivers/BSP/Components/vl53l0x/vl53l0x_api_core.c **** 				VL53L0X_REG_ALGO_PHASECAL_LIM,
 961:../Drivers/BSP/Components/vl53l0x/vl53l0x_api_core.c **** 				0x20);
 962:../Drivers/BSP/Components/vl53l0x/vl53l0x_api_core.c **** 			Status |= VL53L0X_WrByte(Dev, 0xff, 0x00);
 2341              		.loc 1 962 0
 2342 01dc 3846     		mov	r0, r7
 2343 01de FF21     		movs	r1, #255
 2344 01e0 0022     		movs	r2, #0
 2345 01e2 FFF7FEFF 		bl	VL53L0X_WrByte
 2346              	.LVL430:
 2347 01e6 2043     		orrs	r0, r0, r4
 2348 01e8 C3B2     		uxtb	r3, r0
 2349              	.LVL431:
 2350 01ea 2FE0     		b	.L101
 2351              	.LVL432:
 2352              	.L106:
 963:../Drivers/BSP/Components/vl53l0x/vl53l0x_api_core.c **** 		} else if (VCSELPulsePeriodPCLK == 14) {
 2353              		.loc 1 963 0
 2354 01ec 0E2D     		cmp	r5, #14
 2355 01ee 2DD1     		bne	.L101
 964:../Drivers/BSP/Components/vl53l0x/vl53l0x_api_core.c **** 
 965:../Drivers/BSP/Components/vl53l0x/vl53l0x_api_core.c **** 			Status = VL53L0X_WrByte(Dev,
 2356              		.loc 1 965 0
 2357 01f0 3846     		mov	r0, r7
 2358              	.LVL433:
 2359 01f2 4821     		movs	r1, #72
 2360              	.LVL434:
 2361 01f4 0A46     		mov	r2, r1
 2362              	.LVL435:
 2363 01f6 FFF7FEFF 		bl	VL53L0X_WrByte
 2364              	.LVL436:
 966:../Drivers/BSP/Components/vl53l0x/vl53l0x_api_core.c **** 				VL53L0X_REG_FINAL_RANGE_CONFIG_VALID_PHASE_HIGH,
 967:../Drivers/BSP/Components/vl53l0x/vl53l0x_api_core.c **** 				0x048);
 968:../Drivers/BSP/Components/vl53l0x/vl53l0x_api_core.c **** 			Status = VL53L0X_WrByte(Dev,
 2365              		.loc 1 968 0
 2366 01fa 3846     		mov	r0, r7
 2367 01fc 4721     		movs	r1, #71
 2368 01fe 0822     		movs	r2, #8
 2369 0200 FFF7FEFF 		bl	VL53L0X_WrByte
 2370              	.LVL437:
 2371 0204 0446     		mov	r4, r0
 2372              	.LVL438:
 969:../Drivers/BSP/Components/vl53l0x/vl53l0x_api_core.c **** 				VL53L0X_REG_FINAL_RANGE_CONFIG_VALID_PHASE_LOW,
 970:../Drivers/BSP/Components/vl53l0x/vl53l0x_api_core.c **** 				0x08);
 971:../Drivers/BSP/Components/vl53l0x/vl53l0x_api_core.c **** 
 972:../Drivers/BSP/Components/vl53l0x/vl53l0x_api_core.c **** 			Status |= VL53L0X_WrByte(Dev,
ARM GAS  /tmp/ccfCLKEL.s 			page 60


 2373              		.loc 1 972 0
 2374 0206 3846     		mov	r0, r7
 2375 0208 3221     		movs	r1, #50
 2376 020a 0322     		movs	r2, #3
 2377 020c FFF7FEFF 		bl	VL53L0X_WrByte
 2378              	.LVL439:
 2379 0210 2043     		orrs	r0, r0, r4
 2380 0212 C4B2     		uxtb	r4, r0
 2381              	.LVL440:
 973:../Drivers/BSP/Components/vl53l0x/vl53l0x_api_core.c **** 				VL53L0X_REG_GLOBAL_CONFIG_VCSEL_WIDTH, 0x03);
 974:../Drivers/BSP/Components/vl53l0x/vl53l0x_api_core.c **** 			Status |= VL53L0X_WrByte(Dev,
 2382              		.loc 1 974 0
 2383 0214 3846     		mov	r0, r7
 2384 0216 3021     		movs	r1, #48
 2385 0218 0722     		movs	r2, #7
 2386 021a FFF7FEFF 		bl	VL53L0X_WrByte
 2387              	.LVL441:
 2388 021e 2043     		orrs	r0, r0, r4
 2389 0220 C4B2     		uxtb	r4, r0
 2390              	.LVL442:
 975:../Drivers/BSP/Components/vl53l0x/vl53l0x_api_core.c **** 				VL53L0X_REG_ALGO_PHASECAL_CONFIG_TIMEOUT, 0x07);
 976:../Drivers/BSP/Components/vl53l0x/vl53l0x_api_core.c **** 
 977:../Drivers/BSP/Components/vl53l0x/vl53l0x_api_core.c **** 			Status |= VL53L0X_WrByte(Dev, 0xff, 0x01);
 2391              		.loc 1 977 0
 2392 0222 3846     		mov	r0, r7
 2393 0224 FF21     		movs	r1, #255
 2394 0226 0122     		movs	r2, #1
 2395 0228 FFF7FEFF 		bl	VL53L0X_WrByte
 2396              	.LVL443:
 2397 022c 2043     		orrs	r0, r0, r4
 2398 022e C4B2     		uxtb	r4, r0
 2399              	.LVL444:
 978:../Drivers/BSP/Components/vl53l0x/vl53l0x_api_core.c **** 			Status |= VL53L0X_WrByte(Dev,
 2400              		.loc 1 978 0
 2401 0230 3846     		mov	r0, r7
 2402 0232 3021     		movs	r1, #48
 2403 0234 2022     		movs	r2, #32
 2404 0236 FFF7FEFF 		bl	VL53L0X_WrByte
 2405              	.LVL445:
 2406 023a 2043     		orrs	r0, r0, r4
 2407 023c C4B2     		uxtb	r4, r0
 2408              	.LVL446:
 979:../Drivers/BSP/Components/vl53l0x/vl53l0x_api_core.c **** 				VL53L0X_REG_ALGO_PHASECAL_LIM,
 980:../Drivers/BSP/Components/vl53l0x/vl53l0x_api_core.c **** 				0x20);
 981:../Drivers/BSP/Components/vl53l0x/vl53l0x_api_core.c **** 			Status |= VL53L0X_WrByte(Dev, 0xff, 0x00);
 2409              		.loc 1 981 0
 2410 023e 3846     		mov	r0, r7
 2411 0240 FF21     		movs	r1, #255
 2412 0242 0022     		movs	r2, #0
 2413 0244 FFF7FEFF 		bl	VL53L0X_WrByte
 2414              	.LVL447:
 2415 0248 2043     		orrs	r0, r0, r4
 2416 024a C3B2     		uxtb	r3, r0
 2417              	.LVL448:
 2418              	.L101:
 982:../Drivers/BSP/Components/vl53l0x/vl53l0x_api_core.c **** 		}
 983:../Drivers/BSP/Components/vl53l0x/vl53l0x_api_core.c **** 	}
ARM GAS  /tmp/ccfCLKEL.s 			page 61


 984:../Drivers/BSP/Components/vl53l0x/vl53l0x_api_core.c **** 
 985:../Drivers/BSP/Components/vl53l0x/vl53l0x_api_core.c **** 
 986:../Drivers/BSP/Components/vl53l0x/vl53l0x_api_core.c **** 	/* Re-calculate and apply timeouts, in macro periods */
 987:../Drivers/BSP/Components/vl53l0x/vl53l0x_api_core.c **** 
 988:../Drivers/BSP/Components/vl53l0x/vl53l0x_api_core.c **** 	if (Status == VL53L0X_ERROR_NONE) {
 2419              		.loc 1 988 0
 2420 024c 002B     		cmp	r3, #0
 2421 024e 44D1     		bne	.L107
 989:../Drivers/BSP/Components/vl53l0x/vl53l0x_api_core.c **** 		vcsel_period_reg = VL53L0X_encode_vcsel_period((uint8_t)
 2422              		.loc 1 989 0
 2423 0250 2846     		mov	r0, r5
 2424 0252 FFF7FEFF 		bl	VL53L0X_encode_vcsel_period
 2425              	.LVL449:
 2426 0256 0446     		mov	r4, r0
 2427              	.LVL450:
 990:../Drivers/BSP/Components/vl53l0x/vl53l0x_api_core.c **** 			VCSELPulsePeriodPCLK);
 991:../Drivers/BSP/Components/vl53l0x/vl53l0x_api_core.c **** 
 992:../Drivers/BSP/Components/vl53l0x/vl53l0x_api_core.c **** 		/* When the VCSEL period for the pre or final range is changed,
 993:../Drivers/BSP/Components/vl53l0x/vl53l0x_api_core.c **** 		* the corresponding timeout must be read from the device using
 994:../Drivers/BSP/Components/vl53l0x/vl53l0x_api_core.c **** 		* the current VCSEL period, then the new VCSEL period can be
 995:../Drivers/BSP/Components/vl53l0x/vl53l0x_api_core.c **** 		* applied. The timeout then must be written back to the device
 996:../Drivers/BSP/Components/vl53l0x/vl53l0x_api_core.c **** 		* using the new VCSEL period.
 997:../Drivers/BSP/Components/vl53l0x/vl53l0x_api_core.c **** 		*
 998:../Drivers/BSP/Components/vl53l0x/vl53l0x_api_core.c **** 		* For the MSRC timeout, the same applies - this timeout being
 999:../Drivers/BSP/Components/vl53l0x/vl53l0x_api_core.c **** 		* dependant on the pre-range vcsel period.
1000:../Drivers/BSP/Components/vl53l0x/vl53l0x_api_core.c **** 		*/
1001:../Drivers/BSP/Components/vl53l0x/vl53l0x_api_core.c **** 		switch (VcselPeriodType) {
 2428              		.loc 1 1001 0
 2429 0258 16B1     		cbz	r6, .L108
 2430 025a 012E     		cmp	r6, #1
 2431 025c 25D0     		beq	.L109
 2432 025e 3BE0     		b	.L125
 2433              	.L108:
1002:../Drivers/BSP/Components/vl53l0x/vl53l0x_api_core.c **** 		case VL53L0X_VCSEL_PERIOD_PRE_RANGE:
1003:../Drivers/BSP/Components/vl53l0x/vl53l0x_api_core.c **** 			Status = get_sequence_step_timeout(Dev,
 2434              		.loc 1 1003 0
 2435 0260 3846     		mov	r0, r7
 2436 0262 0321     		movs	r1, #3
 2437 0264 02AA     		add	r2, sp, #8
 2438 0266 FFF7FEFF 		bl	get_sequence_step_timeout
 2439              	.LVL451:
1004:../Drivers/BSP/Components/vl53l0x/vl53l0x_api_core.c **** 				VL53L0X_SEQUENCESTEP_PRE_RANGE,
1005:../Drivers/BSP/Components/vl53l0x/vl53l0x_api_core.c **** 				&PreRangeTimeoutMicroSeconds);
1006:../Drivers/BSP/Components/vl53l0x/vl53l0x_api_core.c **** 
1007:../Drivers/BSP/Components/vl53l0x/vl53l0x_api_core.c **** 			if (Status == VL53L0X_ERROR_NONE)
 2440              		.loc 1 1007 0
 2441 026a 0346     		mov	r3, r0
 2442 026c 28B9     		cbnz	r0, .L110
1008:../Drivers/BSP/Components/vl53l0x/vl53l0x_api_core.c **** 				Status = get_sequence_step_timeout(Dev,
 2443              		.loc 1 1008 0
 2444 026e 3846     		mov	r0, r7
 2445              	.LVL452:
 2446 0270 0221     		movs	r1, #2
 2447 0272 01AA     		add	r2, sp, #4
 2448 0274 FFF7FEFF 		bl	get_sequence_step_timeout
 2449              	.LVL453:
 2450 0278 0346     		mov	r3, r0
ARM GAS  /tmp/ccfCLKEL.s 			page 62


 2451              	.LVL454:
 2452              	.L110:
1009:../Drivers/BSP/Components/vl53l0x/vl53l0x_api_core.c **** 					VL53L0X_SEQUENCESTEP_MSRC,
1010:../Drivers/BSP/Components/vl53l0x/vl53l0x_api_core.c **** 					&MsrcTimeoutMicroSeconds);
1011:../Drivers/BSP/Components/vl53l0x/vl53l0x_api_core.c **** 
1012:../Drivers/BSP/Components/vl53l0x/vl53l0x_api_core.c **** 			if (Status == VL53L0X_ERROR_NONE)
 2453              		.loc 1 1012 0
 2454 027a 2BB9     		cbnz	r3, .L111
1013:../Drivers/BSP/Components/vl53l0x/vl53l0x_api_core.c **** 				Status = VL53L0X_WrByte(Dev,
 2455              		.loc 1 1013 0
 2456 027c 3846     		mov	r0, r7
 2457 027e 5021     		movs	r1, #80
 2458 0280 2246     		mov	r2, r4
 2459 0282 FFF7FEFF 		bl	VL53L0X_WrByte
 2460              	.LVL455:
 2461 0286 0346     		mov	r3, r0
 2462              	.LVL456:
 2463              	.L111:
1014:../Drivers/BSP/Components/vl53l0x/vl53l0x_api_core.c **** 				VL53L0X_REG_PRE_RANGE_CONFIG_VCSEL_PERIOD,
1015:../Drivers/BSP/Components/vl53l0x/vl53l0x_api_core.c **** 					vcsel_period_reg);
1016:../Drivers/BSP/Components/vl53l0x/vl53l0x_api_core.c **** 
1017:../Drivers/BSP/Components/vl53l0x/vl53l0x_api_core.c **** 
1018:../Drivers/BSP/Components/vl53l0x/vl53l0x_api_core.c **** 			if (Status == VL53L0X_ERROR_NONE)
 2464              		.loc 1 1018 0
 2465 0288 2BB9     		cbnz	r3, .L112
1019:../Drivers/BSP/Components/vl53l0x/vl53l0x_api_core.c **** 				Status = set_sequence_step_timeout(Dev,
 2466              		.loc 1 1019 0
 2467 028a 3846     		mov	r0, r7
 2468 028c 0321     		movs	r1, #3
 2469 028e 029A     		ldr	r2, [sp, #8]
 2470 0290 FFF7FEFF 		bl	set_sequence_step_timeout
 2471              	.LVL457:
 2472 0294 0346     		mov	r3, r0
 2473              	.LVL458:
 2474              	.L112:
1020:../Drivers/BSP/Components/vl53l0x/vl53l0x_api_core.c **** 					VL53L0X_SEQUENCESTEP_PRE_RANGE,
1021:../Drivers/BSP/Components/vl53l0x/vl53l0x_api_core.c **** 					PreRangeTimeoutMicroSeconds);
1022:../Drivers/BSP/Components/vl53l0x/vl53l0x_api_core.c **** 
1023:../Drivers/BSP/Components/vl53l0x/vl53l0x_api_core.c **** 
1024:../Drivers/BSP/Components/vl53l0x/vl53l0x_api_core.c **** 			if (Status == VL53L0X_ERROR_NONE)
 2475              		.loc 1 1024 0
 2476 0296 2BB9     		cbnz	r3, .L113
1025:../Drivers/BSP/Components/vl53l0x/vl53l0x_api_core.c **** 				Status = set_sequence_step_timeout(Dev,
 2477              		.loc 1 1025 0
 2478 0298 3846     		mov	r0, r7
 2479 029a 0221     		movs	r1, #2
 2480 029c 019A     		ldr	r2, [sp, #4]
 2481 029e FFF7FEFF 		bl	set_sequence_step_timeout
 2482              	.LVL459:
 2483 02a2 0346     		mov	r3, r0
 2484              	.LVL460:
 2485              	.L113:
1026:../Drivers/BSP/Components/vl53l0x/vl53l0x_api_core.c **** 					VL53L0X_SEQUENCESTEP_MSRC,
1027:../Drivers/BSP/Components/vl53l0x/vl53l0x_api_core.c **** 					MsrcTimeoutMicroSeconds);
1028:../Drivers/BSP/Components/vl53l0x/vl53l0x_api_core.c **** 
1029:../Drivers/BSP/Components/vl53l0x/vl53l0x_api_core.c **** 			VL53L0X_SETDEVICESPECIFICPARAMETER(
 2486              		.loc 1 1029 0
ARM GAS  /tmp/ccfCLKEL.s 			page 63


 2487 02a4 87F8E850 		strb	r5, [r7, #232]
1030:../Drivers/BSP/Components/vl53l0x/vl53l0x_api_core.c **** 				Dev,
1031:../Drivers/BSP/Components/vl53l0x/vl53l0x_api_core.c **** 				PreRangeVcselPulsePeriod,
1032:../Drivers/BSP/Components/vl53l0x/vl53l0x_api_core.c **** 				VCSELPulsePeriodPCLK);
1033:../Drivers/BSP/Components/vl53l0x/vl53l0x_api_core.c **** 			break;
 2488              		.loc 1 1033 0
 2489 02a8 17E0     		b	.L107
 2490              	.LVL461:
 2491              	.L109:
1034:../Drivers/BSP/Components/vl53l0x/vl53l0x_api_core.c **** 		case VL53L0X_VCSEL_PERIOD_FINAL_RANGE:
1035:../Drivers/BSP/Components/vl53l0x/vl53l0x_api_core.c **** 			Status = get_sequence_step_timeout(Dev,
 2492              		.loc 1 1035 0
 2493 02aa 3846     		mov	r0, r7
 2494 02ac 0421     		movs	r1, #4
 2495 02ae 03AA     		add	r2, sp, #12
 2496 02b0 FFF7FEFF 		bl	get_sequence_step_timeout
 2497              	.LVL462:
1036:../Drivers/BSP/Components/vl53l0x/vl53l0x_api_core.c **** 				VL53L0X_SEQUENCESTEP_FINAL_RANGE,
1037:../Drivers/BSP/Components/vl53l0x/vl53l0x_api_core.c **** 				&FinalRangeTimeoutMicroSeconds);
1038:../Drivers/BSP/Components/vl53l0x/vl53l0x_api_core.c **** 
1039:../Drivers/BSP/Components/vl53l0x/vl53l0x_api_core.c **** 			if (Status == VL53L0X_ERROR_NONE)
 2498              		.loc 1 1039 0
 2499 02b4 0346     		mov	r3, r0
 2500 02b6 28B9     		cbnz	r0, .L114
1040:../Drivers/BSP/Components/vl53l0x/vl53l0x_api_core.c **** 				Status = VL53L0X_WrByte(Dev,
 2501              		.loc 1 1040 0
 2502 02b8 3846     		mov	r0, r7
 2503              	.LVL463:
 2504 02ba 7021     		movs	r1, #112
 2505 02bc 2246     		mov	r2, r4
 2506 02be FFF7FEFF 		bl	VL53L0X_WrByte
 2507              	.LVL464:
 2508 02c2 0346     		mov	r3, r0
 2509              	.LVL465:
 2510              	.L114:
1041:../Drivers/BSP/Components/vl53l0x/vl53l0x_api_core.c **** 				VL53L0X_REG_FINAL_RANGE_CONFIG_VCSEL_PERIOD,
1042:../Drivers/BSP/Components/vl53l0x/vl53l0x_api_core.c **** 					vcsel_period_reg);
1043:../Drivers/BSP/Components/vl53l0x/vl53l0x_api_core.c **** 
1044:../Drivers/BSP/Components/vl53l0x/vl53l0x_api_core.c **** 
1045:../Drivers/BSP/Components/vl53l0x/vl53l0x_api_core.c **** 			if (Status == VL53L0X_ERROR_NONE)
 2511              		.loc 1 1045 0
 2512 02c4 2BB9     		cbnz	r3, .L115
1046:../Drivers/BSP/Components/vl53l0x/vl53l0x_api_core.c **** 				Status = set_sequence_step_timeout(Dev,
 2513              		.loc 1 1046 0
 2514 02c6 3846     		mov	r0, r7
 2515 02c8 0421     		movs	r1, #4
 2516 02ca 039A     		ldr	r2, [sp, #12]
 2517 02cc FFF7FEFF 		bl	set_sequence_step_timeout
 2518              	.LVL466:
 2519 02d0 0346     		mov	r3, r0
 2520              	.LVL467:
 2521              	.L115:
1047:../Drivers/BSP/Components/vl53l0x/vl53l0x_api_core.c **** 					VL53L0X_SEQUENCESTEP_FINAL_RANGE,
1048:../Drivers/BSP/Components/vl53l0x/vl53l0x_api_core.c **** 					FinalRangeTimeoutMicroSeconds);
1049:../Drivers/BSP/Components/vl53l0x/vl53l0x_api_core.c **** 
1050:../Drivers/BSP/Components/vl53l0x/vl53l0x_api_core.c **** 			VL53L0X_SETDEVICESPECIFICPARAMETER(
 2522              		.loc 1 1050 0
ARM GAS  /tmp/ccfCLKEL.s 			page 64


 2523 02d2 87F8E050 		strb	r5, [r7, #224]
1051:../Drivers/BSP/Components/vl53l0x/vl53l0x_api_core.c **** 				Dev,
1052:../Drivers/BSP/Components/vl53l0x/vl53l0x_api_core.c **** 				FinalRangeVcselPulsePeriod,
1053:../Drivers/BSP/Components/vl53l0x/vl53l0x_api_core.c **** 				VCSELPulsePeriodPCLK);
1054:../Drivers/BSP/Components/vl53l0x/vl53l0x_api_core.c **** 			break;
 2524              		.loc 1 1054 0
 2525 02d6 00E0     		b	.L107
 2526              	.LVL468:
 2527              	.L125:
1055:../Drivers/BSP/Components/vl53l0x/vl53l0x_api_core.c **** 		default:
1056:../Drivers/BSP/Components/vl53l0x/vl53l0x_api_core.c **** 			Status = VL53L0X_ERROR_INVALID_PARAMS;
 2528              		.loc 1 1056 0
 2529 02d8 FC23     		movs	r3, #252
 2530              	.LVL469:
 2531              	.L107:
1057:../Drivers/BSP/Components/vl53l0x/vl53l0x_api_core.c **** 		}
1058:../Drivers/BSP/Components/vl53l0x/vl53l0x_api_core.c **** 	}
1059:../Drivers/BSP/Components/vl53l0x/vl53l0x_api_core.c **** 
1060:../Drivers/BSP/Components/vl53l0x/vl53l0x_api_core.c **** 	/* Finally, the timing budget must be re-applied */
1061:../Drivers/BSP/Components/vl53l0x/vl53l0x_api_core.c **** 	if (Status == VL53L0X_ERROR_NONE) {
 2532              		.loc 1 1061 0
 2533 02da 23B9     		cbnz	r3, .L116
 2534              	.LVL470:
1062:../Drivers/BSP/Components/vl53l0x/vl53l0x_api_core.c **** 		VL53L0X_GETPARAMETERFIELD(Dev,
1063:../Drivers/BSP/Components/vl53l0x/vl53l0x_api_core.c **** 			MeasurementTimingBudgetMicroSeconds,
1064:../Drivers/BSP/Components/vl53l0x/vl53l0x_api_core.c **** 			MeasurementTimingBudgetMicroSeconds);
1065:../Drivers/BSP/Components/vl53l0x/vl53l0x_api_core.c **** 
1066:../Drivers/BSP/Components/vl53l0x/vl53l0x_api_core.c **** 		Status = VL53L0X_SetMeasurementTimingBudgetMicroSeconds(Dev,
 2535              		.loc 1 1066 0
 2536 02dc 3846     		mov	r0, r7
 2537 02de 7969     		ldr	r1, [r7, #20]
 2538 02e0 FFF7FEFF 		bl	VL53L0X_SetMeasurementTimingBudgetMicroSeconds
 2539              	.LVL471:
 2540 02e4 0346     		mov	r3, r0
 2541              	.LVL472:
 2542              	.L116:
1067:../Drivers/BSP/Components/vl53l0x/vl53l0x_api_core.c **** 				MeasurementTimingBudgetMicroSeconds);
1068:../Drivers/BSP/Components/vl53l0x/vl53l0x_api_core.c **** 	}
1069:../Drivers/BSP/Components/vl53l0x/vl53l0x_api_core.c **** 
1070:../Drivers/BSP/Components/vl53l0x/vl53l0x_api_core.c **** 	/* Perform the phase calibration. This is needed after changing on
1071:../Drivers/BSP/Components/vl53l0x/vl53l0x_api_core.c **** 	 * vcsel period.
1072:../Drivers/BSP/Components/vl53l0x/vl53l0x_api_core.c **** 	 * get_data_enable = 0, restore_config = 1 */
1073:../Drivers/BSP/Components/vl53l0x/vl53l0x_api_core.c **** 	if (Status == VL53L0X_ERROR_NONE)
 2543              		.loc 1 1073 0
 2544 02e6 3BB9     		cbnz	r3, .L98
1074:../Drivers/BSP/Components/vl53l0x/vl53l0x_api_core.c **** 		Status = VL53L0X_perform_phase_calibration(
 2545              		.loc 1 1074 0
 2546 02e8 3846     		mov	r0, r7
 2547 02ea 0DF10301 		add	r1, sp, #3
 2548 02ee 0022     		movs	r2, #0
 2549 02f0 0123     		movs	r3, #1
 2550              	.LVL473:
 2551 02f2 FFF7FEFF 		bl	VL53L0X_perform_phase_calibration
 2552              	.LVL474:
 2553 02f6 0346     		mov	r3, r0
 2554              	.LVL475:
 2555              	.L98:
ARM GAS  /tmp/ccfCLKEL.s 			page 65


1075:../Drivers/BSP/Components/vl53l0x/vl53l0x_api_core.c **** 			Dev, &PhaseCalInt, 0, 1);
1076:../Drivers/BSP/Components/vl53l0x/vl53l0x_api_core.c **** 
1077:../Drivers/BSP/Components/vl53l0x/vl53l0x_api_core.c **** 	return Status;
1078:../Drivers/BSP/Components/vl53l0x/vl53l0x_api_core.c **** }
 2556              		.loc 1 1078 0
 2557 02f8 58B2     		sxtb	r0, r3
 2558 02fa 05B0     		add	sp, sp, #20
 2559              	.LCFI23:
 2560              		.cfi_def_cfa_offset 20
 2561              		@ sp needed
 2562 02fc F0BD     		pop	{r4, r5, r6, r7, pc}
 2563              		.cfi_endproc
 2564              	.LFE127:
 2566 02fe 00BF     		.section	.text.VL53L0X_get_vcsel_pulse_period,"ax",%progbits
 2567              		.align	2
 2568              		.global	VL53L0X_get_vcsel_pulse_period
 2569              		.thumb
 2570              		.thumb_func
 2572              	VL53L0X_get_vcsel_pulse_period:
 2573              	.LFB128:
1079:../Drivers/BSP/Components/vl53l0x/vl53l0x_api_core.c **** 
1080:../Drivers/BSP/Components/vl53l0x/vl53l0x_api_core.c **** VL53L0X_Error VL53L0X_get_vcsel_pulse_period(VL53L0X_DEV Dev,
1081:../Drivers/BSP/Components/vl53l0x/vl53l0x_api_core.c **** 	VL53L0X_VcselPeriod VcselPeriodType, uint8_t *pVCSELPulsePeriodPCLK)
1082:../Drivers/BSP/Components/vl53l0x/vl53l0x_api_core.c **** {
 2574              		.loc 1 1082 0
 2575              		.cfi_startproc
 2576              		@ args = 0, pretend = 0, frame = 8
 2577              		@ frame_needed = 0, uses_anonymous_args = 0
 2578              	.LVL476:
 2579 0000 30B5     		push	{r4, r5, lr}
 2580              	.LCFI24:
 2581              		.cfi_def_cfa_offset 12
 2582              		.cfi_offset 4, -12
 2583              		.cfi_offset 5, -8
 2584              		.cfi_offset 14, -4
 2585 0002 83B0     		sub	sp, sp, #12
 2586              	.LCFI25:
 2587              		.cfi_def_cfa_offset 24
 2588 0004 1546     		mov	r5, r2
 2589              	.LVL477:
1083:../Drivers/BSP/Components/vl53l0x/vl53l0x_api_core.c **** 	VL53L0X_Error Status = VL53L0X_ERROR_NONE;
1084:../Drivers/BSP/Components/vl53l0x/vl53l0x_api_core.c **** 	uint8_t vcsel_period_reg;
1085:../Drivers/BSP/Components/vl53l0x/vl53l0x_api_core.c **** 
1086:../Drivers/BSP/Components/vl53l0x/vl53l0x_api_core.c **** 	switch (VcselPeriodType) {
 2590              		.loc 1 1086 0
 2591 0006 11B1     		cbz	r1, .L129
 2592 0008 0129     		cmp	r1, #1
 2593 000a 07D0     		beq	.L130
 2594 000c 0DE0     		b	.L133
 2595              	.L129:
1087:../Drivers/BSP/Components/vl53l0x/vl53l0x_api_core.c **** 	case VL53L0X_VCSEL_PERIOD_PRE_RANGE:
1088:../Drivers/BSP/Components/vl53l0x/vl53l0x_api_core.c **** 		Status = VL53L0X_RdByte(Dev,
 2596              		.loc 1 1088 0
 2597 000e 5021     		movs	r1, #80
 2598              	.LVL478:
 2599 0010 0DF10702 		add	r2, sp, #7
 2600              	.LVL479:
ARM GAS  /tmp/ccfCLKEL.s 			page 66


 2601 0014 FFF7FEFF 		bl	VL53L0X_RdByte
 2602              	.LVL480:
 2603 0018 0446     		mov	r4, r0
 2604              	.LVL481:
1089:../Drivers/BSP/Components/vl53l0x/vl53l0x_api_core.c **** 			VL53L0X_REG_PRE_RANGE_CONFIG_VCSEL_PERIOD,
1090:../Drivers/BSP/Components/vl53l0x/vl53l0x_api_core.c **** 			&vcsel_period_reg);
1091:../Drivers/BSP/Components/vl53l0x/vl53l0x_api_core.c **** 	break;
 2605              		.loc 1 1091 0
 2606 001a 07E0     		b	.L128
 2607              	.LVL482:
 2608              	.L130:
1092:../Drivers/BSP/Components/vl53l0x/vl53l0x_api_core.c **** 	case VL53L0X_VCSEL_PERIOD_FINAL_RANGE:
1093:../Drivers/BSP/Components/vl53l0x/vl53l0x_api_core.c **** 		Status = VL53L0X_RdByte(Dev,
 2609              		.loc 1 1093 0
 2610 001c 7021     		movs	r1, #112
 2611              	.LVL483:
 2612 001e 0DF10702 		add	r2, sp, #7
 2613              	.LVL484:
 2614 0022 FFF7FEFF 		bl	VL53L0X_RdByte
 2615              	.LVL485:
 2616 0026 0446     		mov	r4, r0
 2617              	.LVL486:
1094:../Drivers/BSP/Components/vl53l0x/vl53l0x_api_core.c **** 			VL53L0X_REG_FINAL_RANGE_CONFIG_VCSEL_PERIOD,
1095:../Drivers/BSP/Components/vl53l0x/vl53l0x_api_core.c **** 			&vcsel_period_reg);
1096:../Drivers/BSP/Components/vl53l0x/vl53l0x_api_core.c **** 	break;
 2618              		.loc 1 1096 0
 2619 0028 00E0     		b	.L128
 2620              	.LVL487:
 2621              	.L133:
1097:../Drivers/BSP/Components/vl53l0x/vl53l0x_api_core.c **** 	default:
1098:../Drivers/BSP/Components/vl53l0x/vl53l0x_api_core.c **** 		Status = VL53L0X_ERROR_INVALID_PARAMS;
 2622              		.loc 1 1098 0
 2623 002a FC24     		movs	r4, #252
 2624              	.LVL488:
 2625              	.L128:
1099:../Drivers/BSP/Components/vl53l0x/vl53l0x_api_core.c **** 	}
1100:../Drivers/BSP/Components/vl53l0x/vl53l0x_api_core.c **** 
1101:../Drivers/BSP/Components/vl53l0x/vl53l0x_api_core.c **** 	if (Status == VL53L0X_ERROR_NONE)
 2626              		.loc 1 1101 0
 2627 002c 24B9     		cbnz	r4, .L131
1102:../Drivers/BSP/Components/vl53l0x/vl53l0x_api_core.c **** 		*pVCSELPulsePeriodPCLK =
1103:../Drivers/BSP/Components/vl53l0x/vl53l0x_api_core.c **** 			VL53L0X_decode_vcsel_period(vcsel_period_reg);
 2628              		.loc 1 1103 0
 2629 002e 9DF80700 		ldrb	r0, [sp, #7]	@ zero_extendqisi2
 2630 0032 FFF7FEFF 		bl	VL53L0X_decode_vcsel_period
 2631              	.LVL489:
1102:../Drivers/BSP/Components/vl53l0x/vl53l0x_api_core.c **** 		*pVCSELPulsePeriodPCLK =
 2632              		.loc 1 1102 0
 2633 0036 2870     		strb	r0, [r5]
 2634              	.L131:
1104:../Drivers/BSP/Components/vl53l0x/vl53l0x_api_core.c **** 
1105:../Drivers/BSP/Components/vl53l0x/vl53l0x_api_core.c **** 	return Status;
1106:../Drivers/BSP/Components/vl53l0x/vl53l0x_api_core.c **** }
 2635              		.loc 1 1106 0
 2636 0038 60B2     		sxtb	r0, r4
 2637 003a 03B0     		add	sp, sp, #12
 2638              	.LCFI26:
ARM GAS  /tmp/ccfCLKEL.s 			page 67


 2639              		.cfi_def_cfa_offset 12
 2640              		@ sp needed
 2641 003c 30BD     		pop	{r4, r5, pc}
 2642              		.cfi_endproc
 2643              	.LFE128:
 2645 003e 00BF     		.section	.text.VL53L0X_set_measurement_timing_budget_micro_seconds,"ax",%progbits
 2646              		.align	2
 2647              		.global	VL53L0X_set_measurement_timing_budget_micro_seconds
 2648              		.thumb
 2649              		.thumb_func
 2651              	VL53L0X_set_measurement_timing_budget_micro_seconds:
 2652              	.LFB129:
1107:../Drivers/BSP/Components/vl53l0x/vl53l0x_api_core.c **** 
1108:../Drivers/BSP/Components/vl53l0x/vl53l0x_api_core.c **** 
1109:../Drivers/BSP/Components/vl53l0x/vl53l0x_api_core.c **** 
1110:../Drivers/BSP/Components/vl53l0x/vl53l0x_api_core.c **** VL53L0X_Error VL53L0X_set_measurement_timing_budget_micro_seconds(VL53L0X_DEV Dev,
1111:../Drivers/BSP/Components/vl53l0x/vl53l0x_api_core.c **** 		uint32_t MeasurementTimingBudgetMicroSeconds)
1112:../Drivers/BSP/Components/vl53l0x/vl53l0x_api_core.c **** {
 2653              		.loc 1 1112 0
 2654              		.cfi_startproc
 2655              		@ args = 0, pretend = 0, frame = 16
 2656              		@ frame_needed = 0, uses_anonymous_args = 0
 2657              	.LVL490:
 2658 0000 70B5     		push	{r4, r5, r6, lr}
 2659              	.LCFI27:
 2660              		.cfi_def_cfa_offset 16
 2661              		.cfi_offset 4, -16
 2662              		.cfi_offset 5, -12
 2663              		.cfi_offset 6, -8
 2664              		.cfi_offset 14, -4
 2665 0002 84B0     		sub	sp, sp, #16
 2666              	.LCFI28:
 2667              		.cfi_def_cfa_offset 32
 2668              	.LVL491:
1113:../Drivers/BSP/Components/vl53l0x/vl53l0x_api_core.c **** 	VL53L0X_Error Status = VL53L0X_ERROR_NONE;
1114:../Drivers/BSP/Components/vl53l0x/vl53l0x_api_core.c **** 	uint32_t FinalRangeTimingBudgetMicroSeconds;
1115:../Drivers/BSP/Components/vl53l0x/vl53l0x_api_core.c **** 	VL53L0X_SchedulerSequenceSteps_t SchedulerSequenceSteps;
1116:../Drivers/BSP/Components/vl53l0x/vl53l0x_api_core.c **** 	uint32_t MsrcDccTccTimeoutMicroSeconds	= 2000;
 2669              		.loc 1 1116 0
 2670 0004 4FF4FA63 		mov	r3, #2000
 2671 0008 0193     		str	r3, [sp, #4]
 2672              	.LVL492:
1117:../Drivers/BSP/Components/vl53l0x/vl53l0x_api_core.c **** 	uint32_t StartOverheadMicroSeconds		= 1910;
1118:../Drivers/BSP/Components/vl53l0x/vl53l0x_api_core.c **** 	uint32_t EndOverheadMicroSeconds		= 960;
1119:../Drivers/BSP/Components/vl53l0x/vl53l0x_api_core.c **** 	uint32_t MsrcOverheadMicroSeconds		= 660;
1120:../Drivers/BSP/Components/vl53l0x/vl53l0x_api_core.c **** 	uint32_t TccOverheadMicroSeconds		= 590;
1121:../Drivers/BSP/Components/vl53l0x/vl53l0x_api_core.c **** 	uint32_t DssOverheadMicroSeconds		= 690;
1122:../Drivers/BSP/Components/vl53l0x/vl53l0x_api_core.c **** 	uint32_t PreRangeOverheadMicroSeconds	= 660;
1123:../Drivers/BSP/Components/vl53l0x/vl53l0x_api_core.c **** 	uint32_t FinalRangeOverheadMicroSeconds = 550;
1124:../Drivers/BSP/Components/vl53l0x/vl53l0x_api_core.c **** 	uint32_t PreRangeTimeoutMicroSeconds	= 0;
 2673              		.loc 1 1124 0
 2674 000a 0023     		movs	r3, #0
 2675 000c 0093     		str	r3, [sp]
 2676              	.LVL493:
1125:../Drivers/BSP/Components/vl53l0x/vl53l0x_api_core.c **** 	uint32_t cMinTimingBudgetMicroSeconds	= 20000;
1126:../Drivers/BSP/Components/vl53l0x/vl53l0x_api_core.c **** 	uint32_t SubTimeout = 0;
1127:../Drivers/BSP/Components/vl53l0x/vl53l0x_api_core.c **** 
ARM GAS  /tmp/ccfCLKEL.s 			page 68


1128:../Drivers/BSP/Components/vl53l0x/vl53l0x_api_core.c **** 	LOG_FUNCTION_START("");
1129:../Drivers/BSP/Components/vl53l0x/vl53l0x_api_core.c **** 
1130:../Drivers/BSP/Components/vl53l0x/vl53l0x_api_core.c **** 	if (MeasurementTimingBudgetMicroSeconds
 2677              		.loc 1 1130 0
 2678 000e 44F61F63 		movw	r3, #19999
 2679 0012 9942     		cmp	r1, r3
 2680 0014 5DD9     		bls	.L143
 2681 0016 0D46     		mov	r5, r1
 2682 0018 0446     		mov	r4, r0
1131:../Drivers/BSP/Components/vl53l0x/vl53l0x_api_core.c **** 			< cMinTimingBudgetMicroSeconds) {
1132:../Drivers/BSP/Components/vl53l0x/vl53l0x_api_core.c **** 		Status = VL53L0X_ERROR_INVALID_PARAMS;
1133:../Drivers/BSP/Components/vl53l0x/vl53l0x_api_core.c **** 		return Status;
1134:../Drivers/BSP/Components/vl53l0x/vl53l0x_api_core.c **** 	}
1135:../Drivers/BSP/Components/vl53l0x/vl53l0x_api_core.c **** 
1136:../Drivers/BSP/Components/vl53l0x/vl53l0x_api_core.c **** 	FinalRangeTimingBudgetMicroSeconds =
 2683              		.loc 1 1136 0
 2684 001a A1F63636 		subw	r6, r1, #2870
 2685              	.LVL494:
1137:../Drivers/BSP/Components/vl53l0x/vl53l0x_api_core.c **** 		MeasurementTimingBudgetMicroSeconds -
1138:../Drivers/BSP/Components/vl53l0x/vl53l0x_api_core.c **** 		(StartOverheadMicroSeconds + EndOverheadMicroSeconds);
1139:../Drivers/BSP/Components/vl53l0x/vl53l0x_api_core.c **** 
1140:../Drivers/BSP/Components/vl53l0x/vl53l0x_api_core.c **** 	Status = VL53L0X_GetSequenceStepEnables(Dev, &SchedulerSequenceSteps);
 2686              		.loc 1 1140 0
 2687 001e 02A9     		add	r1, sp, #8
 2688              	.LVL495:
 2689 0020 FFF7FEFF 		bl	VL53L0X_GetSequenceStepEnables
 2690              	.LVL496:
1141:../Drivers/BSP/Components/vl53l0x/vl53l0x_api_core.c **** 
1142:../Drivers/BSP/Components/vl53l0x/vl53l0x_api_core.c **** 	if (Status == VL53L0X_ERROR_NONE &&
 2691              		.loc 1 1142 0
 2692 0024 0346     		mov	r3, r0
 2693 0026 A0BB     		cbnz	r0, .L137
1143:../Drivers/BSP/Components/vl53l0x/vl53l0x_api_core.c **** 		(SchedulerSequenceSteps.TccOn  ||
 2694              		.loc 1 1143 0 discriminator 1
 2695 0028 9DF80820 		ldrb	r2, [sp, #8]	@ zero_extendqisi2
1142:../Drivers/BSP/Components/vl53l0x/vl53l0x_api_core.c **** 		(SchedulerSequenceSteps.TccOn  ||
 2696              		.loc 1 1142 0 discriminator 1
 2697 002c 2AB9     		cbnz	r2, .L138
1144:../Drivers/BSP/Components/vl53l0x/vl53l0x_api_core.c **** 		SchedulerSequenceSteps.MsrcOn ||
 2698              		.loc 1 1144 0
 2699 002e 9DF80920 		ldrb	r2, [sp, #9]	@ zero_extendqisi2
1143:../Drivers/BSP/Components/vl53l0x/vl53l0x_api_core.c **** 		(SchedulerSequenceSteps.TccOn  ||
 2700              		.loc 1 1143 0
 2701 0032 12B9     		cbnz	r2, .L138
1145:../Drivers/BSP/Components/vl53l0x/vl53l0x_api_core.c **** 		SchedulerSequenceSteps.DssOn)) {
 2702              		.loc 1 1145 0
 2703 0034 9DF80A20 		ldrb	r2, [sp, #10]	@ zero_extendqisi2
1144:../Drivers/BSP/Components/vl53l0x/vl53l0x_api_core.c **** 		SchedulerSequenceSteps.MsrcOn ||
 2704              		.loc 1 1144 0
 2705 0038 5AB3     		cbz	r2, .L137
 2706              	.L138:
1146:../Drivers/BSP/Components/vl53l0x/vl53l0x_api_core.c **** 
1147:../Drivers/BSP/Components/vl53l0x/vl53l0x_api_core.c **** 		/* TCC, MSRC and DSS all share the same timeout */
1148:../Drivers/BSP/Components/vl53l0x/vl53l0x_api_core.c **** 		Status = get_sequence_step_timeout(Dev,
 2707              		.loc 1 1148 0
 2708 003a 2046     		mov	r0, r4
 2709              	.LVL497:
ARM GAS  /tmp/ccfCLKEL.s 			page 69


 2710 003c 0221     		movs	r1, #2
 2711 003e 01AA     		add	r2, sp, #4
 2712 0040 FFF7FEFF 		bl	get_sequence_step_timeout
 2713              	.LVL498:
1149:../Drivers/BSP/Components/vl53l0x/vl53l0x_api_core.c **** 					VL53L0X_SEQUENCESTEP_MSRC,
1150:../Drivers/BSP/Components/vl53l0x/vl53l0x_api_core.c **** 					&MsrcDccTccTimeoutMicroSeconds);
1151:../Drivers/BSP/Components/vl53l0x/vl53l0x_api_core.c **** 
1152:../Drivers/BSP/Components/vl53l0x/vl53l0x_api_core.c **** 		/* Subtract the TCC, MSRC and DSS timeouts if they are
1153:../Drivers/BSP/Components/vl53l0x/vl53l0x_api_core.c **** 		 * enabled. */
1154:../Drivers/BSP/Components/vl53l0x/vl53l0x_api_core.c **** 
1155:../Drivers/BSP/Components/vl53l0x/vl53l0x_api_core.c **** 		if (Status != VL53L0X_ERROR_NONE)
 2714              		.loc 1 1155 0
 2715 0044 0346     		mov	r3, r0
 2716 0046 0028     		cmp	r0, #0
 2717 0048 45D1     		bne	.L144
1156:../Drivers/BSP/Components/vl53l0x/vl53l0x_api_core.c **** 			return Status;
1157:../Drivers/BSP/Components/vl53l0x/vl53l0x_api_core.c **** 
1158:../Drivers/BSP/Components/vl53l0x/vl53l0x_api_core.c **** 		/* TCC */
1159:../Drivers/BSP/Components/vl53l0x/vl53l0x_api_core.c **** 		if (SchedulerSequenceSteps.TccOn) {
 2718              		.loc 1 1159 0
 2719 004a 9DF80820 		ldrb	r2, [sp, #8]	@ zero_extendqisi2
 2720 004e 3AB1     		cbz	r2, .L139
1160:../Drivers/BSP/Components/vl53l0x/vl53l0x_api_core.c **** 
1161:../Drivers/BSP/Components/vl53l0x/vl53l0x_api_core.c **** 			SubTimeout = MsrcDccTccTimeoutMicroSeconds
1162:../Drivers/BSP/Components/vl53l0x/vl53l0x_api_core.c **** 				+ TccOverheadMicroSeconds;
 2721              		.loc 1 1162 0
 2722 0050 019A     		ldr	r2, [sp, #4]
1161:../Drivers/BSP/Components/vl53l0x/vl53l0x_api_core.c **** 				+ TccOverheadMicroSeconds;
 2723              		.loc 1 1161 0
 2724 0052 02F24E22 		addw	r2, r2, #590
 2725              	.LVL499:
1163:../Drivers/BSP/Components/vl53l0x/vl53l0x_api_core.c **** 
1164:../Drivers/BSP/Components/vl53l0x/vl53l0x_api_core.c **** 			if (SubTimeout <
 2726              		.loc 1 1164 0
 2727 0056 B242     		cmp	r2, r6
 2728 0058 01D2     		bcs	.L145
1165:../Drivers/BSP/Components/vl53l0x/vl53l0x_api_core.c **** 				FinalRangeTimingBudgetMicroSeconds) {
1166:../Drivers/BSP/Components/vl53l0x/vl53l0x_api_core.c **** 				FinalRangeTimingBudgetMicroSeconds -=
 2729              		.loc 1 1166 0
 2730 005a B61A     		subs	r6, r6, r2
 2731              	.LVL500:
 2732 005c 00E0     		b	.L139
 2733              	.L145:
1167:../Drivers/BSP/Components/vl53l0x/vl53l0x_api_core.c **** 							SubTimeout;
1168:../Drivers/BSP/Components/vl53l0x/vl53l0x_api_core.c **** 			} else {
1169:../Drivers/BSP/Components/vl53l0x/vl53l0x_api_core.c **** 				/* Requested timeout too big. */
1170:../Drivers/BSP/Components/vl53l0x/vl53l0x_api_core.c **** 				Status = VL53L0X_ERROR_INVALID_PARAMS;
 2734              		.loc 1 1170 0
 2735 005e FC23     		movs	r3, #252
 2736              	.LVL501:
 2737              	.L139:
1171:../Drivers/BSP/Components/vl53l0x/vl53l0x_api_core.c **** 			}
1172:../Drivers/BSP/Components/vl53l0x/vl53l0x_api_core.c **** 		}
1173:../Drivers/BSP/Components/vl53l0x/vl53l0x_api_core.c **** 
1174:../Drivers/BSP/Components/vl53l0x/vl53l0x_api_core.c **** 		if (Status != VL53L0X_ERROR_NONE) {
 2738              		.loc 1 1174 0
 2739 0060 D3BB     		cbnz	r3, .L146
ARM GAS  /tmp/ccfCLKEL.s 			page 70


1175:../Drivers/BSP/Components/vl53l0x/vl53l0x_api_core.c **** 			LOG_FUNCTION_END(Status);
1176:../Drivers/BSP/Components/vl53l0x/vl53l0x_api_core.c **** 			return Status;
1177:../Drivers/BSP/Components/vl53l0x/vl53l0x_api_core.c **** 		}
1178:../Drivers/BSP/Components/vl53l0x/vl53l0x_api_core.c **** 
1179:../Drivers/BSP/Components/vl53l0x/vl53l0x_api_core.c **** 		/* DSS */
1180:../Drivers/BSP/Components/vl53l0x/vl53l0x_api_core.c **** 		if (SchedulerSequenceSteps.DssOn) {
 2740              		.loc 1 1180 0
 2741 0062 9DF80A20 		ldrb	r2, [sp, #10]	@ zero_extendqisi2
 2742 0066 3AB1     		cbz	r2, .L140
1181:../Drivers/BSP/Components/vl53l0x/vl53l0x_api_core.c **** 
1182:../Drivers/BSP/Components/vl53l0x/vl53l0x_api_core.c **** 			SubTimeout = 2 * (MsrcDccTccTimeoutMicroSeconds +
 2743              		.loc 1 1182 0
 2744 0068 019A     		ldr	r2, [sp, #4]
 2745 006a 02F2B222 		addw	r2, r2, #690
 2746 006e 5200     		lsls	r2, r2, #1
 2747              	.LVL502:
1183:../Drivers/BSP/Components/vl53l0x/vl53l0x_api_core.c **** 				DssOverheadMicroSeconds);
1184:../Drivers/BSP/Components/vl53l0x/vl53l0x_api_core.c **** 
1185:../Drivers/BSP/Components/vl53l0x/vl53l0x_api_core.c **** 			if (SubTimeout < FinalRangeTimingBudgetMicroSeconds) {
 2748              		.loc 1 1185 0
 2749 0070 B242     		cmp	r2, r6
 2750 0072 0BD2     		bcs	.L147
1186:../Drivers/BSP/Components/vl53l0x/vl53l0x_api_core.c **** 				FinalRangeTimingBudgetMicroSeconds
1187:../Drivers/BSP/Components/vl53l0x/vl53l0x_api_core.c **** 							-= SubTimeout;
 2751              		.loc 1 1187 0
 2752 0074 B61A     		subs	r6, r6, r2
 2753              	.LVL503:
 2754 0076 0CE0     		b	.L137
 2755              	.LVL504:
 2756              	.L140:
1188:../Drivers/BSP/Components/vl53l0x/vl53l0x_api_core.c **** 			} else {
1189:../Drivers/BSP/Components/vl53l0x/vl53l0x_api_core.c **** 				/* Requested timeout too big. */
1190:../Drivers/BSP/Components/vl53l0x/vl53l0x_api_core.c **** 				Status = VL53L0X_ERROR_INVALID_PARAMS;
1191:../Drivers/BSP/Components/vl53l0x/vl53l0x_api_core.c **** 			}
1192:../Drivers/BSP/Components/vl53l0x/vl53l0x_api_core.c **** 		} else if (SchedulerSequenceSteps.MsrcOn) {
 2757              		.loc 1 1192 0
 2758 0078 9DF80920 		ldrb	r2, [sp, #9]	@ zero_extendqisi2
 2759 007c 4AB1     		cbz	r2, .L137
1193:../Drivers/BSP/Components/vl53l0x/vl53l0x_api_core.c **** 			/* MSRC */
1194:../Drivers/BSP/Components/vl53l0x/vl53l0x_api_core.c **** 			SubTimeout = MsrcDccTccTimeoutMicroSeconds +
 2760              		.loc 1 1194 0
 2761 007e 019A     		ldr	r2, [sp, #4]
 2762 0080 02F52572 		add	r2, r2, #660
 2763              	.LVL505:
1195:../Drivers/BSP/Components/vl53l0x/vl53l0x_api_core.c **** 						MsrcOverheadMicroSeconds;
1196:../Drivers/BSP/Components/vl53l0x/vl53l0x_api_core.c **** 
1197:../Drivers/BSP/Components/vl53l0x/vl53l0x_api_core.c **** 			if (SubTimeout < FinalRangeTimingBudgetMicroSeconds) {
 2764              		.loc 1 1197 0
 2765 0084 B242     		cmp	r2, r6
 2766 0086 03D2     		bcs	.L148
1198:../Drivers/BSP/Components/vl53l0x/vl53l0x_api_core.c **** 				FinalRangeTimingBudgetMicroSeconds
1199:../Drivers/BSP/Components/vl53l0x/vl53l0x_api_core.c **** 							-= SubTimeout;
 2767              		.loc 1 1199 0
 2768 0088 B61A     		subs	r6, r6, r2
 2769              	.LVL506:
 2770 008a 02E0     		b	.L137
 2771              	.L147:
ARM GAS  /tmp/ccfCLKEL.s 			page 71


1190:../Drivers/BSP/Components/vl53l0x/vl53l0x_api_core.c **** 			}
 2772              		.loc 1 1190 0
 2773 008c FC23     		movs	r3, #252
 2774              	.LVL507:
 2775 008e 00E0     		b	.L137
 2776              	.LVL508:
 2777              	.L148:
1200:../Drivers/BSP/Components/vl53l0x/vl53l0x_api_core.c **** 			} else {
1201:../Drivers/BSP/Components/vl53l0x/vl53l0x_api_core.c **** 				/* Requested timeout too big. */
1202:../Drivers/BSP/Components/vl53l0x/vl53l0x_api_core.c **** 				Status = VL53L0X_ERROR_INVALID_PARAMS;
 2778              		.loc 1 1202 0
 2779 0090 FC23     		movs	r3, #252
 2780              	.LVL509:
 2781              	.L137:
1203:../Drivers/BSP/Components/vl53l0x/vl53l0x_api_core.c **** 			}
1204:../Drivers/BSP/Components/vl53l0x/vl53l0x_api_core.c **** 		}
1205:../Drivers/BSP/Components/vl53l0x/vl53l0x_api_core.c **** 
1206:../Drivers/BSP/Components/vl53l0x/vl53l0x_api_core.c **** 	}
1207:../Drivers/BSP/Components/vl53l0x/vl53l0x_api_core.c **** 
1208:../Drivers/BSP/Components/vl53l0x/vl53l0x_api_core.c **** 	if (Status != VL53L0X_ERROR_NONE) {
 2782              		.loc 1 1208 0
 2783 0092 1BBB     		cbnz	r3, .L149
1209:../Drivers/BSP/Components/vl53l0x/vl53l0x_api_core.c **** 		LOG_FUNCTION_END(Status);
1210:../Drivers/BSP/Components/vl53l0x/vl53l0x_api_core.c **** 		return Status;
1211:../Drivers/BSP/Components/vl53l0x/vl53l0x_api_core.c **** 	}
1212:../Drivers/BSP/Components/vl53l0x/vl53l0x_api_core.c **** 
1213:../Drivers/BSP/Components/vl53l0x/vl53l0x_api_core.c **** 	if (SchedulerSequenceSteps.PreRangeOn) {
 2784              		.loc 1 1213 0
 2785 0094 9DF80B20 		ldrb	r2, [sp, #11]	@ zero_extendqisi2
 2786 0098 6AB1     		cbz	r2, .L141
1214:../Drivers/BSP/Components/vl53l0x/vl53l0x_api_core.c **** 
1215:../Drivers/BSP/Components/vl53l0x/vl53l0x_api_core.c **** 		/* Subtract the Pre-range timeout if enabled. */
1216:../Drivers/BSP/Components/vl53l0x/vl53l0x_api_core.c **** 
1217:../Drivers/BSP/Components/vl53l0x/vl53l0x_api_core.c **** 		Status = get_sequence_step_timeout(Dev,
 2787              		.loc 1 1217 0
 2788 009a 2046     		mov	r0, r4
 2789 009c 0321     		movs	r1, #3
 2790 009e 6A46     		mov	r2, sp
 2791 00a0 FFF7FEFF 		bl	get_sequence_step_timeout
 2792              	.LVL510:
 2793 00a4 0346     		mov	r3, r0
 2794              	.LVL511:
1218:../Drivers/BSP/Components/vl53l0x/vl53l0x_api_core.c **** 				VL53L0X_SEQUENCESTEP_PRE_RANGE,
1219:../Drivers/BSP/Components/vl53l0x/vl53l0x_api_core.c **** 				&PreRangeTimeoutMicroSeconds);
1220:../Drivers/BSP/Components/vl53l0x/vl53l0x_api_core.c **** 
1221:../Drivers/BSP/Components/vl53l0x/vl53l0x_api_core.c **** 		SubTimeout = PreRangeTimeoutMicroSeconds +
 2795              		.loc 1 1221 0
 2796 00a6 009A     		ldr	r2, [sp]
 2797 00a8 02F52572 		add	r2, r2, #660
 2798              	.LVL512:
1222:../Drivers/BSP/Components/vl53l0x/vl53l0x_api_core.c **** 				PreRangeOverheadMicroSeconds;
1223:../Drivers/BSP/Components/vl53l0x/vl53l0x_api_core.c **** 
1224:../Drivers/BSP/Components/vl53l0x/vl53l0x_api_core.c **** 		if (SubTimeout < FinalRangeTimingBudgetMicroSeconds) {
 2799              		.loc 1 1224 0
 2800 00ac B242     		cmp	r2, r6
 2801 00ae 01D2     		bcs	.L150
1225:../Drivers/BSP/Components/vl53l0x/vl53l0x_api_core.c **** 			FinalRangeTimingBudgetMicroSeconds -= SubTimeout;
ARM GAS  /tmp/ccfCLKEL.s 			page 72


 2802              		.loc 1 1225 0
 2803 00b0 B61A     		subs	r6, r6, r2
 2804              	.LVL513:
 2805 00b2 00E0     		b	.L141
 2806              	.L150:
1226:../Drivers/BSP/Components/vl53l0x/vl53l0x_api_core.c **** 		} else {
1227:../Drivers/BSP/Components/vl53l0x/vl53l0x_api_core.c **** 			/* Requested timeout too big. */
1228:../Drivers/BSP/Components/vl53l0x/vl53l0x_api_core.c **** 			Status = VL53L0X_ERROR_INVALID_PARAMS;
 2807              		.loc 1 1228 0
 2808 00b4 FC23     		movs	r3, #252
 2809              	.LVL514:
 2810              	.L141:
1229:../Drivers/BSP/Components/vl53l0x/vl53l0x_api_core.c **** 		}
1230:../Drivers/BSP/Components/vl53l0x/vl53l0x_api_core.c **** 	}
1231:../Drivers/BSP/Components/vl53l0x/vl53l0x_api_core.c **** 
1232:../Drivers/BSP/Components/vl53l0x/vl53l0x_api_core.c **** 
1233:../Drivers/BSP/Components/vl53l0x/vl53l0x_api_core.c **** 	if (Status == VL53L0X_ERROR_NONE &&
 2811              		.loc 1 1233 0
 2812 00b6 53B9     		cbnz	r3, .L142
1234:../Drivers/BSP/Components/vl53l0x/vl53l0x_api_core.c **** 		SchedulerSequenceSteps.FinalRangeOn) {
 2813              		.loc 1 1234 0 discriminator 1
 2814 00b8 9DF80C20 		ldrb	r2, [sp, #12]	@ zero_extendqisi2
1233:../Drivers/BSP/Components/vl53l0x/vl53l0x_api_core.c **** 		SchedulerSequenceSteps.FinalRangeOn) {
 2815              		.loc 1 1233 0 discriminator 1
 2816 00bc 3AB1     		cbz	r2, .L142
 2817              	.LVL515:
1235:../Drivers/BSP/Components/vl53l0x/vl53l0x_api_core.c **** 
1236:../Drivers/BSP/Components/vl53l0x/vl53l0x_api_core.c **** 		FinalRangeTimingBudgetMicroSeconds -=
1237:../Drivers/BSP/Components/vl53l0x/vl53l0x_api_core.c **** 				FinalRangeOverheadMicroSeconds;
1238:../Drivers/BSP/Components/vl53l0x/vl53l0x_api_core.c **** 
1239:../Drivers/BSP/Components/vl53l0x/vl53l0x_api_core.c **** 		/* Final Range Timeout
1240:../Drivers/BSP/Components/vl53l0x/vl53l0x_api_core.c **** 		 * Note that the final range timeout is determined by the timing
1241:../Drivers/BSP/Components/vl53l0x/vl53l0x_api_core.c **** 		 * budget and the sum of all other timeouts within the sequence.
1242:../Drivers/BSP/Components/vl53l0x/vl53l0x_api_core.c **** 		 * If there is no room for the final range timeout, then an error
1243:../Drivers/BSP/Components/vl53l0x/vl53l0x_api_core.c **** 		 * will be set. Otherwise the remaining time will be applied to
1244:../Drivers/BSP/Components/vl53l0x/vl53l0x_api_core.c **** 		 * the final range.
1245:../Drivers/BSP/Components/vl53l0x/vl53l0x_api_core.c **** 		 */
1246:../Drivers/BSP/Components/vl53l0x/vl53l0x_api_core.c **** 		Status = set_sequence_step_timeout(Dev,
 2818              		.loc 1 1246 0
 2819 00be 2046     		mov	r0, r4
 2820 00c0 0421     		movs	r1, #4
 2821 00c2 A6F22622 		subw	r2, r6, #550
 2822              	.LVL516:
 2823 00c6 FFF7FEFF 		bl	set_sequence_step_timeout
 2824              	.LVL517:
 2825 00ca 0346     		mov	r3, r0
 2826              	.LVL518:
1247:../Drivers/BSP/Components/vl53l0x/vl53l0x_api_core.c **** 			VL53L0X_SEQUENCESTEP_FINAL_RANGE,
1248:../Drivers/BSP/Components/vl53l0x/vl53l0x_api_core.c **** 			FinalRangeTimingBudgetMicroSeconds);
1249:../Drivers/BSP/Components/vl53l0x/vl53l0x_api_core.c **** 
1250:../Drivers/BSP/Components/vl53l0x/vl53l0x_api_core.c **** 		VL53L0X_SETPARAMETERFIELD(Dev,
 2827              		.loc 1 1250 0
 2828 00cc 6561     		str	r5, [r4, #20]
 2829              	.LVL519:
 2830              	.L142:
1251:../Drivers/BSP/Components/vl53l0x/vl53l0x_api_core.c **** 			MeasurementTimingBudgetMicroSeconds,
1252:../Drivers/BSP/Components/vl53l0x/vl53l0x_api_core.c **** 			MeasurementTimingBudgetMicroSeconds);
ARM GAS  /tmp/ccfCLKEL.s 			page 73


1253:../Drivers/BSP/Components/vl53l0x/vl53l0x_api_core.c **** 	}
1254:../Drivers/BSP/Components/vl53l0x/vl53l0x_api_core.c **** 
1255:../Drivers/BSP/Components/vl53l0x/vl53l0x_api_core.c **** 	LOG_FUNCTION_END(Status);
1256:../Drivers/BSP/Components/vl53l0x/vl53l0x_api_core.c **** 
1257:../Drivers/BSP/Components/vl53l0x/vl53l0x_api_core.c **** 	return Status;
 2831              		.loc 1 1257 0
 2832 00ce 1846     		mov	r0, r3
 2833 00d0 05E0     		b	.L136
 2834              	.LVL520:
 2835              	.L143:
1133:../Drivers/BSP/Components/vl53l0x/vl53l0x_api_core.c **** 	}
 2836              		.loc 1 1133 0
 2837 00d2 FC20     		movs	r0, #252
 2838              	.LVL521:
 2839 00d4 03E0     		b	.L136
 2840              	.LVL522:
 2841              	.L144:
 2842 00d6 02E0     		b	.L136
 2843              	.LVL523:
 2844              	.L146:
1176:../Drivers/BSP/Components/vl53l0x/vl53l0x_api_core.c **** 		}
 2845              		.loc 1 1176 0
 2846 00d8 1846     		mov	r0, r3
 2847 00da 00E0     		b	.L136
 2848              	.L149:
1210:../Drivers/BSP/Components/vl53l0x/vl53l0x_api_core.c **** 	}
 2849              		.loc 1 1210 0
 2850 00dc 1846     		mov	r0, r3
 2851              	.LVL524:
 2852              	.L136:
1258:../Drivers/BSP/Components/vl53l0x/vl53l0x_api_core.c **** }
 2853              		.loc 1 1258 0
 2854 00de 40B2     		sxtb	r0, r0
 2855 00e0 04B0     		add	sp, sp, #16
 2856              	.LCFI29:
 2857              		.cfi_def_cfa_offset 16
 2858              		@ sp needed
 2859 00e2 70BD     		pop	{r4, r5, r6, pc}
 2860              		.cfi_endproc
 2861              	.LFE129:
 2863              		.section	.text.VL53L0X_get_measurement_timing_budget_micro_seconds,"ax",%progbits
 2864              		.align	2
 2865              		.global	VL53L0X_get_measurement_timing_budget_micro_seconds
 2866              		.thumb
 2867              		.thumb_func
 2869              	VL53L0X_get_measurement_timing_budget_micro_seconds:
 2870              	.LFB130:
1259:../Drivers/BSP/Components/vl53l0x/vl53l0x_api_core.c **** 
1260:../Drivers/BSP/Components/vl53l0x/vl53l0x_api_core.c **** VL53L0X_Error VL53L0X_get_measurement_timing_budget_micro_seconds(VL53L0X_DEV Dev,
1261:../Drivers/BSP/Components/vl53l0x/vl53l0x_api_core.c **** 		uint32_t *pMeasurementTimingBudgetMicroSeconds)
1262:../Drivers/BSP/Components/vl53l0x/vl53l0x_api_core.c **** {
 2871              		.loc 1 1262 0
 2872              		.cfi_startproc
 2873              		@ args = 0, pretend = 0, frame = 24
 2874              		@ frame_needed = 0, uses_anonymous_args = 0
 2875              	.LVL525:
 2876 0000 30B5     		push	{r4, r5, lr}
ARM GAS  /tmp/ccfCLKEL.s 			page 74


 2877              	.LCFI30:
 2878              		.cfi_def_cfa_offset 12
 2879              		.cfi_offset 4, -12
 2880              		.cfi_offset 5, -8
 2881              		.cfi_offset 14, -4
 2882 0002 87B0     		sub	sp, sp, #28
 2883              	.LCFI31:
 2884              		.cfi_def_cfa_offset 40
 2885 0004 0546     		mov	r5, r0
 2886 0006 0C46     		mov	r4, r1
 2887              	.LVL526:
1263:../Drivers/BSP/Components/vl53l0x/vl53l0x_api_core.c **** 	VL53L0X_Error Status = VL53L0X_ERROR_NONE;
1264:../Drivers/BSP/Components/vl53l0x/vl53l0x_api_core.c **** 	VL53L0X_SchedulerSequenceSteps_t SchedulerSequenceSteps;
1265:../Drivers/BSP/Components/vl53l0x/vl53l0x_api_core.c **** 	uint32_t FinalRangeTimeoutMicroSeconds;
1266:../Drivers/BSP/Components/vl53l0x/vl53l0x_api_core.c **** 	uint32_t MsrcDccTccTimeoutMicroSeconds	= 2000;
 2888              		.loc 1 1266 0
 2889 0008 4FF4FA63 		mov	r3, #2000
 2890 000c 0293     		str	r3, [sp, #8]
 2891              	.LVL527:
1267:../Drivers/BSP/Components/vl53l0x/vl53l0x_api_core.c **** 	uint32_t StartOverheadMicroSeconds		= 1910;
1268:../Drivers/BSP/Components/vl53l0x/vl53l0x_api_core.c **** 	uint32_t EndOverheadMicroSeconds		= 960;
1269:../Drivers/BSP/Components/vl53l0x/vl53l0x_api_core.c **** 	uint32_t MsrcOverheadMicroSeconds		= 660;
1270:../Drivers/BSP/Components/vl53l0x/vl53l0x_api_core.c **** 	uint32_t TccOverheadMicroSeconds		= 590;
1271:../Drivers/BSP/Components/vl53l0x/vl53l0x_api_core.c **** 	uint32_t DssOverheadMicroSeconds		= 690;
1272:../Drivers/BSP/Components/vl53l0x/vl53l0x_api_core.c **** 	uint32_t PreRangeOverheadMicroSeconds	= 660;
1273:../Drivers/BSP/Components/vl53l0x/vl53l0x_api_core.c **** 	uint32_t FinalRangeOverheadMicroSeconds = 550;
1274:../Drivers/BSP/Components/vl53l0x/vl53l0x_api_core.c **** 	uint32_t PreRangeTimeoutMicroSeconds	= 0;
 2892              		.loc 1 1274 0
 2893 000e 0023     		movs	r3, #0
 2894 0010 0193     		str	r3, [sp, #4]
1275:../Drivers/BSP/Components/vl53l0x/vl53l0x_api_core.c **** 
1276:../Drivers/BSP/Components/vl53l0x/vl53l0x_api_core.c **** 	LOG_FUNCTION_START("");
1277:../Drivers/BSP/Components/vl53l0x/vl53l0x_api_core.c **** 
1278:../Drivers/BSP/Components/vl53l0x/vl53l0x_api_core.c **** 	/* Start and end overhead times always present */
1279:../Drivers/BSP/Components/vl53l0x/vl53l0x_api_core.c **** 	*pMeasurementTimingBudgetMicroSeconds
1280:../Drivers/BSP/Components/vl53l0x/vl53l0x_api_core.c **** 		= StartOverheadMicroSeconds + EndOverheadMicroSeconds;
 2895              		.loc 1 1280 0
 2896 0012 40F63633 		movw	r3, #2870
 2897 0016 0B60     		str	r3, [r1]
1281:../Drivers/BSP/Components/vl53l0x/vl53l0x_api_core.c **** 
1282:../Drivers/BSP/Components/vl53l0x/vl53l0x_api_core.c **** 	Status = VL53L0X_GetSequenceStepEnables(Dev, &SchedulerSequenceSteps);
 2898              		.loc 1 1282 0
 2899 0018 04A9     		add	r1, sp, #16
 2900              	.LVL528:
 2901 001a FFF7FEFF 		bl	VL53L0X_GetSequenceStepEnables
 2902              	.LVL529:
1283:../Drivers/BSP/Components/vl53l0x/vl53l0x_api_core.c **** 
1284:../Drivers/BSP/Components/vl53l0x/vl53l0x_api_core.c **** 	if (Status != VL53L0X_ERROR_NONE) {
 2903              		.loc 1 1284 0
 2904 001e 0346     		mov	r3, r0
 2905 0020 0028     		cmp	r0, #0
 2906 0022 4FD1     		bne	.L153
1285:../Drivers/BSP/Components/vl53l0x/vl53l0x_api_core.c **** 		LOG_FUNCTION_END(Status);
1286:../Drivers/BSP/Components/vl53l0x/vl53l0x_api_core.c **** 		return Status;
1287:../Drivers/BSP/Components/vl53l0x/vl53l0x_api_core.c **** 	}
1288:../Drivers/BSP/Components/vl53l0x/vl53l0x_api_core.c **** 
1289:../Drivers/BSP/Components/vl53l0x/vl53l0x_api_core.c **** 
ARM GAS  /tmp/ccfCLKEL.s 			page 75


1290:../Drivers/BSP/Components/vl53l0x/vl53l0x_api_core.c **** 	if (SchedulerSequenceSteps.TccOn  ||
 2907              		.loc 1 1290 0
 2908 0024 9DF81020 		ldrb	r2, [sp, #16]	@ zero_extendqisi2
 2909 0028 2AB9     		cbnz	r2, .L154
1291:../Drivers/BSP/Components/vl53l0x/vl53l0x_api_core.c **** 		SchedulerSequenceSteps.MsrcOn ||
 2910              		.loc 1 1291 0 discriminator 1
 2911 002a 9DF81120 		ldrb	r2, [sp, #17]	@ zero_extendqisi2
1290:../Drivers/BSP/Components/vl53l0x/vl53l0x_api_core.c **** 		SchedulerSequenceSteps.MsrcOn ||
 2912              		.loc 1 1290 0 discriminator 1
 2913 002e 12B9     		cbnz	r2, .L154
1292:../Drivers/BSP/Components/vl53l0x/vl53l0x_api_core.c **** 		SchedulerSequenceSteps.DssOn) {
 2914              		.loc 1 1292 0
 2915 0030 9DF81220 		ldrb	r2, [sp, #18]	@ zero_extendqisi2
1291:../Drivers/BSP/Components/vl53l0x/vl53l0x_api_core.c **** 		SchedulerSequenceSteps.MsrcOn ||
 2916              		.loc 1 1291 0
 2917 0034 1AB3     		cbz	r2, .L155
 2918              	.L154:
1293:../Drivers/BSP/Components/vl53l0x/vl53l0x_api_core.c **** 
1294:../Drivers/BSP/Components/vl53l0x/vl53l0x_api_core.c **** 		Status = get_sequence_step_timeout(Dev,
 2919              		.loc 1 1294 0
 2920 0036 2846     		mov	r0, r5
 2921              	.LVL530:
 2922 0038 0221     		movs	r1, #2
 2923 003a 02AA     		add	r2, sp, #8
 2924 003c FFF7FEFF 		bl	get_sequence_step_timeout
 2925              	.LVL531:
1295:../Drivers/BSP/Components/vl53l0x/vl53l0x_api_core.c **** 				VL53L0X_SEQUENCESTEP_MSRC,
1296:../Drivers/BSP/Components/vl53l0x/vl53l0x_api_core.c **** 				&MsrcDccTccTimeoutMicroSeconds);
1297:../Drivers/BSP/Components/vl53l0x/vl53l0x_api_core.c **** 
1298:../Drivers/BSP/Components/vl53l0x/vl53l0x_api_core.c **** 		if (Status == VL53L0X_ERROR_NONE) {
 2926              		.loc 1 1298 0
 2927 0040 0346     		mov	r3, r0
 2928 0042 E0B9     		cbnz	r0, .L155
1299:../Drivers/BSP/Components/vl53l0x/vl53l0x_api_core.c **** 			if (SchedulerSequenceSteps.TccOn) {
 2929              		.loc 1 1299 0
 2930 0044 9DF81020 		ldrb	r2, [sp, #16]	@ zero_extendqisi2
 2931 0048 2AB1     		cbz	r2, .L156
1300:../Drivers/BSP/Components/vl53l0x/vl53l0x_api_core.c **** 				*pMeasurementTimingBudgetMicroSeconds +=
1301:../Drivers/BSP/Components/vl53l0x/vl53l0x_api_core.c **** 					MsrcDccTccTimeoutMicroSeconds +
 2932              		.loc 1 1301 0
 2933 004a 029A     		ldr	r2, [sp, #8]
 2934 004c 02F24E22 		addw	r2, r2, #590
1300:../Drivers/BSP/Components/vl53l0x/vl53l0x_api_core.c **** 				*pMeasurementTimingBudgetMicroSeconds +=
 2935              		.loc 1 1300 0
 2936 0050 2168     		ldr	r1, [r4]
 2937 0052 0A44     		add	r2, r2, r1
 2938 0054 2260     		str	r2, [r4]
 2939              	.L156:
1302:../Drivers/BSP/Components/vl53l0x/vl53l0x_api_core.c **** 					TccOverheadMicroSeconds;
1303:../Drivers/BSP/Components/vl53l0x/vl53l0x_api_core.c **** 			}
1304:../Drivers/BSP/Components/vl53l0x/vl53l0x_api_core.c **** 
1305:../Drivers/BSP/Components/vl53l0x/vl53l0x_api_core.c **** 			if (SchedulerSequenceSteps.DssOn) {
 2940              		.loc 1 1305 0
 2941 0056 9DF81220 		ldrb	r2, [sp, #18]	@ zero_extendqisi2
 2942 005a 3AB1     		cbz	r2, .L157
1306:../Drivers/BSP/Components/vl53l0x/vl53l0x_api_core.c **** 				*pMeasurementTimingBudgetMicroSeconds +=
1307:../Drivers/BSP/Components/vl53l0x/vl53l0x_api_core.c **** 				2 * (MsrcDccTccTimeoutMicroSeconds +
ARM GAS  /tmp/ccfCLKEL.s 			page 76


 2943              		.loc 1 1307 0
 2944 005c 029A     		ldr	r2, [sp, #8]
 2945 005e 02F2B221 		addw	r1, r2, #690
1306:../Drivers/BSP/Components/vl53l0x/vl53l0x_api_core.c **** 				*pMeasurementTimingBudgetMicroSeconds +=
 2946              		.loc 1 1306 0
 2947 0062 2268     		ldr	r2, [r4]
 2948 0064 02EB4102 		add	r2, r2, r1, lsl #1
 2949 0068 2260     		str	r2, [r4]
 2950 006a 08E0     		b	.L155
 2951              	.L157:
1308:../Drivers/BSP/Components/vl53l0x/vl53l0x_api_core.c **** 					DssOverheadMicroSeconds);
1309:../Drivers/BSP/Components/vl53l0x/vl53l0x_api_core.c **** 			} else if (SchedulerSequenceSteps.MsrcOn) {
 2952              		.loc 1 1309 0
 2953 006c 9DF81120 		ldrb	r2, [sp, #17]	@ zero_extendqisi2
 2954 0070 2AB1     		cbz	r2, .L155
1310:../Drivers/BSP/Components/vl53l0x/vl53l0x_api_core.c **** 				*pMeasurementTimingBudgetMicroSeconds +=
1311:../Drivers/BSP/Components/vl53l0x/vl53l0x_api_core.c **** 					MsrcDccTccTimeoutMicroSeconds +
 2955              		.loc 1 1311 0
 2956 0072 029A     		ldr	r2, [sp, #8]
 2957 0074 02F52572 		add	r2, r2, #660
1310:../Drivers/BSP/Components/vl53l0x/vl53l0x_api_core.c **** 				*pMeasurementTimingBudgetMicroSeconds +=
 2958              		.loc 1 1310 0
 2959 0078 2168     		ldr	r1, [r4]
 2960 007a 0A44     		add	r2, r2, r1
 2961 007c 2260     		str	r2, [r4]
 2962              	.L155:
 2963              	.LVL532:
1312:../Drivers/BSP/Components/vl53l0x/vl53l0x_api_core.c **** 					MsrcOverheadMicroSeconds;
1313:../Drivers/BSP/Components/vl53l0x/vl53l0x_api_core.c **** 			}
1314:../Drivers/BSP/Components/vl53l0x/vl53l0x_api_core.c **** 		}
1315:../Drivers/BSP/Components/vl53l0x/vl53l0x_api_core.c **** 	}
1316:../Drivers/BSP/Components/vl53l0x/vl53l0x_api_core.c **** 
1317:../Drivers/BSP/Components/vl53l0x/vl53l0x_api_core.c **** 	if (Status == VL53L0X_ERROR_NONE) {
 2964              		.loc 1 1317 0
 2965 007e 73B9     		cbnz	r3, .L158
1318:../Drivers/BSP/Components/vl53l0x/vl53l0x_api_core.c **** 		if (SchedulerSequenceSteps.PreRangeOn) {
 2966              		.loc 1 1318 0
 2967 0080 9DF81320 		ldrb	r2, [sp, #19]	@ zero_extendqisi2
 2968 0084 5AB1     		cbz	r2, .L158
1319:../Drivers/BSP/Components/vl53l0x/vl53l0x_api_core.c **** 			Status = get_sequence_step_timeout(Dev,
 2969              		.loc 1 1319 0
 2970 0086 2846     		mov	r0, r5
 2971 0088 0321     		movs	r1, #3
 2972 008a 01AA     		add	r2, sp, #4
 2973 008c FFF7FEFF 		bl	get_sequence_step_timeout
 2974              	.LVL533:
 2975 0090 0346     		mov	r3, r0
 2976              	.LVL534:
1320:../Drivers/BSP/Components/vl53l0x/vl53l0x_api_core.c **** 				VL53L0X_SEQUENCESTEP_PRE_RANGE,
1321:../Drivers/BSP/Components/vl53l0x/vl53l0x_api_core.c **** 				&PreRangeTimeoutMicroSeconds);
1322:../Drivers/BSP/Components/vl53l0x/vl53l0x_api_core.c **** 			*pMeasurementTimingBudgetMicroSeconds +=
1323:../Drivers/BSP/Components/vl53l0x/vl53l0x_api_core.c **** 				PreRangeTimeoutMicroSeconds +
 2977              		.loc 1 1323 0
 2978 0092 019A     		ldr	r2, [sp, #4]
 2979 0094 02F52572 		add	r2, r2, #660
1322:../Drivers/BSP/Components/vl53l0x/vl53l0x_api_core.c **** 				PreRangeTimeoutMicroSeconds +
 2980              		.loc 1 1322 0
ARM GAS  /tmp/ccfCLKEL.s 			page 77


 2981 0098 2168     		ldr	r1, [r4]
 2982 009a 0A44     		add	r2, r2, r1
 2983 009c 2260     		str	r2, [r4]
 2984              	.L158:
1324:../Drivers/BSP/Components/vl53l0x/vl53l0x_api_core.c **** 				PreRangeOverheadMicroSeconds;
1325:../Drivers/BSP/Components/vl53l0x/vl53l0x_api_core.c **** 		}
1326:../Drivers/BSP/Components/vl53l0x/vl53l0x_api_core.c **** 	}
1327:../Drivers/BSP/Components/vl53l0x/vl53l0x_api_core.c **** 
1328:../Drivers/BSP/Components/vl53l0x/vl53l0x_api_core.c **** 	if (Status == VL53L0X_ERROR_NONE) {
 2985              		.loc 1 1328 0
 2986 009e 73B9     		cbnz	r3, .L159
1329:../Drivers/BSP/Components/vl53l0x/vl53l0x_api_core.c **** 		if (SchedulerSequenceSteps.FinalRangeOn) {
 2987              		.loc 1 1329 0
 2988 00a0 9DF81420 		ldrb	r2, [sp, #20]	@ zero_extendqisi2
 2989 00a4 5AB1     		cbz	r2, .L159
1330:../Drivers/BSP/Components/vl53l0x/vl53l0x_api_core.c **** 			Status = get_sequence_step_timeout(Dev,
 2990              		.loc 1 1330 0
 2991 00a6 2846     		mov	r0, r5
 2992 00a8 0421     		movs	r1, #4
 2993 00aa 03AA     		add	r2, sp, #12
 2994 00ac FFF7FEFF 		bl	get_sequence_step_timeout
 2995              	.LVL535:
 2996 00b0 0346     		mov	r3, r0
 2997              	.LVL536:
1331:../Drivers/BSP/Components/vl53l0x/vl53l0x_api_core.c **** 					VL53L0X_SEQUENCESTEP_FINAL_RANGE,
1332:../Drivers/BSP/Components/vl53l0x/vl53l0x_api_core.c **** 					&FinalRangeTimeoutMicroSeconds);
1333:../Drivers/BSP/Components/vl53l0x/vl53l0x_api_core.c **** 			*pMeasurementTimingBudgetMicroSeconds +=
1334:../Drivers/BSP/Components/vl53l0x/vl53l0x_api_core.c **** 				(FinalRangeTimeoutMicroSeconds +
 2998              		.loc 1 1334 0
 2999 00b2 039A     		ldr	r2, [sp, #12]
 3000 00b4 02F22622 		addw	r2, r2, #550
1333:../Drivers/BSP/Components/vl53l0x/vl53l0x_api_core.c **** 				(FinalRangeTimeoutMicroSeconds +
 3001              		.loc 1 1333 0
 3002 00b8 2168     		ldr	r1, [r4]
 3003 00ba 0A44     		add	r2, r2, r1
 3004 00bc 2260     		str	r2, [r4]
 3005              	.L159:
1335:../Drivers/BSP/Components/vl53l0x/vl53l0x_api_core.c **** 				FinalRangeOverheadMicroSeconds);
1336:../Drivers/BSP/Components/vl53l0x/vl53l0x_api_core.c **** 		}
1337:../Drivers/BSP/Components/vl53l0x/vl53l0x_api_core.c **** 	}
1338:../Drivers/BSP/Components/vl53l0x/vl53l0x_api_core.c **** 
1339:../Drivers/BSP/Components/vl53l0x/vl53l0x_api_core.c **** 	if (Status == VL53L0X_ERROR_NONE) {
 3006              		.loc 1 1339 0
 3007 00be 0BB9     		cbnz	r3, .L153
1340:../Drivers/BSP/Components/vl53l0x/vl53l0x_api_core.c **** 		VL53L0X_SETPARAMETERFIELD(Dev,
 3008              		.loc 1 1340 0
 3009 00c0 2268     		ldr	r2, [r4]
 3010 00c2 6A61     		str	r2, [r5, #20]
 3011              	.LVL537:
 3012              	.L153:
1341:../Drivers/BSP/Components/vl53l0x/vl53l0x_api_core.c **** 			MeasurementTimingBudgetMicroSeconds,
1342:../Drivers/BSP/Components/vl53l0x/vl53l0x_api_core.c **** 			*pMeasurementTimingBudgetMicroSeconds);
1343:../Drivers/BSP/Components/vl53l0x/vl53l0x_api_core.c **** 	}
1344:../Drivers/BSP/Components/vl53l0x/vl53l0x_api_core.c **** 
1345:../Drivers/BSP/Components/vl53l0x/vl53l0x_api_core.c **** 	LOG_FUNCTION_END(Status);
1346:../Drivers/BSP/Components/vl53l0x/vl53l0x_api_core.c **** 	return Status;
1347:../Drivers/BSP/Components/vl53l0x/vl53l0x_api_core.c **** }
ARM GAS  /tmp/ccfCLKEL.s 			page 78


 3013              		.loc 1 1347 0
 3014 00c4 58B2     		sxtb	r0, r3
 3015 00c6 07B0     		add	sp, sp, #28
 3016              	.LCFI32:
 3017              		.cfi_def_cfa_offset 12
 3018              		@ sp needed
 3019 00c8 30BD     		pop	{r4, r5, pc}
 3020              		.cfi_endproc
 3021              	.LFE130:
 3023 00ca 00BF     		.section	.text.VL53L0X_load_tuning_settings,"ax",%progbits
 3024              		.align	2
 3025              		.global	VL53L0X_load_tuning_settings
 3026              		.thumb
 3027              		.thumb_func
 3029              	VL53L0X_load_tuning_settings:
 3030              	.LFB131:
1348:../Drivers/BSP/Components/vl53l0x/vl53l0x_api_core.c **** 
1349:../Drivers/BSP/Components/vl53l0x/vl53l0x_api_core.c **** 
1350:../Drivers/BSP/Components/vl53l0x/vl53l0x_api_core.c **** 
1351:../Drivers/BSP/Components/vl53l0x/vl53l0x_api_core.c **** VL53L0X_Error VL53L0X_load_tuning_settings(VL53L0X_DEV Dev,
1352:../Drivers/BSP/Components/vl53l0x/vl53l0x_api_core.c **** 		uint8_t *pTuningSettingBuffer)
1353:../Drivers/BSP/Components/vl53l0x/vl53l0x_api_core.c **** {
 3031              		.loc 1 1353 0
 3032              		.cfi_startproc
 3033              		@ args = 0, pretend = 0, frame = 8
 3034              		@ frame_needed = 0, uses_anonymous_args = 0
 3035              	.LVL538:
 3036 0000 F0B5     		push	{r4, r5, r6, r7, lr}
 3037              	.LCFI33:
 3038              		.cfi_def_cfa_offset 20
 3039              		.cfi_offset 4, -20
 3040              		.cfi_offset 5, -16
 3041              		.cfi_offset 6, -12
 3042              		.cfi_offset 7, -8
 3043              		.cfi_offset 14, -4
 3044 0002 83B0     		sub	sp, sp, #12
 3045              	.LCFI34:
 3046              		.cfi_def_cfa_offset 32
 3047 0004 0746     		mov	r7, r0
 3048 0006 0D46     		mov	r5, r1
 3049              	.LVL539:
1354:../Drivers/BSP/Components/vl53l0x/vl53l0x_api_core.c **** 	VL53L0X_Error Status = VL53L0X_ERROR_NONE;
1355:../Drivers/BSP/Components/vl53l0x/vl53l0x_api_core.c **** 	int i;
1356:../Drivers/BSP/Components/vl53l0x/vl53l0x_api_core.c **** 	int Index;
1357:../Drivers/BSP/Components/vl53l0x/vl53l0x_api_core.c **** 	uint8_t msb;
1358:../Drivers/BSP/Components/vl53l0x/vl53l0x_api_core.c **** 	uint8_t lsb;
1359:../Drivers/BSP/Components/vl53l0x/vl53l0x_api_core.c **** 	uint8_t SelectParam;
1360:../Drivers/BSP/Components/vl53l0x/vl53l0x_api_core.c **** 	uint8_t NumberOfWrites;
1361:../Drivers/BSP/Components/vl53l0x/vl53l0x_api_core.c **** 	uint8_t Address;
1362:../Drivers/BSP/Components/vl53l0x/vl53l0x_api_core.c **** 	uint8_t localBuffer[4]; /* max */
1363:../Drivers/BSP/Components/vl53l0x/vl53l0x_api_core.c **** 	uint16_t Temp16;
1364:../Drivers/BSP/Components/vl53l0x/vl53l0x_api_core.c **** 
1365:../Drivers/BSP/Components/vl53l0x/vl53l0x_api_core.c **** 	LOG_FUNCTION_START("");
1366:../Drivers/BSP/Components/vl53l0x/vl53l0x_api_core.c **** 
1367:../Drivers/BSP/Components/vl53l0x/vl53l0x_api_core.c **** 	Index = 0;
 3050              		.loc 1 1367 0
 3051 0008 0024     		movs	r4, #0
ARM GAS  /tmp/ccfCLKEL.s 			page 79


1354:../Drivers/BSP/Components/vl53l0x/vl53l0x_api_core.c **** 	VL53L0X_Error Status = VL53L0X_ERROR_NONE;
 3052              		.loc 1 1354 0
 3053 000a 2046     		mov	r0, r4
 3054              	.LVL540:
1368:../Drivers/BSP/Components/vl53l0x/vl53l0x_api_core.c **** 
1369:../Drivers/BSP/Components/vl53l0x/vl53l0x_api_core.c **** 	while ((*(pTuningSettingBuffer + Index) != 0) &&
 3055              		.loc 1 1369 0
 3056 000c 47E0     		b	.L163
 3057              	.LVL541:
 3058              	.L174:
1370:../Drivers/BSP/Components/vl53l0x/vl53l0x_api_core.c **** 			(Status == VL53L0X_ERROR_NONE)) {
1371:../Drivers/BSP/Components/vl53l0x/vl53l0x_api_core.c **** 		NumberOfWrites = *(pTuningSettingBuffer + Index);
1372:../Drivers/BSP/Components/vl53l0x/vl53l0x_api_core.c **** 		Index++;
 3059              		.loc 1 1372 0
 3060 000e 621C     		adds	r2, r4, #1
 3061              	.LVL542:
1373:../Drivers/BSP/Components/vl53l0x/vl53l0x_api_core.c **** 		if (NumberOfWrites == 0xFF) {
 3062              		.loc 1 1373 0
 3063 0010 FF2B     		cmp	r3, #255
 3064 0012 2BD1     		bne	.L164
1374:../Drivers/BSP/Components/vl53l0x/vl53l0x_api_core.c **** 			/* internal parameters */
1375:../Drivers/BSP/Components/vl53l0x/vl53l0x_api_core.c **** 			SelectParam = *(pTuningSettingBuffer + Index);
 3065              		.loc 1 1375 0
 3066 0014 AB5C     		ldrb	r3, [r5, r2]	@ zero_extendqisi2
 3067              	.LVL543:
1376:../Drivers/BSP/Components/vl53l0x/vl53l0x_api_core.c **** 			Index++;
 3068              		.loc 1 1376 0
 3069 0016 A21C     		adds	r2, r4, #2
 3070              	.LVL544:
1377:../Drivers/BSP/Components/vl53l0x/vl53l0x_api_core.c **** 			switch (SelectParam) {
 3071              		.loc 1 1377 0
 3072 0018 032B     		cmp	r3, #3
 3073 001a 3BD8     		bhi	.L175
 3074 001c DFE803F0 		tbb	[pc, r3]
 3075              	.L167:
 3076 0020 02       		.byte	(.L166-.L167)/2
 3077 0021 0B       		.byte	(.L168-.L167)/2
 3078 0022 14       		.byte	(.L169-.L167)/2
 3079 0023 1D       		.byte	(.L170-.L167)/2
 3080              		.p2align 1
 3081              	.L166:
1378:../Drivers/BSP/Components/vl53l0x/vl53l0x_api_core.c **** 			case 0: /* uint16_t SigmaEstRefArray -> 2 bytes */
1379:../Drivers/BSP/Components/vl53l0x/vl53l0x_api_core.c **** 				msb = *(pTuningSettingBuffer + Index);
 3082              		.loc 1 1379 0
 3083 0024 A95C     		ldrb	r1, [r5, r2]	@ zero_extendqisi2
 3084              	.LVL545:
1380:../Drivers/BSP/Components/vl53l0x/vl53l0x_api_core.c **** 				Index++;
 3085              		.loc 1 1380 0
 3086 0026 E21C     		adds	r2, r4, #3
 3087              	.LVL546:
1381:../Drivers/BSP/Components/vl53l0x/vl53l0x_api_core.c **** 				lsb = *(pTuningSettingBuffer + Index);
1382:../Drivers/BSP/Components/vl53l0x/vl53l0x_api_core.c **** 				Index++;
1383:../Drivers/BSP/Components/vl53l0x/vl53l0x_api_core.c **** 				Temp16 = VL53L0X_MAKEUINT16(lsb, msb);
 3088              		.loc 1 1383 0
 3089 0028 AB5C     		ldrb	r3, [r5, r2]	@ zero_extendqisi2
 3090              	.LVL547:
 3091 002a 0434     		adds	r4, r4, #4
ARM GAS  /tmp/ccfCLKEL.s 			page 80


 3092              	.LVL548:
 3093 002c 03EB0123 		add	r3, r3, r1, lsl #8
 3094              	.LVL549:
1384:../Drivers/BSP/Components/vl53l0x/vl53l0x_api_core.c **** 				PALDevDataSet(Dev, SigmaEstRefArray, Temp16);
 3095              		.loc 1 1384 0
 3096 0030 A7F83431 		strh	r3, [r7, #308]	@ movhi
 3097              	.LVL550:
1385:../Drivers/BSP/Components/vl53l0x/vl53l0x_api_core.c **** 				break;
 3098              		.loc 1 1385 0
 3099 0034 33E0     		b	.L163
 3100              	.LVL551:
 3101              	.L168:
1386:../Drivers/BSP/Components/vl53l0x/vl53l0x_api_core.c **** 			case 1: /* uint16_t SigmaEstEffPulseWidth -> 2 bytes */
1387:../Drivers/BSP/Components/vl53l0x/vl53l0x_api_core.c **** 				msb = *(pTuningSettingBuffer + Index);
 3102              		.loc 1 1387 0
 3103 0036 A95C     		ldrb	r1, [r5, r2]	@ zero_extendqisi2
 3104              	.LVL552:
1388:../Drivers/BSP/Components/vl53l0x/vl53l0x_api_core.c **** 				Index++;
 3105              		.loc 1 1388 0
 3106 0038 E21C     		adds	r2, r4, #3
 3107              	.LVL553:
1389:../Drivers/BSP/Components/vl53l0x/vl53l0x_api_core.c **** 				lsb = *(pTuningSettingBuffer + Index);
1390:../Drivers/BSP/Components/vl53l0x/vl53l0x_api_core.c **** 				Index++;
1391:../Drivers/BSP/Components/vl53l0x/vl53l0x_api_core.c **** 				Temp16 = VL53L0X_MAKEUINT16(lsb, msb);
 3108              		.loc 1 1391 0
 3109 003a AB5C     		ldrb	r3, [r5, r2]	@ zero_extendqisi2
 3110              	.LVL554:
 3111 003c 0434     		adds	r4, r4, #4
 3112              	.LVL555:
 3113 003e 03EB0123 		add	r3, r3, r1, lsl #8
 3114              	.LVL556:
1392:../Drivers/BSP/Components/vl53l0x/vl53l0x_api_core.c **** 				PALDevDataSet(Dev, SigmaEstEffPulseWidth,
 3115              		.loc 1 1392 0
 3116 0042 A7F83631 		strh	r3, [r7, #310]	@ movhi
 3117              	.LVL557:
1393:../Drivers/BSP/Components/vl53l0x/vl53l0x_api_core.c **** 					Temp16);
1394:../Drivers/BSP/Components/vl53l0x/vl53l0x_api_core.c **** 				break;
 3118              		.loc 1 1394 0
 3119 0046 2AE0     		b	.L163
 3120              	.LVL558:
 3121              	.L169:
1395:../Drivers/BSP/Components/vl53l0x/vl53l0x_api_core.c **** 			case 2: /* uint16_t SigmaEstEffAmbWidth -> 2 bytes */
1396:../Drivers/BSP/Components/vl53l0x/vl53l0x_api_core.c **** 				msb = *(pTuningSettingBuffer + Index);
 3122              		.loc 1 1396 0
 3123 0048 A95C     		ldrb	r1, [r5, r2]	@ zero_extendqisi2
 3124              	.LVL559:
1397:../Drivers/BSP/Components/vl53l0x/vl53l0x_api_core.c **** 				Index++;
 3125              		.loc 1 1397 0
 3126 004a E21C     		adds	r2, r4, #3
 3127              	.LVL560:
1398:../Drivers/BSP/Components/vl53l0x/vl53l0x_api_core.c **** 				lsb = *(pTuningSettingBuffer + Index);
1399:../Drivers/BSP/Components/vl53l0x/vl53l0x_api_core.c **** 				Index++;
1400:../Drivers/BSP/Components/vl53l0x/vl53l0x_api_core.c **** 				Temp16 = VL53L0X_MAKEUINT16(lsb, msb);
 3128              		.loc 1 1400 0
 3129 004c AB5C     		ldrb	r3, [r5, r2]	@ zero_extendqisi2
 3130              	.LVL561:
 3131 004e 0434     		adds	r4, r4, #4
ARM GAS  /tmp/ccfCLKEL.s 			page 81


 3132              	.LVL562:
 3133 0050 03EB0123 		add	r3, r3, r1, lsl #8
 3134              	.LVL563:
1401:../Drivers/BSP/Components/vl53l0x/vl53l0x_api_core.c **** 				PALDevDataSet(Dev, SigmaEstEffAmbWidth, Temp16);
 3135              		.loc 1 1401 0
 3136 0054 A7F83831 		strh	r3, [r7, #312]	@ movhi
 3137              	.LVL564:
1402:../Drivers/BSP/Components/vl53l0x/vl53l0x_api_core.c **** 				break;
 3138              		.loc 1 1402 0
 3139 0058 21E0     		b	.L163
 3140              	.LVL565:
 3141              	.L170:
1403:../Drivers/BSP/Components/vl53l0x/vl53l0x_api_core.c **** 			case 3: /* uint16_t targetRefRate -> 2 bytes */
1404:../Drivers/BSP/Components/vl53l0x/vl53l0x_api_core.c **** 				msb = *(pTuningSettingBuffer + Index);
 3142              		.loc 1 1404 0
 3143 005a A95C     		ldrb	r1, [r5, r2]	@ zero_extendqisi2
 3144              	.LVL566:
1405:../Drivers/BSP/Components/vl53l0x/vl53l0x_api_core.c **** 				Index++;
 3145              		.loc 1 1405 0
 3146 005c E21C     		adds	r2, r4, #3
 3147              	.LVL567:
1406:../Drivers/BSP/Components/vl53l0x/vl53l0x_api_core.c **** 				lsb = *(pTuningSettingBuffer + Index);
1407:../Drivers/BSP/Components/vl53l0x/vl53l0x_api_core.c **** 				Index++;
1408:../Drivers/BSP/Components/vl53l0x/vl53l0x_api_core.c **** 				Temp16 = VL53L0X_MAKEUINT16(lsb, msb);
 3148              		.loc 1 1408 0
 3149 005e AB5C     		ldrb	r3, [r5, r2]	@ zero_extendqisi2
 3150              	.LVL568:
 3151 0060 0434     		adds	r4, r4, #4
 3152              	.LVL569:
 3153 0062 03EB0123 		add	r3, r3, r1, lsl #8
 3154              	.LVL570:
1409:../Drivers/BSP/Components/vl53l0x/vl53l0x_api_core.c **** 				PALDevDataSet(Dev, targetRefRate, Temp16);
 3155              		.loc 1 1409 0
 3156 0066 A7F83C31 		strh	r3, [r7, #316]	@ movhi
 3157              	.LVL571:
1410:../Drivers/BSP/Components/vl53l0x/vl53l0x_api_core.c **** 				break;
 3158              		.loc 1 1410 0
 3159 006a 18E0     		b	.L163
 3160              	.LVL572:
 3161              	.L164:
1411:../Drivers/BSP/Components/vl53l0x/vl53l0x_api_core.c **** 			default: /* invalid parameter */
1412:../Drivers/BSP/Components/vl53l0x/vl53l0x_api_core.c **** 				Status = VL53L0X_ERROR_INVALID_PARAMS;
1413:../Drivers/BSP/Components/vl53l0x/vl53l0x_api_core.c **** 			}
1414:../Drivers/BSP/Components/vl53l0x/vl53l0x_api_core.c **** 
1415:../Drivers/BSP/Components/vl53l0x/vl53l0x_api_core.c **** 		} else if (NumberOfWrites <= 4) {
 3162              		.loc 1 1415 0
 3163 006c 042B     		cmp	r3, #4
 3164 006e 14D8     		bhi	.L176
1416:../Drivers/BSP/Components/vl53l0x/vl53l0x_api_core.c **** 			Address = *(pTuningSettingBuffer + Index);
 3165              		.loc 1 1416 0
 3166 0070 A95C     		ldrb	r1, [r5, r2]	@ zero_extendqisi2
 3167              	.LVL573:
1417:../Drivers/BSP/Components/vl53l0x/vl53l0x_api_core.c **** 			Index++;
 3168              		.loc 1 1417 0
 3169 0072 0234     		adds	r4, r4, #2
 3170              	.LVL574:
1418:../Drivers/BSP/Components/vl53l0x/vl53l0x_api_core.c **** 
ARM GAS  /tmp/ccfCLKEL.s 			page 82


1419:../Drivers/BSP/Components/vl53l0x/vl53l0x_api_core.c **** 			for (i = 0; i < NumberOfWrites; i++) {
 3171              		.loc 1 1419 0
 3172 0074 0022     		movs	r2, #0
 3173 0076 06E0     		b	.L171
 3174              	.LVL575:
 3175              	.L172:
1420:../Drivers/BSP/Components/vl53l0x/vl53l0x_api_core.c **** 				localBuffer[i] = *(pTuningSettingBuffer +
 3176              		.loc 1 1420 0 discriminator 3
 3177 0078 2E5D     		ldrb	r6, [r5, r4]	@ zero_extendqisi2
 3178 007a 02A8     		add	r0, sp, #8
 3179 007c 1044     		add	r0, r0, r2
 3180 007e 00F8046C 		strb	r6, [r0, #-4]
1421:../Drivers/BSP/Components/vl53l0x/vl53l0x_api_core.c **** 							Index);
1422:../Drivers/BSP/Components/vl53l0x/vl53l0x_api_core.c **** 				Index++;
 3181              		.loc 1 1422 0 discriminator 3
 3182 0082 0134     		adds	r4, r4, #1
 3183              	.LVL576:
1419:../Drivers/BSP/Components/vl53l0x/vl53l0x_api_core.c **** 				localBuffer[i] = *(pTuningSettingBuffer +
 3184              		.loc 1 1419 0 discriminator 3
 3185 0084 0132     		adds	r2, r2, #1
 3186              	.LVL577:
 3187              	.L171:
1419:../Drivers/BSP/Components/vl53l0x/vl53l0x_api_core.c **** 				localBuffer[i] = *(pTuningSettingBuffer +
 3188              		.loc 1 1419 0 is_stmt 0 discriminator 1
 3189 0086 9342     		cmp	r3, r2
 3190 0088 F6DC     		bgt	.L172
1423:../Drivers/BSP/Components/vl53l0x/vl53l0x_api_core.c **** 			}
1424:../Drivers/BSP/Components/vl53l0x/vl53l0x_api_core.c **** 
1425:../Drivers/BSP/Components/vl53l0x/vl53l0x_api_core.c **** 			Status = VL53L0X_WriteMulti(Dev, Address, localBuffer,
 3191              		.loc 1 1425 0 is_stmt 1
 3192 008a 3846     		mov	r0, r7
 3193 008c 01AA     		add	r2, sp, #4
 3194              	.LVL578:
 3195 008e FFF7FEFF 		bl	VL53L0X_WriteMulti
 3196              	.LVL579:
 3197 0092 04E0     		b	.L163
 3198              	.LVL580:
 3199              	.L175:
1376:../Drivers/BSP/Components/vl53l0x/vl53l0x_api_core.c **** 			switch (SelectParam) {
 3200              		.loc 1 1376 0
 3201 0094 1446     		mov	r4, r2
1412:../Drivers/BSP/Components/vl53l0x/vl53l0x_api_core.c **** 			}
 3202              		.loc 1 1412 0
 3203 0096 FC20     		movs	r0, #252
 3204              	.LVL581:
 3205 0098 01E0     		b	.L163
 3206              	.LVL582:
 3207              	.L176:
1372:../Drivers/BSP/Components/vl53l0x/vl53l0x_api_core.c **** 		if (NumberOfWrites == 0xFF) {
 3208              		.loc 1 1372 0
 3209 009a 1446     		mov	r4, r2
1426:../Drivers/BSP/Components/vl53l0x/vl53l0x_api_core.c **** 					NumberOfWrites);
1427:../Drivers/BSP/Components/vl53l0x/vl53l0x_api_core.c **** 
1428:../Drivers/BSP/Components/vl53l0x/vl53l0x_api_core.c **** 		} else {
1429:../Drivers/BSP/Components/vl53l0x/vl53l0x_api_core.c **** 			Status = VL53L0X_ERROR_INVALID_PARAMS;
 3210              		.loc 1 1429 0
 3211 009c FC20     		movs	r0, #252
ARM GAS  /tmp/ccfCLKEL.s 			page 83


 3212              	.LVL583:
 3213              	.L163:
1369:../Drivers/BSP/Components/vl53l0x/vl53l0x_api_core.c **** 			(Status == VL53L0X_ERROR_NONE)) {
 3214              		.loc 1 1369 0
 3215 009e 2B5D     		ldrb	r3, [r5, r4]	@ zero_extendqisi2
 3216 00a0 0BB1     		cbz	r3, .L173
1369:../Drivers/BSP/Components/vl53l0x/vl53l0x_api_core.c **** 			(Status == VL53L0X_ERROR_NONE)) {
 3217              		.loc 1 1369 0 is_stmt 0 discriminator 1
 3218 00a2 0028     		cmp	r0, #0
 3219 00a4 B3D0     		beq	.L174
 3220              	.L173:
1430:../Drivers/BSP/Components/vl53l0x/vl53l0x_api_core.c **** 		}
1431:../Drivers/BSP/Components/vl53l0x/vl53l0x_api_core.c **** 	}
1432:../Drivers/BSP/Components/vl53l0x/vl53l0x_api_core.c **** 
1433:../Drivers/BSP/Components/vl53l0x/vl53l0x_api_core.c **** 	LOG_FUNCTION_END(Status);
1434:../Drivers/BSP/Components/vl53l0x/vl53l0x_api_core.c **** 	return Status;
1435:../Drivers/BSP/Components/vl53l0x/vl53l0x_api_core.c **** }
 3221              		.loc 1 1435 0 is_stmt 1
 3222 00a6 40B2     		sxtb	r0, r0
 3223 00a8 03B0     		add	sp, sp, #12
 3224              	.LCFI35:
 3225              		.cfi_def_cfa_offset 20
 3226              		@ sp needed
 3227 00aa F0BD     		pop	{r4, r5, r6, r7, pc}
 3228              		.cfi_endproc
 3229              	.LFE131:
 3231              		.section	.text.VL53L0X_get_total_xtalk_rate,"ax",%progbits
 3232              		.align	2
 3233              		.global	VL53L0X_get_total_xtalk_rate
 3234              		.thumb
 3235              		.thumb_func
 3237              	VL53L0X_get_total_xtalk_rate:
 3238              	.LFB132:
1436:../Drivers/BSP/Components/vl53l0x/vl53l0x_api_core.c **** 
1437:../Drivers/BSP/Components/vl53l0x/vl53l0x_api_core.c **** VL53L0X_Error VL53L0X_get_total_xtalk_rate(VL53L0X_DEV Dev,
1438:../Drivers/BSP/Components/vl53l0x/vl53l0x_api_core.c **** 	VL53L0X_RangingMeasurementData_t *pRangingMeasurementData,
1439:../Drivers/BSP/Components/vl53l0x/vl53l0x_api_core.c **** 	FixPoint1616_t *ptotal_xtalk_rate_mcps)
1440:../Drivers/BSP/Components/vl53l0x/vl53l0x_api_core.c **** {
 3239              		.loc 1 1440 0
 3240              		.cfi_startproc
 3241              		@ args = 0, pretend = 0, frame = 8
 3242              		@ frame_needed = 0, uses_anonymous_args = 0
 3243              	.LVL584:
 3244 0000 70B5     		push	{r4, r5, r6, lr}
 3245              	.LCFI36:
 3246              		.cfi_def_cfa_offset 16
 3247              		.cfi_offset 4, -16
 3248              		.cfi_offset 5, -12
 3249              		.cfi_offset 6, -8
 3250              		.cfi_offset 14, -4
 3251 0002 82B0     		sub	sp, sp, #8
 3252              	.LCFI37:
 3253              		.cfi_def_cfa_offset 24
 3254 0004 0646     		mov	r6, r0
 3255 0006 0D46     		mov	r5, r1
 3256 0008 1446     		mov	r4, r2
 3257              	.LVL585:
ARM GAS  /tmp/ccfCLKEL.s 			page 84


1441:../Drivers/BSP/Components/vl53l0x/vl53l0x_api_core.c **** 	VL53L0X_Error Status = VL53L0X_ERROR_NONE;
1442:../Drivers/BSP/Components/vl53l0x/vl53l0x_api_core.c **** 
1443:../Drivers/BSP/Components/vl53l0x/vl53l0x_api_core.c **** 	uint8_t xtalkCompEnable;
1444:../Drivers/BSP/Components/vl53l0x/vl53l0x_api_core.c **** 	FixPoint1616_t totalXtalkMegaCps;
1445:../Drivers/BSP/Components/vl53l0x/vl53l0x_api_core.c **** 	FixPoint1616_t xtalkPerSpadMegaCps;
1446:../Drivers/BSP/Components/vl53l0x/vl53l0x_api_core.c **** 
1447:../Drivers/BSP/Components/vl53l0x/vl53l0x_api_core.c **** 	*ptotal_xtalk_rate_mcps = 0;
 3258              		.loc 1 1447 0
 3259 000a 0023     		movs	r3, #0
 3260 000c 1360     		str	r3, [r2]
1448:../Drivers/BSP/Components/vl53l0x/vl53l0x_api_core.c **** 
1449:../Drivers/BSP/Components/vl53l0x/vl53l0x_api_core.c **** 	Status = VL53L0X_GetXTalkCompensationEnable(Dev, &xtalkCompEnable);
 3261              		.loc 1 1449 0
 3262 000e 0DF10701 		add	r1, sp, #7
 3263              	.LVL586:
 3264 0012 FFF7FEFF 		bl	VL53L0X_GetXTalkCompensationEnable
 3265              	.LVL587:
1450:../Drivers/BSP/Components/vl53l0x/vl53l0x_api_core.c **** 	if (Status == VL53L0X_ERROR_NONE) {
 3266              		.loc 1 1450 0
 3267 0016 0246     		mov	r2, r0
 3268 0018 48B9     		cbnz	r0, .L179
1451:../Drivers/BSP/Components/vl53l0x/vl53l0x_api_core.c **** 
1452:../Drivers/BSP/Components/vl53l0x/vl53l0x_api_core.c **** 		if (xtalkCompEnable) {
 3269              		.loc 1 1452 0
 3270 001a 9DF80730 		ldrb	r3, [sp, #7]	@ zero_extendqisi2
 3271 001e 33B1     		cbz	r3, .L179
1453:../Drivers/BSP/Components/vl53l0x/vl53l0x_api_core.c **** 
1454:../Drivers/BSP/Components/vl53l0x/vl53l0x_api_core.c **** 			VL53L0X_GETPARAMETERFIELD(
 3272              		.loc 1 1454 0
 3273 0020 336A     		ldr	r3, [r6, #32]
 3274              	.LVL588:
1455:../Drivers/BSP/Components/vl53l0x/vl53l0x_api_core.c **** 				Dev,
1456:../Drivers/BSP/Components/vl53l0x/vl53l0x_api_core.c **** 				XTalkCompensationRateMegaCps,
1457:../Drivers/BSP/Components/vl53l0x/vl53l0x_api_core.c **** 				xtalkPerSpadMegaCps);
1458:../Drivers/BSP/Components/vl53l0x/vl53l0x_api_core.c **** 
1459:../Drivers/BSP/Components/vl53l0x/vl53l0x_api_core.c **** 			/* FixPoint1616 * FixPoint 8:8 = FixPoint0824 */
1460:../Drivers/BSP/Components/vl53l0x/vl53l0x_api_core.c **** 			totalXtalkMegaCps =
1461:../Drivers/BSP/Components/vl53l0x/vl53l0x_api_core.c **** 				pRangingMeasurementData->EffectiveSpadRtnCount *
 3275              		.loc 1 1461 0
 3276 0022 A98A     		ldrh	r1, [r5, #20]
1460:../Drivers/BSP/Components/vl53l0x/vl53l0x_api_core.c **** 				pRangingMeasurementData->EffectiveSpadRtnCount *
 3277              		.loc 1 1460 0
 3278 0024 03FB01F3 		mul	r3, r3, r1
 3279              	.LVL589:
1462:../Drivers/BSP/Components/vl53l0x/vl53l0x_api_core.c **** 				xtalkPerSpadMegaCps;
1463:../Drivers/BSP/Components/vl53l0x/vl53l0x_api_core.c **** 
1464:../Drivers/BSP/Components/vl53l0x/vl53l0x_api_core.c **** 			/* FixPoint0824 >> 8 = FixPoint1616 */
1465:../Drivers/BSP/Components/vl53l0x/vl53l0x_api_core.c **** 			*ptotal_xtalk_rate_mcps =
1466:../Drivers/BSP/Components/vl53l0x/vl53l0x_api_core.c **** 				(totalXtalkMegaCps + 0x80) >> 8;
 3280              		.loc 1 1466 0
 3281 0028 8033     		adds	r3, r3, #128
 3282              	.LVL590:
 3283 002a 1B0A     		lsrs	r3, r3, #8
 3284              	.LVL591:
1465:../Drivers/BSP/Components/vl53l0x/vl53l0x_api_core.c **** 				(totalXtalkMegaCps + 0x80) >> 8;
 3285              		.loc 1 1465 0
 3286 002c 2360     		str	r3, [r4]
ARM GAS  /tmp/ccfCLKEL.s 			page 85


 3287              	.LVL592:
 3288              	.L179:
1467:../Drivers/BSP/Components/vl53l0x/vl53l0x_api_core.c **** 		}
1468:../Drivers/BSP/Components/vl53l0x/vl53l0x_api_core.c **** 	}
1469:../Drivers/BSP/Components/vl53l0x/vl53l0x_api_core.c **** 
1470:../Drivers/BSP/Components/vl53l0x/vl53l0x_api_core.c **** 	return Status;
1471:../Drivers/BSP/Components/vl53l0x/vl53l0x_api_core.c **** }
 3289              		.loc 1 1471 0
 3290 002e 1046     		mov	r0, r2
 3291              	.LVL593:
 3292 0030 02B0     		add	sp, sp, #8
 3293              	.LCFI38:
 3294              		.cfi_def_cfa_offset 16
 3295              		@ sp needed
 3296 0032 70BD     		pop	{r4, r5, r6, pc}
 3297              		.cfi_endproc
 3298              	.LFE132:
 3300              		.section	.text.VL53L0X_get_total_signal_rate,"ax",%progbits
 3301              		.align	2
 3302              		.global	VL53L0X_get_total_signal_rate
 3303              		.thumb
 3304              		.thumb_func
 3306              	VL53L0X_get_total_signal_rate:
 3307              	.LFB133:
1472:../Drivers/BSP/Components/vl53l0x/vl53l0x_api_core.c **** 
1473:../Drivers/BSP/Components/vl53l0x/vl53l0x_api_core.c **** VL53L0X_Error VL53L0X_get_total_signal_rate(VL53L0X_DEV Dev,
1474:../Drivers/BSP/Components/vl53l0x/vl53l0x_api_core.c **** 	VL53L0X_RangingMeasurementData_t *pRangingMeasurementData,
1475:../Drivers/BSP/Components/vl53l0x/vl53l0x_api_core.c **** 	FixPoint1616_t *ptotal_signal_rate_mcps)
1476:../Drivers/BSP/Components/vl53l0x/vl53l0x_api_core.c **** {
 3308              		.loc 1 1476 0
 3309              		.cfi_startproc
 3310              		@ args = 0, pretend = 0, frame = 8
 3311              		@ frame_needed = 0, uses_anonymous_args = 0
 3312              	.LVL594:
 3313 0000 10B5     		push	{r4, lr}
 3314              	.LCFI39:
 3315              		.cfi_def_cfa_offset 8
 3316              		.cfi_offset 4, -8
 3317              		.cfi_offset 14, -4
 3318 0002 82B0     		sub	sp, sp, #8
 3319              	.LCFI40:
 3320              		.cfi_def_cfa_offset 16
 3321 0004 1446     		mov	r4, r2
 3322              	.LVL595:
1477:../Drivers/BSP/Components/vl53l0x/vl53l0x_api_core.c **** 	VL53L0X_Error Status = VL53L0X_ERROR_NONE;
1478:../Drivers/BSP/Components/vl53l0x/vl53l0x_api_core.c **** 	FixPoint1616_t totalXtalkMegaCps;
1479:../Drivers/BSP/Components/vl53l0x/vl53l0x_api_core.c **** 
1480:../Drivers/BSP/Components/vl53l0x/vl53l0x_api_core.c **** 	LOG_FUNCTION_START("");
1481:../Drivers/BSP/Components/vl53l0x/vl53l0x_api_core.c **** 
1482:../Drivers/BSP/Components/vl53l0x/vl53l0x_api_core.c **** 	*ptotal_signal_rate_mcps =
1483:../Drivers/BSP/Components/vl53l0x/vl53l0x_api_core.c **** 		pRangingMeasurementData->SignalRateRtnMegaCps;
 3323              		.loc 1 1483 0
 3324 0006 CB68     		ldr	r3, [r1, #12]
1482:../Drivers/BSP/Components/vl53l0x/vl53l0x_api_core.c **** 		pRangingMeasurementData->SignalRateRtnMegaCps;
 3325              		.loc 1 1482 0
 3326 0008 1360     		str	r3, [r2]
1484:../Drivers/BSP/Components/vl53l0x/vl53l0x_api_core.c **** 
ARM GAS  /tmp/ccfCLKEL.s 			page 86


1485:../Drivers/BSP/Components/vl53l0x/vl53l0x_api_core.c **** 	Status = VL53L0X_get_total_xtalk_rate(
 3327              		.loc 1 1485 0
 3328 000a 01AA     		add	r2, sp, #4
 3329              	.LVL596:
 3330 000c FFF7FEFF 		bl	VL53L0X_get_total_xtalk_rate
 3331              	.LVL597:
1486:../Drivers/BSP/Components/vl53l0x/vl53l0x_api_core.c **** 		Dev, pRangingMeasurementData, &totalXtalkMegaCps);
1487:../Drivers/BSP/Components/vl53l0x/vl53l0x_api_core.c **** 
1488:../Drivers/BSP/Components/vl53l0x/vl53l0x_api_core.c **** 	if (Status == VL53L0X_ERROR_NONE)
 3332              		.loc 1 1488 0
 3333 0010 0246     		mov	r2, r0
 3334 0012 18B9     		cbnz	r0, .L182
1489:../Drivers/BSP/Components/vl53l0x/vl53l0x_api_core.c **** 		*ptotal_signal_rate_mcps += totalXtalkMegaCps;
 3335              		.loc 1 1489 0
 3336 0014 2168     		ldr	r1, [r4]
 3337 0016 019B     		ldr	r3, [sp, #4]
 3338 0018 0B44     		add	r3, r3, r1
 3339 001a 2360     		str	r3, [r4]
 3340              	.L182:
1490:../Drivers/BSP/Components/vl53l0x/vl53l0x_api_core.c **** 
1491:../Drivers/BSP/Components/vl53l0x/vl53l0x_api_core.c **** 	return Status;
1492:../Drivers/BSP/Components/vl53l0x/vl53l0x_api_core.c **** }
 3341              		.loc 1 1492 0
 3342 001c 1046     		mov	r0, r2
 3343              	.LVL598:
 3344 001e 02B0     		add	sp, sp, #8
 3345              	.LCFI41:
 3346              		.cfi_def_cfa_offset 8
 3347              		@ sp needed
 3348 0020 10BD     		pop	{r4, pc}
 3349              		.cfi_endproc
 3350              	.LFE133:
 3352 0022 00BF     		.section	.text.VL53L0X_calc_dmax,"ax",%progbits
 3353              		.align	2
 3354              		.global	VL53L0X_calc_dmax
 3355              		.thumb
 3356              		.thumb_func
 3358              	VL53L0X_calc_dmax:
 3359              	.LFB134:
1493:../Drivers/BSP/Components/vl53l0x/vl53l0x_api_core.c **** 
1494:../Drivers/BSP/Components/vl53l0x/vl53l0x_api_core.c **** VL53L0X_Error VL53L0X_calc_dmax(
1495:../Drivers/BSP/Components/vl53l0x/vl53l0x_api_core.c **** 	VL53L0X_DEV Dev,
1496:../Drivers/BSP/Components/vl53l0x/vl53l0x_api_core.c **** 	FixPoint1616_t totalSignalRate_mcps,
1497:../Drivers/BSP/Components/vl53l0x/vl53l0x_api_core.c **** 	FixPoint1616_t totalCorrSignalRate_mcps,
1498:../Drivers/BSP/Components/vl53l0x/vl53l0x_api_core.c **** 	FixPoint1616_t pwMult,
1499:../Drivers/BSP/Components/vl53l0x/vl53l0x_api_core.c **** 	uint32_t sigmaEstimateP1,
1500:../Drivers/BSP/Components/vl53l0x/vl53l0x_api_core.c **** 	FixPoint1616_t sigmaEstimateP2,
1501:../Drivers/BSP/Components/vl53l0x/vl53l0x_api_core.c **** 	uint32_t peakVcselDuration_us,
1502:../Drivers/BSP/Components/vl53l0x/vl53l0x_api_core.c **** 	uint32_t *pdmax_mm)
1503:../Drivers/BSP/Components/vl53l0x/vl53l0x_api_core.c **** {
 3360              		.loc 1 1503 0
 3361              		.cfi_startproc
 3362              		@ args = 16, pretend = 0, frame = 0
 3363              		@ frame_needed = 0, uses_anonymous_args = 0
 3364              	.LVL599:
 3365 0000 F8B5     		push	{r3, r4, r5, r6, r7, lr}
 3366              	.LCFI42:
ARM GAS  /tmp/ccfCLKEL.s 			page 87


 3367              		.cfi_def_cfa_offset 24
 3368              		.cfi_offset 3, -24
 3369              		.cfi_offset 4, -20
 3370              		.cfi_offset 5, -16
 3371              		.cfi_offset 6, -12
 3372              		.cfi_offset 7, -8
 3373              		.cfi_offset 14, -4
 3374 0002 079C     		ldr	r4, [sp, #28]
 3375 0004 089F     		ldr	r7, [sp, #32]
 3376 0006 099E     		ldr	r6, [sp, #36]
 3377              	.LVL600:
1504:../Drivers/BSP/Components/vl53l0x/vl53l0x_api_core.c **** 	const uint32_t cSigmaLimit		= 18;
1505:../Drivers/BSP/Components/vl53l0x/vl53l0x_api_core.c **** 	const FixPoint1616_t cSignalLimit	= 0x4000; /* 0.25 */
1506:../Drivers/BSP/Components/vl53l0x/vl53l0x_api_core.c **** 	const FixPoint1616_t cSigmaEstRef	= 0x00000042; /* 0.001 */
1507:../Drivers/BSP/Components/vl53l0x/vl53l0x_api_core.c **** 	const uint32_t cAmbEffWidthSigmaEst_ns = 6;
1508:../Drivers/BSP/Components/vl53l0x/vl53l0x_api_core.c **** 	const uint32_t cAmbEffWidthDMax_ns	   = 7;
1509:../Drivers/BSP/Components/vl53l0x/vl53l0x_api_core.c **** 	uint32_t dmaxCalRange_mm;
1510:../Drivers/BSP/Components/vl53l0x/vl53l0x_api_core.c **** 	FixPoint1616_t dmaxCalSignalRateRtn_mcps;
1511:../Drivers/BSP/Components/vl53l0x/vl53l0x_api_core.c **** 	FixPoint1616_t minSignalNeeded;
1512:../Drivers/BSP/Components/vl53l0x/vl53l0x_api_core.c **** 	FixPoint1616_t minSignalNeeded_p1;
1513:../Drivers/BSP/Components/vl53l0x/vl53l0x_api_core.c **** 	FixPoint1616_t minSignalNeeded_p2;
1514:../Drivers/BSP/Components/vl53l0x/vl53l0x_api_core.c **** 	FixPoint1616_t minSignalNeeded_p3;
1515:../Drivers/BSP/Components/vl53l0x/vl53l0x_api_core.c **** 	FixPoint1616_t minSignalNeeded_p4;
1516:../Drivers/BSP/Components/vl53l0x/vl53l0x_api_core.c **** 	FixPoint1616_t sigmaLimitTmp;
1517:../Drivers/BSP/Components/vl53l0x/vl53l0x_api_core.c **** 	FixPoint1616_t sigmaEstSqTmp;
1518:../Drivers/BSP/Components/vl53l0x/vl53l0x_api_core.c **** 	FixPoint1616_t signalLimitTmp;
1519:../Drivers/BSP/Components/vl53l0x/vl53l0x_api_core.c **** 	FixPoint1616_t SignalAt0mm;
1520:../Drivers/BSP/Components/vl53l0x/vl53l0x_api_core.c **** 	FixPoint1616_t dmaxDark;
1521:../Drivers/BSP/Components/vl53l0x/vl53l0x_api_core.c **** 	FixPoint1616_t dmaxAmbient;
1522:../Drivers/BSP/Components/vl53l0x/vl53l0x_api_core.c **** 	FixPoint1616_t dmaxDarkTmp;
1523:../Drivers/BSP/Components/vl53l0x/vl53l0x_api_core.c **** 	FixPoint1616_t sigmaEstP2Tmp;
1524:../Drivers/BSP/Components/vl53l0x/vl53l0x_api_core.c **** 	uint32_t signalRateTemp_mcps;
1525:../Drivers/BSP/Components/vl53l0x/vl53l0x_api_core.c **** 
1526:../Drivers/BSP/Components/vl53l0x/vl53l0x_api_core.c **** 	VL53L0X_Error Status = VL53L0X_ERROR_NONE;
1527:../Drivers/BSP/Components/vl53l0x/vl53l0x_api_core.c **** 
1528:../Drivers/BSP/Components/vl53l0x/vl53l0x_api_core.c **** 	LOG_FUNCTION_START("");
1529:../Drivers/BSP/Components/vl53l0x/vl53l0x_api_core.c **** 
1530:../Drivers/BSP/Components/vl53l0x/vl53l0x_api_core.c **** 	dmaxCalRange_mm =
1531:../Drivers/BSP/Components/vl53l0x/vl53l0x_api_core.c **** 		PALDevDataGet(Dev, DmaxCalRangeMilliMeter);
 3378              		.loc 1 1531 0
 3379 0008 B0F85451 		ldrh	r5, [r0, #340]
 3380              	.LVL601:
1532:../Drivers/BSP/Components/vl53l0x/vl53l0x_api_core.c **** 
1533:../Drivers/BSP/Components/vl53l0x/vl53l0x_api_core.c **** 	dmaxCalSignalRateRtn_mcps =
 3381              		.loc 1 1533 0
 3382 000c D0F85801 		ldr	r0, [r0, #344]
 3383              	.LVL602:
1534:../Drivers/BSP/Components/vl53l0x/vl53l0x_api_core.c **** 		PALDevDataGet(Dev, DmaxCalSignalRateRtnMegaCps);
1535:../Drivers/BSP/Components/vl53l0x/vl53l0x_api_core.c **** 
1536:../Drivers/BSP/Components/vl53l0x/vl53l0x_api_core.c **** 	/* uint32 * FixPoint1616 = FixPoint1616 */
1537:../Drivers/BSP/Components/vl53l0x/vl53l0x_api_core.c **** 	SignalAt0mm = dmaxCalRange_mm * dmaxCalSignalRateRtn_mcps;
 3384              		.loc 1 1537 0
 3385 0010 00FB05F0 		mul	r0, r0, r5
 3386              	.LVL603:
1538:../Drivers/BSP/Components/vl53l0x/vl53l0x_api_core.c **** 
1539:../Drivers/BSP/Components/vl53l0x/vl53l0x_api_core.c **** 	/* FixPoint1616 >> 8 = FixPoint2408 */
1540:../Drivers/BSP/Components/vl53l0x/vl53l0x_api_core.c **** 	SignalAt0mm = (SignalAt0mm + 0x80) >> 8;
ARM GAS  /tmp/ccfCLKEL.s 			page 88


 3387              		.loc 1 1540 0
 3388 0014 8030     		adds	r0, r0, #128
 3389              	.LVL604:
 3390 0016 000A     		lsrs	r0, r0, #8
 3391              	.LVL605:
1541:../Drivers/BSP/Components/vl53l0x/vl53l0x_api_core.c **** 	SignalAt0mm *= dmaxCalRange_mm;
 3392              		.loc 1 1541 0
 3393 0018 05FB00F5 		mul	r5, r5, r0
 3394              	.LVL606:
1542:../Drivers/BSP/Components/vl53l0x/vl53l0x_api_core.c **** 
1543:../Drivers/BSP/Components/vl53l0x/vl53l0x_api_core.c **** 	minSignalNeeded_p1 = 0;
1544:../Drivers/BSP/Components/vl53l0x/vl53l0x_api_core.c **** 	if (totalCorrSignalRate_mcps > 0) {
 3395              		.loc 1 1544 0
 3396 001c 6AB1     		cbz	r2, .L189
 3397 001e 1046     		mov	r0, r2
 3398              	.LVL607:
1545:../Drivers/BSP/Components/vl53l0x/vl53l0x_api_core.c **** 
1546:../Drivers/BSP/Components/vl53l0x/vl53l0x_api_core.c **** 		/* Shift by 10 bits to increase resolution prior to the
1547:../Drivers/BSP/Components/vl53l0x/vl53l0x_api_core.c **** 		 * division */
1548:../Drivers/BSP/Components/vl53l0x/vl53l0x_api_core.c **** 		signalRateTemp_mcps = totalSignalRate_mcps << 10;
1549:../Drivers/BSP/Components/vl53l0x/vl53l0x_api_core.c **** 
1550:../Drivers/BSP/Components/vl53l0x/vl53l0x_api_core.c **** 		/* Add rounding value prior to division */
1551:../Drivers/BSP/Components/vl53l0x/vl53l0x_api_core.c **** 		minSignalNeeded_p1 = signalRateTemp_mcps +
1552:../Drivers/BSP/Components/vl53l0x/vl53l0x_api_core.c **** 			(totalCorrSignalRate_mcps/2);
 3399              		.loc 1 1552 0
 3400 0020 5208     		lsrs	r2, r2, #1
 3401              	.LVL608:
1551:../Drivers/BSP/Components/vl53l0x/vl53l0x_api_core.c **** 			(totalCorrSignalRate_mcps/2);
 3402              		.loc 1 1551 0
 3403 0022 02EB8121 		add	r1, r2, r1, lsl #10
 3404              	.LVL609:
1553:../Drivers/BSP/Components/vl53l0x/vl53l0x_api_core.c **** 
1554:../Drivers/BSP/Components/vl53l0x/vl53l0x_api_core.c **** 		/* FixPoint0626/FixPoint1616 = FixPoint2210 */
1555:../Drivers/BSP/Components/vl53l0x/vl53l0x_api_core.c **** 		minSignalNeeded_p1 /= totalCorrSignalRate_mcps;
 3405              		.loc 1 1555 0
 3406 0026 B1FBF0F0 		udiv	r0, r1, r0
 3407              	.LVL610:
1556:../Drivers/BSP/Components/vl53l0x/vl53l0x_api_core.c **** 
1557:../Drivers/BSP/Components/vl53l0x/vl53l0x_api_core.c **** 		/* Apply a factored version of the speed of light.
1558:../Drivers/BSP/Components/vl53l0x/vl53l0x_api_core.c **** 		 Correction to be applied at the end */
1559:../Drivers/BSP/Components/vl53l0x/vl53l0x_api_core.c **** 		minSignalNeeded_p1 *= 3;
 3408              		.loc 1 1559 0
 3409 002a 00EB4000 		add	r0, r0, r0, lsl #1
 3410              	.LVL611:
1560:../Drivers/BSP/Components/vl53l0x/vl53l0x_api_core.c **** 
1561:../Drivers/BSP/Components/vl53l0x/vl53l0x_api_core.c **** 		/* FixPoint2210 * FixPoint2210 = FixPoint1220 */
1562:../Drivers/BSP/Components/vl53l0x/vl53l0x_api_core.c **** 		minSignalNeeded_p1 *= minSignalNeeded_p1;
 3411              		.loc 1 1562 0
 3412 002e 00FB00F0 		mul	r0, r0, r0
 3413              	.LVL612:
1563:../Drivers/BSP/Components/vl53l0x/vl53l0x_api_core.c **** 
1564:../Drivers/BSP/Components/vl53l0x/vl53l0x_api_core.c **** 		/* FixPoint1220 >> 16 = FixPoint2804 */
1565:../Drivers/BSP/Components/vl53l0x/vl53l0x_api_core.c **** 		minSignalNeeded_p1 = (minSignalNeeded_p1 + 0x8000) >> 16;
 3414              		.loc 1 1565 0
 3415 0032 00F50040 		add	r0, r0, #32768
 3416              	.LVL613:
 3417 0036 000C     		lsrs	r0, r0, #16
ARM GAS  /tmp/ccfCLKEL.s 			page 89


 3418              	.LVL614:
 3419 0038 00E0     		b	.L185
 3420              	.LVL615:
 3421              	.L189:
1543:../Drivers/BSP/Components/vl53l0x/vl53l0x_api_core.c **** 	if (totalCorrSignalRate_mcps > 0) {
 3422              		.loc 1 1543 0
 3423 003a 0020     		movs	r0, #0
 3424              	.LVL616:
 3425              	.L185:
1566:../Drivers/BSP/Components/vl53l0x/vl53l0x_api_core.c **** 	}
1567:../Drivers/BSP/Components/vl53l0x/vl53l0x_api_core.c **** 
1568:../Drivers/BSP/Components/vl53l0x/vl53l0x_api_core.c **** 	minSignalNeeded_p2 = pwMult * sigmaEstimateP1;
 3426              		.loc 1 1568 0
 3427 003c 069A     		ldr	r2, [sp, #24]
 3428 003e 02FB03F2 		mul	r2, r2, r3
 3429              	.LVL617:
1569:../Drivers/BSP/Components/vl53l0x/vl53l0x_api_core.c **** 
1570:../Drivers/BSP/Components/vl53l0x/vl53l0x_api_core.c **** 	/* FixPoint1616 >> 16 =	 uint32 */
1571:../Drivers/BSP/Components/vl53l0x/vl53l0x_api_core.c **** 	minSignalNeeded_p2 = (minSignalNeeded_p2 + 0x8000) >> 16;
 3430              		.loc 1 1571 0
 3431 0042 02F50042 		add	r2, r2, #32768
 3432              	.LVL618:
 3433 0046 120C     		lsrs	r2, r2, #16
 3434              	.LVL619:
1572:../Drivers/BSP/Components/vl53l0x/vl53l0x_api_core.c **** 
1573:../Drivers/BSP/Components/vl53l0x/vl53l0x_api_core.c **** 	/* uint32 * uint32	=  uint32 */
1574:../Drivers/BSP/Components/vl53l0x/vl53l0x_api_core.c **** 	minSignalNeeded_p2 *= minSignalNeeded_p2;
 3435              		.loc 1 1574 0
 3436 0048 02FB02F2 		mul	r2, r2, r2
 3437              	.LVL620:
1575:../Drivers/BSP/Components/vl53l0x/vl53l0x_api_core.c **** 
1576:../Drivers/BSP/Components/vl53l0x/vl53l0x_api_core.c **** 	/* Check sigmaEstimateP2
1577:../Drivers/BSP/Components/vl53l0x/vl53l0x_api_core.c **** 	 * If this value is too high there is not enough signal rate
1578:../Drivers/BSP/Components/vl53l0x/vl53l0x_api_core.c **** 	 * to calculate dmax value so set a suitable value to ensure
1579:../Drivers/BSP/Components/vl53l0x/vl53l0x_api_core.c **** 	 * a very small dmax.
1580:../Drivers/BSP/Components/vl53l0x/vl53l0x_api_core.c **** 	 */
1581:../Drivers/BSP/Components/vl53l0x/vl53l0x_api_core.c **** 	sigmaEstP2Tmp = (sigmaEstimateP2 + 0x8000) >> 16;
 3438              		.loc 1 1581 0
 3439 004c 04F50041 		add	r1, r4, #32768
 3440 0050 090C     		lsrs	r1, r1, #16
 3441              	.LVL621:
1582:../Drivers/BSP/Components/vl53l0x/vl53l0x_api_core.c **** 	sigmaEstP2Tmp = (sigmaEstP2Tmp + cAmbEffWidthSigmaEst_ns/2)/
 3442              		.loc 1 1582 0
 3443 0052 0331     		adds	r1, r1, #3
 3444              	.LVL622:
 3445 0054 224B     		ldr	r3, .L193
 3446              	.LVL623:
 3447 0056 A3FB0131 		umull	r3, r1, r3, r1
 3448              	.LVL624:
 3449 005a 8908     		lsrs	r1, r1, #2
 3450              	.LVL625:
1583:../Drivers/BSP/Components/vl53l0x/vl53l0x_api_core.c **** 		cAmbEffWidthSigmaEst_ns;
1584:../Drivers/BSP/Components/vl53l0x/vl53l0x_api_core.c **** 	sigmaEstP2Tmp *= cAmbEffWidthDMax_ns;
 3451              		.loc 1 1584 0
 3452 005c C1EBC101 		rsb	r1, r1, r1, lsl #3
 3453              	.LVL626:
1585:../Drivers/BSP/Components/vl53l0x/vl53l0x_api_core.c **** 
ARM GAS  /tmp/ccfCLKEL.s 			page 90


1586:../Drivers/BSP/Components/vl53l0x/vl53l0x_api_core.c **** 	if (sigmaEstP2Tmp > 0xffff) {
 3454              		.loc 1 1586 0
 3455 0060 B1F5803F 		cmp	r1, #65536
 3456 0064 0CD2     		bcs	.L190
1587:../Drivers/BSP/Components/vl53l0x/vl53l0x_api_core.c **** 		minSignalNeeded_p3 = 0xfff00000;
1588:../Drivers/BSP/Components/vl53l0x/vl53l0x_api_core.c **** 	} else {
1589:../Drivers/BSP/Components/vl53l0x/vl53l0x_api_core.c **** 
1590:../Drivers/BSP/Components/vl53l0x/vl53l0x_api_core.c **** 		/* DMAX uses a different ambient width from sigma, so apply
1591:../Drivers/BSP/Components/vl53l0x/vl53l0x_api_core.c **** 		 * correction.
1592:../Drivers/BSP/Components/vl53l0x/vl53l0x_api_core.c **** 		 * Perform division before multiplication to prevent overflow.
1593:../Drivers/BSP/Components/vl53l0x/vl53l0x_api_core.c **** 		 */
1594:../Drivers/BSP/Components/vl53l0x/vl53l0x_api_core.c **** 		sigmaEstimateP2 = (sigmaEstimateP2 + cAmbEffWidthSigmaEst_ns/2)/
 3457              		.loc 1 1594 0
 3458 0066 0334     		adds	r4, r4, #3
 3459 0068 1D49     		ldr	r1, .L193
 3460              	.LVL627:
 3461 006a A1FB0431 		umull	r3, r1, r1, r4
 3462              	.LVL628:
 3463 006e 8908     		lsrs	r1, r1, #2
 3464              	.LVL629:
1595:../Drivers/BSP/Components/vl53l0x/vl53l0x_api_core.c **** 			cAmbEffWidthSigmaEst_ns;
1596:../Drivers/BSP/Components/vl53l0x/vl53l0x_api_core.c **** 		sigmaEstimateP2 *= cAmbEffWidthDMax_ns;
 3465              		.loc 1 1596 0
 3466 0070 C1EBC101 		rsb	r1, r1, r1, lsl #3
 3467              	.LVL630:
1597:../Drivers/BSP/Components/vl53l0x/vl53l0x_api_core.c **** 
1598:../Drivers/BSP/Components/vl53l0x/vl53l0x_api_core.c **** 		/* FixPoint1616 >> 16 = uint32 */
1599:../Drivers/BSP/Components/vl53l0x/vl53l0x_api_core.c **** 		minSignalNeeded_p3 = (sigmaEstimateP2 + 0x8000) >> 16;
 3468              		.loc 1 1599 0
 3469 0074 01F50041 		add	r1, r1, #32768
 3470              	.LVL631:
 3471 0078 090C     		lsrs	r1, r1, #16
 3472              	.LVL632:
1600:../Drivers/BSP/Components/vl53l0x/vl53l0x_api_core.c **** 
1601:../Drivers/BSP/Components/vl53l0x/vl53l0x_api_core.c **** 		minSignalNeeded_p3 *= minSignalNeeded_p3;
 3473              		.loc 1 1601 0
 3474 007a 01FB01F1 		mul	r1, r1, r1
 3475              	.LVL633:
 3476 007e 00E0     		b	.L186
 3477              	.LVL634:
 3478              	.L190:
1587:../Drivers/BSP/Components/vl53l0x/vl53l0x_api_core.c **** 	} else {
 3479              		.loc 1 1587 0
 3480 0080 1849     		ldr	r1, .L193+4
 3481              	.LVL635:
 3482              	.L186:
1602:../Drivers/BSP/Components/vl53l0x/vl53l0x_api_core.c **** 
1603:../Drivers/BSP/Components/vl53l0x/vl53l0x_api_core.c **** 	}
1604:../Drivers/BSP/Components/vl53l0x/vl53l0x_api_core.c **** 
1605:../Drivers/BSP/Components/vl53l0x/vl53l0x_api_core.c **** 	/* FixPoint1814 / uint32 = FixPoint1814 */
1606:../Drivers/BSP/Components/vl53l0x/vl53l0x_api_core.c **** 	sigmaLimitTmp = ((cSigmaLimit << 14) + 500) / 1000;
1607:../Drivers/BSP/Components/vl53l0x/vl53l0x_api_core.c **** 
1608:../Drivers/BSP/Components/vl53l0x/vl53l0x_api_core.c **** 	/* FixPoint1814 * FixPoint1814 = FixPoint3628 := FixPoint0428 */
1609:../Drivers/BSP/Components/vl53l0x/vl53l0x_api_core.c **** 	sigmaLimitTmp *= sigmaLimitTmp;
1610:../Drivers/BSP/Components/vl53l0x/vl53l0x_api_core.c **** 
1611:../Drivers/BSP/Components/vl53l0x/vl53l0x_api_core.c **** 	/* FixPoint1616 * FixPoint1616 = FixPoint3232 */
1612:../Drivers/BSP/Components/vl53l0x/vl53l0x_api_core.c **** 	sigmaEstSqTmp = cSigmaEstRef * cSigmaEstRef;
ARM GAS  /tmp/ccfCLKEL.s 			page 91


1613:../Drivers/BSP/Components/vl53l0x/vl53l0x_api_core.c **** 
1614:../Drivers/BSP/Components/vl53l0x/vl53l0x_api_core.c **** 	/* FixPoint3232 >> 4 = FixPoint0428 */
1615:../Drivers/BSP/Components/vl53l0x/vl53l0x_api_core.c **** 	sigmaEstSqTmp = (sigmaEstSqTmp + 0x08) >> 4;
1616:../Drivers/BSP/Components/vl53l0x/vl53l0x_api_core.c **** 
1617:../Drivers/BSP/Components/vl53l0x/vl53l0x_api_core.c **** 	/* FixPoint0428 - FixPoint0428	= FixPoint0428 */
1618:../Drivers/BSP/Components/vl53l0x/vl53l0x_api_core.c **** 	sigmaLimitTmp -=  sigmaEstSqTmp;
1619:../Drivers/BSP/Components/vl53l0x/vl53l0x_api_core.c **** 
1620:../Drivers/BSP/Components/vl53l0x/vl53l0x_api_core.c **** 	/* uint32_t * FixPoint0428 = FixPoint0428 */
1621:../Drivers/BSP/Components/vl53l0x/vl53l0x_api_core.c **** 	minSignalNeeded_p4 = 4 * 12 * sigmaLimitTmp;
1622:../Drivers/BSP/Components/vl53l0x/vl53l0x_api_core.c **** 
1623:../Drivers/BSP/Components/vl53l0x/vl53l0x_api_core.c **** 	/* FixPoint0428 >> 14 = FixPoint1814 */
1624:../Drivers/BSP/Components/vl53l0x/vl53l0x_api_core.c **** 	minSignalNeeded_p4 = (minSignalNeeded_p4 + 0x2000) >> 14;
1625:../Drivers/BSP/Components/vl53l0x/vl53l0x_api_core.c **** 
1626:../Drivers/BSP/Components/vl53l0x/vl53l0x_api_core.c **** 	/* uint32 + uint32 = uint32 */
1627:../Drivers/BSP/Components/vl53l0x/vl53l0x_api_core.c **** 	minSignalNeeded = (minSignalNeeded_p2 + minSignalNeeded_p3);
 3483              		.loc 1 1627 0
 3484 0082 0A44     		add	r2, r2, r1
 3485              	.LVL636:
1628:../Drivers/BSP/Components/vl53l0x/vl53l0x_api_core.c **** 
1629:../Drivers/BSP/Components/vl53l0x/vl53l0x_api_core.c **** 	/* uint32 / uint32 = uint32 */
1630:../Drivers/BSP/Components/vl53l0x/vl53l0x_api_core.c **** 	minSignalNeeded += (peakVcselDuration_us/2);
 3486              		.loc 1 1630 0
 3487 0084 02EB5702 		add	r2, r2, r7, lsr #1
 3488              	.LVL637:
1631:../Drivers/BSP/Components/vl53l0x/vl53l0x_api_core.c **** 	minSignalNeeded /= peakVcselDuration_us;
 3489              		.loc 1 1631 0
 3490 0088 B2FBF7F3 		udiv	r3, r2, r7
 3491              	.LVL638:
1632:../Drivers/BSP/Components/vl53l0x/vl53l0x_api_core.c **** 
1633:../Drivers/BSP/Components/vl53l0x/vl53l0x_api_core.c **** 	/* uint32 << 14 = FixPoint1814 */
1634:../Drivers/BSP/Components/vl53l0x/vl53l0x_api_core.c **** 	minSignalNeeded <<= 14;
 3492              		.loc 1 1634 0
 3493 008c 9B03     		lsls	r3, r3, #14
 3494              	.LVL639:
1635:../Drivers/BSP/Components/vl53l0x/vl53l0x_api_core.c **** 
1636:../Drivers/BSP/Components/vl53l0x/vl53l0x_api_core.c **** 	/* FixPoint1814 / FixPoint1814 = uint32 */
1637:../Drivers/BSP/Components/vl53l0x/vl53l0x_api_core.c **** 	minSignalNeeded += (minSignalNeeded_p4/2);
 3495              		.loc 1 1637 0
 3496 008e 7F33     		adds	r3, r3, #127
 3497              	.LVL640:
1638:../Drivers/BSP/Components/vl53l0x/vl53l0x_api_core.c **** 	minSignalNeeded /= minSignalNeeded_p4;
 3498              		.loc 1 1638 0
 3499 0090 5A08     		lsrs	r2, r3, #1
 3500 0092 154B     		ldr	r3, .L193+8
 3501              	.LVL641:
 3502 0094 A3FB0223 		umull	r2, r3, r3, r2
 3503 0098 9B09     		lsrs	r3, r3, #6
 3504              	.LVL642:
1639:../Drivers/BSP/Components/vl53l0x/vl53l0x_api_core.c **** 
1640:../Drivers/BSP/Components/vl53l0x/vl53l0x_api_core.c **** 	/* FixPoint3200 * FixPoint2804 := FixPoint2804*/
1641:../Drivers/BSP/Components/vl53l0x/vl53l0x_api_core.c **** 	minSignalNeeded *= minSignalNeeded_p1;
 3505              		.loc 1 1641 0
 3506 009a 00FB03F4 		mul	r4, r0, r3
 3507              	.LVL643:
1642:../Drivers/BSP/Components/vl53l0x/vl53l0x_api_core.c **** 
1643:../Drivers/BSP/Components/vl53l0x/vl53l0x_api_core.c **** 	/* Apply correction by dividing by 1000000.
1644:../Drivers/BSP/Components/vl53l0x/vl53l0x_api_core.c **** 	 * This assumes 10E16 on the numerator of the equation
ARM GAS  /tmp/ccfCLKEL.s 			page 92


1645:../Drivers/BSP/Components/vl53l0x/vl53l0x_api_core.c **** 	 * and 10E-22 on the denominator.
1646:../Drivers/BSP/Components/vl53l0x/vl53l0x_api_core.c **** 	 * We do this because 32bit fix point calculation can't
1647:../Drivers/BSP/Components/vl53l0x/vl53l0x_api_core.c **** 	 * handle the larger and smaller elements of this equation,
1648:../Drivers/BSP/Components/vl53l0x/vl53l0x_api_core.c **** 	 * i.e. speed of light and pulse widths.
1649:../Drivers/BSP/Components/vl53l0x/vl53l0x_api_core.c **** 	 */
1650:../Drivers/BSP/Components/vl53l0x/vl53l0x_api_core.c **** 	minSignalNeeded = (minSignalNeeded + 500) / 1000;
 3508              		.loc 1 1650 0
 3509 009e 04F5FA74 		add	r4, r4, #500
 3510              	.LVL644:
 3511 00a2 1248     		ldr	r0, .L193+12
 3512              	.LVL645:
 3513 00a4 A0FB0434 		umull	r3, r4, r0, r4
 3514              	.LVL646:
 3515 00a8 A409     		lsrs	r4, r4, #6
 3516              	.LVL647:
1651:../Drivers/BSP/Components/vl53l0x/vl53l0x_api_core.c **** 	minSignalNeeded <<= 4;
 3517              		.loc 1 1651 0
 3518 00aa 2401     		lsls	r4, r4, #4
 3519              	.LVL648:
1652:../Drivers/BSP/Components/vl53l0x/vl53l0x_api_core.c **** 
1653:../Drivers/BSP/Components/vl53l0x/vl53l0x_api_core.c **** 	minSignalNeeded = (minSignalNeeded + 500) / 1000;
 3520              		.loc 1 1653 0
 3521 00ac 04F5FA74 		add	r4, r4, #500
 3522              	.LVL649:
 3523 00b0 A0FB0434 		umull	r3, r4, r0, r4
 3524              	.LVL650:
 3525 00b4 A409     		lsrs	r4, r4, #6
 3526              	.LVL651:
1654:../Drivers/BSP/Components/vl53l0x/vl53l0x_api_core.c **** 
1655:../Drivers/BSP/Components/vl53l0x/vl53l0x_api_core.c **** 	/* FixPoint1616 >> 8 = FixPoint2408 */
1656:../Drivers/BSP/Components/vl53l0x/vl53l0x_api_core.c **** 	signalLimitTmp = (cSignalLimit + 0x80) >> 8;
1657:../Drivers/BSP/Components/vl53l0x/vl53l0x_api_core.c **** 
1658:../Drivers/BSP/Components/vl53l0x/vl53l0x_api_core.c **** 	/* FixPoint2408/FixPoint2408 = uint32 */
1659:../Drivers/BSP/Components/vl53l0x/vl53l0x_api_core.c **** 	if (signalLimitTmp != 0)
1660:../Drivers/BSP/Components/vl53l0x/vl53l0x_api_core.c **** 		dmaxDarkTmp = (SignalAt0mm + (signalLimitTmp / 2))
 3527              		.loc 1 1660 0
 3528 00b6 05F12000 		add	r0, r5, #32
 3529              	.LVL652:
1661:../Drivers/BSP/Components/vl53l0x/vl53l0x_api_core.c **** 			/ signalLimitTmp;
1662:../Drivers/BSP/Components/vl53l0x/vl53l0x_api_core.c **** 	else
1663:../Drivers/BSP/Components/vl53l0x/vl53l0x_api_core.c **** 		dmaxDarkTmp = 0;
1664:../Drivers/BSP/Components/vl53l0x/vl53l0x_api_core.c **** 
1665:../Drivers/BSP/Components/vl53l0x/vl53l0x_api_core.c **** 	dmaxDark = VL53L0X_isqrt(dmaxDarkTmp);
 3530              		.loc 1 1665 0
 3531 00ba 8009     		lsrs	r0, r0, #6
 3532              	.LVL653:
 3533 00bc FFF7FEFF 		bl	VL53L0X_isqrt
 3534              	.LVL654:
 3535 00c0 0746     		mov	r7, r0
 3536              	.LVL655:
1666:../Drivers/BSP/Components/vl53l0x/vl53l0x_api_core.c **** 
1667:../Drivers/BSP/Components/vl53l0x/vl53l0x_api_core.c **** 	/* FixPoint2408/FixPoint2408 = uint32 */
1668:../Drivers/BSP/Components/vl53l0x/vl53l0x_api_core.c **** 	if (minSignalNeeded != 0)
 3537              		.loc 1 1668 0
 3538 00c2 24B1     		cbz	r4, .L191
1669:../Drivers/BSP/Components/vl53l0x/vl53l0x_api_core.c **** 		dmaxAmbient = (SignalAt0mm + minSignalNeeded/2)
 3539              		.loc 1 1669 0
ARM GAS  /tmp/ccfCLKEL.s 			page 93


 3540 00c4 05EB5400 		add	r0, r5, r4, lsr #1
 3541              	.LVL656:
 3542 00c8 B0FBF4F0 		udiv	r0, r0, r4
 3543              	.LVL657:
 3544 00cc 00E0     		b	.L187
 3545              	.LVL658:
 3546              	.L191:
1670:../Drivers/BSP/Components/vl53l0x/vl53l0x_api_core.c **** 			/ minSignalNeeded;
1671:../Drivers/BSP/Components/vl53l0x/vl53l0x_api_core.c **** 	else
1672:../Drivers/BSP/Components/vl53l0x/vl53l0x_api_core.c **** 		dmaxAmbient = 0;
 3547              		.loc 1 1672 0
 3548 00ce 0020     		movs	r0, #0
 3549              	.LVL659:
 3550              	.L187:
1673:../Drivers/BSP/Components/vl53l0x/vl53l0x_api_core.c **** 
1674:../Drivers/BSP/Components/vl53l0x/vl53l0x_api_core.c **** 	dmaxAmbient = VL53L0X_isqrt(dmaxAmbient);
 3551              		.loc 1 1674 0
 3552 00d0 FFF7FEFF 		bl	VL53L0X_isqrt
 3553              	.LVL660:
1675:../Drivers/BSP/Components/vl53l0x/vl53l0x_api_core.c **** 
1676:../Drivers/BSP/Components/vl53l0x/vl53l0x_api_core.c **** 	*pdmax_mm = dmaxDark;
 3554              		.loc 1 1676 0
 3555 00d4 3760     		str	r7, [r6]
1677:../Drivers/BSP/Components/vl53l0x/vl53l0x_api_core.c **** 	if (dmaxDark > dmaxAmbient)
 3556              		.loc 1 1677 0
 3557 00d6 8742     		cmp	r7, r0
 3558 00d8 00D9     		bls	.L188
1678:../Drivers/BSP/Components/vl53l0x/vl53l0x_api_core.c **** 		*pdmax_mm = dmaxAmbient;
 3559              		.loc 1 1678 0
 3560 00da 3060     		str	r0, [r6]
 3561              	.L188:
1679:../Drivers/BSP/Components/vl53l0x/vl53l0x_api_core.c **** 
1680:../Drivers/BSP/Components/vl53l0x/vl53l0x_api_core.c **** 	LOG_FUNCTION_END(Status);
1681:../Drivers/BSP/Components/vl53l0x/vl53l0x_api_core.c **** 
1682:../Drivers/BSP/Components/vl53l0x/vl53l0x_api_core.c **** 	return Status;
1683:../Drivers/BSP/Components/vl53l0x/vl53l0x_api_core.c **** }
 3562              		.loc 1 1683 0
 3563 00dc 0020     		movs	r0, #0
 3564              	.LVL661:
 3565 00de F8BD     		pop	{r3, r4, r5, r6, r7, pc}
 3566              	.LVL662:
 3567              	.L194:
 3568              		.align	2
 3569              	.L193:
 3570 00e0 ABAAAAAA 		.word	-1431655765
 3571 00e4 0000F0FF 		.word	-1048576
 3572 00e8 09040281 		.word	-2130574327
 3573 00ec D34D6210 		.word	274877907
 3574              		.cfi_endproc
 3575              	.LFE134:
 3577              		.section	.text.VL53L0X_calc_sigma_estimate,"ax",%progbits
 3578              		.align	2
 3579              		.global	VL53L0X_calc_sigma_estimate
 3580              		.thumb
 3581              		.thumb_func
 3583              	VL53L0X_calc_sigma_estimate:
 3584              	.LFB135:
ARM GAS  /tmp/ccfCLKEL.s 			page 94


1684:../Drivers/BSP/Components/vl53l0x/vl53l0x_api_core.c **** 
1685:../Drivers/BSP/Components/vl53l0x/vl53l0x_api_core.c **** 
1686:../Drivers/BSP/Components/vl53l0x/vl53l0x_api_core.c **** VL53L0X_Error VL53L0X_calc_sigma_estimate(VL53L0X_DEV Dev,
1687:../Drivers/BSP/Components/vl53l0x/vl53l0x_api_core.c **** 	VL53L0X_RangingMeasurementData_t *pRangingMeasurementData,
1688:../Drivers/BSP/Components/vl53l0x/vl53l0x_api_core.c **** 	FixPoint1616_t *pSigmaEstimate,
1689:../Drivers/BSP/Components/vl53l0x/vl53l0x_api_core.c **** 	uint32_t *pDmax_mm)
1690:../Drivers/BSP/Components/vl53l0x/vl53l0x_api_core.c **** {
 3585              		.loc 1 1690 0
 3586              		.cfi_startproc
 3587              		@ args = 0, pretend = 0, frame = 32
 3588              		@ frame_needed = 0, uses_anonymous_args = 0
 3589              	.LVL663:
 3590 0000 2DE9F04F 		push	{r4, r5, r6, r7, r8, r9, r10, fp, lr}
 3591              	.LCFI43:
 3592              		.cfi_def_cfa_offset 36
 3593              		.cfi_offset 4, -36
 3594              		.cfi_offset 5, -32
 3595              		.cfi_offset 6, -28
 3596              		.cfi_offset 7, -24
 3597              		.cfi_offset 8, -20
 3598              		.cfi_offset 9, -16
 3599              		.cfi_offset 10, -12
 3600              		.cfi_offset 11, -8
 3601              		.cfi_offset 14, -4
 3602 0004 8DB0     		sub	sp, sp, #52
 3603              	.LCFI44:
 3604              		.cfi_def_cfa_offset 88
 3605 0006 0646     		mov	r6, r0
 3606 0008 8946     		mov	r9, r1
 3607 000a 0492     		str	r2, [sp, #16]
 3608 000c 0593     		str	r3, [sp, #20]
 3609              	.LVL664:
1691:../Drivers/BSP/Components/vl53l0x/vl53l0x_api_core.c **** 	/* Expressed in 100ths of a ns, i.e. centi-ns */
1692:../Drivers/BSP/Components/vl53l0x/vl53l0x_api_core.c **** 	const uint32_t cPulseEffectiveWidth_centi_ns   = 800;
1693:../Drivers/BSP/Components/vl53l0x/vl53l0x_api_core.c **** 	/* Expressed in 100ths of a ns, i.e. centi-ns */
1694:../Drivers/BSP/Components/vl53l0x/vl53l0x_api_core.c **** 	const uint32_t cAmbientEffectiveWidth_centi_ns = 600;
1695:../Drivers/BSP/Components/vl53l0x/vl53l0x_api_core.c **** 	const FixPoint1616_t cDfltFinalRangeIntegrationTimeMilliSecs	= 0x00190000; /* 25ms */
1696:../Drivers/BSP/Components/vl53l0x/vl53l0x_api_core.c **** 	const uint32_t cVcselPulseWidth_ps	= 4700; /* pico secs */
1697:../Drivers/BSP/Components/vl53l0x/vl53l0x_api_core.c **** 	const FixPoint1616_t cSigmaEstMax	= 0x028F87AE;
1698:../Drivers/BSP/Components/vl53l0x/vl53l0x_api_core.c **** 	const FixPoint1616_t cSigmaEstRtnMax	= 0xF000;
1699:../Drivers/BSP/Components/vl53l0x/vl53l0x_api_core.c **** 	const FixPoint1616_t cAmbToSignalRatioMax = 0xF0000000/
1700:../Drivers/BSP/Components/vl53l0x/vl53l0x_api_core.c **** 		cAmbientEffectiveWidth_centi_ns;
1701:../Drivers/BSP/Components/vl53l0x/vl53l0x_api_core.c **** 	/* Time Of Flight per mm (6.6 pico secs) */
1702:../Drivers/BSP/Components/vl53l0x/vl53l0x_api_core.c **** 	const FixPoint1616_t cTOF_per_mm_ps		= 0x0006999A;
1703:../Drivers/BSP/Components/vl53l0x/vl53l0x_api_core.c **** 	const uint32_t c16BitRoundingParam		= 0x00008000;
1704:../Drivers/BSP/Components/vl53l0x/vl53l0x_api_core.c **** 	const FixPoint1616_t cMaxXTalk_kcps		= 0x00320000;
1705:../Drivers/BSP/Components/vl53l0x/vl53l0x_api_core.c **** 	const uint32_t cPllPeriod_ps			= 1655;
1706:../Drivers/BSP/Components/vl53l0x/vl53l0x_api_core.c **** 
1707:../Drivers/BSP/Components/vl53l0x/vl53l0x_api_core.c **** 	uint32_t vcselTotalEventsRtn;
1708:../Drivers/BSP/Components/vl53l0x/vl53l0x_api_core.c **** 	uint32_t finalRangeTimeoutMicroSecs;
1709:../Drivers/BSP/Components/vl53l0x/vl53l0x_api_core.c **** 	uint32_t preRangeTimeoutMicroSecs;
1710:../Drivers/BSP/Components/vl53l0x/vl53l0x_api_core.c **** 	uint32_t finalRangeIntegrationTimeMilliSecs;
1711:../Drivers/BSP/Components/vl53l0x/vl53l0x_api_core.c **** 	FixPoint1616_t sigmaEstimateP1;
1712:../Drivers/BSP/Components/vl53l0x/vl53l0x_api_core.c **** 	FixPoint1616_t sigmaEstimateP2;
1713:../Drivers/BSP/Components/vl53l0x/vl53l0x_api_core.c **** 	FixPoint1616_t sigmaEstimateP3;
1714:../Drivers/BSP/Components/vl53l0x/vl53l0x_api_core.c **** 	FixPoint1616_t deltaT_ps;
1715:../Drivers/BSP/Components/vl53l0x/vl53l0x_api_core.c **** 	FixPoint1616_t pwMult;
ARM GAS  /tmp/ccfCLKEL.s 			page 95


1716:../Drivers/BSP/Components/vl53l0x/vl53l0x_api_core.c **** 	FixPoint1616_t sigmaEstRtn;
1717:../Drivers/BSP/Components/vl53l0x/vl53l0x_api_core.c **** 	FixPoint1616_t sigmaEstimate;
1718:../Drivers/BSP/Components/vl53l0x/vl53l0x_api_core.c **** 	FixPoint1616_t xTalkCorrection;
1719:../Drivers/BSP/Components/vl53l0x/vl53l0x_api_core.c **** 	FixPoint1616_t ambientRate_kcps;
1720:../Drivers/BSP/Components/vl53l0x/vl53l0x_api_core.c **** 	FixPoint1616_t peakSignalRate_kcps;
1721:../Drivers/BSP/Components/vl53l0x/vl53l0x_api_core.c **** 	FixPoint1616_t xTalkCompRate_mcps;
1722:../Drivers/BSP/Components/vl53l0x/vl53l0x_api_core.c **** 	uint32_t xTalkCompRate_kcps;
1723:../Drivers/BSP/Components/vl53l0x/vl53l0x_api_core.c **** 	VL53L0X_Error Status = VL53L0X_ERROR_NONE;
1724:../Drivers/BSP/Components/vl53l0x/vl53l0x_api_core.c **** 	FixPoint1616_t diff1_mcps;
1725:../Drivers/BSP/Components/vl53l0x/vl53l0x_api_core.c **** 	FixPoint1616_t diff2_mcps;
1726:../Drivers/BSP/Components/vl53l0x/vl53l0x_api_core.c **** 	FixPoint1616_t sqr1;
1727:../Drivers/BSP/Components/vl53l0x/vl53l0x_api_core.c **** 	FixPoint1616_t sqr2;
1728:../Drivers/BSP/Components/vl53l0x/vl53l0x_api_core.c **** 	FixPoint1616_t sqrSum;
1729:../Drivers/BSP/Components/vl53l0x/vl53l0x_api_core.c **** 	FixPoint1616_t sqrtResult_centi_ns;
1730:../Drivers/BSP/Components/vl53l0x/vl53l0x_api_core.c **** 	FixPoint1616_t sqrtResult;
1731:../Drivers/BSP/Components/vl53l0x/vl53l0x_api_core.c **** 	FixPoint1616_t totalSignalRate_mcps;
1732:../Drivers/BSP/Components/vl53l0x/vl53l0x_api_core.c **** 	FixPoint1616_t correctedSignalRate_mcps;
1733:../Drivers/BSP/Components/vl53l0x/vl53l0x_api_core.c **** 	FixPoint1616_t sigmaEstRef;
1734:../Drivers/BSP/Components/vl53l0x/vl53l0x_api_core.c **** 	uint32_t vcselWidth;
1735:../Drivers/BSP/Components/vl53l0x/vl53l0x_api_core.c **** 	uint32_t finalRangeMacroPCLKS;
1736:../Drivers/BSP/Components/vl53l0x/vl53l0x_api_core.c **** 	uint32_t preRangeMacroPCLKS;
1737:../Drivers/BSP/Components/vl53l0x/vl53l0x_api_core.c **** 	uint32_t peakVcselDuration_us;
1738:../Drivers/BSP/Components/vl53l0x/vl53l0x_api_core.c **** 	uint8_t finalRangeVcselPCLKS;
1739:../Drivers/BSP/Components/vl53l0x/vl53l0x_api_core.c **** 	uint8_t preRangeVcselPCLKS;
1740:../Drivers/BSP/Components/vl53l0x/vl53l0x_api_core.c **** 	/*! \addtogroup calc_sigma_estimate
1741:../Drivers/BSP/Components/vl53l0x/vl53l0x_api_core.c **** 	 * @{
1742:../Drivers/BSP/Components/vl53l0x/vl53l0x_api_core.c **** 	 *
1743:../Drivers/BSP/Components/vl53l0x/vl53l0x_api_core.c **** 	 * Estimates the range sigma
1744:../Drivers/BSP/Components/vl53l0x/vl53l0x_api_core.c **** 	 */
1745:../Drivers/BSP/Components/vl53l0x/vl53l0x_api_core.c **** 
1746:../Drivers/BSP/Components/vl53l0x/vl53l0x_api_core.c **** 	LOG_FUNCTION_START("");
1747:../Drivers/BSP/Components/vl53l0x/vl53l0x_api_core.c **** 
1748:../Drivers/BSP/Components/vl53l0x/vl53l0x_api_core.c **** 	VL53L0X_GETPARAMETERFIELD(Dev, XTalkCompensationRateMegaCps,
 3610              		.loc 1 1748 0
 3611 000e 036A     		ldr	r3, [r0, #32]
 3612              	.LVL665:
 3613 0010 0B93     		str	r3, [sp, #44]
1749:../Drivers/BSP/Components/vl53l0x/vl53l0x_api_core.c **** 			xTalkCompRate_mcps);
1750:../Drivers/BSP/Components/vl53l0x/vl53l0x_api_core.c **** 
1751:../Drivers/BSP/Components/vl53l0x/vl53l0x_api_core.c **** 	/*
1752:../Drivers/BSP/Components/vl53l0x/vl53l0x_api_core.c **** 	 * We work in kcps rather than mcps as this helps keep within the
1753:../Drivers/BSP/Components/vl53l0x/vl53l0x_api_core.c **** 	 * confines of the 32 Fix1616 type.
1754:../Drivers/BSP/Components/vl53l0x/vl53l0x_api_core.c **** 	 */
1755:../Drivers/BSP/Components/vl53l0x/vl53l0x_api_core.c **** 
1756:../Drivers/BSP/Components/vl53l0x/vl53l0x_api_core.c **** 	ambientRate_kcps =
1757:../Drivers/BSP/Components/vl53l0x/vl53l0x_api_core.c **** 		(pRangingMeasurementData->AmbientRateRtnMegaCps * 1000) >> 16;
 3614              		.loc 1 1757 0
 3615 0012 0D69     		ldr	r5, [r1, #16]
 3616 0014 4FF47A74 		mov	r4, #1000
 3617 0018 04FB05F5 		mul	r5, r4, r5
1756:../Drivers/BSP/Components/vl53l0x/vl53l0x_api_core.c **** 		(pRangingMeasurementData->AmbientRateRtnMegaCps * 1000) >> 16;
 3618              		.loc 1 1756 0
 3619 001c 2D0C     		lsrs	r5, r5, #16
 3620              	.LVL666:
1758:../Drivers/BSP/Components/vl53l0x/vl53l0x_api_core.c **** 
1759:../Drivers/BSP/Components/vl53l0x/vl53l0x_api_core.c **** 	correctedSignalRate_mcps =
 3621              		.loc 1 1759 0
ARM GAS  /tmp/ccfCLKEL.s 			page 96


 3622 001e CB68     		ldr	r3, [r1, #12]
 3623 0020 0693     		str	r3, [sp, #24]
 3624              	.LVL667:
1760:../Drivers/BSP/Components/vl53l0x/vl53l0x_api_core.c **** 		pRangingMeasurementData->SignalRateRtnMegaCps;
1761:../Drivers/BSP/Components/vl53l0x/vl53l0x_api_core.c **** 
1762:../Drivers/BSP/Components/vl53l0x/vl53l0x_api_core.c **** 
1763:../Drivers/BSP/Components/vl53l0x/vl53l0x_api_core.c **** 	Status = VL53L0X_get_total_signal_rate(
 3625              		.loc 1 1763 0
 3626 0022 0AAA     		add	r2, sp, #40
 3627              	.LVL668:
 3628 0024 FFF7FEFF 		bl	VL53L0X_get_total_signal_rate
 3629              	.LVL669:
1764:../Drivers/BSP/Components/vl53l0x/vl53l0x_api_core.c **** 		Dev, pRangingMeasurementData, &totalSignalRate_mcps);
1765:../Drivers/BSP/Components/vl53l0x/vl53l0x_api_core.c **** 	Status = VL53L0X_get_total_xtalk_rate(
 3630              		.loc 1 1765 0
 3631 0028 3046     		mov	r0, r6
 3632 002a 4946     		mov	r1, r9
 3633 002c 0BAA     		add	r2, sp, #44
 3634 002e FFF7FEFF 		bl	VL53L0X_get_total_xtalk_rate
 3635              	.LVL670:
 3636 0032 8246     		mov	r10, r0
 3637              	.LVL671:
1766:../Drivers/BSP/Components/vl53l0x/vl53l0x_api_core.c **** 		Dev, pRangingMeasurementData, &xTalkCompRate_mcps);
1767:../Drivers/BSP/Components/vl53l0x/vl53l0x_api_core.c **** 
1768:../Drivers/BSP/Components/vl53l0x/vl53l0x_api_core.c **** 
1769:../Drivers/BSP/Components/vl53l0x/vl53l0x_api_core.c **** 	/* Signal rate measurement provided by device is the
1770:../Drivers/BSP/Components/vl53l0x/vl53l0x_api_core.c **** 	 * peak signal rate, not average.
1771:../Drivers/BSP/Components/vl53l0x/vl53l0x_api_core.c **** 	 */
1772:../Drivers/BSP/Components/vl53l0x/vl53l0x_api_core.c **** 	peakSignalRate_kcps = (totalSignalRate_mcps * 1000);
 3638              		.loc 1 1772 0
 3639 0034 DDF82880 		ldr	r8, [sp, #40]
 3640 0038 04FB08F7 		mul	r7, r4, r8
 3641              	.LVL672:
1773:../Drivers/BSP/Components/vl53l0x/vl53l0x_api_core.c **** 	peakSignalRate_kcps = (peakSignalRate_kcps + 0x8000) >> 16;
 3642              		.loc 1 1773 0
 3643 003c 07F50047 		add	r7, r7, #32768
 3644              	.LVL673:
 3645 0040 3F0C     		lsrs	r7, r7, #16
 3646              	.LVL674:
1774:../Drivers/BSP/Components/vl53l0x/vl53l0x_api_core.c **** 
1775:../Drivers/BSP/Components/vl53l0x/vl53l0x_api_core.c **** 	xTalkCompRate_kcps = xTalkCompRate_mcps * 1000;
 3647              		.loc 1 1775 0
 3648 0042 0B9B     		ldr	r3, [sp, #44]
 3649 0044 04FB03F4 		mul	r4, r4, r3
 3650              	.LVL675:
1776:../Drivers/BSP/Components/vl53l0x/vl53l0x_api_core.c **** 
1777:../Drivers/BSP/Components/vl53l0x/vl53l0x_api_core.c **** 	if (xTalkCompRate_kcps > cMaxXTalk_kcps)
 3651              		.loc 1 1777 0
 3652 0048 B4F5481F 		cmp	r4, #3276800
 3653 004c 01D9     		bls	.L196
1778:../Drivers/BSP/Components/vl53l0x/vl53l0x_api_core.c **** 		xTalkCompRate_kcps = cMaxXTalk_kcps;
 3654              		.loc 1 1778 0
 3655 004e 4FF44814 		mov	r4, #3276800
 3656              	.LVL676:
 3657              	.L196:
1779:../Drivers/BSP/Components/vl53l0x/vl53l0x_api_core.c **** 
1780:../Drivers/BSP/Components/vl53l0x/vl53l0x_api_core.c **** 	if (Status == VL53L0X_ERROR_NONE) {
ARM GAS  /tmp/ccfCLKEL.s 			page 97


 3658              		.loc 1 1780 0
 3659 0052 BAF1000F 		cmp	r10, #0
 3660 0056 3BD1     		bne	.L197
1781:../Drivers/BSP/Components/vl53l0x/vl53l0x_api_core.c **** 
1782:../Drivers/BSP/Components/vl53l0x/vl53l0x_api_core.c **** 		/* Calculate final range macro periods */
1783:../Drivers/BSP/Components/vl53l0x/vl53l0x_api_core.c **** 		finalRangeTimeoutMicroSecs = VL53L0X_GETDEVICESPECIFICPARAMETER(
 3661              		.loc 1 1783 0
 3662 0058 D6F8DC30 		ldr	r3, [r6, #220]
 3663 005c 0893     		str	r3, [sp, #32]
 3664              	.LVL677:
1784:../Drivers/BSP/Components/vl53l0x/vl53l0x_api_core.c **** 			Dev, FinalRangeTimeoutMicroSecs);
1785:../Drivers/BSP/Components/vl53l0x/vl53l0x_api_core.c **** 
1786:../Drivers/BSP/Components/vl53l0x/vl53l0x_api_core.c **** 		finalRangeVcselPCLKS = VL53L0X_GETDEVICESPECIFICPARAMETER(
 3665              		.loc 1 1786 0
 3666 005e 96F8E0B0 		ldrb	fp, [r6, #224]	@ zero_extendqisi2
 3667              	.LVL678:
1787:../Drivers/BSP/Components/vl53l0x/vl53l0x_api_core.c **** 			Dev, FinalRangeVcselPulsePeriod);
1788:../Drivers/BSP/Components/vl53l0x/vl53l0x_api_core.c **** 
1789:../Drivers/BSP/Components/vl53l0x/vl53l0x_api_core.c **** 		finalRangeMacroPCLKS = VL53L0X_calc_timeout_mclks(
 3668              		.loc 1 1789 0
 3669 0062 3046     		mov	r0, r6
 3670 0064 1946     		mov	r1, r3
 3671 0066 5A46     		mov	r2, fp
 3672 0068 FFF7FEFF 		bl	VL53L0X_calc_timeout_mclks
 3673              	.LVL679:
 3674 006c 0790     		str	r0, [sp, #28]
 3675              	.LVL680:
1790:../Drivers/BSP/Components/vl53l0x/vl53l0x_api_core.c **** 			Dev, finalRangeTimeoutMicroSecs, finalRangeVcselPCLKS);
1791:../Drivers/BSP/Components/vl53l0x/vl53l0x_api_core.c **** 
1792:../Drivers/BSP/Components/vl53l0x/vl53l0x_api_core.c **** 		/* Calculate pre-range macro periods */
1793:../Drivers/BSP/Components/vl53l0x/vl53l0x_api_core.c **** 		preRangeTimeoutMicroSecs = VL53L0X_GETDEVICESPECIFICPARAMETER(
 3676              		.loc 1 1793 0
 3677 006e D6F8E430 		ldr	r3, [r6, #228]
 3678 0072 0993     		str	r3, [sp, #36]
 3679              	.LVL681:
1794:../Drivers/BSP/Components/vl53l0x/vl53l0x_api_core.c **** 			Dev, PreRangeTimeoutMicroSecs);
1795:../Drivers/BSP/Components/vl53l0x/vl53l0x_api_core.c **** 
1796:../Drivers/BSP/Components/vl53l0x/vl53l0x_api_core.c **** 		preRangeVcselPCLKS = VL53L0X_GETDEVICESPECIFICPARAMETER(
1797:../Drivers/BSP/Components/vl53l0x/vl53l0x_api_core.c **** 			Dev, PreRangeVcselPulsePeriod);
1798:../Drivers/BSP/Components/vl53l0x/vl53l0x_api_core.c **** 
1799:../Drivers/BSP/Components/vl53l0x/vl53l0x_api_core.c **** 		preRangeMacroPCLKS = VL53L0X_calc_timeout_mclks(
 3680              		.loc 1 1799 0
 3681 0074 3046     		mov	r0, r6
 3682              	.LVL682:
 3683 0076 1946     		mov	r1, r3
 3684 0078 96F8E820 		ldrb	r2, [r6, #232]	@ zero_extendqisi2
 3685 007c FFF7FEFF 		bl	VL53L0X_calc_timeout_mclks
 3686              	.LVL683:
1800:../Drivers/BSP/Components/vl53l0x/vl53l0x_api_core.c **** 			Dev, preRangeTimeoutMicroSecs, preRangeVcselPCLKS);
1801:../Drivers/BSP/Components/vl53l0x/vl53l0x_api_core.c **** 
1802:../Drivers/BSP/Components/vl53l0x/vl53l0x_api_core.c **** 		vcselWidth = 3;
1803:../Drivers/BSP/Components/vl53l0x/vl53l0x_api_core.c **** 		if (finalRangeVcselPCLKS == 8)
 3687              		.loc 1 1803 0
 3688 0080 BBF1080F 		cmp	fp, #8
 3689 0084 01D0     		beq	.L208
1802:../Drivers/BSP/Components/vl53l0x/vl53l0x_api_core.c **** 		if (finalRangeVcselPCLKS == 8)
 3690              		.loc 1 1802 0
ARM GAS  /tmp/ccfCLKEL.s 			page 98


 3691 0086 0322     		movs	r2, #3
 3692 0088 00E0     		b	.L198
 3693              	.L208:
1804:../Drivers/BSP/Components/vl53l0x/vl53l0x_api_core.c **** 			vcselWidth = 2;
 3694              		.loc 1 1804 0
 3695 008a 0222     		movs	r2, #2
 3696              	.L198:
 3697              	.LVL684:
1805:../Drivers/BSP/Components/vl53l0x/vl53l0x_api_core.c **** 
1806:../Drivers/BSP/Components/vl53l0x/vl53l0x_api_core.c **** 
1807:../Drivers/BSP/Components/vl53l0x/vl53l0x_api_core.c **** 		peakVcselDuration_us = vcselWidth * 2048 *
1808:../Drivers/BSP/Components/vl53l0x/vl53l0x_api_core.c **** 			(preRangeMacroPCLKS + finalRangeMacroPCLKS);
 3698              		.loc 1 1808 0
 3699 008c 079B     		ldr	r3, [sp, #28]
 3700 008e 0344     		add	r3, r3, r0
1807:../Drivers/BSP/Components/vl53l0x/vl53l0x_api_core.c **** 			(preRangeMacroPCLKS + finalRangeMacroPCLKS);
 3701              		.loc 1 1807 0
 3702 0090 02FB03F3 		mul	r3, r2, r3
 3703 0094 DB02     		lsls	r3, r3, #11
 3704              	.LVL685:
1809:../Drivers/BSP/Components/vl53l0x/vl53l0x_api_core.c **** 		peakVcselDuration_us = (peakVcselDuration_us + 500)/1000;
 3705              		.loc 1 1809 0
 3706 0096 03F5FA73 		add	r3, r3, #500
 3707              	.LVL686:
 3708 009a 6F4A     		ldr	r2, .L217
 3709              	.LVL687:
 3710 009c A2FB0313 		umull	r1, r3, r2, r3
 3711              	.LVL688:
 3712 00a0 9B09     		lsrs	r3, r3, #6
 3713              	.LVL689:
1810:../Drivers/BSP/Components/vl53l0x/vl53l0x_api_core.c **** 		peakVcselDuration_us *= cPllPeriod_ps;
 3714              		.loc 1 1810 0
 3715 00a2 40F27761 		movw	r1, #1655
 3716 00a6 01FB03F3 		mul	r3, r1, r3
 3717              	.LVL690:
1811:../Drivers/BSP/Components/vl53l0x/vl53l0x_api_core.c **** 		peakVcselDuration_us = (peakVcselDuration_us + 500)/1000;
 3718              		.loc 1 1811 0
 3719 00aa 03F5FA73 		add	r3, r3, #500
 3720              	.LVL691:
 3721 00ae A2FB0323 		umull	r2, r3, r2, r3
 3722              	.LVL692:
 3723 00b2 9B09     		lsrs	r3, r3, #6
 3724 00b4 0793     		str	r3, [sp, #28]
 3725              	.LVL693:
1812:../Drivers/BSP/Components/vl53l0x/vl53l0x_api_core.c **** 
1813:../Drivers/BSP/Components/vl53l0x/vl53l0x_api_core.c **** 		/* Fix1616 >> 8 = Fix2408 */
1814:../Drivers/BSP/Components/vl53l0x/vl53l0x_api_core.c **** 		totalSignalRate_mcps = (totalSignalRate_mcps + 0x80) >> 8;
 3726              		.loc 1 1814 0
 3727 00b6 08F18008 		add	r8, r8, #128
 3728 00ba 4FEA1828 		lsr	r8, r8, #8
1815:../Drivers/BSP/Components/vl53l0x/vl53l0x_api_core.c **** 
1816:../Drivers/BSP/Components/vl53l0x/vl53l0x_api_core.c **** 		/* Fix2408 * uint32 = Fix2408 */
1817:../Drivers/BSP/Components/vl53l0x/vl53l0x_api_core.c **** 		vcselTotalEventsRtn = totalSignalRate_mcps *
 3729              		.loc 1 1817 0
 3730 00be 08FB03FB 		mul	fp, r8, r3
 3731              	.LVL694:
1818:../Drivers/BSP/Components/vl53l0x/vl53l0x_api_core.c **** 			peakVcselDuration_us;
ARM GAS  /tmp/ccfCLKEL.s 			page 99


1819:../Drivers/BSP/Components/vl53l0x/vl53l0x_api_core.c **** 
1820:../Drivers/BSP/Components/vl53l0x/vl53l0x_api_core.c **** 		/* Fix2408 >> 8 = uint32 */
1821:../Drivers/BSP/Components/vl53l0x/vl53l0x_api_core.c **** 		vcselTotalEventsRtn = (vcselTotalEventsRtn + 0x80) >> 8;
 3732              		.loc 1 1821 0
 3733 00c2 0BF1800B 		add	fp, fp, #128
 3734              	.LVL695:
 3735 00c6 4FEA1B2B 		lsr	fp, fp, #8
 3736              	.LVL696:
1822:../Drivers/BSP/Components/vl53l0x/vl53l0x_api_core.c **** 
1823:../Drivers/BSP/Components/vl53l0x/vl53l0x_api_core.c **** 		/* Fix2408 << 8 = Fix1616 = */
1824:../Drivers/BSP/Components/vl53l0x/vl53l0x_api_core.c **** 		totalSignalRate_mcps <<= 8;
 3737              		.loc 1 1824 0
 3738 00ca 4FEA0823 		lsl	r3, r8, #8
 3739              	.LVL697:
 3740 00ce 0A93     		str	r3, [sp, #40]
 3741              	.LVL698:
 3742              	.L197:
1825:../Drivers/BSP/Components/vl53l0x/vl53l0x_api_core.c **** 	}
1826:../Drivers/BSP/Components/vl53l0x/vl53l0x_api_core.c **** 
1827:../Drivers/BSP/Components/vl53l0x/vl53l0x_api_core.c **** 	if (Status != VL53L0X_ERROR_NONE) {
 3743              		.loc 1 1827 0
 3744 00d0 BAF1000F 		cmp	r10, #0
 3745 00d4 40F0BA80 		bne	.L199
1828:../Drivers/BSP/Components/vl53l0x/vl53l0x_api_core.c **** 		LOG_FUNCTION_END(Status);
1829:../Drivers/BSP/Components/vl53l0x/vl53l0x_api_core.c **** 		return Status;
1830:../Drivers/BSP/Components/vl53l0x/vl53l0x_api_core.c **** 	}
1831:../Drivers/BSP/Components/vl53l0x/vl53l0x_api_core.c **** 
1832:../Drivers/BSP/Components/vl53l0x/vl53l0x_api_core.c **** 	if (peakSignalRate_kcps == 0) {
 3746              		.loc 1 1832 0
 3747 00d8 47B9     		cbnz	r7, .L200
1833:../Drivers/BSP/Components/vl53l0x/vl53l0x_api_core.c **** 		*pSigmaEstimate = cSigmaEstMax;
 3748              		.loc 1 1833 0
 3749 00da 604B     		ldr	r3, .L217+4
 3750 00dc 049A     		ldr	r2, [sp, #16]
 3751 00de 1360     		str	r3, [r2]
1834:../Drivers/BSP/Components/vl53l0x/vl53l0x_api_core.c **** 		PALDevDataSet(Dev, SigmaEstimate, cSigmaEstMax);
 3752              		.loc 1 1834 0
 3753 00e0 C6F84031 		str	r3, [r6, #320]
1835:../Drivers/BSP/Components/vl53l0x/vl53l0x_api_core.c **** 		*pDmax_mm = 0;
 3754              		.loc 1 1835 0
 3755 00e4 0023     		movs	r3, #0
 3756 00e6 059A     		ldr	r2, [sp, #20]
 3757 00e8 1360     		str	r3, [r2]
 3758 00ea AFE0     		b	.L199
 3759              	.L200:
1836:../Drivers/BSP/Components/vl53l0x/vl53l0x_api_core.c **** 	} else {
1837:../Drivers/BSP/Components/vl53l0x/vl53l0x_api_core.c **** 		if (vcselTotalEventsRtn < 1)
 3760              		.loc 1 1837 0
 3761 00ec BBF1000F 		cmp	fp, #0
 3762 00f0 01D1     		bne	.L202
1838:../Drivers/BSP/Components/vl53l0x/vl53l0x_api_core.c **** 			vcselTotalEventsRtn = 1;
 3763              		.loc 1 1838 0
 3764 00f2 4FF0010B 		mov	fp, #1
 3765              	.LVL699:
 3766              	.L202:
1839:../Drivers/BSP/Components/vl53l0x/vl53l0x_api_core.c **** 
1840:../Drivers/BSP/Components/vl53l0x/vl53l0x_api_core.c **** 		sigmaEstimateP1 = cPulseEffectiveWidth_centi_ns;
ARM GAS  /tmp/ccfCLKEL.s 			page 100


1841:../Drivers/BSP/Components/vl53l0x/vl53l0x_api_core.c **** 
1842:../Drivers/BSP/Components/vl53l0x/vl53l0x_api_core.c **** 		/* ((FixPoint1616 << 16)* uint32)/uint32 = FixPoint1616 */
1843:../Drivers/BSP/Components/vl53l0x/vl53l0x_api_core.c **** 		sigmaEstimateP2 = (ambientRate_kcps << 16)/peakSignalRate_kcps;
 3767              		.loc 1 1843 0
 3768 00f6 2D04     		lsls	r5, r5, #16
 3769              	.LVL700:
 3770 00f8 B5FBF7F5 		udiv	r5, r5, r7
 3771              	.LVL701:
1844:../Drivers/BSP/Components/vl53l0x/vl53l0x_api_core.c **** 		if (sigmaEstimateP2 > cAmbToSignalRatioMax) {
 3772              		.loc 1 1844 0
 3773 00fc 584B     		ldr	r3, .L217+8
 3774 00fe 9D42     		cmp	r5, r3
 3775 0100 00D9     		bls	.L203
1845:../Drivers/BSP/Components/vl53l0x/vl53l0x_api_core.c **** 			/* Clip to prevent overflow. Will ensure safe
1846:../Drivers/BSP/Components/vl53l0x/vl53l0x_api_core.c **** 			 * max result. */
1847:../Drivers/BSP/Components/vl53l0x/vl53l0x_api_core.c **** 			sigmaEstimateP2 = cAmbToSignalRatioMax;
 3776              		.loc 1 1847 0
 3777 0102 1D46     		mov	r5, r3
 3778              	.LVL702:
 3779              	.L203:
1848:../Drivers/BSP/Components/vl53l0x/vl53l0x_api_core.c **** 		}
1849:../Drivers/BSP/Components/vl53l0x/vl53l0x_api_core.c **** 		sigmaEstimateP2 *= cAmbientEffectiveWidth_centi_ns;
 3780              		.loc 1 1849 0
 3781 0104 4FF41673 		mov	r3, #600
 3782 0108 03FB05F5 		mul	r5, r3, r5
 3783              	.LVL703:
1850:../Drivers/BSP/Components/vl53l0x/vl53l0x_api_core.c **** 
1851:../Drivers/BSP/Components/vl53l0x/vl53l0x_api_core.c **** 		sigmaEstimateP3 = 2 * VL53L0X_isqrt(vcselTotalEventsRtn * 12);
 3784              		.loc 1 1851 0
 3785 010c 0BEB4B00 		add	r0, fp, fp, lsl #1
 3786 0110 8000     		lsls	r0, r0, #2
 3787 0112 FFF7FEFF 		bl	VL53L0X_isqrt
 3788              	.LVL704:
 3789 0116 4FEA4008 		lsl	r8, r0, #1
 3790              	.LVL705:
1852:../Drivers/BSP/Components/vl53l0x/vl53l0x_api_core.c **** 
1853:../Drivers/BSP/Components/vl53l0x/vl53l0x_api_core.c **** 		/* uint32 * FixPoint1616 = FixPoint1616 */
1854:../Drivers/BSP/Components/vl53l0x/vl53l0x_api_core.c **** 		deltaT_ps = pRangingMeasurementData->RangeMilliMeter *
 3791              		.loc 1 1854 0
 3792 011a B9F80830 		ldrh	r3, [r9, #8]
 3793 011e 514A     		ldr	r2, .L217+12
 3794 0120 02FB03F3 		mul	r3, r2, r3
 3795              	.LVL706:
1855:../Drivers/BSP/Components/vl53l0x/vl53l0x_api_core.c **** 					cTOF_per_mm_ps;
1856:../Drivers/BSP/Components/vl53l0x/vl53l0x_api_core.c **** 
1857:../Drivers/BSP/Components/vl53l0x/vl53l0x_api_core.c **** 		/*
1858:../Drivers/BSP/Components/vl53l0x/vl53l0x_api_core.c **** 		 * vcselRate - xtalkCompRate
1859:../Drivers/BSP/Components/vl53l0x/vl53l0x_api_core.c **** 		 * (uint32 << 16) - FixPoint1616 = FixPoint1616.
1860:../Drivers/BSP/Components/vl53l0x/vl53l0x_api_core.c **** 		 * Divide result by 1000 to convert to mcps.
1861:../Drivers/BSP/Components/vl53l0x/vl53l0x_api_core.c **** 		 * 500 is added to ensure rounding when integer division
1862:../Drivers/BSP/Components/vl53l0x/vl53l0x_api_core.c **** 		 * truncates.
1863:../Drivers/BSP/Components/vl53l0x/vl53l0x_api_core.c **** 		 */
1864:../Drivers/BSP/Components/vl53l0x/vl53l0x_api_core.c **** 		diff1_mcps = (((peakSignalRate_kcps << 16) -
 3796              		.loc 1 1864 0
 3797 0124 3A04     		lsls	r2, r7, #16
 3798 0126 A2EB4404 		sub	r4, r2, r4, lsl #1
 3799              	.LVL707:
ARM GAS  /tmp/ccfCLKEL.s 			page 101


1865:../Drivers/BSP/Components/vl53l0x/vl53l0x_api_core.c **** 			2 * xTalkCompRate_kcps) + 500)/1000;
 3800              		.loc 1 1865 0
 3801 012a 04F5FA74 		add	r4, r4, #500
1864:../Drivers/BSP/Components/vl53l0x/vl53l0x_api_core.c **** 			2 * xTalkCompRate_kcps) + 500)/1000;
 3802              		.loc 1 1864 0
 3803 012e 4A49     		ldr	r1, .L217
 3804 0130 A1FB0404 		umull	r0, r4, r1, r4
 3805 0134 A409     		lsrs	r4, r4, #6
 3806              	.LVL708:
1866:../Drivers/BSP/Components/vl53l0x/vl53l0x_api_core.c **** 
1867:../Drivers/BSP/Components/vl53l0x/vl53l0x_api_core.c **** 		/* vcselRate + xtalkCompRate */
1868:../Drivers/BSP/Components/vl53l0x/vl53l0x_api_core.c **** 		diff2_mcps = ((peakSignalRate_kcps << 16) + 500)/1000;
 3807              		.loc 1 1868 0
 3808 0136 02F5FA72 		add	r2, r2, #500
 3809 013a A1FB0212 		umull	r1, r2, r1, r2
 3810 013e 9209     		lsrs	r2, r2, #6
 3811              	.LVL709:
1869:../Drivers/BSP/Components/vl53l0x/vl53l0x_api_core.c **** 
1870:../Drivers/BSP/Components/vl53l0x/vl53l0x_api_core.c **** 		/* Shift by 8 bits to increase resolution prior to the
1871:../Drivers/BSP/Components/vl53l0x/vl53l0x_api_core.c **** 		 * division */
1872:../Drivers/BSP/Components/vl53l0x/vl53l0x_api_core.c **** 		diff1_mcps <<= 8;
 3812              		.loc 1 1872 0
 3813 0140 2402     		lsls	r4, r4, #8
 3814              	.LVL710:
1873:../Drivers/BSP/Components/vl53l0x/vl53l0x_api_core.c **** 
1874:../Drivers/BSP/Components/vl53l0x/vl53l0x_api_core.c **** 		/* FixPoint0824/FixPoint1616 = FixPoint2408 */
1875:../Drivers/BSP/Components/vl53l0x/vl53l0x_api_core.c **** 		xTalkCorrection	 = abs(diff1_mcps/diff2_mcps);
 3815              		.loc 1 1875 0
 3816 0142 B4FBF2F2 		udiv	r2, r4, r2
 3817              	.LVL711:
1876:../Drivers/BSP/Components/vl53l0x/vl53l0x_api_core.c **** 
1877:../Drivers/BSP/Components/vl53l0x/vl53l0x_api_core.c **** 		/* FixPoint2408 << 8 = FixPoint1616 */
1878:../Drivers/BSP/Components/vl53l0x/vl53l0x_api_core.c **** 		xTalkCorrection <<= 8;
 3818              		.loc 1 1878 0
 3819 0146 1202     		lsls	r2, r2, #8
 3820              	.LVL712:
1879:../Drivers/BSP/Components/vl53l0x/vl53l0x_api_core.c **** 
1880:../Drivers/BSP/Components/vl53l0x/vl53l0x_api_core.c **** 		if(pRangingMeasurementData->RangeStatus != 0){
 3821              		.loc 1 1880 0
 3822 0148 99F81810 		ldrb	r1, [r9, #24]	@ zero_extendqisi2
 3823 014c A1B9     		cbnz	r1, .L211
1881:../Drivers/BSP/Components/vl53l0x/vl53l0x_api_core.c **** 			pwMult = 1 << 16;
1882:../Drivers/BSP/Components/vl53l0x/vl53l0x_api_core.c **** 		} else {
1883:../Drivers/BSP/Components/vl53l0x/vl53l0x_api_core.c **** 			/* FixPoint1616/uint32 = FixPoint1616 */
1884:../Drivers/BSP/Components/vl53l0x/vl53l0x_api_core.c **** 			pwMult = deltaT_ps/cVcselPulseWidth_ps; /* smaller than 1.0f */
 3824              		.loc 1 1884 0
 3825 014e 4649     		ldr	r1, .L217+16
 3826 0150 A1FB0313 		umull	r1, r3, r1, r3
 3827              	.LVL713:
 3828 0154 9B0A     		lsrs	r3, r3, #10
 3829              	.LVL714:
1885:../Drivers/BSP/Components/vl53l0x/vl53l0x_api_core.c **** 
1886:../Drivers/BSP/Components/vl53l0x/vl53l0x_api_core.c **** 			/*
1887:../Drivers/BSP/Components/vl53l0x/vl53l0x_api_core.c **** 			 * FixPoint1616 * FixPoint1616 = FixPoint3232, however both
1888:../Drivers/BSP/Components/vl53l0x/vl53l0x_api_core.c **** 			 * values are small enough such that32 bits will not be
1889:../Drivers/BSP/Components/vl53l0x/vl53l0x_api_core.c **** 			 * exceeded.
1890:../Drivers/BSP/Components/vl53l0x/vl53l0x_api_core.c **** 			 */
ARM GAS  /tmp/ccfCLKEL.s 			page 102


1891:../Drivers/BSP/Components/vl53l0x/vl53l0x_api_core.c **** 			pwMult *= ((1 << 16) - xTalkCorrection);
 3830              		.loc 1 1891 0
 3831 0156 C2F58039 		rsb	r9, r2, #65536
 3832              	.LVL715:
 3833 015a 03FB09F9 		mul	r9, r3, r9
 3834              	.LVL716:
1892:../Drivers/BSP/Components/vl53l0x/vl53l0x_api_core.c **** 
1893:../Drivers/BSP/Components/vl53l0x/vl53l0x_api_core.c **** 			/* (FixPoint3232 >> 16) = FixPoint1616 */
1894:../Drivers/BSP/Components/vl53l0x/vl53l0x_api_core.c **** 			pwMult =  (pwMult + c16BitRoundingParam) >> 16;
 3835              		.loc 1 1894 0
 3836 015e 09F50049 		add	r9, r9, #32768
 3837              	.LVL717:
 3838 0162 4FEA1949 		lsr	r9, r9, #16
 3839              	.LVL718:
1895:../Drivers/BSP/Components/vl53l0x/vl53l0x_api_core.c **** 
1896:../Drivers/BSP/Components/vl53l0x/vl53l0x_api_core.c **** 			/* FixPoint1616 + FixPoint1616 = FixPoint1616 */
1897:../Drivers/BSP/Components/vl53l0x/vl53l0x_api_core.c **** 			pwMult += (1 << 16);
 3840              		.loc 1 1897 0
 3841 0166 09F58039 		add	r9, r9, #65536
 3842              	.LVL719:
1898:../Drivers/BSP/Components/vl53l0x/vl53l0x_api_core.c **** 
1899:../Drivers/BSP/Components/vl53l0x/vl53l0x_api_core.c **** 			/*
1900:../Drivers/BSP/Components/vl53l0x/vl53l0x_api_core.c **** 			 * At this point the value will be 1.xx, therefore if we square
1901:../Drivers/BSP/Components/vl53l0x/vl53l0x_api_core.c **** 			 * the value this will exceed 32 bits. To address this perform
1902:../Drivers/BSP/Components/vl53l0x/vl53l0x_api_core.c **** 			 * a single shift to the right before the multiplication.
1903:../Drivers/BSP/Components/vl53l0x/vl53l0x_api_core.c **** 			 */
1904:../Drivers/BSP/Components/vl53l0x/vl53l0x_api_core.c **** 			pwMult >>= 1;
 3843              		.loc 1 1904 0
 3844 016a 4FEA5909 		lsr	r9, r9, #1
 3845              	.LVL720:
1905:../Drivers/BSP/Components/vl53l0x/vl53l0x_api_core.c **** 			/* FixPoint1715 * FixPoint1715 = FixPoint3430 */
1906:../Drivers/BSP/Components/vl53l0x/vl53l0x_api_core.c **** 			pwMult = pwMult * pwMult;
 3846              		.loc 1 1906 0
 3847 016e 09FB09F9 		mul	r9, r9, r9
 3848              	.LVL721:
1907:../Drivers/BSP/Components/vl53l0x/vl53l0x_api_core.c **** 
1908:../Drivers/BSP/Components/vl53l0x/vl53l0x_api_core.c **** 			/* (FixPoint3430 >> 14) = Fix1616 */
1909:../Drivers/BSP/Components/vl53l0x/vl53l0x_api_core.c **** 			pwMult >>= 14;
 3849              		.loc 1 1909 0
 3850 0172 4FEA9939 		lsr	r9, r9, #14
 3851              	.LVL722:
 3852 0176 01E0     		b	.L204
 3853              	.LVL723:
 3854              	.L211:
1881:../Drivers/BSP/Components/vl53l0x/vl53l0x_api_core.c **** 		} else {
 3855              		.loc 1 1881 0
 3856 0178 4FF48039 		mov	r9, #65536
 3857              	.LVL724:
 3858              	.L204:
1910:../Drivers/BSP/Components/vl53l0x/vl53l0x_api_core.c **** 		}
1911:../Drivers/BSP/Components/vl53l0x/vl53l0x_api_core.c **** 
1912:../Drivers/BSP/Components/vl53l0x/vl53l0x_api_core.c **** 		/* FixPoint1616 * uint32 = FixPoint1616 */
1913:../Drivers/BSP/Components/vl53l0x/vl53l0x_api_core.c **** 		sqr1 = pwMult * sigmaEstimateP1;
 3859              		.loc 1 1913 0
 3860 017c 4FF44870 		mov	r0, #800
 3861 0180 00FB09F0 		mul	r0, r0, r9
 3862              	.LVL725:
ARM GAS  /tmp/ccfCLKEL.s 			page 103


1914:../Drivers/BSP/Components/vl53l0x/vl53l0x_api_core.c **** 
1915:../Drivers/BSP/Components/vl53l0x/vl53l0x_api_core.c **** 		/* (FixPoint1616 >> 16) = FixPoint3200 */
1916:../Drivers/BSP/Components/vl53l0x/vl53l0x_api_core.c **** 		sqr1 = (sqr1 + 0x8000) >> 16;
 3863              		.loc 1 1916 0
 3864 0184 00F50040 		add	r0, r0, #32768
 3865              	.LVL726:
 3866 0188 000C     		lsrs	r0, r0, #16
 3867              	.LVL727:
1917:../Drivers/BSP/Components/vl53l0x/vl53l0x_api_core.c **** 
1918:../Drivers/BSP/Components/vl53l0x/vl53l0x_api_core.c **** 		/* FixPoint3200 * FixPoint3200 = FixPoint6400 */
1919:../Drivers/BSP/Components/vl53l0x/vl53l0x_api_core.c **** 		sqr1 *= sqr1;
1920:../Drivers/BSP/Components/vl53l0x/vl53l0x_api_core.c **** 
1921:../Drivers/BSP/Components/vl53l0x/vl53l0x_api_core.c **** 		sqr2 = sigmaEstimateP2;
1922:../Drivers/BSP/Components/vl53l0x/vl53l0x_api_core.c **** 
1923:../Drivers/BSP/Components/vl53l0x/vl53l0x_api_core.c **** 		/* (FixPoint1616 >> 16) = FixPoint3200 */
1924:../Drivers/BSP/Components/vl53l0x/vl53l0x_api_core.c **** 		sqr2 = (sqr2 + 0x8000) >> 16;
 3868              		.loc 1 1924 0
 3869 018a 05F50043 		add	r3, r5, #32768
 3870 018e 1B0C     		lsrs	r3, r3, #16
 3871              	.LVL728:
1925:../Drivers/BSP/Components/vl53l0x/vl53l0x_api_core.c **** 
1926:../Drivers/BSP/Components/vl53l0x/vl53l0x_api_core.c **** 		/* FixPoint3200 * FixPoint3200 = FixPoint6400 */
1927:../Drivers/BSP/Components/vl53l0x/vl53l0x_api_core.c **** 		sqr2 *= sqr2;
 3872              		.loc 1 1927 0
 3873 0190 03FB03F3 		mul	r3, r3, r3
 3874              	.LVL729:
1928:../Drivers/BSP/Components/vl53l0x/vl53l0x_api_core.c **** 
1929:../Drivers/BSP/Components/vl53l0x/vl53l0x_api_core.c **** 		/* FixPoint64000 + FixPoint6400 = FixPoint6400 */
1930:../Drivers/BSP/Components/vl53l0x/vl53l0x_api_core.c **** 		sqrSum = sqr1 + sqr2;
1931:../Drivers/BSP/Components/vl53l0x/vl53l0x_api_core.c **** 
1932:../Drivers/BSP/Components/vl53l0x/vl53l0x_api_core.c **** 		/* SQRT(FixPoin6400) = FixPoint3200 */
1933:../Drivers/BSP/Components/vl53l0x/vl53l0x_api_core.c **** 		sqrtResult_centi_ns = VL53L0X_isqrt(sqrSum);
 3875              		.loc 1 1933 0
 3876 0194 00FB0030 		mla	r0, r0, r0, r3
 3877              	.LVL730:
 3878 0198 FFF7FEFF 		bl	VL53L0X_isqrt
 3879              	.LVL731:
1934:../Drivers/BSP/Components/vl53l0x/vl53l0x_api_core.c **** 
1935:../Drivers/BSP/Components/vl53l0x/vl53l0x_api_core.c **** 		/* (FixPoint3200 << 16) = FixPoint1616 */
1936:../Drivers/BSP/Components/vl53l0x/vl53l0x_api_core.c **** 		sqrtResult_centi_ns <<= 16;
 3880              		.loc 1 1936 0
 3881 019c 0004     		lsls	r0, r0, #16
 3882              	.LVL732:
1937:../Drivers/BSP/Components/vl53l0x/vl53l0x_api_core.c **** 
1938:../Drivers/BSP/Components/vl53l0x/vl53l0x_api_core.c **** 		/*
1939:../Drivers/BSP/Components/vl53l0x/vl53l0x_api_core.c **** 		 * Note that the Speed Of Light is expressed in um per 1E-10
1940:../Drivers/BSP/Components/vl53l0x/vl53l0x_api_core.c **** 		 * seconds (2997) Therefore to get mm/ns we have to divide by
1941:../Drivers/BSP/Components/vl53l0x/vl53l0x_api_core.c **** 		 * 10000
1942:../Drivers/BSP/Components/vl53l0x/vl53l0x_api_core.c **** 		 */
1943:../Drivers/BSP/Components/vl53l0x/vl53l0x_api_core.c **** 		sigmaEstRtn = (((sqrtResult_centi_ns+50)/100) /
 3883              		.loc 1 1943 0
 3884 019e 3230     		adds	r0, r0, #50
 3885              	.LVL733:
 3886 01a0 324B     		ldr	r3, .L217+20
 3887 01a2 A3FB0023 		umull	r2, r3, r3, r0
 3888 01a6 5B09     		lsrs	r3, r3, #5
 3889 01a8 B3FBF8F3 		udiv	r3, r3, r8
ARM GAS  /tmp/ccfCLKEL.s 			page 104


 3890              	.LVL734:
1944:../Drivers/BSP/Components/vl53l0x/vl53l0x_api_core.c **** 				sigmaEstimateP3);
1945:../Drivers/BSP/Components/vl53l0x/vl53l0x_api_core.c **** 		sigmaEstRtn		 *= VL53L0X_SPEED_OF_LIGHT_IN_AIR;
1946:../Drivers/BSP/Components/vl53l0x/vl53l0x_api_core.c **** 
1947:../Drivers/BSP/Components/vl53l0x/vl53l0x_api_core.c **** 		/* Add 5000 before dividing by 10000 to ensure rounding. */
1948:../Drivers/BSP/Components/vl53l0x/vl53l0x_api_core.c **** 		sigmaEstRtn		 += 5000;
 3891              		.loc 1 1948 0
 3892 01ac 41F28832 		movw	r2, #5000
 3893 01b0 40F6B534 		movw	r4, #2997
 3894              	.LVL735:
 3895 01b4 04FB0328 		mla	r8, r4, r3, r2
 3896              	.LVL736:
1949:../Drivers/BSP/Components/vl53l0x/vl53l0x_api_core.c **** 		sigmaEstRtn		 /= 10000;
 3897              		.loc 1 1949 0
 3898 01b8 2D4C     		ldr	r4, .L217+24
 3899 01ba A4FB0834 		umull	r3, r4, r4, r8
 3900 01be 640B     		lsrs	r4, r4, #13
 3901              	.LVL737:
1950:../Drivers/BSP/Components/vl53l0x/vl53l0x_api_core.c **** 
1951:../Drivers/BSP/Components/vl53l0x/vl53l0x_api_core.c **** 		if (sigmaEstRtn > cSigmaEstRtnMax) {
 3902              		.loc 1 1951 0
 3903 01c0 B4F5704F 		cmp	r4, #61440
 3904 01c4 01D9     		bls	.L205
1952:../Drivers/BSP/Components/vl53l0x/vl53l0x_api_core.c **** 			/* Clip to prevent overflow. Will ensure safe
1953:../Drivers/BSP/Components/vl53l0x/vl53l0x_api_core.c **** 			 * max result. */
1954:../Drivers/BSP/Components/vl53l0x/vl53l0x_api_core.c **** 			sigmaEstRtn = cSigmaEstRtnMax;
 3905              		.loc 1 1954 0
 3906 01c6 4FF47044 		mov	r4, #61440
 3907              	.LVL738:
 3908              	.L205:
1955:../Drivers/BSP/Components/vl53l0x/vl53l0x_api_core.c **** 		}
1956:../Drivers/BSP/Components/vl53l0x/vl53l0x_api_core.c **** 		finalRangeIntegrationTimeMilliSecs =
1957:../Drivers/BSP/Components/vl53l0x/vl53l0x_api_core.c **** 			(finalRangeTimeoutMicroSecs + preRangeTimeoutMicroSecs + 500)/1000;
 3909              		.loc 1 1957 0
 3910 01ca 089B     		ldr	r3, [sp, #32]
 3911 01cc 099A     		ldr	r2, [sp, #36]
 3912 01ce 1344     		add	r3, r3, r2
 3913 01d0 03F5FA73 		add	r3, r3, #500
1956:../Drivers/BSP/Components/vl53l0x/vl53l0x_api_core.c **** 			(finalRangeTimeoutMicroSecs + preRangeTimeoutMicroSecs + 500)/1000;
 3914              		.loc 1 1956 0
 3915 01d4 DFF88080 		ldr	r8, .L217
 3916              	.LVL739:
 3917 01d8 A8FB0323 		umull	r2, r3, r8, r3
 3918 01dc 9809     		lsrs	r0, r3, #6
 3919              	.LVL740:
1958:../Drivers/BSP/Components/vl53l0x/vl53l0x_api_core.c **** 
1959:../Drivers/BSP/Components/vl53l0x/vl53l0x_api_core.c **** 		/* sigmaEstRef = 1mm * 25ms/final range integration time (inc pre-range)
1960:../Drivers/BSP/Components/vl53l0x/vl53l0x_api_core.c **** 		 * sqrt(FixPoint1616/int) = FixPoint2408)
1961:../Drivers/BSP/Components/vl53l0x/vl53l0x_api_core.c **** 		 */
1962:../Drivers/BSP/Components/vl53l0x/vl53l0x_api_core.c **** 		sigmaEstRef =
1963:../Drivers/BSP/Components/vl53l0x/vl53l0x_api_core.c **** 			VL53L0X_isqrt((cDfltFinalRangeIntegrationTimeMilliSecs +
1964:../Drivers/BSP/Components/vl53l0x/vl53l0x_api_core.c **** 				finalRangeIntegrationTimeMilliSecs/2)/
 3920              		.loc 1 1964 0
 3921 01de DB09     		lsrs	r3, r3, #7
1963:../Drivers/BSP/Components/vl53l0x/vl53l0x_api_core.c **** 				finalRangeIntegrationTimeMilliSecs/2)/
 3922              		.loc 1 1963 0
 3923 01e0 03F5C813 		add	r3, r3, #1638400
ARM GAS  /tmp/ccfCLKEL.s 			page 105


1962:../Drivers/BSP/Components/vl53l0x/vl53l0x_api_core.c **** 			VL53L0X_isqrt((cDfltFinalRangeIntegrationTimeMilliSecs +
 3924              		.loc 1 1962 0
 3925 01e4 B3FBF0F0 		udiv	r0, r3, r0
 3926              	.LVL741:
 3927 01e8 FFF7FEFF 		bl	VL53L0X_isqrt
 3928              	.LVL742:
1965:../Drivers/BSP/Components/vl53l0x/vl53l0x_api_core.c **** 				finalRangeIntegrationTimeMilliSecs);
1966:../Drivers/BSP/Components/vl53l0x/vl53l0x_api_core.c **** 
1967:../Drivers/BSP/Components/vl53l0x/vl53l0x_api_core.c **** 		/* FixPoint2408 << 8 = FixPoint1616 */
1968:../Drivers/BSP/Components/vl53l0x/vl53l0x_api_core.c **** 		sigmaEstRef <<= 8;
 3929              		.loc 1 1968 0
 3930 01ec 0002     		lsls	r0, r0, #8
 3931              	.LVL743:
1969:../Drivers/BSP/Components/vl53l0x/vl53l0x_api_core.c **** 		sigmaEstRef = (sigmaEstRef + 500)/1000;
 3932              		.loc 1 1969 0
 3933 01ee 00F5FA70 		add	r0, r0, #500
 3934              	.LVL744:
 3935 01f2 A8FB0030 		umull	r3, r0, r8, r0
 3936              	.LVL745:
 3937 01f6 8009     		lsrs	r0, r0, #6
 3938              	.LVL746:
1970:../Drivers/BSP/Components/vl53l0x/vl53l0x_api_core.c **** 
1971:../Drivers/BSP/Components/vl53l0x/vl53l0x_api_core.c **** 		/* FixPoint1616 * FixPoint1616 = FixPoint3232 */
1972:../Drivers/BSP/Components/vl53l0x/vl53l0x_api_core.c **** 		sqr1 = sigmaEstRtn * sigmaEstRtn;
1973:../Drivers/BSP/Components/vl53l0x/vl53l0x_api_core.c **** 		/* FixPoint1616 * FixPoint1616 = FixPoint3232 */
1974:../Drivers/BSP/Components/vl53l0x/vl53l0x_api_core.c **** 		sqr2 = sigmaEstRef * sigmaEstRef;
 3939              		.loc 1 1974 0
 3940 01f8 00FB00F0 		mul	r0, r0, r0
 3941              	.LVL747:
1975:../Drivers/BSP/Components/vl53l0x/vl53l0x_api_core.c **** 
1976:../Drivers/BSP/Components/vl53l0x/vl53l0x_api_core.c **** 		/* sqrt(FixPoint3232) = FixPoint1616 */
1977:../Drivers/BSP/Components/vl53l0x/vl53l0x_api_core.c **** 		sqrtResult = VL53L0X_isqrt((sqr1 + sqr2));
 3942              		.loc 1 1977 0
 3943 01fc 04FB0400 		mla	r0, r4, r4, r0
 3944              	.LVL748:
 3945 0200 FFF7FEFF 		bl	VL53L0X_isqrt
 3946              	.LVL749:
1978:../Drivers/BSP/Components/vl53l0x/vl53l0x_api_core.c **** 		/*
1979:../Drivers/BSP/Components/vl53l0x/vl53l0x_api_core.c **** 		 * Note that the Shift by 4 bits increases resolution prior to
1980:../Drivers/BSP/Components/vl53l0x/vl53l0x_api_core.c **** 		 * the sqrt, therefore the result must be shifted by 2 bits to
1981:../Drivers/BSP/Components/vl53l0x/vl53l0x_api_core.c **** 		 * the right to revert back to the FixPoint1616 format.
1982:../Drivers/BSP/Components/vl53l0x/vl53l0x_api_core.c **** 		 */
1983:../Drivers/BSP/Components/vl53l0x/vl53l0x_api_core.c **** 
1984:../Drivers/BSP/Components/vl53l0x/vl53l0x_api_core.c **** 		sigmaEstimate	 = 1000 * sqrtResult;
 3947              		.loc 1 1984 0
 3948 0204 4FF47A73 		mov	r3, #1000
 3949 0208 03FB00F0 		mul	r0, r3, r0
 3950              	.LVL750:
1985:../Drivers/BSP/Components/vl53l0x/vl53l0x_api_core.c **** 
1986:../Drivers/BSP/Components/vl53l0x/vl53l0x_api_core.c **** 		if ((peakSignalRate_kcps < 1) || (vcselTotalEventsRtn < 1) ||
 3951              		.loc 1 1986 0
 3952 020c 37B1     		cbz	r7, .L213
 3953              		.loc 1 1986 0 is_stmt 0 discriminator 1
 3954 020e BBF1000F 		cmp	fp, #0
 3955 0212 05D0     		beq	.L214
 3956              		.loc 1 1986 0 discriminator 2
 3957 0214 114B     		ldr	r3, .L217+4
ARM GAS  /tmp/ccfCLKEL.s 			page 106


 3958 0216 9842     		cmp	r0, r3
 3959 0218 04D8     		bhi	.L215
 3960 021a 04E0     		b	.L206
 3961              	.L213:
1987:../Drivers/BSP/Components/vl53l0x/vl53l0x_api_core.c **** 				(sigmaEstimate > cSigmaEstMax)) {
1988:../Drivers/BSP/Components/vl53l0x/vl53l0x_api_core.c **** 				sigmaEstimate = cSigmaEstMax;
 3962              		.loc 1 1988 0 is_stmt 1
 3963 021c 0F48     		ldr	r0, .L217+4
 3964              	.LVL751:
 3965 021e 02E0     		b	.L206
 3966              	.LVL752:
 3967              	.L214:
 3968 0220 0E48     		ldr	r0, .L217+4
 3969              	.LVL753:
 3970 0222 00E0     		b	.L206
 3971              	.LVL754:
 3972              	.L215:
 3973 0224 0D48     		ldr	r0, .L217+4
 3974              	.LVL755:
 3975              	.L206:
1989:../Drivers/BSP/Components/vl53l0x/vl53l0x_api_core.c **** 		}
1990:../Drivers/BSP/Components/vl53l0x/vl53l0x_api_core.c **** 
1991:../Drivers/BSP/Components/vl53l0x/vl53l0x_api_core.c **** 		*pSigmaEstimate = (uint32_t)(sigmaEstimate);
 3976              		.loc 1 1991 0
 3977 0226 049B     		ldr	r3, [sp, #16]
 3978 0228 1860     		str	r0, [r3]
1992:../Drivers/BSP/Components/vl53l0x/vl53l0x_api_core.c **** 		PALDevDataSet(Dev, SigmaEstimate, *pSigmaEstimate);
 3979              		.loc 1 1992 0
 3980 022a C6F84001 		str	r0, [r6, #320]
1993:../Drivers/BSP/Components/vl53l0x/vl53l0x_api_core.c **** 		Status = VL53L0X_calc_dmax(
 3981              		.loc 1 1993 0
 3982 022e 4FF44873 		mov	r3, #800
 3983              	.LVL756:
 3984 0232 0093     		str	r3, [sp]
 3985 0234 0195     		str	r5, [sp, #4]
 3986 0236 079B     		ldr	r3, [sp, #28]
 3987              	.LVL757:
 3988 0238 0293     		str	r3, [sp, #8]
 3989 023a 059B     		ldr	r3, [sp, #20]
 3990 023c 0393     		str	r3, [sp, #12]
 3991 023e 3046     		mov	r0, r6
 3992              	.LVL758:
 3993 0240 0A99     		ldr	r1, [sp, #40]
 3994 0242 069A     		ldr	r2, [sp, #24]
 3995 0244 4B46     		mov	r3, r9
 3996 0246 FFF7FEFF 		bl	VL53L0X_calc_dmax
 3997              	.LVL759:
 3998 024a 8246     		mov	r10, r0
 3999              	.LVL760:
 4000              	.L199:
1994:../Drivers/BSP/Components/vl53l0x/vl53l0x_api_core.c **** 			Dev,
1995:../Drivers/BSP/Components/vl53l0x/vl53l0x_api_core.c **** 			totalSignalRate_mcps,
1996:../Drivers/BSP/Components/vl53l0x/vl53l0x_api_core.c **** 			correctedSignalRate_mcps,
1997:../Drivers/BSP/Components/vl53l0x/vl53l0x_api_core.c **** 			pwMult,
1998:../Drivers/BSP/Components/vl53l0x/vl53l0x_api_core.c **** 			sigmaEstimateP1,
1999:../Drivers/BSP/Components/vl53l0x/vl53l0x_api_core.c **** 			sigmaEstimateP2,
2000:../Drivers/BSP/Components/vl53l0x/vl53l0x_api_core.c **** 			peakVcselDuration_us,
ARM GAS  /tmp/ccfCLKEL.s 			page 107


2001:../Drivers/BSP/Components/vl53l0x/vl53l0x_api_core.c **** 			pDmax_mm);
2002:../Drivers/BSP/Components/vl53l0x/vl53l0x_api_core.c **** 	}
2003:../Drivers/BSP/Components/vl53l0x/vl53l0x_api_core.c **** 
2004:../Drivers/BSP/Components/vl53l0x/vl53l0x_api_core.c **** 	LOG_FUNCTION_END(Status);
2005:../Drivers/BSP/Components/vl53l0x/vl53l0x_api_core.c **** 	return Status;
2006:../Drivers/BSP/Components/vl53l0x/vl53l0x_api_core.c **** }
 4001              		.loc 1 2006 0
 4002 024c 4FFA8AF0 		sxtb	r0, r10
 4003 0250 0DB0     		add	sp, sp, #52
 4004              	.LCFI45:
 4005              		.cfi_def_cfa_offset 36
 4006              		@ sp needed
 4007 0252 BDE8F08F 		pop	{r4, r5, r6, r7, r8, r9, r10, fp, pc}
 4008              	.LVL761:
 4009              	.L218:
 4010 0256 00BF     		.align	2
 4011              	.L217:
 4012 0258 D34D6210 		.word	274877907
 4013 025c AE878F02 		.word	42960814
 4014 0260 66666600 		.word	6710886
 4015 0264 9A990600 		.word	432538
 4016 0268 517BC637 		.word	935754577
 4017 026c 1F85EB51 		.word	1374389535
 4018 0270 5917B7D1 		.word	-776530087
 4019              		.cfi_endproc
 4020              	.LFE135:
 4022              		.section	.text.VL53L0X_get_pal_range_status,"ax",%progbits
 4023              		.align	2
 4024              		.global	VL53L0X_get_pal_range_status
 4025              		.thumb
 4026              		.thumb_func
 4028              	VL53L0X_get_pal_range_status:
 4029              	.LFB136:
2007:../Drivers/BSP/Components/vl53l0x/vl53l0x_api_core.c **** 
2008:../Drivers/BSP/Components/vl53l0x/vl53l0x_api_core.c **** VL53L0X_Error VL53L0X_get_pal_range_status(VL53L0X_DEV Dev,
2009:../Drivers/BSP/Components/vl53l0x/vl53l0x_api_core.c **** 		uint8_t DeviceRangeStatus,
2010:../Drivers/BSP/Components/vl53l0x/vl53l0x_api_core.c **** 		FixPoint1616_t SignalRate,
2011:../Drivers/BSP/Components/vl53l0x/vl53l0x_api_core.c **** 		uint16_t EffectiveSpadRtnCount,
2012:../Drivers/BSP/Components/vl53l0x/vl53l0x_api_core.c **** 		VL53L0X_RangingMeasurementData_t *pRangingMeasurementData,
2013:../Drivers/BSP/Components/vl53l0x/vl53l0x_api_core.c **** 		uint8_t *pPalRangeStatus)
2014:../Drivers/BSP/Components/vl53l0x/vl53l0x_api_core.c **** {
 4030              		.loc 1 2014 0
 4031              		.cfi_startproc
 4032              		@ args = 8, pretend = 0, frame = 32
 4033              		@ frame_needed = 0, uses_anonymous_args = 0
 4034              	.LVL762:
 4035 0000 2DE9F04F 		push	{r4, r5, r6, r7, r8, r9, r10, fp, lr}
 4036              	.LCFI46:
 4037              		.cfi_def_cfa_offset 36
 4038              		.cfi_offset 4, -36
 4039              		.cfi_offset 5, -32
 4040              		.cfi_offset 6, -28
 4041              		.cfi_offset 7, -24
 4042              		.cfi_offset 8, -20
 4043              		.cfi_offset 9, -16
 4044              		.cfi_offset 10, -12
 4045              		.cfi_offset 11, -8
ARM GAS  /tmp/ccfCLKEL.s 			page 108


 4046              		.cfi_offset 14, -4
 4047 0004 89B0     		sub	sp, sp, #36
 4048              	.LCFI47:
 4049              		.cfi_def_cfa_offset 72
 4050 0006 0446     		mov	r4, r0
 4051 0008 1746     		mov	r7, r2
 4052 000a 9946     		mov	r9, r3
 4053 000c 139E     		ldr	r6, [sp, #76]
 4054              	.LVL763:
2015:../Drivers/BSP/Components/vl53l0x/vl53l0x_api_core.c **** 	VL53L0X_Error Status = VL53L0X_ERROR_NONE;
2016:../Drivers/BSP/Components/vl53l0x/vl53l0x_api_core.c **** 	uint8_t NoneFlag;
2017:../Drivers/BSP/Components/vl53l0x/vl53l0x_api_core.c **** 	uint8_t SigmaLimitflag = 0;
2018:../Drivers/BSP/Components/vl53l0x/vl53l0x_api_core.c **** 	uint8_t SignalRefClipflag = 0;
2019:../Drivers/BSP/Components/vl53l0x/vl53l0x_api_core.c **** 	uint8_t RangeIgnoreThresholdflag = 0;
2020:../Drivers/BSP/Components/vl53l0x/vl53l0x_api_core.c **** 	uint8_t SigmaLimitCheckEnable = 0;
 4055              		.loc 1 2020 0
 4056 000e 0023     		movs	r3, #0
 4057              	.LVL764:
 4058 0010 8DF81F30 		strb	r3, [sp, #31]
2021:../Drivers/BSP/Components/vl53l0x/vl53l0x_api_core.c **** 	uint8_t SignalRateFinalRangeLimitCheckEnable = 0;
 4059              		.loc 1 2021 0
 4060 0014 8DF81E30 		strb	r3, [sp, #30]
2022:../Drivers/BSP/Components/vl53l0x/vl53l0x_api_core.c **** 	uint8_t SignalRefClipLimitCheckEnable = 0;
 4061              		.loc 1 2022 0
 4062 0018 8DF81D30 		strb	r3, [sp, #29]
2023:../Drivers/BSP/Components/vl53l0x/vl53l0x_api_core.c **** 	uint8_t RangeIgnoreThresholdLimitCheckEnable = 0;
 4063              		.loc 1 2023 0
 4064 001c 8DF81C30 		strb	r3, [sp, #28]
 4065              	.LVL765:
2024:../Drivers/BSP/Components/vl53l0x/vl53l0x_api_core.c **** 	FixPoint1616_t SigmaEstimate;
2025:../Drivers/BSP/Components/vl53l0x/vl53l0x_api_core.c **** 	FixPoint1616_t SigmaLimitValue;
2026:../Drivers/BSP/Components/vl53l0x/vl53l0x_api_core.c **** 	FixPoint1616_t SignalRefClipValue;
2027:../Drivers/BSP/Components/vl53l0x/vl53l0x_api_core.c **** 	FixPoint1616_t RangeIgnoreThresholdValue;
2028:../Drivers/BSP/Components/vl53l0x/vl53l0x_api_core.c **** 	FixPoint1616_t SignalRatePerSpad;
2029:../Drivers/BSP/Components/vl53l0x/vl53l0x_api_core.c **** 	uint8_t DeviceRangeStatusInternal = 0;
2030:../Drivers/BSP/Components/vl53l0x/vl53l0x_api_core.c **** 	uint16_t tmpWord = 0;
 4066              		.loc 1 2030 0
 4067 0020 ADF80A30 		strh	r3, [sp, #10]	@ movhi
2031:../Drivers/BSP/Components/vl53l0x/vl53l0x_api_core.c **** 	uint8_t Temp8;
2032:../Drivers/BSP/Components/vl53l0x/vl53l0x_api_core.c **** 	uint32_t Dmax_mm = 0;
 4068              		.loc 1 2032 0
 4069 0024 0193     		str	r3, [sp, #4]
2033:../Drivers/BSP/Components/vl53l0x/vl53l0x_api_core.c **** 	FixPoint1616_t LastSignalRefMcps;
2034:../Drivers/BSP/Components/vl53l0x/vl53l0x_api_core.c **** 
2035:../Drivers/BSP/Components/vl53l0x/vl53l0x_api_core.c **** 	LOG_FUNCTION_START("");
2036:../Drivers/BSP/Components/vl53l0x/vl53l0x_api_core.c **** 
2037:../Drivers/BSP/Components/vl53l0x/vl53l0x_api_core.c **** 
2038:../Drivers/BSP/Components/vl53l0x/vl53l0x_api_core.c **** 	/*
2039:../Drivers/BSP/Components/vl53l0x/vl53l0x_api_core.c **** 	 * VL53L0X has a good ranging when the value of the
2040:../Drivers/BSP/Components/vl53l0x/vl53l0x_api_core.c **** 	 * DeviceRangeStatus = 11. This function will replace the value 0 with
2041:../Drivers/BSP/Components/vl53l0x/vl53l0x_api_core.c **** 	 * the value 11 in the DeviceRangeStatus.
2042:../Drivers/BSP/Components/vl53l0x/vl53l0x_api_core.c **** 	 * In addition, the SigmaEstimator is not included in the VL53L0X
2043:../Drivers/BSP/Components/vl53l0x/vl53l0x_api_core.c **** 	 * DeviceRangeStatus, this will be added in the PalRangeStatus.
2044:../Drivers/BSP/Components/vl53l0x/vl53l0x_api_core.c **** 	 */
2045:../Drivers/BSP/Components/vl53l0x/vl53l0x_api_core.c **** 
2046:../Drivers/BSP/Components/vl53l0x/vl53l0x_api_core.c **** 	DeviceRangeStatusInternal = ((DeviceRangeStatus & 0x78) >> 3);
 4070              		.loc 1 2046 0
ARM GAS  /tmp/ccfCLKEL.s 			page 109


 4071 0026 C1F3C305 		ubfx	r5, r1, #3, #4
 4072              	.LVL766:
2047:../Drivers/BSP/Components/vl53l0x/vl53l0x_api_core.c **** 
2048:../Drivers/BSP/Components/vl53l0x/vl53l0x_api_core.c **** 	if (DeviceRangeStatusInternal == 0 ||
 4073              		.loc 1 2048 0
 4074 002a 75B1     		cbz	r5, .L247
 4075              		.loc 1 2048 0 is_stmt 0 discriminator 1
 4076 002c 052D     		cmp	r5, #5
 4077 002e 0FD0     		beq	.L248
2049:../Drivers/BSP/Components/vl53l0x/vl53l0x_api_core.c **** 		DeviceRangeStatusInternal == 5 ||
 4078              		.loc 1 2049 0 is_stmt 1
 4079 0030 072D     		cmp	r5, #7
 4080 0032 10D0     		beq	.L249
2050:../Drivers/BSP/Components/vl53l0x/vl53l0x_api_core.c **** 		DeviceRangeStatusInternal == 7 ||
 4081              		.loc 1 2050 0
 4082 0034 0C2D     		cmp	r5, #12
 4083 0036 11D0     		beq	.L250
2051:../Drivers/BSP/Components/vl53l0x/vl53l0x_api_core.c **** 		DeviceRangeStatusInternal == 12 ||
 4084              		.loc 1 2051 0
 4085 0038 0D2D     		cmp	r5, #13
 4086 003a 12D0     		beq	.L251
2052:../Drivers/BSP/Components/vl53l0x/vl53l0x_api_core.c **** 		DeviceRangeStatusInternal == 13 ||
 4087              		.loc 1 2052 0
 4088 003c 0E2D     		cmp	r5, #14
 4089 003e 13D0     		beq	.L252
2053:../Drivers/BSP/Components/vl53l0x/vl53l0x_api_core.c **** 		DeviceRangeStatusInternal == 14 ||
 4090              		.loc 1 2053 0
 4091 0040 0F2D     		cmp	r5, #15
 4092 0042 14D1     		bne	.L253
2054:../Drivers/BSP/Components/vl53l0x/vl53l0x_api_core.c **** 		DeviceRangeStatusInternal == 15
2055:../Drivers/BSP/Components/vl53l0x/vl53l0x_api_core.c **** 			) {
2056:../Drivers/BSP/Components/vl53l0x/vl53l0x_api_core.c **** 		NoneFlag = 1;
 4093              		.loc 1 2056 0
 4094 0044 4FF00108 		mov	r8, #1
 4095 0048 13E0     		b	.L220
 4096              	.L247:
 4097 004a 4FF00108 		mov	r8, #1
 4098 004e 10E0     		b	.L220
 4099              	.L248:
 4100 0050 4FF00108 		mov	r8, #1
 4101 0054 0DE0     		b	.L220
 4102              	.L249:
 4103 0056 4FF00108 		mov	r8, #1
 4104 005a 0AE0     		b	.L220
 4105              	.L250:
 4106 005c 4FF00108 		mov	r8, #1
 4107 0060 07E0     		b	.L220
 4108              	.L251:
 4109 0062 4FF00108 		mov	r8, #1
 4110 0066 04E0     		b	.L220
 4111              	.L252:
 4112 0068 4FF00108 		mov	r8, #1
 4113 006c 01E0     		b	.L220
 4114              	.L253:
2057:../Drivers/BSP/Components/vl53l0x/vl53l0x_api_core.c **** 	} else {
2058:../Drivers/BSP/Components/vl53l0x/vl53l0x_api_core.c **** 		NoneFlag = 0;
 4115              		.loc 1 2058 0
ARM GAS  /tmp/ccfCLKEL.s 			page 110


 4116 006e 4FF00008 		mov	r8, #0
 4117              	.L220:
 4118              	.LVL767:
2059:../Drivers/BSP/Components/vl53l0x/vl53l0x_api_core.c **** 	}
2060:../Drivers/BSP/Components/vl53l0x/vl53l0x_api_core.c **** 
2061:../Drivers/BSP/Components/vl53l0x/vl53l0x_api_core.c **** 	/*
2062:../Drivers/BSP/Components/vl53l0x/vl53l0x_api_core.c **** 	 * Check if Sigma limit is enabled, if yes then do comparison with limit
2063:../Drivers/BSP/Components/vl53l0x/vl53l0x_api_core.c **** 	 * value and put the result back into pPalRangeStatus.
2064:../Drivers/BSP/Components/vl53l0x/vl53l0x_api_core.c **** 	 */
2065:../Drivers/BSP/Components/vl53l0x/vl53l0x_api_core.c **** 	if (Status == VL53L0X_ERROR_NONE)
2066:../Drivers/BSP/Components/vl53l0x/vl53l0x_api_core.c **** 		Status =  VL53L0X_GetLimitCheckEnable(Dev,
 4119              		.loc 1 2066 0
 4120 0072 2046     		mov	r0, r4
 4121              	.LVL768:
 4122 0074 0021     		movs	r1, #0
 4123              	.LVL769:
 4124 0076 0DF11F02 		add	r2, sp, #31
 4125              	.LVL770:
 4126 007a FFF7FEFF 		bl	VL53L0X_GetLimitCheckEnable
 4127              	.LVL771:
 4128 007e 0346     		mov	r3, r0
 4129              	.LVL772:
2067:../Drivers/BSP/Components/vl53l0x/vl53l0x_api_core.c **** 			VL53L0X_CHECKENABLE_SIGMA_FINAL_RANGE,
2068:../Drivers/BSP/Components/vl53l0x/vl53l0x_api_core.c **** 			&SigmaLimitCheckEnable);
2069:../Drivers/BSP/Components/vl53l0x/vl53l0x_api_core.c **** 
2070:../Drivers/BSP/Components/vl53l0x/vl53l0x_api_core.c **** 	if ((SigmaLimitCheckEnable != 0) && (Status == VL53L0X_ERROR_NONE)) {
 4130              		.loc 1 2070 0
 4131 0080 9DF81F20 		ldrb	r2, [sp, #31]	@ zero_extendqisi2
 4132 0084 D2B1     		cbz	r2, .L254
 4133              		.loc 1 2070 0 is_stmt 0 discriminator 1
 4134 0086 E0B9     		cbnz	r0, .L255
2071:../Drivers/BSP/Components/vl53l0x/vl53l0x_api_core.c **** 		/*
2072:../Drivers/BSP/Components/vl53l0x/vl53l0x_api_core.c **** 		* compute the Sigma and check with limit
2073:../Drivers/BSP/Components/vl53l0x/vl53l0x_api_core.c **** 		*/
2074:../Drivers/BSP/Components/vl53l0x/vl53l0x_api_core.c **** 		Status = VL53L0X_calc_sigma_estimate(
 4135              		.loc 1 2074 0 is_stmt 1
 4136 0088 2046     		mov	r0, r4
 4137              	.LVL773:
 4138 008a 1299     		ldr	r1, [sp, #72]
 4139 008c 06AA     		add	r2, sp, #24
 4140 008e 01AB     		add	r3, sp, #4
 4141 0090 FFF7FEFF 		bl	VL53L0X_calc_sigma_estimate
 4142              	.LVL774:
2075:../Drivers/BSP/Components/vl53l0x/vl53l0x_api_core.c **** 			Dev,
2076:../Drivers/BSP/Components/vl53l0x/vl53l0x_api_core.c **** 			pRangingMeasurementData,
2077:../Drivers/BSP/Components/vl53l0x/vl53l0x_api_core.c **** 			&SigmaEstimate,
2078:../Drivers/BSP/Components/vl53l0x/vl53l0x_api_core.c **** 			&Dmax_mm);
2079:../Drivers/BSP/Components/vl53l0x/vl53l0x_api_core.c **** 		if (Status == VL53L0X_ERROR_NONE)
 4143              		.loc 1 2079 0
 4144 0094 0346     		mov	r3, r0
 4145 0096 10B9     		cbnz	r0, .L222
2080:../Drivers/BSP/Components/vl53l0x/vl53l0x_api_core.c **** 			pRangingMeasurementData->RangeDMaxMilliMeter = Dmax_mm;
 4146              		.loc 1 2080 0
 4147 0098 019A     		ldr	r2, [sp, #4]
 4148 009a 1299     		ldr	r1, [sp, #72]
 4149 009c 4A81     		strh	r2, [r1, #10]	@ movhi
 4150              	.L222:
ARM GAS  /tmp/ccfCLKEL.s 			page 111


2081:../Drivers/BSP/Components/vl53l0x/vl53l0x_api_core.c **** 
2082:../Drivers/BSP/Components/vl53l0x/vl53l0x_api_core.c **** 		if (Status == VL53L0X_ERROR_NONE) {
 4151              		.loc 1 2082 0
 4152 009e 9BB9     		cbnz	r3, .L256
2083:../Drivers/BSP/Components/vl53l0x/vl53l0x_api_core.c **** 			Status = VL53L0X_GetLimitCheckValue(Dev,
 4153              		.loc 1 2083 0
 4154 00a0 2046     		mov	r0, r4
 4155              	.LVL775:
 4156 00a2 0021     		movs	r1, #0
 4157 00a4 05AA     		add	r2, sp, #20
 4158 00a6 FFF7FEFF 		bl	VL53L0X_GetLimitCheckValue
 4159              	.LVL776:
 4160 00aa 0346     		mov	r3, r0
 4161              	.LVL777:
2084:../Drivers/BSP/Components/vl53l0x/vl53l0x_api_core.c **** 				VL53L0X_CHECKENABLE_SIGMA_FINAL_RANGE,
2085:../Drivers/BSP/Components/vl53l0x/vl53l0x_api_core.c **** 				&SigmaLimitValue);
2086:../Drivers/BSP/Components/vl53l0x/vl53l0x_api_core.c **** 
2087:../Drivers/BSP/Components/vl53l0x/vl53l0x_api_core.c **** 			if ((SigmaLimitValue > 0) &&
 4162              		.loc 1 2087 0
 4163 00ac 059A     		ldr	r2, [sp, #20]
 4164 00ae 72B1     		cbz	r2, .L257
2088:../Drivers/BSP/Components/vl53l0x/vl53l0x_api_core.c **** 				(SigmaEstimate > SigmaLimitValue))
 4165              		.loc 1 2088 0 discriminator 1
 4166 00b0 0699     		ldr	r1, [sp, #24]
2087:../Drivers/BSP/Components/vl53l0x/vl53l0x_api_core.c **** 				(SigmaEstimate > SigmaLimitValue))
 4167              		.loc 1 2087 0 discriminator 1
 4168 00b2 8A42     		cmp	r2, r1
 4169 00b4 0ED3     		bcc	.L258
2017:../Drivers/BSP/Components/vl53l0x/vl53l0x_api_core.c **** 	uint8_t SignalRefClipflag = 0;
 4170              		.loc 1 2017 0
 4171 00b6 4FF0000B 		mov	fp, #0
 4172 00ba 0DE0     		b	.L221
 4173              	.LVL778:
 4174              	.L254:
 4175 00bc 4FF0000B 		mov	fp, #0
 4176 00c0 0AE0     		b	.L221
 4177              	.L255:
 4178 00c2 4FF0000B 		mov	fp, #0
 4179 00c6 07E0     		b	.L221
 4180              	.L256:
 4181 00c8 4FF0000B 		mov	fp, #0
 4182 00cc 04E0     		b	.L221
 4183              	.LVL779:
 4184              	.L257:
 4185 00ce 4FF0000B 		mov	fp, #0
 4186 00d2 01E0     		b	.L221
 4187              	.L258:
2089:../Drivers/BSP/Components/vl53l0x/vl53l0x_api_core.c **** 					/* Limit Fail */
2090:../Drivers/BSP/Components/vl53l0x/vl53l0x_api_core.c **** 					SigmaLimitflag = 1;
 4188              		.loc 1 2090 0
 4189 00d4 4FF0010B 		mov	fp, #1
 4190              	.LVL780:
 4191              	.L221:
2091:../Drivers/BSP/Components/vl53l0x/vl53l0x_api_core.c **** 		}
2092:../Drivers/BSP/Components/vl53l0x/vl53l0x_api_core.c **** 	}
2093:../Drivers/BSP/Components/vl53l0x/vl53l0x_api_core.c **** 
2094:../Drivers/BSP/Components/vl53l0x/vl53l0x_api_core.c **** 	/*
ARM GAS  /tmp/ccfCLKEL.s 			page 112


2095:../Drivers/BSP/Components/vl53l0x/vl53l0x_api_core.c **** 	 * Check if Signal ref clip limit is enabled, if yes then do comparison
2096:../Drivers/BSP/Components/vl53l0x/vl53l0x_api_core.c **** 	 * with limit value and put the result back into pPalRangeStatus.
2097:../Drivers/BSP/Components/vl53l0x/vl53l0x_api_core.c **** 	 */
2098:../Drivers/BSP/Components/vl53l0x/vl53l0x_api_core.c **** 	if (Status == VL53L0X_ERROR_NONE)
 4192              		.loc 1 2098 0
 4193 00d8 33B9     		cbnz	r3, .L223
2099:../Drivers/BSP/Components/vl53l0x/vl53l0x_api_core.c **** 		Status =  VL53L0X_GetLimitCheckEnable(Dev,
 4194              		.loc 1 2099 0
 4195 00da 2046     		mov	r0, r4
 4196 00dc 0221     		movs	r1, #2
 4197 00de 0DF11D02 		add	r2, sp, #29
 4198 00e2 FFF7FEFF 		bl	VL53L0X_GetLimitCheckEnable
 4199              	.LVL781:
 4200 00e6 0346     		mov	r3, r0
 4201              	.LVL782:
 4202              	.L223:
2100:../Drivers/BSP/Components/vl53l0x/vl53l0x_api_core.c **** 				VL53L0X_CHECKENABLE_SIGNAL_REF_CLIP,
2101:../Drivers/BSP/Components/vl53l0x/vl53l0x_api_core.c **** 				&SignalRefClipLimitCheckEnable);
2102:../Drivers/BSP/Components/vl53l0x/vl53l0x_api_core.c **** 
2103:../Drivers/BSP/Components/vl53l0x/vl53l0x_api_core.c **** 	if ((SignalRefClipLimitCheckEnable != 0) &&
 4203              		.loc 1 2103 0
 4204 00e8 9DF81D20 		ldrb	r2, [sp, #29]	@ zero_extendqisi2
 4205 00ec 42B3     		cbz	r2, .L259
 4206              		.loc 1 2103 0 is_stmt 0 discriminator 1
 4207 00ee 53BB     		cbnz	r3, .L260
2104:../Drivers/BSP/Components/vl53l0x/vl53l0x_api_core.c **** 			(Status == VL53L0X_ERROR_NONE)) {
2105:../Drivers/BSP/Components/vl53l0x/vl53l0x_api_core.c **** 
2106:../Drivers/BSP/Components/vl53l0x/vl53l0x_api_core.c **** 		Status = VL53L0X_GetLimitCheckValue(Dev,
 4208              		.loc 1 2106 0 is_stmt 1
 4209 00f0 2046     		mov	r0, r4
 4210 00f2 0221     		movs	r1, #2
 4211 00f4 04AA     		add	r2, sp, #16
 4212 00f6 FFF7FEFF 		bl	VL53L0X_GetLimitCheckValue
 4213              	.LVL783:
2107:../Drivers/BSP/Components/vl53l0x/vl53l0x_api_core.c **** 				VL53L0X_CHECKENABLE_SIGNAL_REF_CLIP,
2108:../Drivers/BSP/Components/vl53l0x/vl53l0x_api_core.c **** 				&SignalRefClipValue);
2109:../Drivers/BSP/Components/vl53l0x/vl53l0x_api_core.c **** 
2110:../Drivers/BSP/Components/vl53l0x/vl53l0x_api_core.c **** 		/* Read LastSignalRefMcps from device */
2111:../Drivers/BSP/Components/vl53l0x/vl53l0x_api_core.c **** 		if (Status == VL53L0X_ERROR_NONE)
 4214              		.loc 1 2111 0
 4215 00fa 0346     		mov	r3, r0
 4216 00fc 28B9     		cbnz	r0, .L225
2112:../Drivers/BSP/Components/vl53l0x/vl53l0x_api_core.c **** 			Status = VL53L0X_WrByte(Dev, 0xFF, 0x01);
 4217              		.loc 1 2112 0
 4218 00fe 2046     		mov	r0, r4
 4219              	.LVL784:
 4220 0100 FF21     		movs	r1, #255
 4221 0102 0122     		movs	r2, #1
 4222 0104 FFF7FEFF 		bl	VL53L0X_WrByte
 4223              	.LVL785:
 4224 0108 0346     		mov	r3, r0
 4225              	.LVL786:
 4226              	.L225:
2113:../Drivers/BSP/Components/vl53l0x/vl53l0x_api_core.c **** 
2114:../Drivers/BSP/Components/vl53l0x/vl53l0x_api_core.c **** 		if (Status == VL53L0X_ERROR_NONE)
 4227              		.loc 1 2114 0
 4228 010a 33B9     		cbnz	r3, .L226
ARM GAS  /tmp/ccfCLKEL.s 			page 113


2115:../Drivers/BSP/Components/vl53l0x/vl53l0x_api_core.c **** 			Status = VL53L0X_RdWord(Dev,
 4229              		.loc 1 2115 0
 4230 010c 2046     		mov	r0, r4
 4231 010e B621     		movs	r1, #182
 4232 0110 0DF10A02 		add	r2, sp, #10
 4233 0114 FFF7FEFF 		bl	VL53L0X_RdWord
 4234              	.LVL787:
 4235 0118 0346     		mov	r3, r0
 4236              	.LVL788:
 4237              	.L226:
2116:../Drivers/BSP/Components/vl53l0x/vl53l0x_api_core.c **** 				VL53L0X_REG_RESULT_PEAK_SIGNAL_RATE_REF,
2117:../Drivers/BSP/Components/vl53l0x/vl53l0x_api_core.c **** 				&tmpWord);
2118:../Drivers/BSP/Components/vl53l0x/vl53l0x_api_core.c **** 
2119:../Drivers/BSP/Components/vl53l0x/vl53l0x_api_core.c **** 		if (Status == VL53L0X_ERROR_NONE)
 4238              		.loc 1 2119 0
 4239 011a 2BB9     		cbnz	r3, .L227
2120:../Drivers/BSP/Components/vl53l0x/vl53l0x_api_core.c **** 			Status = VL53L0X_WrByte(Dev, 0xFF, 0x00);
 4240              		.loc 1 2120 0
 4241 011c 2046     		mov	r0, r4
 4242 011e FF21     		movs	r1, #255
 4243 0120 0022     		movs	r2, #0
 4244 0122 FFF7FEFF 		bl	VL53L0X_WrByte
 4245              	.LVL789:
 4246 0126 0346     		mov	r3, r0
 4247              	.LVL790:
 4248              	.L227:
2121:../Drivers/BSP/Components/vl53l0x/vl53l0x_api_core.c **** 
2122:../Drivers/BSP/Components/vl53l0x/vl53l0x_api_core.c **** 		LastSignalRefMcps = VL53L0X_FIXPOINT97TOFIXPOINT1616(tmpWord);
 4249              		.loc 1 2122 0
 4250 0128 BDF80A20 		ldrh	r2, [sp, #10]
 4251 012c 5202     		lsls	r2, r2, #9
 4252              	.LVL791:
2123:../Drivers/BSP/Components/vl53l0x/vl53l0x_api_core.c **** 		PALDevDataSet(Dev, LastSignalRefMcps, LastSignalRefMcps);
 4253              		.loc 1 2123 0
 4254 012e C4F84821 		str	r2, [r4, #328]
2124:../Drivers/BSP/Components/vl53l0x/vl53l0x_api_core.c **** 
2125:../Drivers/BSP/Components/vl53l0x/vl53l0x_api_core.c **** 		if ((SignalRefClipValue > 0) &&
 4255              		.loc 1 2125 0
 4256 0132 0499     		ldr	r1, [sp, #16]
 4257 0134 51B1     		cbz	r1, .L261
 4258              		.loc 1 2125 0 is_stmt 0 discriminator 1
 4259 0136 8A42     		cmp	r2, r1
 4260 0138 0BD8     		bhi	.L262
2018:../Drivers/BSP/Components/vl53l0x/vl53l0x_api_core.c **** 	uint8_t RangeIgnoreThresholdflag = 0;
 4261              		.loc 1 2018 0 is_stmt 1
 4262 013a 4FF0000A 		mov	r10, #0
 4263 013e 0AE0     		b	.L224
 4264              	.LVL792:
 4265              	.L259:
 4266 0140 4FF0000A 		mov	r10, #0
 4267 0144 07E0     		b	.L224
 4268              	.L260:
 4269 0146 4FF0000A 		mov	r10, #0
 4270 014a 04E0     		b	.L224
 4271              	.LVL793:
 4272              	.L261:
 4273 014c 4FF0000A 		mov	r10, #0
ARM GAS  /tmp/ccfCLKEL.s 			page 114


 4274 0150 01E0     		b	.L224
 4275              	.L262:
2126:../Drivers/BSP/Components/vl53l0x/vl53l0x_api_core.c **** 				(LastSignalRefMcps > SignalRefClipValue)) {
2127:../Drivers/BSP/Components/vl53l0x/vl53l0x_api_core.c **** 			/* Limit Fail */
2128:../Drivers/BSP/Components/vl53l0x/vl53l0x_api_core.c **** 			SignalRefClipflag = 1;
 4276              		.loc 1 2128 0
 4277 0152 4FF0010A 		mov	r10, #1
 4278              	.LVL794:
 4279              	.L224:
2129:../Drivers/BSP/Components/vl53l0x/vl53l0x_api_core.c **** 		}
2130:../Drivers/BSP/Components/vl53l0x/vl53l0x_api_core.c **** 	}
2131:../Drivers/BSP/Components/vl53l0x/vl53l0x_api_core.c **** 
2132:../Drivers/BSP/Components/vl53l0x/vl53l0x_api_core.c **** 	/*
2133:../Drivers/BSP/Components/vl53l0x/vl53l0x_api_core.c **** 	 * Check if Signal ref clip limit is enabled, if yes then do comparison
2134:../Drivers/BSP/Components/vl53l0x/vl53l0x_api_core.c **** 	 * with limit value and put the result back into pPalRangeStatus.
2135:../Drivers/BSP/Components/vl53l0x/vl53l0x_api_core.c **** 	 * EffectiveSpadRtnCount has a format 8.8
2136:../Drivers/BSP/Components/vl53l0x/vl53l0x_api_core.c **** 	 * If (Return signal rate < (1.5 x Xtalk x number of Spads)) : FAIL
2137:../Drivers/BSP/Components/vl53l0x/vl53l0x_api_core.c **** 	 */
2138:../Drivers/BSP/Components/vl53l0x/vl53l0x_api_core.c **** 	if (Status == VL53L0X_ERROR_NONE)
 4280              		.loc 1 2138 0
 4281 0156 2BB9     		cbnz	r3, .L228
2139:../Drivers/BSP/Components/vl53l0x/vl53l0x_api_core.c **** 		Status =  VL53L0X_GetLimitCheckEnable(Dev,
 4282              		.loc 1 2139 0
 4283 0158 2046     		mov	r0, r4
 4284 015a 0321     		movs	r1, #3
 4285 015c 07AA     		add	r2, sp, #28
 4286 015e FFF7FEFF 		bl	VL53L0X_GetLimitCheckEnable
 4287              	.LVL795:
 4288 0162 0346     		mov	r3, r0
 4289              	.LVL796:
 4290              	.L228:
2140:../Drivers/BSP/Components/vl53l0x/vl53l0x_api_core.c **** 				VL53L0X_CHECKENABLE_RANGE_IGNORE_THRESHOLD,
2141:../Drivers/BSP/Components/vl53l0x/vl53l0x_api_core.c **** 				&RangeIgnoreThresholdLimitCheckEnable);
2142:../Drivers/BSP/Components/vl53l0x/vl53l0x_api_core.c **** 
2143:../Drivers/BSP/Components/vl53l0x/vl53l0x_api_core.c **** 	if ((RangeIgnoreThresholdLimitCheckEnable != 0) &&
 4291              		.loc 1 2143 0
 4292 0164 9DF81C20 		ldrb	r2, [sp, #28]	@ zero_extendqisi2
 4293 0168 AAB1     		cbz	r2, .L263
 4294              		.loc 1 2143 0 is_stmt 0 discriminator 1
 4295 016a B3B9     		cbnz	r3, .L264
2144:../Drivers/BSP/Components/vl53l0x/vl53l0x_api_core.c **** 			(Status == VL53L0X_ERROR_NONE)) {
2145:../Drivers/BSP/Components/vl53l0x/vl53l0x_api_core.c **** 
2146:../Drivers/BSP/Components/vl53l0x/vl53l0x_api_core.c **** 		/* Compute the signal rate per spad */
2147:../Drivers/BSP/Components/vl53l0x/vl53l0x_api_core.c **** 		if (EffectiveSpadRtnCount == 0) {
 4296              		.loc 1 2147 0 is_stmt 1
 4297 016c B9F1000F 		cmp	r9, #0
 4298 0170 03D0     		beq	.L265
2148:../Drivers/BSP/Components/vl53l0x/vl53l0x_api_core.c **** 			SignalRatePerSpad = 0;
2149:../Drivers/BSP/Components/vl53l0x/vl53l0x_api_core.c **** 		} else {
2150:../Drivers/BSP/Components/vl53l0x/vl53l0x_api_core.c **** 			SignalRatePerSpad = (FixPoint1616_t)((256 * SignalRate)
 4299              		.loc 1 2150 0
 4300 0172 3F02     		lsls	r7, r7, #8
 4301              	.LVL797:
 4302 0174 B7FBF9F9 		udiv	r9, r7, r9
 4303              	.LVL798:
 4304 0178 01E0     		b	.L230
 4305              	.LVL799:
ARM GAS  /tmp/ccfCLKEL.s 			page 115


 4306              	.L265:
2148:../Drivers/BSP/Components/vl53l0x/vl53l0x_api_core.c **** 			SignalRatePerSpad = 0;
 4307              		.loc 1 2148 0
 4308 017a 4FF00009 		mov	r9, #0
 4309              	.LVL800:
 4310              	.L230:
2151:../Drivers/BSP/Components/vl53l0x/vl53l0x_api_core.c **** 				/ EffectiveSpadRtnCount);
2152:../Drivers/BSP/Components/vl53l0x/vl53l0x_api_core.c **** 		}
2153:../Drivers/BSP/Components/vl53l0x/vl53l0x_api_core.c **** 
2154:../Drivers/BSP/Components/vl53l0x/vl53l0x_api_core.c **** 		Status = VL53L0X_GetLimitCheckValue(Dev,
 4311              		.loc 1 2154 0
 4312 017e 2046     		mov	r0, r4
 4313 0180 0321     		movs	r1, #3
 4314 0182 03AA     		add	r2, sp, #12
 4315 0184 FFF7FEFF 		bl	VL53L0X_GetLimitCheckValue
 4316              	.LVL801:
 4317 0188 0346     		mov	r3, r0
 4318              	.LVL802:
2155:../Drivers/BSP/Components/vl53l0x/vl53l0x_api_core.c **** 				VL53L0X_CHECKENABLE_RANGE_IGNORE_THRESHOLD,
2156:../Drivers/BSP/Components/vl53l0x/vl53l0x_api_core.c **** 				&RangeIgnoreThresholdValue);
2157:../Drivers/BSP/Components/vl53l0x/vl53l0x_api_core.c **** 
2158:../Drivers/BSP/Components/vl53l0x/vl53l0x_api_core.c **** 		if ((RangeIgnoreThresholdValue > 0) &&
 4319              		.loc 1 2158 0
 4320 018a 039A     		ldr	r2, [sp, #12]
 4321 018c 3AB1     		cbz	r2, .L266
 4322              		.loc 1 2158 0 is_stmt 0 discriminator 1
 4323 018e 9145     		cmp	r9, r2
 4324 0190 07D3     		bcc	.L267
2019:../Drivers/BSP/Components/vl53l0x/vl53l0x_api_core.c **** 	uint8_t SigmaLimitCheckEnable = 0;
 4325              		.loc 1 2019 0 is_stmt 1
 4326 0192 0027     		movs	r7, #0
 4327 0194 06E0     		b	.L229
 4328              	.LVL803:
 4329              	.L263:
 4330 0196 0027     		movs	r7, #0
 4331              	.LVL804:
 4332 0198 04E0     		b	.L229
 4333              	.LVL805:
 4334              	.L264:
 4335 019a 0027     		movs	r7, #0
 4336              	.LVL806:
 4337 019c 02E0     		b	.L229
 4338              	.LVL807:
 4339              	.L266:
 4340 019e 0027     		movs	r7, #0
 4341 01a0 00E0     		b	.L229
 4342              	.L267:
2159:../Drivers/BSP/Components/vl53l0x/vl53l0x_api_core.c **** 			(SignalRatePerSpad < RangeIgnoreThresholdValue)) {
2160:../Drivers/BSP/Components/vl53l0x/vl53l0x_api_core.c **** 			/* Limit Fail add 2^6 to range status */
2161:../Drivers/BSP/Components/vl53l0x/vl53l0x_api_core.c **** 			RangeIgnoreThresholdflag = 1;
 4343              		.loc 1 2161 0
 4344 01a2 0127     		movs	r7, #1
 4345              	.LVL808:
 4346              	.L229:
2162:../Drivers/BSP/Components/vl53l0x/vl53l0x_api_core.c **** 		}
2163:../Drivers/BSP/Components/vl53l0x/vl53l0x_api_core.c **** 	}
2164:../Drivers/BSP/Components/vl53l0x/vl53l0x_api_core.c **** 
ARM GAS  /tmp/ccfCLKEL.s 			page 116


2165:../Drivers/BSP/Components/vl53l0x/vl53l0x_api_core.c **** 	if (Status == VL53L0X_ERROR_NONE) {
 4347              		.loc 1 2165 0
 4348 01a4 5BBB     		cbnz	r3, .L231
2166:../Drivers/BSP/Components/vl53l0x/vl53l0x_api_core.c **** 		if (NoneFlag == 1) {
 4349              		.loc 1 2166 0
 4350 01a6 B8F1000F 		cmp	r8, #0
 4351 01aa 02D0     		beq	.L232
2167:../Drivers/BSP/Components/vl53l0x/vl53l0x_api_core.c **** 			*pPalRangeStatus = 255;	 /* NONE */
 4352              		.loc 1 2167 0
 4353 01ac FF23     		movs	r3, #255
 4354              	.LVL809:
 4355 01ae 3370     		strb	r3, [r6]
 4356 01b0 25E0     		b	.L231
 4357              	.LVL810:
 4358              	.L232:
2168:../Drivers/BSP/Components/vl53l0x/vl53l0x_api_core.c **** 		} else if (DeviceRangeStatusInternal == 1 ||
2169:../Drivers/BSP/Components/vl53l0x/vl53l0x_api_core.c **** 					DeviceRangeStatusInternal == 2 ||
 4359              		.loc 1 2169 0
 4360 01b2 6B1E     		subs	r3, r5, #1
 4361              	.LVL811:
 4362 01b4 DBB2     		uxtb	r3, r3
2168:../Drivers/BSP/Components/vl53l0x/vl53l0x_api_core.c **** 		} else if (DeviceRangeStatusInternal == 1 ||
 4363              		.loc 1 2168 0
 4364 01b6 022B     		cmp	r3, #2
 4365 01b8 02D8     		bhi	.L233
2170:../Drivers/BSP/Components/vl53l0x/vl53l0x_api_core.c **** 					DeviceRangeStatusInternal == 3) {
2171:../Drivers/BSP/Components/vl53l0x/vl53l0x_api_core.c **** 			*pPalRangeStatus = 5; /* HW fail */
 4366              		.loc 1 2171 0
 4367 01ba 0523     		movs	r3, #5
 4368 01bc 3370     		strb	r3, [r6]
 4369 01be 1EE0     		b	.L231
 4370              	.L233:
2172:../Drivers/BSP/Components/vl53l0x/vl53l0x_api_core.c **** 		} else if (DeviceRangeStatusInternal == 6 ||
 4371              		.loc 1 2172 0
 4372 01c0 062D     		cmp	r5, #6
 4373 01c2 01D0     		beq	.L234
 4374              		.loc 1 2172 0 is_stmt 0 discriminator 1
 4375 01c4 092D     		cmp	r5, #9
 4376 01c6 02D1     		bne	.L235
 4377              	.L234:
2173:../Drivers/BSP/Components/vl53l0x/vl53l0x_api_core.c **** 					DeviceRangeStatusInternal == 9) {
2174:../Drivers/BSP/Components/vl53l0x/vl53l0x_api_core.c **** 			*pPalRangeStatus = 4;  /* Phase fail */
 4378              		.loc 1 2174 0 is_stmt 1
 4379 01c8 0423     		movs	r3, #4
 4380 01ca 3370     		strb	r3, [r6]
 4381 01cc 17E0     		b	.L231
 4382              	.L235:
2175:../Drivers/BSP/Components/vl53l0x/vl53l0x_api_core.c **** 		} else if (DeviceRangeStatusInternal == 8 ||
 4383              		.loc 1 2175 0
 4384 01ce 082D     		cmp	r5, #8
 4385 01d0 04D0     		beq	.L236
 4386              		.loc 1 2175 0 is_stmt 0 discriminator 1
 4387 01d2 0A2D     		cmp	r5, #10
 4388 01d4 02D0     		beq	.L236
2176:../Drivers/BSP/Components/vl53l0x/vl53l0x_api_core.c **** 					DeviceRangeStatusInternal == 10 ||
 4389              		.loc 1 2176 0 is_stmt 1
 4390 01d6 BAF1000F 		cmp	r10, #0
ARM GAS  /tmp/ccfCLKEL.s 			page 117


 4391 01da 02D0     		beq	.L237
 4392              	.L236:
2177:../Drivers/BSP/Components/vl53l0x/vl53l0x_api_core.c **** 					SignalRefClipflag == 1) {
2178:../Drivers/BSP/Components/vl53l0x/vl53l0x_api_core.c **** 			*pPalRangeStatus = 3;  /* Min range */
 4393              		.loc 1 2178 0
 4394 01dc 0323     		movs	r3, #3
 4395 01de 3370     		strb	r3, [r6]
 4396 01e0 0DE0     		b	.L231
 4397              	.L237:
2179:../Drivers/BSP/Components/vl53l0x/vl53l0x_api_core.c **** 		} else if (DeviceRangeStatusInternal == 4 ||
 4398              		.loc 1 2179 0
 4399 01e2 042D     		cmp	r5, #4
 4400 01e4 00D0     		beq	.L238
 4401              		.loc 1 2179 0 is_stmt 0 discriminator 1
 4402 01e6 17B1     		cbz	r7, .L239
 4403              	.L238:
2180:../Drivers/BSP/Components/vl53l0x/vl53l0x_api_core.c **** 					RangeIgnoreThresholdflag == 1) {
2181:../Drivers/BSP/Components/vl53l0x/vl53l0x_api_core.c **** 			*pPalRangeStatus = 2;  /* Signal Fail */
 4404              		.loc 1 2181 0 is_stmt 1
 4405 01e8 0223     		movs	r3, #2
 4406 01ea 3370     		strb	r3, [r6]
 4407 01ec 07E0     		b	.L231
 4408              	.L239:
2182:../Drivers/BSP/Components/vl53l0x/vl53l0x_api_core.c **** 		} else if (SigmaLimitflag == 1) {
 4409              		.loc 1 2182 0
 4410 01ee BBF1000F 		cmp	fp, #0
 4411 01f2 02D0     		beq	.L240
2183:../Drivers/BSP/Components/vl53l0x/vl53l0x_api_core.c **** 			*pPalRangeStatus = 1;  /* Sigma	 Fail */
 4412              		.loc 1 2183 0
 4413 01f4 0123     		movs	r3, #1
 4414 01f6 3370     		strb	r3, [r6]
 4415 01f8 01E0     		b	.L231
 4416              	.L240:
2184:../Drivers/BSP/Components/vl53l0x/vl53l0x_api_core.c **** 		} else {
2185:../Drivers/BSP/Components/vl53l0x/vl53l0x_api_core.c **** 			*pPalRangeStatus = 0; /* Range Valid */
 4417              		.loc 1 2185 0
 4418 01fa 0023     		movs	r3, #0
 4419 01fc 3370     		strb	r3, [r6]
 4420              	.L231:
2186:../Drivers/BSP/Components/vl53l0x/vl53l0x_api_core.c **** 		}
2187:../Drivers/BSP/Components/vl53l0x/vl53l0x_api_core.c **** 	}
2188:../Drivers/BSP/Components/vl53l0x/vl53l0x_api_core.c **** 
2189:../Drivers/BSP/Components/vl53l0x/vl53l0x_api_core.c **** 	/* DMAX only relevant during range error */
2190:../Drivers/BSP/Components/vl53l0x/vl53l0x_api_core.c **** 	if (*pPalRangeStatus == 0)
 4421              		.loc 1 2190 0
 4422 01fe 3378     		ldrb	r3, [r6]	@ zero_extendqisi2
 4423 0200 0BB9     		cbnz	r3, .L241
2191:../Drivers/BSP/Components/vl53l0x/vl53l0x_api_core.c **** 		pRangingMeasurementData->RangeDMaxMilliMeter = 0;
 4424              		.loc 1 2191 0
 4425 0202 129A     		ldr	r2, [sp, #72]
 4426 0204 5381     		strh	r3, [r2, #10]	@ movhi
 4427              	.L241:
2192:../Drivers/BSP/Components/vl53l0x/vl53l0x_api_core.c **** 
2193:../Drivers/BSP/Components/vl53l0x/vl53l0x_api_core.c **** 	/* fill the Limit Check Status */
2194:../Drivers/BSP/Components/vl53l0x/vl53l0x_api_core.c **** 
2195:../Drivers/BSP/Components/vl53l0x/vl53l0x_api_core.c **** 	Status =  VL53L0X_GetLimitCheckEnable(Dev,
 4428              		.loc 1 2195 0
ARM GAS  /tmp/ccfCLKEL.s 			page 118


 4429 0206 2046     		mov	r0, r4
 4430 0208 0121     		movs	r1, #1
 4431 020a 0DF11E02 		add	r2, sp, #30
 4432 020e FFF7FEFF 		bl	VL53L0X_GetLimitCheckEnable
 4433              	.LVL812:
2196:../Drivers/BSP/Components/vl53l0x/vl53l0x_api_core.c **** 			VL53L0X_CHECKENABLE_SIGNAL_RATE_FINAL_RANGE,
2197:../Drivers/BSP/Components/vl53l0x/vl53l0x_api_core.c **** 			&SignalRateFinalRangeLimitCheckEnable);
2198:../Drivers/BSP/Components/vl53l0x/vl53l0x_api_core.c **** 
2199:../Drivers/BSP/Components/vl53l0x/vl53l0x_api_core.c **** 	if (Status == VL53L0X_ERROR_NONE) {
 4434              		.loc 1 2199 0
 4435 0212 0346     		mov	r3, r0
 4436 0214 80BB     		cbnz	r0, .L242
2200:../Drivers/BSP/Components/vl53l0x/vl53l0x_api_core.c **** 		if ((SigmaLimitCheckEnable == 0) || (SigmaLimitflag == 1))
 4437              		.loc 1 2200 0
 4438 0216 9DF81F20 		ldrb	r2, [sp, #31]	@ zero_extendqisi2
 4439 021a 22B1     		cbz	r2, .L268
 4440              		.loc 1 2200 0 is_stmt 0 discriminator 1
 4441 021c BBF1000F 		cmp	fp, #0
 4442 0220 03D0     		beq	.L269
2201:../Drivers/BSP/Components/vl53l0x/vl53l0x_api_core.c **** 			Temp8 = 1;
 4443              		.loc 1 2201 0 is_stmt 1
 4444 0222 0122     		movs	r2, #1
 4445 0224 02E0     		b	.L243
 4446              	.L268:
 4447 0226 0122     		movs	r2, #1
 4448 0228 00E0     		b	.L243
 4449              	.L269:
2202:../Drivers/BSP/Components/vl53l0x/vl53l0x_api_core.c **** 		else
2203:../Drivers/BSP/Components/vl53l0x/vl53l0x_api_core.c **** 			Temp8 = 0;
 4450              		.loc 1 2203 0
 4451 022a 0022     		movs	r2, #0
 4452              	.L243:
 4453              	.LVL813:
2204:../Drivers/BSP/Components/vl53l0x/vl53l0x_api_core.c **** 		VL53L0X_SETARRAYPARAMETERFIELD(Dev, LimitChecksStatus,
 4454              		.loc 1 2204 0
 4455 022c 84F82E20 		strb	r2, [r4, #46]
2205:../Drivers/BSP/Components/vl53l0x/vl53l0x_api_core.c **** 				VL53L0X_CHECKENABLE_SIGMA_FINAL_RANGE, Temp8);
2206:../Drivers/BSP/Components/vl53l0x/vl53l0x_api_core.c **** 
2207:../Drivers/BSP/Components/vl53l0x/vl53l0x_api_core.c **** 		if ((DeviceRangeStatusInternal == 4) ||
 4456              		.loc 1 2207 0
 4457 0230 042D     		cmp	r5, #4
 4458 0232 04D0     		beq	.L270
2208:../Drivers/BSP/Components/vl53l0x/vl53l0x_api_core.c **** 				(SignalRateFinalRangeLimitCheckEnable == 0))
 4459              		.loc 1 2208 0 discriminator 1
 4460 0234 9DF81E20 		ldrb	r2, [sp, #30]	@ zero_extendqisi2
 4461              	.LVL814:
2207:../Drivers/BSP/Components/vl53l0x/vl53l0x_api_core.c **** 				(SignalRateFinalRangeLimitCheckEnable == 0))
 4462              		.loc 1 2207 0 discriminator 1
 4463 0238 1AB9     		cbnz	r2, .L271
2209:../Drivers/BSP/Components/vl53l0x/vl53l0x_api_core.c **** 			Temp8 = 1;
 4464              		.loc 1 2209 0
 4465 023a 0122     		movs	r2, #1
 4466 023c 02E0     		b	.L244
 4467              	.LVL815:
 4468              	.L270:
 4469 023e 0122     		movs	r2, #1
 4470              	.LVL816:
ARM GAS  /tmp/ccfCLKEL.s 			page 119


 4471 0240 00E0     		b	.L244
 4472              	.L271:
2210:../Drivers/BSP/Components/vl53l0x/vl53l0x_api_core.c **** 		else
2211:../Drivers/BSP/Components/vl53l0x/vl53l0x_api_core.c **** 			Temp8 = 0;
 4473              		.loc 1 2211 0
 4474 0242 0022     		movs	r2, #0
 4475              	.L244:
 4476              	.LVL817:
2212:../Drivers/BSP/Components/vl53l0x/vl53l0x_api_core.c **** 		VL53L0X_SETARRAYPARAMETERFIELD(Dev, LimitChecksStatus,
 4477              		.loc 1 2212 0
 4478 0244 84F82F20 		strb	r2, [r4, #47]
2213:../Drivers/BSP/Components/vl53l0x/vl53l0x_api_core.c **** 				VL53L0X_CHECKENABLE_SIGNAL_RATE_FINAL_RANGE,
2214:../Drivers/BSP/Components/vl53l0x/vl53l0x_api_core.c **** 				Temp8);
2215:../Drivers/BSP/Components/vl53l0x/vl53l0x_api_core.c **** 
2216:../Drivers/BSP/Components/vl53l0x/vl53l0x_api_core.c **** 		if ((SignalRefClipLimitCheckEnable == 0) ||
 4479              		.loc 1 2216 0
 4480 0248 9DF81D20 		ldrb	r2, [sp, #29]	@ zero_extendqisi2
 4481              	.LVL818:
 4482 024c 22B1     		cbz	r2, .L272
 4483              		.loc 1 2216 0 is_stmt 0 discriminator 1
 4484 024e BAF1000F 		cmp	r10, #0
 4485 0252 03D0     		beq	.L273
2217:../Drivers/BSP/Components/vl53l0x/vl53l0x_api_core.c **** 					(SignalRefClipflag == 1))
2218:../Drivers/BSP/Components/vl53l0x/vl53l0x_api_core.c **** 			Temp8 = 1;
 4486              		.loc 1 2218 0 is_stmt 1
 4487 0254 0122     		movs	r2, #1
 4488 0256 02E0     		b	.L245
 4489              	.L272:
 4490 0258 0122     		movs	r2, #1
 4491 025a 00E0     		b	.L245
 4492              	.L273:
2219:../Drivers/BSP/Components/vl53l0x/vl53l0x_api_core.c **** 		else
2220:../Drivers/BSP/Components/vl53l0x/vl53l0x_api_core.c **** 			Temp8 = 0;
 4493              		.loc 1 2220 0
 4494 025c 0022     		movs	r2, #0
 4495              	.L245:
 4496              	.LVL819:
2221:../Drivers/BSP/Components/vl53l0x/vl53l0x_api_core.c **** 
2222:../Drivers/BSP/Components/vl53l0x/vl53l0x_api_core.c **** 		VL53L0X_SETARRAYPARAMETERFIELD(Dev, LimitChecksStatus,
 4497              		.loc 1 2222 0
 4498 025e 84F83020 		strb	r2, [r4, #48]
2223:../Drivers/BSP/Components/vl53l0x/vl53l0x_api_core.c **** 				VL53L0X_CHECKENABLE_SIGNAL_REF_CLIP, Temp8);
2224:../Drivers/BSP/Components/vl53l0x/vl53l0x_api_core.c **** 
2225:../Drivers/BSP/Components/vl53l0x/vl53l0x_api_core.c **** 		if ((RangeIgnoreThresholdLimitCheckEnable == 0) ||
 4499              		.loc 1 2225 0
 4500 0262 9DF81C20 		ldrb	r2, [sp, #28]	@ zero_extendqisi2
 4501              	.LVL820:
 4502 0266 12B1     		cbz	r2, .L274
 4503              		.loc 1 2225 0 is_stmt 0 discriminator 1
 4504 0268 1FB1     		cbz	r7, .L275
2226:../Drivers/BSP/Components/vl53l0x/vl53l0x_api_core.c **** 				(RangeIgnoreThresholdflag == 1))
2227:../Drivers/BSP/Components/vl53l0x/vl53l0x_api_core.c **** 			Temp8 = 1;
 4505              		.loc 1 2227 0 is_stmt 1
 4506 026a 0122     		movs	r2, #1
 4507 026c 02E0     		b	.L246
 4508              	.L274:
 4509 026e 0122     		movs	r2, #1
ARM GAS  /tmp/ccfCLKEL.s 			page 120


 4510 0270 00E0     		b	.L246
 4511              	.L275:
2228:../Drivers/BSP/Components/vl53l0x/vl53l0x_api_core.c **** 		else
2229:../Drivers/BSP/Components/vl53l0x/vl53l0x_api_core.c **** 			Temp8 = 0;
 4512              		.loc 1 2229 0
 4513 0272 0022     		movs	r2, #0
 4514              	.L246:
 4515              	.LVL821:
2230:../Drivers/BSP/Components/vl53l0x/vl53l0x_api_core.c **** 
2231:../Drivers/BSP/Components/vl53l0x/vl53l0x_api_core.c **** 		VL53L0X_SETARRAYPARAMETERFIELD(Dev, LimitChecksStatus,
 4516              		.loc 1 2231 0
 4517 0274 84F83120 		strb	r2, [r4, #49]
 4518              	.LVL822:
 4519              	.L242:
2232:../Drivers/BSP/Components/vl53l0x/vl53l0x_api_core.c **** 				VL53L0X_CHECKENABLE_RANGE_IGNORE_THRESHOLD,
2233:../Drivers/BSP/Components/vl53l0x/vl53l0x_api_core.c **** 				Temp8);
2234:../Drivers/BSP/Components/vl53l0x/vl53l0x_api_core.c **** 	}
2235:../Drivers/BSP/Components/vl53l0x/vl53l0x_api_core.c **** 
2236:../Drivers/BSP/Components/vl53l0x/vl53l0x_api_core.c **** 	LOG_FUNCTION_END(Status);
2237:../Drivers/BSP/Components/vl53l0x/vl53l0x_api_core.c **** 	return Status;
2238:../Drivers/BSP/Components/vl53l0x/vl53l0x_api_core.c **** 
2239:../Drivers/BSP/Components/vl53l0x/vl53l0x_api_core.c **** }
 4520              		.loc 1 2239 0
 4521 0278 1846     		mov	r0, r3
 4522              	.LVL823:
 4523 027a 09B0     		add	sp, sp, #36
 4524              	.LCFI48:
 4525              		.cfi_def_cfa_offset 36
 4526              		@ sp needed
 4527 027c BDE8F08F 		pop	{r4, r5, r6, r7, r8, r9, r10, fp, pc}
 4528              		.cfi_endproc
 4529              	.LFE136:
 4531              		.text
 4532              	.Letext0:
 4533              		.file 2 "/usr/include/newlib/machine/_default_types.h"
 4534              		.file 3 "/usr/include/newlib/sys/_stdint.h"
 4535              		.file 4 "../Drivers/BSP/Components/vl53l0x/vl53l0x_types.h"
 4536              		.file 5 "../Drivers/BSP/Components/vl53l0x/vl53l0x_device.h"
 4537              		.file 6 "../Drivers/BSP/Components/vl53l0x/vl53l0x_def.h"
 4538              		.file 7 "../Drivers/CMSIS/Device/ST/STM32F4xx/Include/stm32f401xe.h"
 4539              		.file 8 "../Drivers/STM32F4xx_HAL_Driver/Inc/stm32f4xx_hal_def.h"
 4540              		.file 9 "../Drivers/STM32F4xx_HAL_Driver/Inc/stm32f4xx_hal_dma.h"
 4541              		.file 10 "../Drivers/STM32F4xx_HAL_Driver/Inc/stm32f4xx_hal_i2c.h"
 4542              		.file 11 "../Drivers/BSP/X-NUCLEO-53L0A1/vl53l0x_platform.h"
 4543              		.file 12 "../Drivers/BSP/Components/vl53l0x/vl53l0x_api.h"
 4544              		.file 13 "/usr/include/newlib/string.h"
 4545              		.file 14 "../Drivers/BSP/Components/vl53l0x/vl53l0x_api_calibration.h"
 4546              		.file 15 "../Drivers/CMSIS/Include/core_cm4.h"
ARM GAS  /tmp/ccfCLKEL.s 			page 121


DEFINED SYMBOLS
                            *ABS*:0000000000000000 vl53l0x_api_core.c
     /tmp/ccfCLKEL.s:21     .text.VL53L0X_reverse_bytes:0000000000000000 $t
     /tmp/ccfCLKEL.s:26     .text.VL53L0X_reverse_bytes:0000000000000000 VL53L0X_reverse_bytes
     /tmp/ccfCLKEL.s:84     .text.VL53L0X_measurement_poll_for_completion:0000000000000000 $t
     /tmp/ccfCLKEL.s:89     .text.VL53L0X_measurement_poll_for_completion:0000000000000000 VL53L0X_measurement_poll_for_completion
     /tmp/ccfCLKEL.s:154    .text.VL53L0X_decode_vcsel_period:0000000000000000 $t
     /tmp/ccfCLKEL.s:159    .text.VL53L0X_decode_vcsel_period:0000000000000000 VL53L0X_decode_vcsel_period
     /tmp/ccfCLKEL.s:180    .text.VL53L0X_encode_vcsel_period:0000000000000000 $t
     /tmp/ccfCLKEL.s:185    .text.VL53L0X_encode_vcsel_period:0000000000000000 VL53L0X_encode_vcsel_period
     /tmp/ccfCLKEL.s:205    .text.VL53L0X_isqrt:0000000000000000 $t
     /tmp/ccfCLKEL.s:210    .text.VL53L0X_isqrt:0000000000000000 VL53L0X_isqrt
     /tmp/ccfCLKEL.s:266    .text.VL53L0X_quadrature_sum:0000000000000000 $t
     /tmp/ccfCLKEL.s:271    .text.VL53L0X_quadrature_sum:0000000000000000 VL53L0X_quadrature_sum
     /tmp/ccfCLKEL.s:317    .text.VL53L0X_device_read_strobe:0000000000000000 $t
     /tmp/ccfCLKEL.s:322    .text.VL53L0X_device_read_strobe:0000000000000000 VL53L0X_device_read_strobe
     /tmp/ccfCLKEL.s:399    .text.VL53L0X_get_info_from_device:0000000000000000 $t
     /tmp/ccfCLKEL.s:404    .text.VL53L0X_get_info_from_device:0000000000000000 VL53L0X_get_info_from_device
     /tmp/ccfCLKEL.s:1290   .text.VL53L0X_calc_macro_period_ps:0000000000000000 $t
     /tmp/ccfCLKEL.s:1295   .text.VL53L0X_calc_macro_period_ps:0000000000000000 VL53L0X_calc_macro_period_ps
     /tmp/ccfCLKEL.s:1318   .text.VL53L0X_encode_timeout:0000000000000000 $t
     /tmp/ccfCLKEL.s:1323   .text.VL53L0X_encode_timeout:0000000000000000 VL53L0X_encode_timeout
     /tmp/ccfCLKEL.s:1374   .text.VL53L0X_decode_timeout:0000000000000000 $t
     /tmp/ccfCLKEL.s:1379   .text.VL53L0X_decode_timeout:0000000000000000 VL53L0X_decode_timeout
     /tmp/ccfCLKEL.s:1401   .text.VL53L0X_calc_timeout_mclks:0000000000000000 $t
     /tmp/ccfCLKEL.s:1406   .text.VL53L0X_calc_timeout_mclks:0000000000000000 VL53L0X_calc_timeout_mclks
     /tmp/ccfCLKEL.s:1445   .text.VL53L0X_calc_timeout_mclks:0000000000000028 $d
     /tmp/ccfCLKEL.s:1450   .text.VL53L0X_calc_timeout_us:0000000000000000 $t
     /tmp/ccfCLKEL.s:1455   .text.VL53L0X_calc_timeout_us:0000000000000000 VL53L0X_calc_timeout_us
     /tmp/ccfCLKEL.s:1496   .text.VL53L0X_calc_timeout_us:0000000000000028 $d
     /tmp/ccfCLKEL.s:1501   .text.get_sequence_step_timeout:0000000000000000 $t
     /tmp/ccfCLKEL.s:1506   .text.get_sequence_step_timeout:0000000000000000 get_sequence_step_timeout
     /tmp/ccfCLKEL.s:1740   .text.set_sequence_step_timeout:0000000000000000 $t
     /tmp/ccfCLKEL.s:1745   .text.set_sequence_step_timeout:0000000000000000 set_sequence_step_timeout
     /tmp/ccfCLKEL.s:1972   .text.VL53L0X_set_vcsel_pulse_period:0000000000000000 $t
     /tmp/ccfCLKEL.s:1977   .text.VL53L0X_set_vcsel_pulse_period:0000000000000000 VL53L0X_set_vcsel_pulse_period
     /tmp/ccfCLKEL.s:2567   .text.VL53L0X_get_vcsel_pulse_period:0000000000000000 $t
     /tmp/ccfCLKEL.s:2572   .text.VL53L0X_get_vcsel_pulse_period:0000000000000000 VL53L0X_get_vcsel_pulse_period
     /tmp/ccfCLKEL.s:2646   .text.VL53L0X_set_measurement_timing_budget_micro_seconds:0000000000000000 $t
     /tmp/ccfCLKEL.s:2651   .text.VL53L0X_set_measurement_timing_budget_micro_seconds:0000000000000000 VL53L0X_set_measurement_timing_budget_micro_seconds
     /tmp/ccfCLKEL.s:2864   .text.VL53L0X_get_measurement_timing_budget_micro_seconds:0000000000000000 $t
     /tmp/ccfCLKEL.s:2869   .text.VL53L0X_get_measurement_timing_budget_micro_seconds:0000000000000000 VL53L0X_get_measurement_timing_budget_micro_seconds
     /tmp/ccfCLKEL.s:3024   .text.VL53L0X_load_tuning_settings:0000000000000000 $t
     /tmp/ccfCLKEL.s:3029   .text.VL53L0X_load_tuning_settings:0000000000000000 VL53L0X_load_tuning_settings
     /tmp/ccfCLKEL.s:3076   .text.VL53L0X_load_tuning_settings:0000000000000020 $d
     /tmp/ccfCLKEL.s:3080   .text.VL53L0X_load_tuning_settings:0000000000000024 $t
     /tmp/ccfCLKEL.s:3232   .text.VL53L0X_get_total_xtalk_rate:0000000000000000 $t
     /tmp/ccfCLKEL.s:3237   .text.VL53L0X_get_total_xtalk_rate:0000000000000000 VL53L0X_get_total_xtalk_rate
     /tmp/ccfCLKEL.s:3301   .text.VL53L0X_get_total_signal_rate:0000000000000000 $t
     /tmp/ccfCLKEL.s:3306   .text.VL53L0X_get_total_signal_rate:0000000000000000 VL53L0X_get_total_signal_rate
     /tmp/ccfCLKEL.s:3353   .text.VL53L0X_calc_dmax:0000000000000000 $t
     /tmp/ccfCLKEL.s:3358   .text.VL53L0X_calc_dmax:0000000000000000 VL53L0X_calc_dmax
     /tmp/ccfCLKEL.s:3570   .text.VL53L0X_calc_dmax:00000000000000e0 $d
     /tmp/ccfCLKEL.s:3578   .text.VL53L0X_calc_sigma_estimate:0000000000000000 $t
     /tmp/ccfCLKEL.s:3583   .text.VL53L0X_calc_sigma_estimate:0000000000000000 VL53L0X_calc_sigma_estimate
     /tmp/ccfCLKEL.s:4012   .text.VL53L0X_calc_sigma_estimate:0000000000000258 $d
     /tmp/ccfCLKEL.s:4023   .text.VL53L0X_get_pal_range_status:0000000000000000 $t
ARM GAS  /tmp/ccfCLKEL.s 			page 122


     /tmp/ccfCLKEL.s:4028   .text.VL53L0X_get_pal_range_status:0000000000000000 VL53L0X_get_pal_range_status
                     .debug_frame:0000000000000010 $d

UNDEFINED SYMBOLS
VL53L0X_GetMeasurementDataReady
VL53L0X_PollingDelay
VL53L0X_WrByte
VL53L0X_RdByte
VL53L0X_RdDWord
strcpy
VL53L0X_GetVcselPulsePeriod
VL53L0X_RdWord
VL53L0X_GetSequenceStepEnables
VL53L0X_WrWord
VL53L0X_SetMeasurementTimingBudgetMicroSeconds
VL53L0X_perform_phase_calibration
VL53L0X_WriteMulti
VL53L0X_GetXTalkCompensationEnable
VL53L0X_GetLimitCheckEnable
VL53L0X_GetLimitCheckValue
