ARM GAS  /tmp/ccbXV9fs.s 			page 1


   1              		.syntax unified
   2              		.cpu cortex-m4
   3              		.eabi_attribute 27, 1
   4              		.eabi_attribute 28, 1
   5              		.fpu fpv4-sp-d16
   6              		.eabi_attribute 20, 1
   7              		.eabi_attribute 21, 1
   8              		.eabi_attribute 23, 3
   9              		.eabi_attribute 24, 1
  10              		.eabi_attribute 25, 1
  11              		.eabi_attribute 26, 1
  12              		.eabi_attribute 30, 1
  13              		.eabi_attribute 34, 1
  14              		.eabi_attribute 18, 4
  15              		.thumb
  16              		.syntax unified
  17              		.file	"stm32f4xx_hal_gpio.c"
  18              		.text
  19              	.Ltext0:
  20              		.cfi_sections	.debug_frame
  21              		.section	.text.HAL_GPIO_Init,"ax",%progbits
  22              		.align	2
  23              		.global	HAL_GPIO_Init
  24              		.thumb
  25              		.thumb_func
  27              	HAL_GPIO_Init:
  28              	.LFB112:
  29              		.file 1 "../Drivers/STM32F4xx_HAL_Driver/Src/stm32f4xx_hal_gpio.c"
   1:../Drivers/STM32F4xx_HAL_Driver/Src/stm32f4xx_hal_gpio.c **** /**
   2:../Drivers/STM32F4xx_HAL_Driver/Src/stm32f4xx_hal_gpio.c ****   ******************************************************************************
   3:../Drivers/STM32F4xx_HAL_Driver/Src/stm32f4xx_hal_gpio.c ****   * @file    stm32f4xx_hal_gpio.c
   4:../Drivers/STM32F4xx_HAL_Driver/Src/stm32f4xx_hal_gpio.c ****   * @author  MCD Application Team
   5:../Drivers/STM32F4xx_HAL_Driver/Src/stm32f4xx_hal_gpio.c ****   * @version V1.1.0
   6:../Drivers/STM32F4xx_HAL_Driver/Src/stm32f4xx_hal_gpio.c ****   * @date    19-June-2014
   7:../Drivers/STM32F4xx_HAL_Driver/Src/stm32f4xx_hal_gpio.c ****   * @brief   GPIO HAL module driver.
   8:../Drivers/STM32F4xx_HAL_Driver/Src/stm32f4xx_hal_gpio.c ****   *          This file provides firmware functions to manage the following 
   9:../Drivers/STM32F4xx_HAL_Driver/Src/stm32f4xx_hal_gpio.c ****   *          functionalities of the General Purpose Input/Output (GPIO) peripheral:
  10:../Drivers/STM32F4xx_HAL_Driver/Src/stm32f4xx_hal_gpio.c ****   *           + Initialization and de-initialization functions
  11:../Drivers/STM32F4xx_HAL_Driver/Src/stm32f4xx_hal_gpio.c ****   *           + IO operation functions
  12:../Drivers/STM32F4xx_HAL_Driver/Src/stm32f4xx_hal_gpio.c ****   *
  13:../Drivers/STM32F4xx_HAL_Driver/Src/stm32f4xx_hal_gpio.c ****   @verbatim
  14:../Drivers/STM32F4xx_HAL_Driver/Src/stm32f4xx_hal_gpio.c ****   ==============================================================================
  15:../Drivers/STM32F4xx_HAL_Driver/Src/stm32f4xx_hal_gpio.c ****                     ##### GPIO Peripheral features #####
  16:../Drivers/STM32F4xx_HAL_Driver/Src/stm32f4xx_hal_gpio.c ****   ==============================================================================
  17:../Drivers/STM32F4xx_HAL_Driver/Src/stm32f4xx_hal_gpio.c ****   [..] 
  18:../Drivers/STM32F4xx_HAL_Driver/Src/stm32f4xx_hal_gpio.c ****     (+) Each port bit of the general-purpose I/O (GPIO) ports can be individually 
  19:../Drivers/STM32F4xx_HAL_Driver/Src/stm32f4xx_hal_gpio.c ****         configured by software in several modes:
  20:../Drivers/STM32F4xx_HAL_Driver/Src/stm32f4xx_hal_gpio.c ****         (++) Input mode 
  21:../Drivers/STM32F4xx_HAL_Driver/Src/stm32f4xx_hal_gpio.c ****         (++) Analog mode
  22:../Drivers/STM32F4xx_HAL_Driver/Src/stm32f4xx_hal_gpio.c ****         (++) Output mode
  23:../Drivers/STM32F4xx_HAL_Driver/Src/stm32f4xx_hal_gpio.c ****         (++) Alternate function mode
  24:../Drivers/STM32F4xx_HAL_Driver/Src/stm32f4xx_hal_gpio.c ****         (++) External interrupt/event lines
  25:../Drivers/STM32F4xx_HAL_Driver/Src/stm32f4xx_hal_gpio.c **** 
  26:../Drivers/STM32F4xx_HAL_Driver/Src/stm32f4xx_hal_gpio.c ****     (+) During and just after reset, the alternate functions and external interrupt  
  27:../Drivers/STM32F4xx_HAL_Driver/Src/stm32f4xx_hal_gpio.c ****         lines are not active and the I/O ports are configured in input floating mode.
  28:../Drivers/STM32F4xx_HAL_Driver/Src/stm32f4xx_hal_gpio.c ****      
  29:../Drivers/STM32F4xx_HAL_Driver/Src/stm32f4xx_hal_gpio.c ****     (+) All GPIO pins have weak internal pull-up and pull-down resistors, which can be 
ARM GAS  /tmp/ccbXV9fs.s 			page 2


  30:../Drivers/STM32F4xx_HAL_Driver/Src/stm32f4xx_hal_gpio.c ****         activated or not.
  31:../Drivers/STM32F4xx_HAL_Driver/Src/stm32f4xx_hal_gpio.c **** 
  32:../Drivers/STM32F4xx_HAL_Driver/Src/stm32f4xx_hal_gpio.c ****     (+) In Output or Alternate mode, each IO can be configured on open-drain or push-pull
  33:../Drivers/STM32F4xx_HAL_Driver/Src/stm32f4xx_hal_gpio.c ****         type and the IO speed can be selected depending on the VDD value.
  34:../Drivers/STM32F4xx_HAL_Driver/Src/stm32f4xx_hal_gpio.c **** 
  35:../Drivers/STM32F4xx_HAL_Driver/Src/stm32f4xx_hal_gpio.c ****     (+) The microcontroller IO pins are connected to onboard peripherals/modules through a 
  36:../Drivers/STM32F4xx_HAL_Driver/Src/stm32f4xx_hal_gpio.c ****         multiplexer that allows only one peripheral alternate function (AF) connected 
  37:../Drivers/STM32F4xx_HAL_Driver/Src/stm32f4xx_hal_gpio.c ****        to an IO pin at a time. In this way, there can be no conflict between peripherals 
  38:../Drivers/STM32F4xx_HAL_Driver/Src/stm32f4xx_hal_gpio.c ****        sharing the same IO pin. 
  39:../Drivers/STM32F4xx_HAL_Driver/Src/stm32f4xx_hal_gpio.c **** 
  40:../Drivers/STM32F4xx_HAL_Driver/Src/stm32f4xx_hal_gpio.c ****     (+) All ports have external interrupt/event capability. To use external interrupt 
  41:../Drivers/STM32F4xx_HAL_Driver/Src/stm32f4xx_hal_gpio.c ****         lines, the port must be configured in input mode. All available GPIO pins are 
  42:../Drivers/STM32F4xx_HAL_Driver/Src/stm32f4xx_hal_gpio.c ****         connected to the 16 external interrupt/event lines from EXTI0 to EXTI15.
  43:../Drivers/STM32F4xx_HAL_Driver/Src/stm32f4xx_hal_gpio.c **** 
  44:../Drivers/STM32F4xx_HAL_Driver/Src/stm32f4xx_hal_gpio.c ****     (+) The external interrupt/event controller consists of up to 23 edge detectors 
  45:../Drivers/STM32F4xx_HAL_Driver/Src/stm32f4xx_hal_gpio.c ****         (16 lines are connected to GPIO) for generating event/interrupt requests (each 
  46:../Drivers/STM32F4xx_HAL_Driver/Src/stm32f4xx_hal_gpio.c ****         input line can be independently configured to select the type (interrupt or event) 
  47:../Drivers/STM32F4xx_HAL_Driver/Src/stm32f4xx_hal_gpio.c ****         and the corresponding trigger event (rising or falling or both). Each line can 
  48:../Drivers/STM32F4xx_HAL_Driver/Src/stm32f4xx_hal_gpio.c ****         also be masked independently. 
  49:../Drivers/STM32F4xx_HAL_Driver/Src/stm32f4xx_hal_gpio.c **** 
  50:../Drivers/STM32F4xx_HAL_Driver/Src/stm32f4xx_hal_gpio.c ****                      ##### How to use this driver #####
  51:../Drivers/STM32F4xx_HAL_Driver/Src/stm32f4xx_hal_gpio.c ****   ==============================================================================  
  52:../Drivers/STM32F4xx_HAL_Driver/Src/stm32f4xx_hal_gpio.c ****   [..]
  53:../Drivers/STM32F4xx_HAL_Driver/Src/stm32f4xx_hal_gpio.c ****     (#) Enable the GPIO AHB clock using the following function: __GPIOx_CLK_ENABLE(). 
  54:../Drivers/STM32F4xx_HAL_Driver/Src/stm32f4xx_hal_gpio.c **** 
  55:../Drivers/STM32F4xx_HAL_Driver/Src/stm32f4xx_hal_gpio.c ****     (#) Configure the GPIO pin(s) using HAL_GPIO_Init().
  56:../Drivers/STM32F4xx_HAL_Driver/Src/stm32f4xx_hal_gpio.c ****         (++) Configure the IO mode using "Mode" member from GPIO_InitTypeDef structure
  57:../Drivers/STM32F4xx_HAL_Driver/Src/stm32f4xx_hal_gpio.c ****         (++) Activate Pull-up, Pull-down resistor using "Pull" member from GPIO_InitTypeDef 
  58:../Drivers/STM32F4xx_HAL_Driver/Src/stm32f4xx_hal_gpio.c ****              structure.
  59:../Drivers/STM32F4xx_HAL_Driver/Src/stm32f4xx_hal_gpio.c ****         (++) In case of Output or alternate function mode selection: the speed is 
  60:../Drivers/STM32F4xx_HAL_Driver/Src/stm32f4xx_hal_gpio.c ****              configured through "Speed" member from GPIO_InitTypeDef structure.
  61:../Drivers/STM32F4xx_HAL_Driver/Src/stm32f4xx_hal_gpio.c ****         (++) In alternate mode is selection, the alternate function connected to the IO
  62:../Drivers/STM32F4xx_HAL_Driver/Src/stm32f4xx_hal_gpio.c ****              is configured through "Alternate" member from GPIO_InitTypeDef structure.
  63:../Drivers/STM32F4xx_HAL_Driver/Src/stm32f4xx_hal_gpio.c ****         (++) Analog mode is required when a pin is to be used as ADC channel 
  64:../Drivers/STM32F4xx_HAL_Driver/Src/stm32f4xx_hal_gpio.c ****              or DAC output.
  65:../Drivers/STM32F4xx_HAL_Driver/Src/stm32f4xx_hal_gpio.c ****         (++) In case of external interrupt/event selection the "Mode" member from 
  66:../Drivers/STM32F4xx_HAL_Driver/Src/stm32f4xx_hal_gpio.c ****              GPIO_InitTypeDef structure select the type (interrupt or event) and 
  67:../Drivers/STM32F4xx_HAL_Driver/Src/stm32f4xx_hal_gpio.c ****              the corresponding trigger event (rising or falling or both).
  68:../Drivers/STM32F4xx_HAL_Driver/Src/stm32f4xx_hal_gpio.c **** 
  69:../Drivers/STM32F4xx_HAL_Driver/Src/stm32f4xx_hal_gpio.c ****     (#) In case of external interrupt/event mode selection, configure NVIC IRQ priority 
  70:../Drivers/STM32F4xx_HAL_Driver/Src/stm32f4xx_hal_gpio.c ****         mapped to the EXTI line using HAL_NVIC_SetPriority() and enable it using
  71:../Drivers/STM32F4xx_HAL_Driver/Src/stm32f4xx_hal_gpio.c ****         HAL_NVIC_EnableIRQ().
  72:../Drivers/STM32F4xx_HAL_Driver/Src/stm32f4xx_hal_gpio.c ****          
  73:../Drivers/STM32F4xx_HAL_Driver/Src/stm32f4xx_hal_gpio.c ****     (#) To get the level of a pin configured in input mode use HAL_GPIO_ReadPin().
  74:../Drivers/STM32F4xx_HAL_Driver/Src/stm32f4xx_hal_gpio.c ****             
  75:../Drivers/STM32F4xx_HAL_Driver/Src/stm32f4xx_hal_gpio.c ****     (#) To set/reset the level of a pin configured in output mode use 
  76:../Drivers/STM32F4xx_HAL_Driver/Src/stm32f4xx_hal_gpio.c ****         HAL_GPIO_WritePin()/HAL_GPIO_TogglePin().
  77:../Drivers/STM32F4xx_HAL_Driver/Src/stm32f4xx_hal_gpio.c ****                  
  78:../Drivers/STM32F4xx_HAL_Driver/Src/stm32f4xx_hal_gpio.c ****     (#) During and just after reset, the alternate functions are not 
  79:../Drivers/STM32F4xx_HAL_Driver/Src/stm32f4xx_hal_gpio.c ****         active and the GPIO pins are configured in input floating mode (except JTAG
  80:../Drivers/STM32F4xx_HAL_Driver/Src/stm32f4xx_hal_gpio.c ****         pins).
  81:../Drivers/STM32F4xx_HAL_Driver/Src/stm32f4xx_hal_gpio.c ****   
  82:../Drivers/STM32F4xx_HAL_Driver/Src/stm32f4xx_hal_gpio.c ****     (#) The LSE oscillator pins OSC32_IN and OSC32_OUT can be used as general purpose 
  83:../Drivers/STM32F4xx_HAL_Driver/Src/stm32f4xx_hal_gpio.c ****         (PC14 and PC15, respectively) when the LSE oscillator is off. The LSE has 
  84:../Drivers/STM32F4xx_HAL_Driver/Src/stm32f4xx_hal_gpio.c ****         priority over the GPIO function.
  85:../Drivers/STM32F4xx_HAL_Driver/Src/stm32f4xx_hal_gpio.c ****   
  86:../Drivers/STM32F4xx_HAL_Driver/Src/stm32f4xx_hal_gpio.c ****     (#) The HSE oscillator pins OSC_IN/OSC_OUT can be used as 
ARM GAS  /tmp/ccbXV9fs.s 			page 3


  87:../Drivers/STM32F4xx_HAL_Driver/Src/stm32f4xx_hal_gpio.c ****         general purpose PH0 and PH1, respectively, when the HSE oscillator is off. 
  88:../Drivers/STM32F4xx_HAL_Driver/Src/stm32f4xx_hal_gpio.c ****         The HSE has priority over the GPIO function.
  89:../Drivers/STM32F4xx_HAL_Driver/Src/stm32f4xx_hal_gpio.c ****   
  90:../Drivers/STM32F4xx_HAL_Driver/Src/stm32f4xx_hal_gpio.c ****   @endverbatim
  91:../Drivers/STM32F4xx_HAL_Driver/Src/stm32f4xx_hal_gpio.c ****   ******************************************************************************
  92:../Drivers/STM32F4xx_HAL_Driver/Src/stm32f4xx_hal_gpio.c ****   * @attention
  93:../Drivers/STM32F4xx_HAL_Driver/Src/stm32f4xx_hal_gpio.c ****   *
  94:../Drivers/STM32F4xx_HAL_Driver/Src/stm32f4xx_hal_gpio.c ****   * <h2><center>&copy; COPYRIGHT(c) 2014 STMicroelectronics</center></h2>
  95:../Drivers/STM32F4xx_HAL_Driver/Src/stm32f4xx_hal_gpio.c ****   *
  96:../Drivers/STM32F4xx_HAL_Driver/Src/stm32f4xx_hal_gpio.c ****   * Redistribution and use in source and binary forms, with or without modification,
  97:../Drivers/STM32F4xx_HAL_Driver/Src/stm32f4xx_hal_gpio.c ****   * are permitted provided that the following conditions are met:
  98:../Drivers/STM32F4xx_HAL_Driver/Src/stm32f4xx_hal_gpio.c ****   *   1. Redistributions of source code must retain the above copyright notice,
  99:../Drivers/STM32F4xx_HAL_Driver/Src/stm32f4xx_hal_gpio.c ****   *      this list of conditions and the following disclaimer.
 100:../Drivers/STM32F4xx_HAL_Driver/Src/stm32f4xx_hal_gpio.c ****   *   2. Redistributions in binary form must reproduce the above copyright notice,
 101:../Drivers/STM32F4xx_HAL_Driver/Src/stm32f4xx_hal_gpio.c ****   *      this list of conditions and the following disclaimer in the documentation
 102:../Drivers/STM32F4xx_HAL_Driver/Src/stm32f4xx_hal_gpio.c ****   *      and/or other materials provided with the distribution.
 103:../Drivers/STM32F4xx_HAL_Driver/Src/stm32f4xx_hal_gpio.c ****   *   3. Neither the name of STMicroelectronics nor the names of its contributors
 104:../Drivers/STM32F4xx_HAL_Driver/Src/stm32f4xx_hal_gpio.c ****   *      may be used to endorse or promote products derived from this software
 105:../Drivers/STM32F4xx_HAL_Driver/Src/stm32f4xx_hal_gpio.c ****   *      without specific prior written permission.
 106:../Drivers/STM32F4xx_HAL_Driver/Src/stm32f4xx_hal_gpio.c ****   *
 107:../Drivers/STM32F4xx_HAL_Driver/Src/stm32f4xx_hal_gpio.c ****   * THIS SOFTWARE IS PROVIDED BY THE COPYRIGHT HOLDERS AND CONTRIBUTORS "AS IS"
 108:../Drivers/STM32F4xx_HAL_Driver/Src/stm32f4xx_hal_gpio.c ****   * AND ANY EXPRESS OR IMPLIED WARRANTIES, INCLUDING, BUT NOT LIMITED TO, THE
 109:../Drivers/STM32F4xx_HAL_Driver/Src/stm32f4xx_hal_gpio.c ****   * IMPLIED WARRANTIES OF MERCHANTABILITY AND FITNESS FOR A PARTICULAR PURPOSE ARE
 110:../Drivers/STM32F4xx_HAL_Driver/Src/stm32f4xx_hal_gpio.c ****   * DISCLAIMED. IN NO EVENT SHALL THE COPYRIGHT HOLDER OR CONTRIBUTORS BE LIABLE
 111:../Drivers/STM32F4xx_HAL_Driver/Src/stm32f4xx_hal_gpio.c ****   * FOR ANY DIRECT, INDIRECT, INCIDENTAL, SPECIAL, EXEMPLARY, OR CONSEQUENTIAL
 112:../Drivers/STM32F4xx_HAL_Driver/Src/stm32f4xx_hal_gpio.c ****   * DAMAGES (INCLUDING, BUT NOT LIMITED TO, PROCUREMENT OF SUBSTITUTE GOODS OR
 113:../Drivers/STM32F4xx_HAL_Driver/Src/stm32f4xx_hal_gpio.c ****   * SERVICES; LOSS OF USE, DATA, OR PROFITS; OR BUSINESS INTERRUPTION) HOWEVER
 114:../Drivers/STM32F4xx_HAL_Driver/Src/stm32f4xx_hal_gpio.c ****   * CAUSED AND ON ANY THEORY OF LIABILITY, WHETHER IN CONTRACT, STRICT LIABILITY,
 115:../Drivers/STM32F4xx_HAL_Driver/Src/stm32f4xx_hal_gpio.c ****   * OR TORT (INCLUDING NEGLIGENCE OR OTHERWISE) ARISING IN ANY WAY OUT OF THE USE
 116:../Drivers/STM32F4xx_HAL_Driver/Src/stm32f4xx_hal_gpio.c ****   * OF THIS SOFTWARE, EVEN IF ADVISED OF THE POSSIBILITY OF SUCH DAMAGE.
 117:../Drivers/STM32F4xx_HAL_Driver/Src/stm32f4xx_hal_gpio.c ****   *
 118:../Drivers/STM32F4xx_HAL_Driver/Src/stm32f4xx_hal_gpio.c ****   ******************************************************************************
 119:../Drivers/STM32F4xx_HAL_Driver/Src/stm32f4xx_hal_gpio.c ****   */ 
 120:../Drivers/STM32F4xx_HAL_Driver/Src/stm32f4xx_hal_gpio.c **** 
 121:../Drivers/STM32F4xx_HAL_Driver/Src/stm32f4xx_hal_gpio.c **** /* Includes ------------------------------------------------------------------*/
 122:../Drivers/STM32F4xx_HAL_Driver/Src/stm32f4xx_hal_gpio.c **** #include "stm32f4xx_hal.h"
 123:../Drivers/STM32F4xx_HAL_Driver/Src/stm32f4xx_hal_gpio.c **** 
 124:../Drivers/STM32F4xx_HAL_Driver/Src/stm32f4xx_hal_gpio.c **** /** @addtogroup STM32F4xx_HAL_Driver
 125:../Drivers/STM32F4xx_HAL_Driver/Src/stm32f4xx_hal_gpio.c ****   * @{
 126:../Drivers/STM32F4xx_HAL_Driver/Src/stm32f4xx_hal_gpio.c ****   */
 127:../Drivers/STM32F4xx_HAL_Driver/Src/stm32f4xx_hal_gpio.c **** 
 128:../Drivers/STM32F4xx_HAL_Driver/Src/stm32f4xx_hal_gpio.c **** /** @defgroup GPIO
 129:../Drivers/STM32F4xx_HAL_Driver/Src/stm32f4xx_hal_gpio.c ****   * @brief GPIO HAL module driver
 130:../Drivers/STM32F4xx_HAL_Driver/Src/stm32f4xx_hal_gpio.c ****   * @{
 131:../Drivers/STM32F4xx_HAL_Driver/Src/stm32f4xx_hal_gpio.c ****   */
 132:../Drivers/STM32F4xx_HAL_Driver/Src/stm32f4xx_hal_gpio.c **** 
 133:../Drivers/STM32F4xx_HAL_Driver/Src/stm32f4xx_hal_gpio.c **** #ifdef HAL_GPIO_MODULE_ENABLED
 134:../Drivers/STM32F4xx_HAL_Driver/Src/stm32f4xx_hal_gpio.c **** 
 135:../Drivers/STM32F4xx_HAL_Driver/Src/stm32f4xx_hal_gpio.c **** /* Private typedef -----------------------------------------------------------*/
 136:../Drivers/STM32F4xx_HAL_Driver/Src/stm32f4xx_hal_gpio.c **** /* Private define ------------------------------------------------------------*/
 137:../Drivers/STM32F4xx_HAL_Driver/Src/stm32f4xx_hal_gpio.c **** /* Private macro -------------------------------------------------------------*/
 138:../Drivers/STM32F4xx_HAL_Driver/Src/stm32f4xx_hal_gpio.c **** #define GET_GPIO_SOURCE(__GPIOx__) \
 139:../Drivers/STM32F4xx_HAL_Driver/Src/stm32f4xx_hal_gpio.c **** (((uint32_t)(__GPIOx__) == ((uint32_t)GPIOA_BASE))? (uint32_t)0 :\
 140:../Drivers/STM32F4xx_HAL_Driver/Src/stm32f4xx_hal_gpio.c ****  ((uint32_t)(__GPIOx__) == ((uint32_t)(GPIOA_BASE + 0x0400)))? (uint32_t)1 :\
 141:../Drivers/STM32F4xx_HAL_Driver/Src/stm32f4xx_hal_gpio.c ****  ((uint32_t)(__GPIOx__) == ((uint32_t)(GPIOA_BASE + 0x0800)))? (uint32_t)2 :\
 142:../Drivers/STM32F4xx_HAL_Driver/Src/stm32f4xx_hal_gpio.c ****  ((uint32_t)(__GPIOx__) == ((uint32_t)(GPIOA_BASE + 0x0C00)))? (uint32_t)3 :\
 143:../Drivers/STM32F4xx_HAL_Driver/Src/stm32f4xx_hal_gpio.c ****  ((uint32_t)(__GPIOx__) == ((uint32_t)(GPIOA_BASE + 0x1000)))? (uint32_t)4 :\
ARM GAS  /tmp/ccbXV9fs.s 			page 4


 144:../Drivers/STM32F4xx_HAL_Driver/Src/stm32f4xx_hal_gpio.c ****  ((uint32_t)(__GPIOx__) == ((uint32_t)(GPIOA_BASE + 0x1400)))? (uint32_t)5 :\
 145:../Drivers/STM32F4xx_HAL_Driver/Src/stm32f4xx_hal_gpio.c ****  ((uint32_t)(__GPIOx__) == ((uint32_t)(GPIOA_BASE + 0x1800)))? (uint32_t)6 :\
 146:../Drivers/STM32F4xx_HAL_Driver/Src/stm32f4xx_hal_gpio.c ****  ((uint32_t)(__GPIOx__) == ((uint32_t)(GPIOA_BASE + 0x1C00)))? (uint32_t)7 :\
 147:../Drivers/STM32F4xx_HAL_Driver/Src/stm32f4xx_hal_gpio.c ****  ((uint32_t)(__GPIOx__) == ((uint32_t)(GPIOA_BASE + 0x2000)))? (uint32_t)8 :\
 148:../Drivers/STM32F4xx_HAL_Driver/Src/stm32f4xx_hal_gpio.c ****  ((uint32_t)(__GPIOx__) == ((uint32_t)(GPIOA_BASE + 0x2400)))? (uint32_t)9 : (uint32_t)10)
 149:../Drivers/STM32F4xx_HAL_Driver/Src/stm32f4xx_hal_gpio.c **** 
 150:../Drivers/STM32F4xx_HAL_Driver/Src/stm32f4xx_hal_gpio.c **** #define GPIO_MODE             ((uint32_t)0x00000003)
 151:../Drivers/STM32F4xx_HAL_Driver/Src/stm32f4xx_hal_gpio.c **** #define EXTI_MODE             ((uint32_t)0x10000000)
 152:../Drivers/STM32F4xx_HAL_Driver/Src/stm32f4xx_hal_gpio.c **** #define GPIO_MODE_IT          ((uint32_t)0x00010000)
 153:../Drivers/STM32F4xx_HAL_Driver/Src/stm32f4xx_hal_gpio.c **** #define GPIO_MODE_EVT         ((uint32_t)0x00020000)
 154:../Drivers/STM32F4xx_HAL_Driver/Src/stm32f4xx_hal_gpio.c **** #define RISING_EDGE           ((uint32_t)0x00100000)
 155:../Drivers/STM32F4xx_HAL_Driver/Src/stm32f4xx_hal_gpio.c **** #define FALLING_EDGE          ((uint32_t)0x00200000)
 156:../Drivers/STM32F4xx_HAL_Driver/Src/stm32f4xx_hal_gpio.c **** #define GPIO_OUTPUT_TYPE      ((uint32_t)0x00000010)
 157:../Drivers/STM32F4xx_HAL_Driver/Src/stm32f4xx_hal_gpio.c **** 
 158:../Drivers/STM32F4xx_HAL_Driver/Src/stm32f4xx_hal_gpio.c **** #define GPIO_NUMBER           ((uint32_t)16)
 159:../Drivers/STM32F4xx_HAL_Driver/Src/stm32f4xx_hal_gpio.c **** /* Private variables ---------------------------------------------------------*/
 160:../Drivers/STM32F4xx_HAL_Driver/Src/stm32f4xx_hal_gpio.c **** /* Private function prototypes -----------------------------------------------*/
 161:../Drivers/STM32F4xx_HAL_Driver/Src/stm32f4xx_hal_gpio.c **** /* Private functions ---------------------------------------------------------*/
 162:../Drivers/STM32F4xx_HAL_Driver/Src/stm32f4xx_hal_gpio.c **** 
 163:../Drivers/STM32F4xx_HAL_Driver/Src/stm32f4xx_hal_gpio.c **** /** @defgroup GPIO_Private_Functions
 164:../Drivers/STM32F4xx_HAL_Driver/Src/stm32f4xx_hal_gpio.c ****   * @{
 165:../Drivers/STM32F4xx_HAL_Driver/Src/stm32f4xx_hal_gpio.c ****   */
 166:../Drivers/STM32F4xx_HAL_Driver/Src/stm32f4xx_hal_gpio.c **** 
 167:../Drivers/STM32F4xx_HAL_Driver/Src/stm32f4xx_hal_gpio.c **** /** @defgroup GPIO_Group1 Initialization and de-initialization functions 
 168:../Drivers/STM32F4xx_HAL_Driver/Src/stm32f4xx_hal_gpio.c ****  *  @brief    Initialization and Configuration functions
 169:../Drivers/STM32F4xx_HAL_Driver/Src/stm32f4xx_hal_gpio.c ****  *
 170:../Drivers/STM32F4xx_HAL_Driver/Src/stm32f4xx_hal_gpio.c **** @verbatim
 171:../Drivers/STM32F4xx_HAL_Driver/Src/stm32f4xx_hal_gpio.c ****  ===============================================================================
 172:../Drivers/STM32F4xx_HAL_Driver/Src/stm32f4xx_hal_gpio.c ****               ##### Initialization and de-initialization functions #####
 173:../Drivers/STM32F4xx_HAL_Driver/Src/stm32f4xx_hal_gpio.c ****  ===============================================================================
 174:../Drivers/STM32F4xx_HAL_Driver/Src/stm32f4xx_hal_gpio.c **** 
 175:../Drivers/STM32F4xx_HAL_Driver/Src/stm32f4xx_hal_gpio.c **** @endverbatim
 176:../Drivers/STM32F4xx_HAL_Driver/Src/stm32f4xx_hal_gpio.c ****   * @{
 177:../Drivers/STM32F4xx_HAL_Driver/Src/stm32f4xx_hal_gpio.c ****   */
 178:../Drivers/STM32F4xx_HAL_Driver/Src/stm32f4xx_hal_gpio.c **** 
 179:../Drivers/STM32F4xx_HAL_Driver/Src/stm32f4xx_hal_gpio.c **** /**
 180:../Drivers/STM32F4xx_HAL_Driver/Src/stm32f4xx_hal_gpio.c ****   * @brief  Initializes the GPIOx peripheral according to the specified parameters in the GPIO_Init
 181:../Drivers/STM32F4xx_HAL_Driver/Src/stm32f4xx_hal_gpio.c ****   * @param  GPIOx: where x can be (A..K) to select the GPIO peripheral for STM32F429X device or
 182:../Drivers/STM32F4xx_HAL_Driver/Src/stm32f4xx_hal_gpio.c ****   *                      x can be (A..I) to select the GPIO peripheral for STM32F40XX and STM32F427
 183:../Drivers/STM32F4xx_HAL_Driver/Src/stm32f4xx_hal_gpio.c ****   * @param  GPIO_Init: pointer to a GPIO_InitTypeDef structure that contains
 184:../Drivers/STM32F4xx_HAL_Driver/Src/stm32f4xx_hal_gpio.c ****   *         the configuration information for the specified GPIO peripheral.
 185:../Drivers/STM32F4xx_HAL_Driver/Src/stm32f4xx_hal_gpio.c ****   * @retval None
 186:../Drivers/STM32F4xx_HAL_Driver/Src/stm32f4xx_hal_gpio.c ****   */
 187:../Drivers/STM32F4xx_HAL_Driver/Src/stm32f4xx_hal_gpio.c **** void HAL_GPIO_Init(GPIO_TypeDef  *GPIOx, GPIO_InitTypeDef *GPIO_Init)
 188:../Drivers/STM32F4xx_HAL_Driver/Src/stm32f4xx_hal_gpio.c **** {
  30              		.loc 1 188 0
  31              		.cfi_startproc
  32              		@ args = 0, pretend = 0, frame = 0
  33              		@ frame_needed = 0, uses_anonymous_args = 0
  34              	.LVL0:
  35 0000 F0B5     		push	{r4, r5, r6, r7, lr}
  36              	.LCFI0:
  37              		.cfi_def_cfa_offset 20
  38              		.cfi_offset 4, -20
  39              		.cfi_offset 5, -16
  40              		.cfi_offset 6, -12
  41              		.cfi_offset 7, -8
ARM GAS  /tmp/ccbXV9fs.s 			page 5


  42              		.cfi_offset 14, -4
  43              	.LVL1:
 189:../Drivers/STM32F4xx_HAL_Driver/Src/stm32f4xx_hal_gpio.c ****   uint32_t position;
 190:../Drivers/STM32F4xx_HAL_Driver/Src/stm32f4xx_hal_gpio.c ****   uint32_t ioposition = 0x00;
 191:../Drivers/STM32F4xx_HAL_Driver/Src/stm32f4xx_hal_gpio.c ****   uint32_t iocurrent = 0x00;
 192:../Drivers/STM32F4xx_HAL_Driver/Src/stm32f4xx_hal_gpio.c ****   uint32_t temp = 0x00;
 193:../Drivers/STM32F4xx_HAL_Driver/Src/stm32f4xx_hal_gpio.c **** 
 194:../Drivers/STM32F4xx_HAL_Driver/Src/stm32f4xx_hal_gpio.c ****   /* Check the parameters */
 195:../Drivers/STM32F4xx_HAL_Driver/Src/stm32f4xx_hal_gpio.c ****   assert_param(IS_GPIO_PIN(GPIO_Init->Pin));
 196:../Drivers/STM32F4xx_HAL_Driver/Src/stm32f4xx_hal_gpio.c ****   assert_param(IS_GPIO_MODE(GPIO_Init->Mode));
 197:../Drivers/STM32F4xx_HAL_Driver/Src/stm32f4xx_hal_gpio.c ****   assert_param(IS_GPIO_PULL(GPIO_Init->Pull));
 198:../Drivers/STM32F4xx_HAL_Driver/Src/stm32f4xx_hal_gpio.c **** 
 199:../Drivers/STM32F4xx_HAL_Driver/Src/stm32f4xx_hal_gpio.c ****   /* Configure the port pins */
 200:../Drivers/STM32F4xx_HAL_Driver/Src/stm32f4xx_hal_gpio.c ****   for(position = 0; position < GPIO_NUMBER; position++)
  44              		.loc 1 200 0
  45 0002 0024     		movs	r4, #0
  46 0004 D3E0     		b	.L2
  47              	.LVL2:
  48              	.L13:
 201:../Drivers/STM32F4xx_HAL_Driver/Src/stm32f4xx_hal_gpio.c ****   {
 202:../Drivers/STM32F4xx_HAL_Driver/Src/stm32f4xx_hal_gpio.c ****     /* Get the IO position */
 203:../Drivers/STM32F4xx_HAL_Driver/Src/stm32f4xx_hal_gpio.c ****     ioposition = ((uint32_t)0x01) << position;
  49              		.loc 1 203 0
  50 0006 0123     		movs	r3, #1
  51 0008 A340     		lsls	r3, r3, r4
  52              	.LVL3:
 204:../Drivers/STM32F4xx_HAL_Driver/Src/stm32f4xx_hal_gpio.c ****     /* Get the current IO position */
 205:../Drivers/STM32F4xx_HAL_Driver/Src/stm32f4xx_hal_gpio.c ****     iocurrent = (uint32_t)(GPIO_Init->Pin) & ioposition;
  53              		.loc 1 205 0
  54 000a 0A68     		ldr	r2, [r1]
  55 000c 03EA0205 		and	r5, r3, r2
  56              	.LVL4:
 206:../Drivers/STM32F4xx_HAL_Driver/Src/stm32f4xx_hal_gpio.c **** 
 207:../Drivers/STM32F4xx_HAL_Driver/Src/stm32f4xx_hal_gpio.c ****     if(iocurrent == ioposition)
  57              		.loc 1 207 0
  58 0010 AB42     		cmp	r3, r5
  59 0012 40F0CB80 		bne	.L3
 208:../Drivers/STM32F4xx_HAL_Driver/Src/stm32f4xx_hal_gpio.c ****     {
 209:../Drivers/STM32F4xx_HAL_Driver/Src/stm32f4xx_hal_gpio.c ****       /*--------------------- GPIO Mode Configuration ------------------------*/
 210:../Drivers/STM32F4xx_HAL_Driver/Src/stm32f4xx_hal_gpio.c ****       /* In case of Alternate function mode selection */
 211:../Drivers/STM32F4xx_HAL_Driver/Src/stm32f4xx_hal_gpio.c ****       if((GPIO_Init->Mode == GPIO_MODE_AF_PP) || (GPIO_Init->Mode == GPIO_MODE_AF_OD))
  60              		.loc 1 211 0
  61 0016 4A68     		ldr	r2, [r1, #4]
  62 0018 022A     		cmp	r2, #2
  63 001a 01D0     		beq	.L4
  64              		.loc 1 211 0 is_stmt 0 discriminator 1
  65 001c 122A     		cmp	r2, #18
  66 001e 10D1     		bne	.L5
  67              	.L4:
 212:../Drivers/STM32F4xx_HAL_Driver/Src/stm32f4xx_hal_gpio.c ****       {
 213:../Drivers/STM32F4xx_HAL_Driver/Src/stm32f4xx_hal_gpio.c ****         /* Check the Alternate function parameter */
 214:../Drivers/STM32F4xx_HAL_Driver/Src/stm32f4xx_hal_gpio.c ****         assert_param(IS_GPIO_AF(GPIO_Init->Alternate));
 215:../Drivers/STM32F4xx_HAL_Driver/Src/stm32f4xx_hal_gpio.c ****         /* Configure Alternate function mapped with the current IO */
 216:../Drivers/STM32F4xx_HAL_Driver/Src/stm32f4xx_hal_gpio.c ****         temp = GPIOx->AFR[position >> 3];
  68              		.loc 1 216 0 is_stmt 1
  69 0020 E608     		lsrs	r6, r4, #3
  70 0022 0836     		adds	r6, r6, #8
ARM GAS  /tmp/ccbXV9fs.s 			page 6


  71 0024 50F826C0 		ldr	ip, [r0, r6, lsl #2]
  72              	.LVL5:
 217:../Drivers/STM32F4xx_HAL_Driver/Src/stm32f4xx_hal_gpio.c ****         temp &= ~((uint32_t)0xF << ((uint32_t)(position & (uint32_t)0x07) * 4)) ;
  73              		.loc 1 217 0
  74 0028 04F00702 		and	r2, r4, #7
  75 002c 9700     		lsls	r7, r2, #2
  76 002e 0F22     		movs	r2, #15
  77 0030 BA40     		lsls	r2, r2, r7
  78 0032 2CEA020E 		bic	lr, ip, r2
  79              	.LVL6:
 218:../Drivers/STM32F4xx_HAL_Driver/Src/stm32f4xx_hal_gpio.c ****         temp |= ((uint32_t)(GPIO_Init->Alternate) << (((uint32_t)position & (uint32_t)0x07) * 4));
  80              		.loc 1 218 0
  81 0036 0A69     		ldr	r2, [r1, #16]
  82 0038 BA40     		lsls	r2, r2, r7
  83 003a 4EEA0202 		orr	r2, lr, r2
  84              	.LVL7:
 219:../Drivers/STM32F4xx_HAL_Driver/Src/stm32f4xx_hal_gpio.c ****         GPIOx->AFR[position >> 3] = temp;
  85              		.loc 1 219 0
  86 003e 40F82620 		str	r2, [r0, r6, lsl #2]
  87              	.LVL8:
  88              	.L5:
 220:../Drivers/STM32F4xx_HAL_Driver/Src/stm32f4xx_hal_gpio.c ****       }
 221:../Drivers/STM32F4xx_HAL_Driver/Src/stm32f4xx_hal_gpio.c **** 
 222:../Drivers/STM32F4xx_HAL_Driver/Src/stm32f4xx_hal_gpio.c ****       /* Configure IO Direction mode (Input, Output, Alternate or Analog) */
 223:../Drivers/STM32F4xx_HAL_Driver/Src/stm32f4xx_hal_gpio.c ****       temp = GPIOx->MODER;
  89              		.loc 1 223 0
  90 0042 0268     		ldr	r2, [r0]
  91              	.LVL9:
 224:../Drivers/STM32F4xx_HAL_Driver/Src/stm32f4xx_hal_gpio.c ****       temp &= ~(GPIO_MODER_MODER0 << (position * 2));
  92              		.loc 1 224 0
  93 0044 6700     		lsls	r7, r4, #1
  94 0046 0326     		movs	r6, #3
  95 0048 BE40     		lsls	r6, r6, r7
  96 004a F643     		mvns	r6, r6
  97 004c 02EA060E 		and	lr, r2, r6
  98              	.LVL10:
 225:../Drivers/STM32F4xx_HAL_Driver/Src/stm32f4xx_hal_gpio.c ****       temp |= ((GPIO_Init->Mode & GPIO_MODE) << (position * 2));
  99              		.loc 1 225 0
 100 0050 4A68     		ldr	r2, [r1, #4]
 101 0052 02F00302 		and	r2, r2, #3
 102 0056 BA40     		lsls	r2, r2, r7
 103 0058 4EEA0202 		orr	r2, lr, r2
 104              	.LVL11:
 226:../Drivers/STM32F4xx_HAL_Driver/Src/stm32f4xx_hal_gpio.c ****       GPIOx->MODER = temp;
 105              		.loc 1 226 0
 106 005c 0260     		str	r2, [r0]
 227:../Drivers/STM32F4xx_HAL_Driver/Src/stm32f4xx_hal_gpio.c **** 
 228:../Drivers/STM32F4xx_HAL_Driver/Src/stm32f4xx_hal_gpio.c ****       /* In case of Output or Alternate function mode selection */
 229:../Drivers/STM32F4xx_HAL_Driver/Src/stm32f4xx_hal_gpio.c ****       if((GPIO_Init->Mode == GPIO_MODE_OUTPUT_PP) || (GPIO_Init->Mode == GPIO_MODE_AF_PP) ||
 107              		.loc 1 229 0
 108 005e 4A68     		ldr	r2, [r1, #4]
 109              	.LVL12:
 110 0060 02F1FF3E 		add	lr, r2, #-1
 111 0064 BEF1010F 		cmp	lr, #1
 112 0068 03D9     		bls	.L6
 113              		.loc 1 229 0 is_stmt 0 discriminator 1
 114 006a 112A     		cmp	r2, #17
ARM GAS  /tmp/ccbXV9fs.s 			page 7


 115 006c 01D0     		beq	.L6
 230:../Drivers/STM32F4xx_HAL_Driver/Src/stm32f4xx_hal_gpio.c ****          (GPIO_Init->Mode == GPIO_MODE_OUTPUT_OD) || (GPIO_Init->Mode == GPIO_MODE_AF_OD))
 116              		.loc 1 230 0 is_stmt 1
 117 006e 122A     		cmp	r2, #18
 118 0070 10D1     		bne	.L7
 119              	.L6:
 231:../Drivers/STM32F4xx_HAL_Driver/Src/stm32f4xx_hal_gpio.c ****       {
 232:../Drivers/STM32F4xx_HAL_Driver/Src/stm32f4xx_hal_gpio.c ****         /* Check the Speed parameter */
 233:../Drivers/STM32F4xx_HAL_Driver/Src/stm32f4xx_hal_gpio.c ****         assert_param(IS_GPIO_SPEED(GPIO_Init->Speed));
 234:../Drivers/STM32F4xx_HAL_Driver/Src/stm32f4xx_hal_gpio.c ****         /* Configure the IO Speed */
 235:../Drivers/STM32F4xx_HAL_Driver/Src/stm32f4xx_hal_gpio.c ****         temp = GPIOx->OSPEEDR; 
 120              		.loc 1 235 0
 121 0072 8268     		ldr	r2, [r0, #8]
 122              	.LVL13:
 236:../Drivers/STM32F4xx_HAL_Driver/Src/stm32f4xx_hal_gpio.c ****         temp &= ~(GPIO_OSPEEDER_OSPEEDR0 << (position * 2));
 123              		.loc 1 236 0
 124 0074 06EA020E 		and	lr, r6, r2
 125              	.LVL14:
 237:../Drivers/STM32F4xx_HAL_Driver/Src/stm32f4xx_hal_gpio.c ****         temp |= (GPIO_Init->Speed << (position * 2));
 126              		.loc 1 237 0
 127 0078 CA68     		ldr	r2, [r1, #12]
 128 007a BA40     		lsls	r2, r2, r7
 129 007c 4EEA0202 		orr	r2, lr, r2
 130              	.LVL15:
 238:../Drivers/STM32F4xx_HAL_Driver/Src/stm32f4xx_hal_gpio.c ****         GPIOx->OSPEEDR = temp;
 131              		.loc 1 238 0
 132 0080 8260     		str	r2, [r0, #8]
 239:../Drivers/STM32F4xx_HAL_Driver/Src/stm32f4xx_hal_gpio.c **** 
 240:../Drivers/STM32F4xx_HAL_Driver/Src/stm32f4xx_hal_gpio.c ****         /* Configure the IO Output Type */
 241:../Drivers/STM32F4xx_HAL_Driver/Src/stm32f4xx_hal_gpio.c ****         temp = GPIOx->OTYPER;
 133              		.loc 1 241 0
 134 0082 4268     		ldr	r2, [r0, #4]
 135              	.LVL16:
 242:../Drivers/STM32F4xx_HAL_Driver/Src/stm32f4xx_hal_gpio.c ****         temp &= ~(GPIO_OTYPER_OT_0 << position) ;
 136              		.loc 1 242 0
 137 0084 22EA0303 		bic	r3, r2, r3
 138              	.LVL17:
 243:../Drivers/STM32F4xx_HAL_Driver/Src/stm32f4xx_hal_gpio.c ****         temp |= (((GPIO_Init->Mode & GPIO_OUTPUT_TYPE) >> 4) << position);
 139              		.loc 1 243 0
 140 0088 4A68     		ldr	r2, [r1, #4]
 141 008a C2F30012 		ubfx	r2, r2, #4, #1
 142 008e A240     		lsls	r2, r2, r4
 143 0090 1A43     		orrs	r2, r2, r3
 144              	.LVL18:
 244:../Drivers/STM32F4xx_HAL_Driver/Src/stm32f4xx_hal_gpio.c ****         GPIOx->OTYPER = temp;
 145              		.loc 1 244 0
 146 0092 4260     		str	r2, [r0, #4]
 147              	.LVL19:
 148              	.L7:
 245:../Drivers/STM32F4xx_HAL_Driver/Src/stm32f4xx_hal_gpio.c ****       }
 246:../Drivers/STM32F4xx_HAL_Driver/Src/stm32f4xx_hal_gpio.c **** 
 247:../Drivers/STM32F4xx_HAL_Driver/Src/stm32f4xx_hal_gpio.c ****       /* Activate the Pull-up or Pull down resistor for the current IO */
 248:../Drivers/STM32F4xx_HAL_Driver/Src/stm32f4xx_hal_gpio.c ****       temp = GPIOx->PUPDR;
 149              		.loc 1 248 0
 150 0094 C368     		ldr	r3, [r0, #12]
 151              	.LVL20:
 249:../Drivers/STM32F4xx_HAL_Driver/Src/stm32f4xx_hal_gpio.c ****       temp &= ~(GPIO_PUPDR_PUPDR0 << (position * 2));
ARM GAS  /tmp/ccbXV9fs.s 			page 8


 152              		.loc 1 249 0
 153 0096 1E40     		ands	r6, r6, r3
 154              	.LVL21:
 250:../Drivers/STM32F4xx_HAL_Driver/Src/stm32f4xx_hal_gpio.c ****       temp |= ((GPIO_Init->Pull) << (position * 2));
 155              		.loc 1 250 0
 156 0098 8B68     		ldr	r3, [r1, #8]
 157 009a BB40     		lsls	r3, r3, r7
 158 009c 3343     		orrs	r3, r3, r6
 159              	.LVL22:
 251:../Drivers/STM32F4xx_HAL_Driver/Src/stm32f4xx_hal_gpio.c ****       GPIOx->PUPDR = temp;
 160              		.loc 1 251 0
 161 009e C360     		str	r3, [r0, #12]
 252:../Drivers/STM32F4xx_HAL_Driver/Src/stm32f4xx_hal_gpio.c **** 
 253:../Drivers/STM32F4xx_HAL_Driver/Src/stm32f4xx_hal_gpio.c ****       /*--------------------- EXTI Mode Configuration ------------------------*/
 254:../Drivers/STM32F4xx_HAL_Driver/Src/stm32f4xx_hal_gpio.c ****       /* Configure the External Interrupt or event for the current IO */
 255:../Drivers/STM32F4xx_HAL_Driver/Src/stm32f4xx_hal_gpio.c ****       if((GPIO_Init->Mode & EXTI_MODE) == EXTI_MODE)
 162              		.loc 1 255 0
 163 00a0 4B68     		ldr	r3, [r1, #4]
 164              	.LVL23:
 165 00a2 13F0805F 		tst	r3, #268435456
 166 00a6 00F08180 		beq	.L3
 256:../Drivers/STM32F4xx_HAL_Driver/Src/stm32f4xx_hal_gpio.c ****       {
 257:../Drivers/STM32F4xx_HAL_Driver/Src/stm32f4xx_hal_gpio.c ****         /* Enable SYSCFG Clock */
 258:../Drivers/STM32F4xx_HAL_Driver/Src/stm32f4xx_hal_gpio.c ****         __SYSCFG_CLK_ENABLE();
 167              		.loc 1 258 0
 168 00aa 434A     		ldr	r2, .L25
 169 00ac 536C     		ldr	r3, [r2, #68]
 170 00ae 43F48043 		orr	r3, r3, #16384
 171 00b2 5364     		str	r3, [r2, #68]
 172              	.LVL24:
 259:../Drivers/STM32F4xx_HAL_Driver/Src/stm32f4xx_hal_gpio.c **** 
 260:../Drivers/STM32F4xx_HAL_Driver/Src/stm32f4xx_hal_gpio.c ****         temp = SYSCFG->EXTICR[position >> 2];
 173              		.loc 1 260 0
 174 00b4 A608     		lsrs	r6, r4, #2
 175 00b6 B21C     		adds	r2, r6, #2
 176 00b8 404B     		ldr	r3, .L25+4
 177 00ba 53F82270 		ldr	r7, [r3, r2, lsl #2]
 178              	.LVL25:
 261:../Drivers/STM32F4xx_HAL_Driver/Src/stm32f4xx_hal_gpio.c ****         temp &= ~(((uint32_t)0x0F) << (4 * (position & 0x03)));
 179              		.loc 1 261 0
 180 00be 04F00303 		and	r3, r4, #3
 181 00c2 9B00     		lsls	r3, r3, #2
 182 00c4 0F22     		movs	r2, #15
 183 00c6 9A40     		lsls	r2, r2, r3
 184 00c8 27EA0207 		bic	r7, r7, r2
 185              	.LVL26:
 262:../Drivers/STM32F4xx_HAL_Driver/Src/stm32f4xx_hal_gpio.c ****         temp |= ((uint32_t)(GET_GPIO_SOURCE(GPIOx)) << (4 * (position & 0x03)));
 186              		.loc 1 262 0
 187 00cc 3C4A     		ldr	r2, .L25+8
 188 00ce 9042     		cmp	r0, r2
 189 00d0 25D0     		beq	.L14
 190              		.loc 1 262 0 is_stmt 0 discriminator 1
 191 00d2 02F58062 		add	r2, r2, #1024
 192 00d6 9042     		cmp	r0, r2
 193 00d8 23D0     		beq	.L15
 194              		.loc 1 262 0 discriminator 3
 195 00da 02F58062 		add	r2, r2, #1024
ARM GAS  /tmp/ccbXV9fs.s 			page 9


 196 00de 9042     		cmp	r0, r2
 197 00e0 21D0     		beq	.L16
 198              		.loc 1 262 0 discriminator 5
 199 00e2 02F58062 		add	r2, r2, #1024
 200 00e6 9042     		cmp	r0, r2
 201 00e8 1FD0     		beq	.L17
 202              		.loc 1 262 0 discriminator 7
 203 00ea 02F58062 		add	r2, r2, #1024
 204 00ee 9042     		cmp	r0, r2
 205 00f0 1DD0     		beq	.L18
 206              		.loc 1 262 0 discriminator 9
 207 00f2 02F58062 		add	r2, r2, #1024
 208 00f6 9042     		cmp	r0, r2
 209 00f8 1BD0     		beq	.L19
 210              		.loc 1 262 0 discriminator 11
 211 00fa 02F58062 		add	r2, r2, #1024
 212 00fe 9042     		cmp	r0, r2
 213 0100 19D0     		beq	.L20
 214              		.loc 1 262 0 discriminator 13
 215 0102 02F58062 		add	r2, r2, #1024
 216 0106 9042     		cmp	r0, r2
 217 0108 17D0     		beq	.L21
 218              		.loc 1 262 0 discriminator 15
 219 010a 02F58062 		add	r2, r2, #1024
 220 010e 9042     		cmp	r0, r2
 221 0110 15D0     		beq	.L22
 222              		.loc 1 262 0 discriminator 17
 223 0112 02F58062 		add	r2, r2, #1024
 224 0116 9042     		cmp	r0, r2
 225 0118 13D1     		bne	.L23
 226              		.loc 1 262 0
 227 011a 0922     		movs	r2, #9
 228 011c 12E0     		b	.L8
 229              	.L14:
 230 011e 0022     		movs	r2, #0
 231 0120 10E0     		b	.L8
 232              	.L15:
 233 0122 0122     		movs	r2, #1
 234              	.LVL27:
 235 0124 0EE0     		b	.L8
 236              	.LVL28:
 237              	.L16:
 238 0126 0222     		movs	r2, #2
 239 0128 0CE0     		b	.L8
 240              	.L17:
 241 012a 0322     		movs	r2, #3
 242 012c 0AE0     		b	.L8
 243              	.L18:
 244 012e 0422     		movs	r2, #4
 245 0130 08E0     		b	.L8
 246              	.L19:
 247 0132 0522     		movs	r2, #5
 248 0134 06E0     		b	.L8
 249              	.L20:
 250 0136 0622     		movs	r2, #6
 251 0138 04E0     		b	.L8
 252              	.L21:
ARM GAS  /tmp/ccbXV9fs.s 			page 10


 253 013a 0722     		movs	r2, #7
 254 013c 02E0     		b	.L8
 255              	.L22:
 256 013e 0822     		movs	r2, #8
 257 0140 00E0     		b	.L8
 258              	.L23:
 259 0142 0A22     		movs	r2, #10
 260              	.L8:
 261              		.loc 1 262 0 discriminator 40
 262 0144 02FA03F3 		lsl	r3, r2, r3
 263 0148 3B43     		orrs	r3, r3, r7
 264              	.LVL29:
 263:../Drivers/STM32F4xx_HAL_Driver/Src/stm32f4xx_hal_gpio.c ****         SYSCFG->EXTICR[position >> 2] = temp;
 265              		.loc 1 263 0 is_stmt 1 discriminator 40
 266 014a 0236     		adds	r6, r6, #2
 267 014c 1B4A     		ldr	r2, .L25+4
 268 014e 42F82630 		str	r3, [r2, r6, lsl #2]
 264:../Drivers/STM32F4xx_HAL_Driver/Src/stm32f4xx_hal_gpio.c **** 
 265:../Drivers/STM32F4xx_HAL_Driver/Src/stm32f4xx_hal_gpio.c ****         /* Clear EXTI line configuration */
 266:../Drivers/STM32F4xx_HAL_Driver/Src/stm32f4xx_hal_gpio.c ****         temp = EXTI->IMR;
 269              		.loc 1 266 0 discriminator 40
 270 0152 1C4B     		ldr	r3, .L25+12
 271              	.LVL30:
 272 0154 1A68     		ldr	r2, [r3]
 273              	.LVL31:
 267:../Drivers/STM32F4xx_HAL_Driver/Src/stm32f4xx_hal_gpio.c ****         temp &= ~((uint32_t)iocurrent);
 274              		.loc 1 267 0 discriminator 40
 275 0156 EB43     		mvns	r3, r5
 276 0158 02EA0306 		and	r6, r2, r3
 277              	.LVL32:
 268:../Drivers/STM32F4xx_HAL_Driver/Src/stm32f4xx_hal_gpio.c ****         if((GPIO_Init->Mode & GPIO_MODE_IT) == GPIO_MODE_IT)
 278              		.loc 1 268 0 discriminator 40
 279 015c 4F68     		ldr	r7, [r1, #4]
 280 015e 17F4803F 		tst	r7, #65536
 281 0162 01D0     		beq	.L9
 269:../Drivers/STM32F4xx_HAL_Driver/Src/stm32f4xx_hal_gpio.c ****         {
 270:../Drivers/STM32F4xx_HAL_Driver/Src/stm32f4xx_hal_gpio.c ****           temp |= iocurrent;
 282              		.loc 1 270 0
 283 0164 45EA0206 		orr	r6, r5, r2
 284              	.LVL33:
 285              	.L9:
 271:../Drivers/STM32F4xx_HAL_Driver/Src/stm32f4xx_hal_gpio.c ****         }
 272:../Drivers/STM32F4xx_HAL_Driver/Src/stm32f4xx_hal_gpio.c ****         EXTI->IMR = temp;
 286              		.loc 1 272 0
 287 0168 164A     		ldr	r2, .L25+12
 288 016a 1660     		str	r6, [r2]
 273:../Drivers/STM32F4xx_HAL_Driver/Src/stm32f4xx_hal_gpio.c **** 
 274:../Drivers/STM32F4xx_HAL_Driver/Src/stm32f4xx_hal_gpio.c ****         temp = EXTI->EMR;
 289              		.loc 1 274 0
 290 016c 5268     		ldr	r2, [r2, #4]
 291              	.LVL34:
 275:../Drivers/STM32F4xx_HAL_Driver/Src/stm32f4xx_hal_gpio.c ****         temp &= ~((uint32_t)iocurrent);
 292              		.loc 1 275 0
 293 016e 03EA0206 		and	r6, r3, r2
 294              	.LVL35:
 276:../Drivers/STM32F4xx_HAL_Driver/Src/stm32f4xx_hal_gpio.c ****         if((GPIO_Init->Mode & GPIO_MODE_EVT) == GPIO_MODE_EVT)
 295              		.loc 1 276 0
ARM GAS  /tmp/ccbXV9fs.s 			page 11


 296 0172 4F68     		ldr	r7, [r1, #4]
 297 0174 17F4003F 		tst	r7, #131072
 298 0178 01D0     		beq	.L10
 277:../Drivers/STM32F4xx_HAL_Driver/Src/stm32f4xx_hal_gpio.c ****         {
 278:../Drivers/STM32F4xx_HAL_Driver/Src/stm32f4xx_hal_gpio.c ****           temp |= iocurrent;
 299              		.loc 1 278 0
 300 017a 45EA0206 		orr	r6, r5, r2
 301              	.LVL36:
 302              	.L10:
 279:../Drivers/STM32F4xx_HAL_Driver/Src/stm32f4xx_hal_gpio.c ****         }
 280:../Drivers/STM32F4xx_HAL_Driver/Src/stm32f4xx_hal_gpio.c ****         EXTI->EMR = temp;
 303              		.loc 1 280 0
 304 017e 114A     		ldr	r2, .L25+12
 305 0180 5660     		str	r6, [r2, #4]
 281:../Drivers/STM32F4xx_HAL_Driver/Src/stm32f4xx_hal_gpio.c **** 
 282:../Drivers/STM32F4xx_HAL_Driver/Src/stm32f4xx_hal_gpio.c ****         /* Clear Rising Falling edge configuration */
 283:../Drivers/STM32F4xx_HAL_Driver/Src/stm32f4xx_hal_gpio.c ****         temp = EXTI->RTSR;
 306              		.loc 1 283 0
 307 0182 9268     		ldr	r2, [r2, #8]
 308              	.LVL37:
 284:../Drivers/STM32F4xx_HAL_Driver/Src/stm32f4xx_hal_gpio.c ****         temp &= ~((uint32_t)iocurrent);
 309              		.loc 1 284 0
 310 0184 03EA0206 		and	r6, r3, r2
 311              	.LVL38:
 285:../Drivers/STM32F4xx_HAL_Driver/Src/stm32f4xx_hal_gpio.c ****         if((GPIO_Init->Mode & RISING_EDGE) == RISING_EDGE)
 312              		.loc 1 285 0
 313 0188 4F68     		ldr	r7, [r1, #4]
 314 018a 17F4801F 		tst	r7, #1048576
 315 018e 01D0     		beq	.L11
 286:../Drivers/STM32F4xx_HAL_Driver/Src/stm32f4xx_hal_gpio.c ****         {
 287:../Drivers/STM32F4xx_HAL_Driver/Src/stm32f4xx_hal_gpio.c ****           temp |= iocurrent;
 316              		.loc 1 287 0
 317 0190 45EA0206 		orr	r6, r5, r2
 318              	.LVL39:
 319              	.L11:
 288:../Drivers/STM32F4xx_HAL_Driver/Src/stm32f4xx_hal_gpio.c ****         }
 289:../Drivers/STM32F4xx_HAL_Driver/Src/stm32f4xx_hal_gpio.c ****         EXTI->RTSR = temp;
 320              		.loc 1 289 0
 321 0194 0B4A     		ldr	r2, .L25+12
 322 0196 9660     		str	r6, [r2, #8]
 290:../Drivers/STM32F4xx_HAL_Driver/Src/stm32f4xx_hal_gpio.c **** 
 291:../Drivers/STM32F4xx_HAL_Driver/Src/stm32f4xx_hal_gpio.c ****         temp = EXTI->FTSR;
 323              		.loc 1 291 0
 324 0198 D268     		ldr	r2, [r2, #12]
 325              	.LVL40:
 292:../Drivers/STM32F4xx_HAL_Driver/Src/stm32f4xx_hal_gpio.c ****         temp &= ~((uint32_t)iocurrent);
 326              		.loc 1 292 0
 327 019a 1340     		ands	r3, r3, r2
 328              	.LVL41:
 293:../Drivers/STM32F4xx_HAL_Driver/Src/stm32f4xx_hal_gpio.c ****         if((GPIO_Init->Mode & FALLING_EDGE) == FALLING_EDGE)
 329              		.loc 1 293 0
 330 019c 4E68     		ldr	r6, [r1, #4]
 331 019e 16F4001F 		tst	r6, #2097152
 332 01a2 01D0     		beq	.L12
 294:../Drivers/STM32F4xx_HAL_Driver/Src/stm32f4xx_hal_gpio.c ****         {
 295:../Drivers/STM32F4xx_HAL_Driver/Src/stm32f4xx_hal_gpio.c ****           temp |= iocurrent;
 333              		.loc 1 295 0
ARM GAS  /tmp/ccbXV9fs.s 			page 12


 334 01a4 45EA0203 		orr	r3, r5, r2
 335              	.LVL42:
 336              	.L12:
 296:../Drivers/STM32F4xx_HAL_Driver/Src/stm32f4xx_hal_gpio.c ****         }
 297:../Drivers/STM32F4xx_HAL_Driver/Src/stm32f4xx_hal_gpio.c ****         EXTI->FTSR = temp;
 337              		.loc 1 297 0
 338 01a8 064A     		ldr	r2, .L25+12
 339 01aa D360     		str	r3, [r2, #12]
 340              	.LVL43:
 341              	.L3:
 200:../Drivers/STM32F4xx_HAL_Driver/Src/stm32f4xx_hal_gpio.c ****   {
 342              		.loc 1 200 0 discriminator 2
 343 01ac 0134     		adds	r4, r4, #1
 344              	.LVL44:
 345              	.L2:
 200:../Drivers/STM32F4xx_HAL_Driver/Src/stm32f4xx_hal_gpio.c ****   {
 346              		.loc 1 200 0 is_stmt 0 discriminator 1
 347 01ae 0F2C     		cmp	r4, #15
 348 01b0 7FF629AF 		bls	.L13
 298:../Drivers/STM32F4xx_HAL_Driver/Src/stm32f4xx_hal_gpio.c ****       }
 299:../Drivers/STM32F4xx_HAL_Driver/Src/stm32f4xx_hal_gpio.c ****     }
 300:../Drivers/STM32F4xx_HAL_Driver/Src/stm32f4xx_hal_gpio.c ****   }
 301:../Drivers/STM32F4xx_HAL_Driver/Src/stm32f4xx_hal_gpio.c **** }
 349              		.loc 1 301 0 is_stmt 1
 350 01b4 F0BD     		pop	{r4, r5, r6, r7, pc}
 351              	.LVL45:
 352              	.L26:
 353 01b6 00BF     		.align	2
 354              	.L25:
 355 01b8 00380240 		.word	1073887232
 356 01bc 00380140 		.word	1073821696
 357 01c0 00000240 		.word	1073872896
 358 01c4 003C0140 		.word	1073822720
 359              		.cfi_endproc
 360              	.LFE112:
 362              		.section	.text.HAL_GPIO_DeInit,"ax",%progbits
 363              		.align	2
 364              		.global	HAL_GPIO_DeInit
 365              		.thumb
 366              		.thumb_func
 368              	HAL_GPIO_DeInit:
 369              	.LFB113:
 302:../Drivers/STM32F4xx_HAL_Driver/Src/stm32f4xx_hal_gpio.c **** 
 303:../Drivers/STM32F4xx_HAL_Driver/Src/stm32f4xx_hal_gpio.c **** /**
 304:../Drivers/STM32F4xx_HAL_Driver/Src/stm32f4xx_hal_gpio.c ****   * @brief  De-initializes the GPIOx peripheral registers to their default reset values.
 305:../Drivers/STM32F4xx_HAL_Driver/Src/stm32f4xx_hal_gpio.c ****   * @param  GPIOx: where x can be (A..K) to select the GPIO peripheral for STM32F429X device or
 306:../Drivers/STM32F4xx_HAL_Driver/Src/stm32f4xx_hal_gpio.c ****   *                      x can be (A..I) to select the GPIO peripheral for STM32F40XX and STM32F427
 307:../Drivers/STM32F4xx_HAL_Driver/Src/stm32f4xx_hal_gpio.c ****   * @param  GPIO_Pin: specifies the port bit to be written.
 308:../Drivers/STM32F4xx_HAL_Driver/Src/stm32f4xx_hal_gpio.c ****   *          This parameter can be one of GPIO_PIN_x where x can be (0..15).
 309:../Drivers/STM32F4xx_HAL_Driver/Src/stm32f4xx_hal_gpio.c ****   * @retval None
 310:../Drivers/STM32F4xx_HAL_Driver/Src/stm32f4xx_hal_gpio.c ****   */
 311:../Drivers/STM32F4xx_HAL_Driver/Src/stm32f4xx_hal_gpio.c **** void HAL_GPIO_DeInit(GPIO_TypeDef  *GPIOx, uint32_t GPIO_Pin)
 312:../Drivers/STM32F4xx_HAL_Driver/Src/stm32f4xx_hal_gpio.c **** {
 370              		.loc 1 312 0
 371              		.cfi_startproc
 372              		@ args = 0, pretend = 0, frame = 0
 373              		@ frame_needed = 0, uses_anonymous_args = 0
ARM GAS  /tmp/ccbXV9fs.s 			page 13


 374              	.LVL46:
 375 0000 F0B5     		push	{r4, r5, r6, r7, lr}
 376              	.LCFI1:
 377              		.cfi_def_cfa_offset 20
 378              		.cfi_offset 4, -20
 379              		.cfi_offset 5, -16
 380              		.cfi_offset 6, -12
 381              		.cfi_offset 7, -8
 382              		.cfi_offset 14, -4
 383              	.LVL47:
 313:../Drivers/STM32F4xx_HAL_Driver/Src/stm32f4xx_hal_gpio.c ****   uint32_t position;
 314:../Drivers/STM32F4xx_HAL_Driver/Src/stm32f4xx_hal_gpio.c ****   uint32_t ioposition = 0x00;
 315:../Drivers/STM32F4xx_HAL_Driver/Src/stm32f4xx_hal_gpio.c ****   uint32_t iocurrent = 0x00;
 316:../Drivers/STM32F4xx_HAL_Driver/Src/stm32f4xx_hal_gpio.c ****   uint32_t tmp = 0x00;
 317:../Drivers/STM32F4xx_HAL_Driver/Src/stm32f4xx_hal_gpio.c **** 
 318:../Drivers/STM32F4xx_HAL_Driver/Src/stm32f4xx_hal_gpio.c ****   /* Configure the port pins */
 319:../Drivers/STM32F4xx_HAL_Driver/Src/stm32f4xx_hal_gpio.c ****   for(position = 0; position < GPIO_NUMBER; position++)
 384              		.loc 1 319 0
 385 0002 0023     		movs	r3, #0
 386 0004 43E0     		b	.L28
 387              	.LVL48:
 388              	.L30:
 320:../Drivers/STM32F4xx_HAL_Driver/Src/stm32f4xx_hal_gpio.c ****   {
 321:../Drivers/STM32F4xx_HAL_Driver/Src/stm32f4xx_hal_gpio.c ****     /* Get the IO position */
 322:../Drivers/STM32F4xx_HAL_Driver/Src/stm32f4xx_hal_gpio.c ****     ioposition = ((uint32_t)0x01) << position;
 389              		.loc 1 322 0
 390 0006 0122     		movs	r2, #1
 391 0008 9A40     		lsls	r2, r2, r3
 392              	.LVL49:
 323:../Drivers/STM32F4xx_HAL_Driver/Src/stm32f4xx_hal_gpio.c ****     /* Get the current IO position */
 324:../Drivers/STM32F4xx_HAL_Driver/Src/stm32f4xx_hal_gpio.c ****     iocurrent = (GPIO_Pin) & ioposition;
 393              		.loc 1 324 0
 394 000a 02EA0105 		and	r5, r2, r1
 395              	.LVL50:
 325:../Drivers/STM32F4xx_HAL_Driver/Src/stm32f4xx_hal_gpio.c **** 
 326:../Drivers/STM32F4xx_HAL_Driver/Src/stm32f4xx_hal_gpio.c ****     if(iocurrent == ioposition)
 396              		.loc 1 326 0
 397 000e AA42     		cmp	r2, r5
 398 0010 3CD1     		bne	.L29
 327:../Drivers/STM32F4xx_HAL_Driver/Src/stm32f4xx_hal_gpio.c ****     {
 328:../Drivers/STM32F4xx_HAL_Driver/Src/stm32f4xx_hal_gpio.c ****       /*------------------------- GPIO Mode Configuration --------------------*/
 329:../Drivers/STM32F4xx_HAL_Driver/Src/stm32f4xx_hal_gpio.c ****       /* Configure IO Direction in Input Floting Mode */
 330:../Drivers/STM32F4xx_HAL_Driver/Src/stm32f4xx_hal_gpio.c ****       GPIOx->MODER &= ~(GPIO_MODER_MODER0 << (position * 2));
 399              		.loc 1 330 0
 400 0012 0668     		ldr	r6, [r0]
 401 0014 5F00     		lsls	r7, r3, #1
 402 0016 0324     		movs	r4, #3
 403 0018 BC40     		lsls	r4, r4, r7
 404 001a E443     		mvns	r4, r4
 405 001c 2640     		ands	r6, r6, r4
 406 001e 0660     		str	r6, [r0]
 331:../Drivers/STM32F4xx_HAL_Driver/Src/stm32f4xx_hal_gpio.c **** 
 332:../Drivers/STM32F4xx_HAL_Driver/Src/stm32f4xx_hal_gpio.c ****       /* Configure the default Alternate Function in current IO */
 333:../Drivers/STM32F4xx_HAL_Driver/Src/stm32f4xx_hal_gpio.c ****       GPIOx->AFR[position >> 3] &= ~((uint32_t)0xF << ((uint32_t)(position & (uint32_t)0x07) * 4)) 
 407              		.loc 1 333 0
 408 0020 4FEAD30E 		lsr	lr, r3, #3
 409 0024 0EF1080E 		add	lr, lr, #8
ARM GAS  /tmp/ccbXV9fs.s 			page 14


 410 0028 50F82EC0 		ldr	ip, [r0, lr, lsl #2]
 411 002c 03F00706 		and	r6, r3, #7
 412 0030 B600     		lsls	r6, r6, #2
 413 0032 0F27     		movs	r7, #15
 414 0034 07FA06F6 		lsl	r6, r7, r6
 415 0038 2CEA0606 		bic	r6, ip, r6
 416 003c 40F82E60 		str	r6, [r0, lr, lsl #2]
 334:../Drivers/STM32F4xx_HAL_Driver/Src/stm32f4xx_hal_gpio.c **** 
 335:../Drivers/STM32F4xx_HAL_Driver/Src/stm32f4xx_hal_gpio.c ****       /* Configure the default value for IO Speed */
 336:../Drivers/STM32F4xx_HAL_Driver/Src/stm32f4xx_hal_gpio.c ****       GPIOx->OSPEEDR &= ~(GPIO_OSPEEDER_OSPEEDR0 << (position * 2));
 417              		.loc 1 336 0
 418 0040 8668     		ldr	r6, [r0, #8]
 419 0042 2640     		ands	r6, r6, r4
 420 0044 8660     		str	r6, [r0, #8]
 337:../Drivers/STM32F4xx_HAL_Driver/Src/stm32f4xx_hal_gpio.c **** 
 338:../Drivers/STM32F4xx_HAL_Driver/Src/stm32f4xx_hal_gpio.c ****       /* Configure the default value IO Output Type */
 339:../Drivers/STM32F4xx_HAL_Driver/Src/stm32f4xx_hal_gpio.c ****       GPIOx->OTYPER  &= ~(GPIO_OTYPER_OT_0 << position) ;
 421              		.loc 1 339 0
 422 0046 4668     		ldr	r6, [r0, #4]
 423 0048 26EA0202 		bic	r2, r6, r2
 424              	.LVL51:
 425 004c 4260     		str	r2, [r0, #4]
 340:../Drivers/STM32F4xx_HAL_Driver/Src/stm32f4xx_hal_gpio.c **** 
 341:../Drivers/STM32F4xx_HAL_Driver/Src/stm32f4xx_hal_gpio.c ****       /* Deactivate the Pull-up oand Pull-down resistor for the current IO */
 342:../Drivers/STM32F4xx_HAL_Driver/Src/stm32f4xx_hal_gpio.c ****       GPIOx->PUPDR &= ~(GPIO_PUPDR_PUPDR0 << (position * 2));
 426              		.loc 1 342 0
 427 004e C268     		ldr	r2, [r0, #12]
 428 0050 1440     		ands	r4, r4, r2
 429 0052 C460     		str	r4, [r0, #12]
 343:../Drivers/STM32F4xx_HAL_Driver/Src/stm32f4xx_hal_gpio.c **** 
 344:../Drivers/STM32F4xx_HAL_Driver/Src/stm32f4xx_hal_gpio.c ****       /*------------------------- EXTI Mode Configuration --------------------*/
 345:../Drivers/STM32F4xx_HAL_Driver/Src/stm32f4xx_hal_gpio.c ****       /* Configure the External Interrupt or event for the current IO */
 346:../Drivers/STM32F4xx_HAL_Driver/Src/stm32f4xx_hal_gpio.c ****       tmp = ((uint32_t)0x0F) << (4 * (position & 0x03));
 430              		.loc 1 346 0
 431 0054 03F00302 		and	r2, r3, #3
 432 0058 9200     		lsls	r2, r2, #2
 433 005a 9740     		lsls	r7, r7, r2
 434              	.LVL52:
 347:../Drivers/STM32F4xx_HAL_Driver/Src/stm32f4xx_hal_gpio.c ****       SYSCFG->EXTICR[position >> 2] &= ~tmp;
 435              		.loc 1 347 0
 436 005c 9A08     		lsrs	r2, r3, #2
 437 005e 0D4E     		ldr	r6, .L32
 438 0060 0232     		adds	r2, r2, #2
 439 0062 56F82240 		ldr	r4, [r6, r2, lsl #2]
 440 0066 24EA0707 		bic	r7, r4, r7
 441              	.LVL53:
 442 006a 46F82270 		str	r7, [r6, r2, lsl #2]
 348:../Drivers/STM32F4xx_HAL_Driver/Src/stm32f4xx_hal_gpio.c **** 
 349:../Drivers/STM32F4xx_HAL_Driver/Src/stm32f4xx_hal_gpio.c ****       /* Clear EXTI line configuration */
 350:../Drivers/STM32F4xx_HAL_Driver/Src/stm32f4xx_hal_gpio.c ****       EXTI->IMR &= ~((uint32_t)iocurrent);
 443              		.loc 1 350 0
 444 006e 0A4C     		ldr	r4, .L32+4
 445 0070 2668     		ldr	r6, [r4]
 446 0072 EA43     		mvns	r2, r5
 447 0074 06EA0205 		and	r5, r6, r2
 448              	.LVL54:
 449 0078 2560     		str	r5, [r4]
ARM GAS  /tmp/ccbXV9fs.s 			page 15


 351:../Drivers/STM32F4xx_HAL_Driver/Src/stm32f4xx_hal_gpio.c ****       EXTI->EMR &= ~((uint32_t)iocurrent);
 450              		.loc 1 351 0
 451 007a 6568     		ldr	r5, [r4, #4]
 452 007c 1540     		ands	r5, r5, r2
 453 007e 6560     		str	r5, [r4, #4]
 352:../Drivers/STM32F4xx_HAL_Driver/Src/stm32f4xx_hal_gpio.c **** 
 353:../Drivers/STM32F4xx_HAL_Driver/Src/stm32f4xx_hal_gpio.c ****       /* Clear Rising Falling edge configuration */
 354:../Drivers/STM32F4xx_HAL_Driver/Src/stm32f4xx_hal_gpio.c ****       EXTI->RTSR &= ~((uint32_t)iocurrent);
 454              		.loc 1 354 0
 455 0080 A568     		ldr	r5, [r4, #8]
 456 0082 1540     		ands	r5, r5, r2
 457 0084 A560     		str	r5, [r4, #8]
 355:../Drivers/STM32F4xx_HAL_Driver/Src/stm32f4xx_hal_gpio.c ****       EXTI->FTSR &= ~((uint32_t)iocurrent);
 458              		.loc 1 355 0
 459 0086 E568     		ldr	r5, [r4, #12]
 460 0088 2A40     		ands	r2, r2, r5
 461              	.LVL55:
 462 008a E260     		str	r2, [r4, #12]
 463              	.LVL56:
 464              	.L29:
 319:../Drivers/STM32F4xx_HAL_Driver/Src/stm32f4xx_hal_gpio.c ****   {
 465              		.loc 1 319 0 discriminator 2
 466 008c 0133     		adds	r3, r3, #1
 467              	.LVL57:
 468              	.L28:
 319:../Drivers/STM32F4xx_HAL_Driver/Src/stm32f4xx_hal_gpio.c ****   {
 469              		.loc 1 319 0 is_stmt 0 discriminator 1
 470 008e 0F2B     		cmp	r3, #15
 471 0090 B9D9     		bls	.L30
 356:../Drivers/STM32F4xx_HAL_Driver/Src/stm32f4xx_hal_gpio.c ****     }
 357:../Drivers/STM32F4xx_HAL_Driver/Src/stm32f4xx_hal_gpio.c ****   }
 358:../Drivers/STM32F4xx_HAL_Driver/Src/stm32f4xx_hal_gpio.c **** }
 472              		.loc 1 358 0 is_stmt 1
 473 0092 F0BD     		pop	{r4, r5, r6, r7, pc}
 474              	.L33:
 475              		.align	2
 476              	.L32:
 477 0094 00380140 		.word	1073821696
 478 0098 003C0140 		.word	1073822720
 479              		.cfi_endproc
 480              	.LFE113:
 482              		.section	.text.HAL_GPIO_ReadPin,"ax",%progbits
 483              		.align	2
 484              		.global	HAL_GPIO_ReadPin
 485              		.thumb
 486              		.thumb_func
 488              	HAL_GPIO_ReadPin:
 489              	.LFB114:
 359:../Drivers/STM32F4xx_HAL_Driver/Src/stm32f4xx_hal_gpio.c **** 
 360:../Drivers/STM32F4xx_HAL_Driver/Src/stm32f4xx_hal_gpio.c **** /**
 361:../Drivers/STM32F4xx_HAL_Driver/Src/stm32f4xx_hal_gpio.c ****   * @}
 362:../Drivers/STM32F4xx_HAL_Driver/Src/stm32f4xx_hal_gpio.c ****   */
 363:../Drivers/STM32F4xx_HAL_Driver/Src/stm32f4xx_hal_gpio.c **** 
 364:../Drivers/STM32F4xx_HAL_Driver/Src/stm32f4xx_hal_gpio.c **** /** @defgroup GPIO_Group2 IO operation functions 
 365:../Drivers/STM32F4xx_HAL_Driver/Src/stm32f4xx_hal_gpio.c ****  *  @brief   GPIO Read and Write
 366:../Drivers/STM32F4xx_HAL_Driver/Src/stm32f4xx_hal_gpio.c ****  *
 367:../Drivers/STM32F4xx_HAL_Driver/Src/stm32f4xx_hal_gpio.c **** @verbatim
ARM GAS  /tmp/ccbXV9fs.s 			page 16


 368:../Drivers/STM32F4xx_HAL_Driver/Src/stm32f4xx_hal_gpio.c ****  ===============================================================================
 369:../Drivers/STM32F4xx_HAL_Driver/Src/stm32f4xx_hal_gpio.c ****                        ##### IO operation functions #####
 370:../Drivers/STM32F4xx_HAL_Driver/Src/stm32f4xx_hal_gpio.c ****  ===============================================================================
 371:../Drivers/STM32F4xx_HAL_Driver/Src/stm32f4xx_hal_gpio.c **** 
 372:../Drivers/STM32F4xx_HAL_Driver/Src/stm32f4xx_hal_gpio.c **** @endverbatim
 373:../Drivers/STM32F4xx_HAL_Driver/Src/stm32f4xx_hal_gpio.c ****   * @{
 374:../Drivers/STM32F4xx_HAL_Driver/Src/stm32f4xx_hal_gpio.c ****   */
 375:../Drivers/STM32F4xx_HAL_Driver/Src/stm32f4xx_hal_gpio.c **** 
 376:../Drivers/STM32F4xx_HAL_Driver/Src/stm32f4xx_hal_gpio.c **** /**
 377:../Drivers/STM32F4xx_HAL_Driver/Src/stm32f4xx_hal_gpio.c ****   * @brief  Reads the specified input port pin.
 378:../Drivers/STM32F4xx_HAL_Driver/Src/stm32f4xx_hal_gpio.c ****   * @param  GPIOx: where x can be (A..K) to select the GPIO peripheral for STM32F429X device or
 379:../Drivers/STM32F4xx_HAL_Driver/Src/stm32f4xx_hal_gpio.c ****   *                      x can be (A..I) to select the GPIO peripheral for STM32F40XX and STM32F427
 380:../Drivers/STM32F4xx_HAL_Driver/Src/stm32f4xx_hal_gpio.c ****   * @param  GPIO_Pin: specifies the port bit to read.
 381:../Drivers/STM32F4xx_HAL_Driver/Src/stm32f4xx_hal_gpio.c ****   *         This parameter can be GPIO_PIN_x where x can be (0..15).
 382:../Drivers/STM32F4xx_HAL_Driver/Src/stm32f4xx_hal_gpio.c ****   * @retval The input port pin value.
 383:../Drivers/STM32F4xx_HAL_Driver/Src/stm32f4xx_hal_gpio.c ****   */
 384:../Drivers/STM32F4xx_HAL_Driver/Src/stm32f4xx_hal_gpio.c **** GPIO_PinState HAL_GPIO_ReadPin(GPIO_TypeDef* GPIOx, uint16_t GPIO_Pin)
 385:../Drivers/STM32F4xx_HAL_Driver/Src/stm32f4xx_hal_gpio.c **** {
 490              		.loc 1 385 0
 491              		.cfi_startproc
 492              		@ args = 0, pretend = 0, frame = 0
 493              		@ frame_needed = 0, uses_anonymous_args = 0
 494              		@ link register save eliminated.
 495              	.LVL58:
 386:../Drivers/STM32F4xx_HAL_Driver/Src/stm32f4xx_hal_gpio.c ****   GPIO_PinState bitstatus;
 387:../Drivers/STM32F4xx_HAL_Driver/Src/stm32f4xx_hal_gpio.c **** 
 388:../Drivers/STM32F4xx_HAL_Driver/Src/stm32f4xx_hal_gpio.c ****   /* Check the parameters */
 389:../Drivers/STM32F4xx_HAL_Driver/Src/stm32f4xx_hal_gpio.c ****   assert_param(IS_GPIO_PIN(GPIO_Pin));
 390:../Drivers/STM32F4xx_HAL_Driver/Src/stm32f4xx_hal_gpio.c **** 
 391:../Drivers/STM32F4xx_HAL_Driver/Src/stm32f4xx_hal_gpio.c ****   if((GPIOx->IDR & GPIO_Pin) != (uint32_t)GPIO_PIN_RESET)
 496              		.loc 1 391 0
 497 0000 0369     		ldr	r3, [r0, #16]
 498 0002 1942     		tst	r1, r3
 499 0004 01D0     		beq	.L36
 392:../Drivers/STM32F4xx_HAL_Driver/Src/stm32f4xx_hal_gpio.c ****   {
 393:../Drivers/STM32F4xx_HAL_Driver/Src/stm32f4xx_hal_gpio.c ****     bitstatus = GPIO_PIN_SET;
 500              		.loc 1 393 0
 501 0006 0120     		movs	r0, #1
 502              	.LVL59:
 503 0008 7047     		bx	lr
 504              	.LVL60:
 505              	.L36:
 394:../Drivers/STM32F4xx_HAL_Driver/Src/stm32f4xx_hal_gpio.c ****   }
 395:../Drivers/STM32F4xx_HAL_Driver/Src/stm32f4xx_hal_gpio.c ****   else
 396:../Drivers/STM32F4xx_HAL_Driver/Src/stm32f4xx_hal_gpio.c ****   {
 397:../Drivers/STM32F4xx_HAL_Driver/Src/stm32f4xx_hal_gpio.c ****     bitstatus = GPIO_PIN_RESET;
 506              		.loc 1 397 0
 507 000a 0020     		movs	r0, #0
 508              	.LVL61:
 398:../Drivers/STM32F4xx_HAL_Driver/Src/stm32f4xx_hal_gpio.c ****   }
 399:../Drivers/STM32F4xx_HAL_Driver/Src/stm32f4xx_hal_gpio.c ****   return bitstatus;
 400:../Drivers/STM32F4xx_HAL_Driver/Src/stm32f4xx_hal_gpio.c **** }
 509              		.loc 1 400 0
 510 000c 7047     		bx	lr
 511              		.cfi_endproc
 512              	.LFE114:
 514 000e 00BF     		.section	.text.HAL_GPIO_WritePin,"ax",%progbits
ARM GAS  /tmp/ccbXV9fs.s 			page 17


 515              		.align	2
 516              		.global	HAL_GPIO_WritePin
 517              		.thumb
 518              		.thumb_func
 520              	HAL_GPIO_WritePin:
 521              	.LFB115:
 401:../Drivers/STM32F4xx_HAL_Driver/Src/stm32f4xx_hal_gpio.c **** 
 402:../Drivers/STM32F4xx_HAL_Driver/Src/stm32f4xx_hal_gpio.c **** /**
 403:../Drivers/STM32F4xx_HAL_Driver/Src/stm32f4xx_hal_gpio.c ****   * @brief  Sets or clears the selected data port bit.
 404:../Drivers/STM32F4xx_HAL_Driver/Src/stm32f4xx_hal_gpio.c ****   *
 405:../Drivers/STM32F4xx_HAL_Driver/Src/stm32f4xx_hal_gpio.c ****   * @note   This function uses GPIOx_BSRR register to allow atomic read/modify
 406:../Drivers/STM32F4xx_HAL_Driver/Src/stm32f4xx_hal_gpio.c ****   *         accesses. In this way, there is no risk of an IRQ occurring between
 407:../Drivers/STM32F4xx_HAL_Driver/Src/stm32f4xx_hal_gpio.c ****   *         the read and the modify access.
 408:../Drivers/STM32F4xx_HAL_Driver/Src/stm32f4xx_hal_gpio.c ****   *
 409:../Drivers/STM32F4xx_HAL_Driver/Src/stm32f4xx_hal_gpio.c ****   * @param  GPIOx: where x can be (A..K) to select the GPIO peripheral for STM32F429X device or
 410:../Drivers/STM32F4xx_HAL_Driver/Src/stm32f4xx_hal_gpio.c ****   *                      x can be (A..I) to select the GPIO peripheral for STM32F40XX and STM32F427
 411:../Drivers/STM32F4xx_HAL_Driver/Src/stm32f4xx_hal_gpio.c ****   * @param  GPIO_Pin: specifies the port bit to be written.
 412:../Drivers/STM32F4xx_HAL_Driver/Src/stm32f4xx_hal_gpio.c ****   *          This parameter can be one of GPIO_PIN_x where x can be (0..15).
 413:../Drivers/STM32F4xx_HAL_Driver/Src/stm32f4xx_hal_gpio.c ****   * @param  PinState: specifies the value to be written to the selected bit.
 414:../Drivers/STM32F4xx_HAL_Driver/Src/stm32f4xx_hal_gpio.c ****   *          This parameter can be one of the GPIO_PinState enum values:
 415:../Drivers/STM32F4xx_HAL_Driver/Src/stm32f4xx_hal_gpio.c ****   *            @arg GPIO_PIN_RESET: to clear the port pin
 416:../Drivers/STM32F4xx_HAL_Driver/Src/stm32f4xx_hal_gpio.c ****   *            @arg GPIO_PIN_SET: to set the port pin
 417:../Drivers/STM32F4xx_HAL_Driver/Src/stm32f4xx_hal_gpio.c ****   * @retval None
 418:../Drivers/STM32F4xx_HAL_Driver/Src/stm32f4xx_hal_gpio.c ****   */
 419:../Drivers/STM32F4xx_HAL_Driver/Src/stm32f4xx_hal_gpio.c **** void HAL_GPIO_WritePin(GPIO_TypeDef* GPIOx, uint16_t GPIO_Pin, GPIO_PinState PinState)
 420:../Drivers/STM32F4xx_HAL_Driver/Src/stm32f4xx_hal_gpio.c **** {
 522              		.loc 1 420 0
 523              		.cfi_startproc
 524              		@ args = 0, pretend = 0, frame = 0
 525              		@ frame_needed = 0, uses_anonymous_args = 0
 526              		@ link register save eliminated.
 527              	.LVL62:
 421:../Drivers/STM32F4xx_HAL_Driver/Src/stm32f4xx_hal_gpio.c ****   /* Check the parameters */
 422:../Drivers/STM32F4xx_HAL_Driver/Src/stm32f4xx_hal_gpio.c ****   assert_param(IS_GPIO_PIN(GPIO_Pin));
 423:../Drivers/STM32F4xx_HAL_Driver/Src/stm32f4xx_hal_gpio.c ****   assert_param(IS_GPIO_PIN_ACTION(PinState));
 424:../Drivers/STM32F4xx_HAL_Driver/Src/stm32f4xx_hal_gpio.c **** 
 425:../Drivers/STM32F4xx_HAL_Driver/Src/stm32f4xx_hal_gpio.c ****   if(PinState != GPIO_PIN_RESET)
 528              		.loc 1 425 0
 529 0000 0AB1     		cbz	r2, .L38
 426:../Drivers/STM32F4xx_HAL_Driver/Src/stm32f4xx_hal_gpio.c ****   {
 427:../Drivers/STM32F4xx_HAL_Driver/Src/stm32f4xx_hal_gpio.c ****     GPIOx->BSRRL = GPIO_Pin;
 530              		.loc 1 427 0
 531 0002 0183     		strh	r1, [r0, #24]	@ movhi
 532 0004 7047     		bx	lr
 533              	.L38:
 428:../Drivers/STM32F4xx_HAL_Driver/Src/stm32f4xx_hal_gpio.c ****   }
 429:../Drivers/STM32F4xx_HAL_Driver/Src/stm32f4xx_hal_gpio.c ****   else
 430:../Drivers/STM32F4xx_HAL_Driver/Src/stm32f4xx_hal_gpio.c ****   {
 431:../Drivers/STM32F4xx_HAL_Driver/Src/stm32f4xx_hal_gpio.c ****     GPIOx->BSRRH = GPIO_Pin ;
 534              		.loc 1 431 0
 535 0006 4183     		strh	r1, [r0, #26]	@ movhi
 536 0008 7047     		bx	lr
 537              		.cfi_endproc
 538              	.LFE115:
 540 000a 00BF     		.section	.text.HAL_GPIO_TogglePin,"ax",%progbits
 541              		.align	2
 542              		.global	HAL_GPIO_TogglePin
ARM GAS  /tmp/ccbXV9fs.s 			page 18


 543              		.thumb
 544              		.thumb_func
 546              	HAL_GPIO_TogglePin:
 547              	.LFB116:
 432:../Drivers/STM32F4xx_HAL_Driver/Src/stm32f4xx_hal_gpio.c ****   }
 433:../Drivers/STM32F4xx_HAL_Driver/Src/stm32f4xx_hal_gpio.c **** }
 434:../Drivers/STM32F4xx_HAL_Driver/Src/stm32f4xx_hal_gpio.c **** 
 435:../Drivers/STM32F4xx_HAL_Driver/Src/stm32f4xx_hal_gpio.c **** /**
 436:../Drivers/STM32F4xx_HAL_Driver/Src/stm32f4xx_hal_gpio.c ****   * @brief  Toggles the specified GPIO pins.
 437:../Drivers/STM32F4xx_HAL_Driver/Src/stm32f4xx_hal_gpio.c ****   * @param  GPIOx: Where x can be (A..K) to select the GPIO peripheral for STM32F429X device or
 438:../Drivers/STM32F4xx_HAL_Driver/Src/stm32f4xx_hal_gpio.c ****   *                      x can be (A..I) to select the GPIO peripheral for STM32F40XX and STM32F427
 439:../Drivers/STM32F4xx_HAL_Driver/Src/stm32f4xx_hal_gpio.c ****   * @param  GPIO_Pin: Specifies the pins to be toggled.
 440:../Drivers/STM32F4xx_HAL_Driver/Src/stm32f4xx_hal_gpio.c ****   * @retval None
 441:../Drivers/STM32F4xx_HAL_Driver/Src/stm32f4xx_hal_gpio.c ****   */
 442:../Drivers/STM32F4xx_HAL_Driver/Src/stm32f4xx_hal_gpio.c **** void HAL_GPIO_TogglePin(GPIO_TypeDef* GPIOx, uint16_t GPIO_Pin)
 443:../Drivers/STM32F4xx_HAL_Driver/Src/stm32f4xx_hal_gpio.c **** {
 548              		.loc 1 443 0
 549              		.cfi_startproc
 550              		@ args = 0, pretend = 0, frame = 0
 551              		@ frame_needed = 0, uses_anonymous_args = 0
 552              		@ link register save eliminated.
 553              	.LVL63:
 444:../Drivers/STM32F4xx_HAL_Driver/Src/stm32f4xx_hal_gpio.c ****   /* Check the parameters */
 445:../Drivers/STM32F4xx_HAL_Driver/Src/stm32f4xx_hal_gpio.c ****   assert_param(IS_GPIO_PIN(GPIO_Pin));
 446:../Drivers/STM32F4xx_HAL_Driver/Src/stm32f4xx_hal_gpio.c **** 
 447:../Drivers/STM32F4xx_HAL_Driver/Src/stm32f4xx_hal_gpio.c ****   GPIOx->ODR ^= GPIO_Pin;
 554              		.loc 1 447 0
 555 0000 4369     		ldr	r3, [r0, #20]
 556 0002 5940     		eors	r1, r1, r3
 557              	.LVL64:
 558 0004 4161     		str	r1, [r0, #20]
 559 0006 7047     		bx	lr
 560              		.cfi_endproc
 561              	.LFE116:
 563              		.section	.text.HAL_GPIO_LockPin,"ax",%progbits
 564              		.align	2
 565              		.global	HAL_GPIO_LockPin
 566              		.thumb
 567              		.thumb_func
 569              	HAL_GPIO_LockPin:
 570              	.LFB117:
 448:../Drivers/STM32F4xx_HAL_Driver/Src/stm32f4xx_hal_gpio.c **** }
 449:../Drivers/STM32F4xx_HAL_Driver/Src/stm32f4xx_hal_gpio.c **** 
 450:../Drivers/STM32F4xx_HAL_Driver/Src/stm32f4xx_hal_gpio.c **** /**
 451:../Drivers/STM32F4xx_HAL_Driver/Src/stm32f4xx_hal_gpio.c ****   * @brief  Locks GPIO Pins configuration registers.
 452:../Drivers/STM32F4xx_HAL_Driver/Src/stm32f4xx_hal_gpio.c ****   * @note   The locked registers are GPIOx_MODER, GPIOx_OTYPER, GPIOx_OSPEEDR,
 453:../Drivers/STM32F4xx_HAL_Driver/Src/stm32f4xx_hal_gpio.c ****   *         GPIOx_PUPDR, GPIOx_AFRL and GPIOx_AFRH.
 454:../Drivers/STM32F4xx_HAL_Driver/Src/stm32f4xx_hal_gpio.c ****   * @note   The configuration of the locked GPIO pins can no longer be modified
 455:../Drivers/STM32F4xx_HAL_Driver/Src/stm32f4xx_hal_gpio.c ****   *         until the next reset.
 456:../Drivers/STM32F4xx_HAL_Driver/Src/stm32f4xx_hal_gpio.c ****   * @param  GPIOx: where x can be (A..F) to select the GPIO peripheral for STM32F4 family
 457:../Drivers/STM32F4xx_HAL_Driver/Src/stm32f4xx_hal_gpio.c ****   * @param  GPIO_Pin: specifies the port bit to be locked.
 458:../Drivers/STM32F4xx_HAL_Driver/Src/stm32f4xx_hal_gpio.c ****   *         This parameter can be any combination of GPIO_PIN_x where x can be (0..15).
 459:../Drivers/STM32F4xx_HAL_Driver/Src/stm32f4xx_hal_gpio.c ****   * @retval None
 460:../Drivers/STM32F4xx_HAL_Driver/Src/stm32f4xx_hal_gpio.c ****   */
 461:../Drivers/STM32F4xx_HAL_Driver/Src/stm32f4xx_hal_gpio.c **** HAL_StatusTypeDef HAL_GPIO_LockPin(GPIO_TypeDef* GPIOx, uint16_t GPIO_Pin)
 462:../Drivers/STM32F4xx_HAL_Driver/Src/stm32f4xx_hal_gpio.c **** {
 571              		.loc 1 462 0
ARM GAS  /tmp/ccbXV9fs.s 			page 19


 572              		.cfi_startproc
 573              		@ args = 0, pretend = 0, frame = 8
 574              		@ frame_needed = 0, uses_anonymous_args = 0
 575              		@ link register save eliminated.
 576              	.LVL65:
 577 0000 82B0     		sub	sp, sp, #8
 578              	.LCFI2:
 579              		.cfi_def_cfa_offset 8
 463:../Drivers/STM32F4xx_HAL_Driver/Src/stm32f4xx_hal_gpio.c ****   __IO uint32_t tmp = GPIO_LCKR_LCKK;
 580              		.loc 1 463 0
 581 0002 4FF48033 		mov	r3, #65536
 582 0006 0193     		str	r3, [sp, #4]
 464:../Drivers/STM32F4xx_HAL_Driver/Src/stm32f4xx_hal_gpio.c **** 
 465:../Drivers/STM32F4xx_HAL_Driver/Src/stm32f4xx_hal_gpio.c ****   /* Check the parameters */
 466:../Drivers/STM32F4xx_HAL_Driver/Src/stm32f4xx_hal_gpio.c ****   assert_param(IS_GPIO_PIN(GPIO_Pin));
 467:../Drivers/STM32F4xx_HAL_Driver/Src/stm32f4xx_hal_gpio.c **** 
 468:../Drivers/STM32F4xx_HAL_Driver/Src/stm32f4xx_hal_gpio.c ****   /* Apply lock key write sequence */
 469:../Drivers/STM32F4xx_HAL_Driver/Src/stm32f4xx_hal_gpio.c ****   tmp |= GPIO_Pin;
 583              		.loc 1 469 0
 584 0008 019B     		ldr	r3, [sp, #4]
 585 000a 0B43     		orrs	r3, r3, r1
 586 000c 0193     		str	r3, [sp, #4]
 470:../Drivers/STM32F4xx_HAL_Driver/Src/stm32f4xx_hal_gpio.c ****   /* Set LCKx bit(s): LCKK='1' + LCK[15-0] */
 471:../Drivers/STM32F4xx_HAL_Driver/Src/stm32f4xx_hal_gpio.c ****   GPIOx->LCKR = tmp;
 587              		.loc 1 471 0
 588 000e 019B     		ldr	r3, [sp, #4]
 589 0010 C361     		str	r3, [r0, #28]
 472:../Drivers/STM32F4xx_HAL_Driver/Src/stm32f4xx_hal_gpio.c ****   /* Reset LCKx bit(s): LCKK='0' + LCK[15-0] */
 473:../Drivers/STM32F4xx_HAL_Driver/Src/stm32f4xx_hal_gpio.c ****   GPIOx->LCKR = GPIO_Pin;
 590              		.loc 1 473 0
 591 0012 C161     		str	r1, [r0, #28]
 474:../Drivers/STM32F4xx_HAL_Driver/Src/stm32f4xx_hal_gpio.c ****   /* Set LCKx bit(s): LCKK='1' + LCK[15-0] */
 475:../Drivers/STM32F4xx_HAL_Driver/Src/stm32f4xx_hal_gpio.c ****   GPIOx->LCKR = tmp;
 592              		.loc 1 475 0
 593 0014 019B     		ldr	r3, [sp, #4]
 594 0016 C361     		str	r3, [r0, #28]
 476:../Drivers/STM32F4xx_HAL_Driver/Src/stm32f4xx_hal_gpio.c ****   /* Read LCKK bit*/
 477:../Drivers/STM32F4xx_HAL_Driver/Src/stm32f4xx_hal_gpio.c ****   tmp = GPIOx->LCKR;
 595              		.loc 1 477 0
 596 0018 C369     		ldr	r3, [r0, #28]
 597 001a 0193     		str	r3, [sp, #4]
 478:../Drivers/STM32F4xx_HAL_Driver/Src/stm32f4xx_hal_gpio.c **** 
 479:../Drivers/STM32F4xx_HAL_Driver/Src/stm32f4xx_hal_gpio.c ****  if((GPIOx->LCKR & GPIO_LCKR_LCKK) != RESET)
 598              		.loc 1 479 0
 599 001c C369     		ldr	r3, [r0, #28]
 600 001e 13F4803F 		tst	r3, #65536
 601 0022 01D0     		beq	.L43
 480:../Drivers/STM32F4xx_HAL_Driver/Src/stm32f4xx_hal_gpio.c ****   {
 481:../Drivers/STM32F4xx_HAL_Driver/Src/stm32f4xx_hal_gpio.c ****     return HAL_OK;
 602              		.loc 1 481 0
 603 0024 0020     		movs	r0, #0
 604              	.LVL66:
 605 0026 00E0     		b	.L42
 606              	.LVL67:
 607              	.L43:
 482:../Drivers/STM32F4xx_HAL_Driver/Src/stm32f4xx_hal_gpio.c ****   }
 483:../Drivers/STM32F4xx_HAL_Driver/Src/stm32f4xx_hal_gpio.c ****   else
ARM GAS  /tmp/ccbXV9fs.s 			page 20


 484:../Drivers/STM32F4xx_HAL_Driver/Src/stm32f4xx_hal_gpio.c ****   {
 485:../Drivers/STM32F4xx_HAL_Driver/Src/stm32f4xx_hal_gpio.c ****     return HAL_ERROR;
 608              		.loc 1 485 0
 609 0028 0120     		movs	r0, #1
 610              	.LVL68:
 611              	.L42:
 486:../Drivers/STM32F4xx_HAL_Driver/Src/stm32f4xx_hal_gpio.c ****   }
 487:../Drivers/STM32F4xx_HAL_Driver/Src/stm32f4xx_hal_gpio.c **** }
 612              		.loc 1 487 0
 613 002a 02B0     		add	sp, sp, #8
 614              	.LCFI3:
 615              		.cfi_def_cfa_offset 0
 616              		@ sp needed
 617 002c 7047     		bx	lr
 618              		.cfi_endproc
 619              	.LFE117:
 621 002e 00BF     		.section	.text.HAL_GPIO_EXTI_Callback,"ax",%progbits
 622              		.align	2
 623              		.weak	HAL_GPIO_EXTI_Callback
 624              		.thumb
 625              		.thumb_func
 627              	HAL_GPIO_EXTI_Callback:
 628              	.LFB119:
 488:../Drivers/STM32F4xx_HAL_Driver/Src/stm32f4xx_hal_gpio.c **** 
 489:../Drivers/STM32F4xx_HAL_Driver/Src/stm32f4xx_hal_gpio.c **** /**
 490:../Drivers/STM32F4xx_HAL_Driver/Src/stm32f4xx_hal_gpio.c ****   * @brief  This function handles EXTI interrupt request.
 491:../Drivers/STM32F4xx_HAL_Driver/Src/stm32f4xx_hal_gpio.c ****   * @param  GPIO_Pin: Specifies the pins connected EXTI line
 492:../Drivers/STM32F4xx_HAL_Driver/Src/stm32f4xx_hal_gpio.c ****   * @retval None
 493:../Drivers/STM32F4xx_HAL_Driver/Src/stm32f4xx_hal_gpio.c ****   */
 494:../Drivers/STM32F4xx_HAL_Driver/Src/stm32f4xx_hal_gpio.c **** void HAL_GPIO_EXTI_IRQHandler(uint16_t GPIO_Pin)
 495:../Drivers/STM32F4xx_HAL_Driver/Src/stm32f4xx_hal_gpio.c **** {
 496:../Drivers/STM32F4xx_HAL_Driver/Src/stm32f4xx_hal_gpio.c ****   /* EXTI line interrupt detected */
 497:../Drivers/STM32F4xx_HAL_Driver/Src/stm32f4xx_hal_gpio.c ****   if(__HAL_GPIO_EXTI_GET_IT(GPIO_Pin) != RESET)
 498:../Drivers/STM32F4xx_HAL_Driver/Src/stm32f4xx_hal_gpio.c ****   {
 499:../Drivers/STM32F4xx_HAL_Driver/Src/stm32f4xx_hal_gpio.c ****     __HAL_GPIO_EXTI_CLEAR_IT(GPIO_Pin);
 500:../Drivers/STM32F4xx_HAL_Driver/Src/stm32f4xx_hal_gpio.c ****     HAL_GPIO_EXTI_Callback(GPIO_Pin);
 501:../Drivers/STM32F4xx_HAL_Driver/Src/stm32f4xx_hal_gpio.c ****   }
 502:../Drivers/STM32F4xx_HAL_Driver/Src/stm32f4xx_hal_gpio.c **** }
 503:../Drivers/STM32F4xx_HAL_Driver/Src/stm32f4xx_hal_gpio.c **** 
 504:../Drivers/STM32F4xx_HAL_Driver/Src/stm32f4xx_hal_gpio.c **** /**
 505:../Drivers/STM32F4xx_HAL_Driver/Src/stm32f4xx_hal_gpio.c ****   * @brief  EXTI line detection callbacks.
 506:../Drivers/STM32F4xx_HAL_Driver/Src/stm32f4xx_hal_gpio.c ****   * @param  GPIO_Pin: Specifies the pins connected EXTI line
 507:../Drivers/STM32F4xx_HAL_Driver/Src/stm32f4xx_hal_gpio.c ****   * @retval None
 508:../Drivers/STM32F4xx_HAL_Driver/Src/stm32f4xx_hal_gpio.c ****   */
 509:../Drivers/STM32F4xx_HAL_Driver/Src/stm32f4xx_hal_gpio.c **** __weak void HAL_GPIO_EXTI_Callback(uint16_t GPIO_Pin)
 510:../Drivers/STM32F4xx_HAL_Driver/Src/stm32f4xx_hal_gpio.c **** {
 629              		.loc 1 510 0
 630              		.cfi_startproc
 631              		@ args = 0, pretend = 0, frame = 0
 632              		@ frame_needed = 0, uses_anonymous_args = 0
 633              		@ link register save eliminated.
 634              	.LVL69:
 635 0000 7047     		bx	lr
 636              		.cfi_endproc
 637              	.LFE119:
 639 0002 00BF     		.section	.text.HAL_GPIO_EXTI_IRQHandler,"ax",%progbits
 640              		.align	2
ARM GAS  /tmp/ccbXV9fs.s 			page 21


 641              		.global	HAL_GPIO_EXTI_IRQHandler
 642              		.thumb
 643              		.thumb_func
 645              	HAL_GPIO_EXTI_IRQHandler:
 646              	.LFB118:
 495:../Drivers/STM32F4xx_HAL_Driver/Src/stm32f4xx_hal_gpio.c ****   /* EXTI line interrupt detected */
 647              		.loc 1 495 0
 648              		.cfi_startproc
 649              		@ args = 0, pretend = 0, frame = 0
 650              		@ frame_needed = 0, uses_anonymous_args = 0
 651              	.LVL70:
 495:../Drivers/STM32F4xx_HAL_Driver/Src/stm32f4xx_hal_gpio.c ****   /* EXTI line interrupt detected */
 652              		.loc 1 495 0
 653 0000 08B5     		push	{r3, lr}
 654              	.LCFI4:
 655              		.cfi_def_cfa_offset 8
 656              		.cfi_offset 3, -8
 657              		.cfi_offset 14, -4
 497:../Drivers/STM32F4xx_HAL_Driver/Src/stm32f4xx_hal_gpio.c ****   {
 658              		.loc 1 497 0
 659 0002 044B     		ldr	r3, .L49
 660 0004 5B69     		ldr	r3, [r3, #20]
 661 0006 0342     		tst	r3, r0
 662 0008 03D0     		beq	.L46
 499:../Drivers/STM32F4xx_HAL_Driver/Src/stm32f4xx_hal_gpio.c ****     HAL_GPIO_EXTI_Callback(GPIO_Pin);
 663              		.loc 1 499 0
 664 000a 024B     		ldr	r3, .L49
 665 000c 5861     		str	r0, [r3, #20]
 500:../Drivers/STM32F4xx_HAL_Driver/Src/stm32f4xx_hal_gpio.c ****   }
 666              		.loc 1 500 0
 667 000e FFF7FEFF 		bl	HAL_GPIO_EXTI_Callback
 668              	.LVL71:
 669              	.L46:
 670 0012 08BD     		pop	{r3, pc}
 671              	.L50:
 672              		.align	2
 673              	.L49:
 674 0014 003C0140 		.word	1073822720
 675              		.cfi_endproc
 676              	.LFE118:
 678              		.text
 679              	.Letext0:
 680              		.file 2 "/usr/include/newlib/machine/_default_types.h"
 681              		.file 3 "/usr/include/newlib/sys/_stdint.h"
 682              		.file 4 "../Drivers/CMSIS/Device/ST/STM32F4xx/Include/stm32f401xe.h"
 683              		.file 5 "../Drivers/CMSIS/Device/ST/STM32F4xx/Include/stm32f4xx.h"
 684              		.file 6 "../Drivers/STM32F4xx_HAL_Driver/Inc/stm32f4xx_hal_def.h"
 685              		.file 7 "../Drivers/STM32F4xx_HAL_Driver/Inc/stm32f4xx_hal_gpio.h"
 686              		.file 8 "../Drivers/CMSIS/Include/core_cm4.h"
ARM GAS  /tmp/ccbXV9fs.s 			page 22

