ARM GAS  /tmp/ccIvKYQX.s 			page 1


   1              		.syntax unified
   2              		.cpu cortex-m4
   3              		.eabi_attribute 27, 1
   4              		.eabi_attribute 28, 1
   5              		.fpu fpv4-sp-d16
   6              		.eabi_attribute 20, 1
   7              		.eabi_attribute 21, 1
   8              		.eabi_attribute 23, 3
   9              		.eabi_attribute 24, 1
  10              		.eabi_attribute 25, 1
  11              		.eabi_attribute 26, 1
  12              		.eabi_attribute 30, 1
  13              		.eabi_attribute 34, 1
  14              		.eabi_attribute 18, 4
  15              		.thumb
  16              		.syntax unified
  17              		.file	"stm32f4xx_hal_dma.c"
  18              		.text
  19              	.Ltext0:
  20              		.cfi_sections	.debug_frame
  21              		.section	.text.DMA_SetConfig,"ax",%progbits
  22              		.align	2
  23              		.thumb
  24              		.thumb_func
  26              	DMA_SetConfig:
  27              	.LFB121:
  28              		.file 1 "../Drivers/STM32F4xx_HAL_Driver/Src/stm32f4xx_hal_dma.c"
   1:../Drivers/STM32F4xx_HAL_Driver/Src/stm32f4xx_hal_dma.c **** /**
   2:../Drivers/STM32F4xx_HAL_Driver/Src/stm32f4xx_hal_dma.c ****   ******************************************************************************
   3:../Drivers/STM32F4xx_HAL_Driver/Src/stm32f4xx_hal_dma.c ****   * @file    stm32f4xx_hal_dma.c
   4:../Drivers/STM32F4xx_HAL_Driver/Src/stm32f4xx_hal_dma.c ****   * @author  MCD Application Team
   5:../Drivers/STM32F4xx_HAL_Driver/Src/stm32f4xx_hal_dma.c ****   * @version V1.1.0
   6:../Drivers/STM32F4xx_HAL_Driver/Src/stm32f4xx_hal_dma.c ****   * @date    19-June-2014
   7:../Drivers/STM32F4xx_HAL_Driver/Src/stm32f4xx_hal_dma.c ****   * @brief   DMA HAL module driver.
   8:../Drivers/STM32F4xx_HAL_Driver/Src/stm32f4xx_hal_dma.c ****   *    
   9:../Drivers/STM32F4xx_HAL_Driver/Src/stm32f4xx_hal_dma.c ****   *          This file provides firmware functions to manage the following 
  10:../Drivers/STM32F4xx_HAL_Driver/Src/stm32f4xx_hal_dma.c ****   *          functionalities of the Direct Memory Access (DMA) peripheral:
  11:../Drivers/STM32F4xx_HAL_Driver/Src/stm32f4xx_hal_dma.c ****   *           + Initialization and de-initialization functions
  12:../Drivers/STM32F4xx_HAL_Driver/Src/stm32f4xx_hal_dma.c ****   *           + IO operation functions
  13:../Drivers/STM32F4xx_HAL_Driver/Src/stm32f4xx_hal_dma.c ****   *           + Peripheral State and errors functions
  14:../Drivers/STM32F4xx_HAL_Driver/Src/stm32f4xx_hal_dma.c ****   @verbatim     
  15:../Drivers/STM32F4xx_HAL_Driver/Src/stm32f4xx_hal_dma.c ****   ==============================================================================      
  16:../Drivers/STM32F4xx_HAL_Driver/Src/stm32f4xx_hal_dma.c ****                         ##### How to use this driver #####
  17:../Drivers/STM32F4xx_HAL_Driver/Src/stm32f4xx_hal_dma.c ****   ============================================================================== 
  18:../Drivers/STM32F4xx_HAL_Driver/Src/stm32f4xx_hal_dma.c ****   [..]
  19:../Drivers/STM32F4xx_HAL_Driver/Src/stm32f4xx_hal_dma.c ****    (#) Enable and configure the peripheral to be connected to the DMA Stream
  20:../Drivers/STM32F4xx_HAL_Driver/Src/stm32f4xx_hal_dma.c ****        (except for internal SRAM/FLASH memories: no initialization is 
  21:../Drivers/STM32F4xx_HAL_Driver/Src/stm32f4xx_hal_dma.c ****        necessary) please refer to Reference manual for connection between peripherals
  22:../Drivers/STM32F4xx_HAL_Driver/Src/stm32f4xx_hal_dma.c ****        and DMA requests . 
  23:../Drivers/STM32F4xx_HAL_Driver/Src/stm32f4xx_hal_dma.c ****           
  24:../Drivers/STM32F4xx_HAL_Driver/Src/stm32f4xx_hal_dma.c ****    (#) For a given Stream, program the required configuration through the following parameters:   
  25:../Drivers/STM32F4xx_HAL_Driver/Src/stm32f4xx_hal_dma.c ****        Transfer Direction, Source and Destination data formats, 
  26:../Drivers/STM32F4xx_HAL_Driver/Src/stm32f4xx_hal_dma.c ****        Circular, Normal or peripheral flow control mode, Stream Priority level, 
  27:../Drivers/STM32F4xx_HAL_Driver/Src/stm32f4xx_hal_dma.c ****        Source and Destination Increment mode, FIFO mode and its Threshold (if needed), 
  28:../Drivers/STM32F4xx_HAL_Driver/Src/stm32f4xx_hal_dma.c ****        Burst mode for Source and/or Destination (if needed) using HAL_DMA_Init() function.
  29:../Drivers/STM32F4xx_HAL_Driver/Src/stm32f4xx_hal_dma.c ****                      
  30:../Drivers/STM32F4xx_HAL_Driver/Src/stm32f4xx_hal_dma.c ****      *** Polling mode IO operation ***
ARM GAS  /tmp/ccIvKYQX.s 			page 2


  31:../Drivers/STM32F4xx_HAL_Driver/Src/stm32f4xx_hal_dma.c ****      =================================   
  32:../Drivers/STM32F4xx_HAL_Driver/Src/stm32f4xx_hal_dma.c ****     [..] 
  33:../Drivers/STM32F4xx_HAL_Driver/Src/stm32f4xx_hal_dma.c ****           (+) Use HAL_DMA_Start() to start DMA transfer after the configuration of Source 
  34:../Drivers/STM32F4xx_HAL_Driver/Src/stm32f4xx_hal_dma.c ****               address and destination address and the Length of data to be transferred
  35:../Drivers/STM32F4xx_HAL_Driver/Src/stm32f4xx_hal_dma.c ****           (+) Use HAL_DMA_PollForTransfer() to poll for the end of current transfer, in this  
  36:../Drivers/STM32F4xx_HAL_Driver/Src/stm32f4xx_hal_dma.c ****               case a fixed Timeout can be configured by User depending from his application.
  37:../Drivers/STM32F4xx_HAL_Driver/Src/stm32f4xx_hal_dma.c ****                
  38:../Drivers/STM32F4xx_HAL_Driver/Src/stm32f4xx_hal_dma.c ****      *** Interrupt mode IO operation ***    
  39:../Drivers/STM32F4xx_HAL_Driver/Src/stm32f4xx_hal_dma.c ****      =================================== 
  40:../Drivers/STM32F4xx_HAL_Driver/Src/stm32f4xx_hal_dma.c ****     [..]     
  41:../Drivers/STM32F4xx_HAL_Driver/Src/stm32f4xx_hal_dma.c ****           (+) Configure the DMA interrupt priority using HAL_NVIC_SetPriority()
  42:../Drivers/STM32F4xx_HAL_Driver/Src/stm32f4xx_hal_dma.c ****           (+) Enable the DMA IRQ handler using HAL_NVIC_EnableIRQ() 
  43:../Drivers/STM32F4xx_HAL_Driver/Src/stm32f4xx_hal_dma.c ****           (+) Use HAL_DMA_Start_IT() to start DMA transfer after the configuration of  
  44:../Drivers/STM32F4xx_HAL_Driver/Src/stm32f4xx_hal_dma.c ****               Source address and destination address and the Length of data to be transferred. In t
  45:../Drivers/STM32F4xx_HAL_Driver/Src/stm32f4xx_hal_dma.c ****               case the DMA interrupt is configured 
  46:../Drivers/STM32F4xx_HAL_Driver/Src/stm32f4xx_hal_dma.c ****           (+) Use HAL_DMA_IRQHandler() called under DMA_IRQHandler() Interrupt subroutine
  47:../Drivers/STM32F4xx_HAL_Driver/Src/stm32f4xx_hal_dma.c ****           (+) At the end of data transfer HAL_DMA_IRQHandler() function is executed and user can 
  48:../Drivers/STM32F4xx_HAL_Driver/Src/stm32f4xx_hal_dma.c ****               add his own function by customization of function pointer XferCpltCallback and 
  49:../Drivers/STM32F4xx_HAL_Driver/Src/stm32f4xx_hal_dma.c ****               XferErrorCallback (i.e a member of DMA handle structure). 
  50:../Drivers/STM32F4xx_HAL_Driver/Src/stm32f4xx_hal_dma.c ****     [..]                
  51:../Drivers/STM32F4xx_HAL_Driver/Src/stm32f4xx_hal_dma.c ****      (#) Use HAL_DMA_GetState() function to return the DMA state and HAL_DMA_GetError() in case of 
  52:../Drivers/STM32F4xx_HAL_Driver/Src/stm32f4xx_hal_dma.c ****          detection.
  53:../Drivers/STM32F4xx_HAL_Driver/Src/stm32f4xx_hal_dma.c ****          
  54:../Drivers/STM32F4xx_HAL_Driver/Src/stm32f4xx_hal_dma.c ****      (#) Use HAL_DMA_Abort() function to abort the current transfer
  55:../Drivers/STM32F4xx_HAL_Driver/Src/stm32f4xx_hal_dma.c ****      
  56:../Drivers/STM32F4xx_HAL_Driver/Src/stm32f4xx_hal_dma.c ****      -@-   In Memory-to-Memory transfer mode, Circular mode is not allowed.
  57:../Drivers/STM32F4xx_HAL_Driver/Src/stm32f4xx_hal_dma.c ****     
  58:../Drivers/STM32F4xx_HAL_Driver/Src/stm32f4xx_hal_dma.c ****      -@-   The FIFO is used mainly to reduce bus usage and to allow data packing/unpacking: it is
  59:../Drivers/STM32F4xx_HAL_Driver/Src/stm32f4xx_hal_dma.c ****            possible to set different Data Sizes for the Peripheral and the Memory (ie. you can set
  60:../Drivers/STM32F4xx_HAL_Driver/Src/stm32f4xx_hal_dma.c ****            Half-Word data size for the peripheral to access its data register and set Word data siz
  61:../Drivers/STM32F4xx_HAL_Driver/Src/stm32f4xx_hal_dma.c ****            for the Memory to gain in access time. Each two half words will be packed and written in
  62:../Drivers/STM32F4xx_HAL_Driver/Src/stm32f4xx_hal_dma.c ****            a single access to a Word in the Memory).
  63:../Drivers/STM32F4xx_HAL_Driver/Src/stm32f4xx_hal_dma.c ****       
  64:../Drivers/STM32F4xx_HAL_Driver/Src/stm32f4xx_hal_dma.c ****      -@-   When FIFO is disabled, it is not allowed to configure different Data Sizes for Source
  65:../Drivers/STM32F4xx_HAL_Driver/Src/stm32f4xx_hal_dma.c ****            and Destination. In this case the Peripheral Data Size will be applied to both Source
  66:../Drivers/STM32F4xx_HAL_Driver/Src/stm32f4xx_hal_dma.c ****            and Destination.               
  67:../Drivers/STM32F4xx_HAL_Driver/Src/stm32f4xx_hal_dma.c ****   
  68:../Drivers/STM32F4xx_HAL_Driver/Src/stm32f4xx_hal_dma.c ****      *** DMA HAL driver macros list ***
  69:../Drivers/STM32F4xx_HAL_Driver/Src/stm32f4xx_hal_dma.c ****      ============================================= 
  70:../Drivers/STM32F4xx_HAL_Driver/Src/stm32f4xx_hal_dma.c ****      [..]
  71:../Drivers/STM32F4xx_HAL_Driver/Src/stm32f4xx_hal_dma.c ****        Below the list of most used macros in DMA HAL driver.
  72:../Drivers/STM32F4xx_HAL_Driver/Src/stm32f4xx_hal_dma.c ****        
  73:../Drivers/STM32F4xx_HAL_Driver/Src/stm32f4xx_hal_dma.c ****       (+) __HAL_DMA_ENABLE: Enable the specified DMA Stream.
  74:../Drivers/STM32F4xx_HAL_Driver/Src/stm32f4xx_hal_dma.c ****       (+) __HAL_DMA_DISABLE: Disable the specified DMA Stream.
  75:../Drivers/STM32F4xx_HAL_Driver/Src/stm32f4xx_hal_dma.c ****       (+) __HAL_DMA_GET_FS: Return the current DMA Stream FIFO filled level.
  76:../Drivers/STM32F4xx_HAL_Driver/Src/stm32f4xx_hal_dma.c ****       (+) __HAL_DMA_GET_FLAG: Get the DMA Stream pending flags.
  77:../Drivers/STM32F4xx_HAL_Driver/Src/stm32f4xx_hal_dma.c ****       (+) __HAL_DMA_CLEAR_FLAG: Clear the DMA Stream pending flags.
  78:../Drivers/STM32F4xx_HAL_Driver/Src/stm32f4xx_hal_dma.c ****       (+) __HAL_DMA_ENABLE_IT: Enable the specified DMA Stream interrupts.
  79:../Drivers/STM32F4xx_HAL_Driver/Src/stm32f4xx_hal_dma.c ****       (+) __HAL_DMA_DISABLE_IT: Disable the specified DMA Stream interrupts.
  80:../Drivers/STM32F4xx_HAL_Driver/Src/stm32f4xx_hal_dma.c ****       (+) __HAL_DMA_GET_IT_SOURCE: Check whether the specified DMA Stream interrupt has occurred or
  81:../Drivers/STM32F4xx_HAL_Driver/Src/stm32f4xx_hal_dma.c ****      
  82:../Drivers/STM32F4xx_HAL_Driver/Src/stm32f4xx_hal_dma.c ****      [..] 
  83:../Drivers/STM32F4xx_HAL_Driver/Src/stm32f4xx_hal_dma.c ****       (@) You can refer to the DMA HAL driver header file for more useful macros  
  84:../Drivers/STM32F4xx_HAL_Driver/Src/stm32f4xx_hal_dma.c ****   
  85:../Drivers/STM32F4xx_HAL_Driver/Src/stm32f4xx_hal_dma.c ****   @endverbatim
  86:../Drivers/STM32F4xx_HAL_Driver/Src/stm32f4xx_hal_dma.c ****   ******************************************************************************
  87:../Drivers/STM32F4xx_HAL_Driver/Src/stm32f4xx_hal_dma.c ****   * @attention
ARM GAS  /tmp/ccIvKYQX.s 			page 3


  88:../Drivers/STM32F4xx_HAL_Driver/Src/stm32f4xx_hal_dma.c ****   *
  89:../Drivers/STM32F4xx_HAL_Driver/Src/stm32f4xx_hal_dma.c ****   * <h2><center>&copy; COPYRIGHT(c) 2014 STMicroelectronics</center></h2>
  90:../Drivers/STM32F4xx_HAL_Driver/Src/stm32f4xx_hal_dma.c ****   *
  91:../Drivers/STM32F4xx_HAL_Driver/Src/stm32f4xx_hal_dma.c ****   * Redistribution and use in source and binary forms, with or without modification,
  92:../Drivers/STM32F4xx_HAL_Driver/Src/stm32f4xx_hal_dma.c ****   * are permitted provided that the following conditions are met:
  93:../Drivers/STM32F4xx_HAL_Driver/Src/stm32f4xx_hal_dma.c ****   *   1. Redistributions of source code must retain the above copyright notice,
  94:../Drivers/STM32F4xx_HAL_Driver/Src/stm32f4xx_hal_dma.c ****   *      this list of conditions and the following disclaimer.
  95:../Drivers/STM32F4xx_HAL_Driver/Src/stm32f4xx_hal_dma.c ****   *   2. Redistributions in binary form must reproduce the above copyright notice,
  96:../Drivers/STM32F4xx_HAL_Driver/Src/stm32f4xx_hal_dma.c ****   *      this list of conditions and the following disclaimer in the documentation
  97:../Drivers/STM32F4xx_HAL_Driver/Src/stm32f4xx_hal_dma.c ****   *      and/or other materials provided with the distribution.
  98:../Drivers/STM32F4xx_HAL_Driver/Src/stm32f4xx_hal_dma.c ****   *   3. Neither the name of STMicroelectronics nor the names of its contributors
  99:../Drivers/STM32F4xx_HAL_Driver/Src/stm32f4xx_hal_dma.c ****   *      may be used to endorse or promote products derived from this software
 100:../Drivers/STM32F4xx_HAL_Driver/Src/stm32f4xx_hal_dma.c ****   *      without specific prior written permission.
 101:../Drivers/STM32F4xx_HAL_Driver/Src/stm32f4xx_hal_dma.c ****   *
 102:../Drivers/STM32F4xx_HAL_Driver/Src/stm32f4xx_hal_dma.c ****   * THIS SOFTWARE IS PROVIDED BY THE COPYRIGHT HOLDERS AND CONTRIBUTORS "AS IS"
 103:../Drivers/STM32F4xx_HAL_Driver/Src/stm32f4xx_hal_dma.c ****   * AND ANY EXPRESS OR IMPLIED WARRANTIES, INCLUDING, BUT NOT LIMITED TO, THE
 104:../Drivers/STM32F4xx_HAL_Driver/Src/stm32f4xx_hal_dma.c ****   * IMPLIED WARRANTIES OF MERCHANTABILITY AND FITNESS FOR A PARTICULAR PURPOSE ARE
 105:../Drivers/STM32F4xx_HAL_Driver/Src/stm32f4xx_hal_dma.c ****   * DISCLAIMED. IN NO EVENT SHALL THE COPYRIGHT HOLDER OR CONTRIBUTORS BE LIABLE
 106:../Drivers/STM32F4xx_HAL_Driver/Src/stm32f4xx_hal_dma.c ****   * FOR ANY DIRECT, INDIRECT, INCIDENTAL, SPECIAL, EXEMPLARY, OR CONSEQUENTIAL
 107:../Drivers/STM32F4xx_HAL_Driver/Src/stm32f4xx_hal_dma.c ****   * DAMAGES (INCLUDING, BUT NOT LIMITED TO, PROCUREMENT OF SUBSTITUTE GOODS OR
 108:../Drivers/STM32F4xx_HAL_Driver/Src/stm32f4xx_hal_dma.c ****   * SERVICES; LOSS OF USE, DATA, OR PROFITS; OR BUSINESS INTERRUPTION) HOWEVER
 109:../Drivers/STM32F4xx_HAL_Driver/Src/stm32f4xx_hal_dma.c ****   * CAUSED AND ON ANY THEORY OF LIABILITY, WHETHER IN CONTRACT, STRICT LIABILITY,
 110:../Drivers/STM32F4xx_HAL_Driver/Src/stm32f4xx_hal_dma.c ****   * OR TORT (INCLUDING NEGLIGENCE OR OTHERWISE) ARISING IN ANY WAY OUT OF THE USE
 111:../Drivers/STM32F4xx_HAL_Driver/Src/stm32f4xx_hal_dma.c ****   * OF THIS SOFTWARE, EVEN IF ADVISED OF THE POSSIBILITY OF SUCH DAMAGE.
 112:../Drivers/STM32F4xx_HAL_Driver/Src/stm32f4xx_hal_dma.c ****   *
 113:../Drivers/STM32F4xx_HAL_Driver/Src/stm32f4xx_hal_dma.c ****   ******************************************************************************
 114:../Drivers/STM32F4xx_HAL_Driver/Src/stm32f4xx_hal_dma.c ****   */ 
 115:../Drivers/STM32F4xx_HAL_Driver/Src/stm32f4xx_hal_dma.c **** 
 116:../Drivers/STM32F4xx_HAL_Driver/Src/stm32f4xx_hal_dma.c **** /* Includes ------------------------------------------------------------------*/
 117:../Drivers/STM32F4xx_HAL_Driver/Src/stm32f4xx_hal_dma.c **** #include "stm32f4xx_hal.h"
 118:../Drivers/STM32F4xx_HAL_Driver/Src/stm32f4xx_hal_dma.c **** 
 119:../Drivers/STM32F4xx_HAL_Driver/Src/stm32f4xx_hal_dma.c **** /** @addtogroup STM32F4xx_HAL_Driver
 120:../Drivers/STM32F4xx_HAL_Driver/Src/stm32f4xx_hal_dma.c ****   * @{
 121:../Drivers/STM32F4xx_HAL_Driver/Src/stm32f4xx_hal_dma.c ****   */
 122:../Drivers/STM32F4xx_HAL_Driver/Src/stm32f4xx_hal_dma.c **** 
 123:../Drivers/STM32F4xx_HAL_Driver/Src/stm32f4xx_hal_dma.c **** /** @defgroup DMA 
 124:../Drivers/STM32F4xx_HAL_Driver/Src/stm32f4xx_hal_dma.c ****   * @brief DMA HAL module driver
 125:../Drivers/STM32F4xx_HAL_Driver/Src/stm32f4xx_hal_dma.c ****   * @{
 126:../Drivers/STM32F4xx_HAL_Driver/Src/stm32f4xx_hal_dma.c ****   */
 127:../Drivers/STM32F4xx_HAL_Driver/Src/stm32f4xx_hal_dma.c **** 
 128:../Drivers/STM32F4xx_HAL_Driver/Src/stm32f4xx_hal_dma.c **** #ifdef HAL_DMA_MODULE_ENABLED
 129:../Drivers/STM32F4xx_HAL_Driver/Src/stm32f4xx_hal_dma.c **** 
 130:../Drivers/STM32F4xx_HAL_Driver/Src/stm32f4xx_hal_dma.c **** /* Private typedef -----------------------------------------------------------*/
 131:../Drivers/STM32F4xx_HAL_Driver/Src/stm32f4xx_hal_dma.c **** /* Private define ------------------------------------------------------------*/
 132:../Drivers/STM32F4xx_HAL_Driver/Src/stm32f4xx_hal_dma.c **** #define HAL_TIMEOUT_DMA_ABORT    ((uint32_t)1000)  /* 1s  */
 133:../Drivers/STM32F4xx_HAL_Driver/Src/stm32f4xx_hal_dma.c **** /* Private macro -------------------------------------------------------------*/
 134:../Drivers/STM32F4xx_HAL_Driver/Src/stm32f4xx_hal_dma.c **** /* Private variables ---------------------------------------------------------*/
 135:../Drivers/STM32F4xx_HAL_Driver/Src/stm32f4xx_hal_dma.c **** /* Private function prototypes -----------------------------------------------*/
 136:../Drivers/STM32F4xx_HAL_Driver/Src/stm32f4xx_hal_dma.c **** static void DMA_SetConfig(DMA_HandleTypeDef *hdma, uint32_t SrcAddress, uint32_t DstAddress, uint32
 137:../Drivers/STM32F4xx_HAL_Driver/Src/stm32f4xx_hal_dma.c **** 
 138:../Drivers/STM32F4xx_HAL_Driver/Src/stm32f4xx_hal_dma.c **** /* Private functions ---------------------------------------------------------*/
 139:../Drivers/STM32F4xx_HAL_Driver/Src/stm32f4xx_hal_dma.c **** 
 140:../Drivers/STM32F4xx_HAL_Driver/Src/stm32f4xx_hal_dma.c **** /** @defgroup DMA_Private_Functions
 141:../Drivers/STM32F4xx_HAL_Driver/Src/stm32f4xx_hal_dma.c ****   * @{
 142:../Drivers/STM32F4xx_HAL_Driver/Src/stm32f4xx_hal_dma.c ****   */
 143:../Drivers/STM32F4xx_HAL_Driver/Src/stm32f4xx_hal_dma.c **** 
 144:../Drivers/STM32F4xx_HAL_Driver/Src/stm32f4xx_hal_dma.c **** /** @defgroup DMA_Group1 Initialization and de-initialization functions 
ARM GAS  /tmp/ccIvKYQX.s 			page 4


 145:../Drivers/STM32F4xx_HAL_Driver/Src/stm32f4xx_hal_dma.c ****  *  @brief   Initialization and de-initialization functions 
 146:../Drivers/STM32F4xx_HAL_Driver/Src/stm32f4xx_hal_dma.c ****  *
 147:../Drivers/STM32F4xx_HAL_Driver/Src/stm32f4xx_hal_dma.c **** @verbatim   
 148:../Drivers/STM32F4xx_HAL_Driver/Src/stm32f4xx_hal_dma.c ****  ===============================================================================
 149:../Drivers/STM32F4xx_HAL_Driver/Src/stm32f4xx_hal_dma.c ****              ##### Initialization and de-initialization functions  #####
 150:../Drivers/STM32F4xx_HAL_Driver/Src/stm32f4xx_hal_dma.c ****  ===============================================================================  
 151:../Drivers/STM32F4xx_HAL_Driver/Src/stm32f4xx_hal_dma.c ****     [..]
 152:../Drivers/STM32F4xx_HAL_Driver/Src/stm32f4xx_hal_dma.c ****     This section provides functions allowing to initialize the DMA Stream source
 153:../Drivers/STM32F4xx_HAL_Driver/Src/stm32f4xx_hal_dma.c ****     and destination addresses, incrementation and data sizes, transfer direction, 
 154:../Drivers/STM32F4xx_HAL_Driver/Src/stm32f4xx_hal_dma.c ****     circular/normal mode selection, memory-to-memory mode selection and Stream priority value.
 155:../Drivers/STM32F4xx_HAL_Driver/Src/stm32f4xx_hal_dma.c ****     [..]
 156:../Drivers/STM32F4xx_HAL_Driver/Src/stm32f4xx_hal_dma.c ****     The HAL_DMA_Init() function follows the DMA configuration procedures as described in
 157:../Drivers/STM32F4xx_HAL_Driver/Src/stm32f4xx_hal_dma.c ****     reference manual.  
 158:../Drivers/STM32F4xx_HAL_Driver/Src/stm32f4xx_hal_dma.c **** 
 159:../Drivers/STM32F4xx_HAL_Driver/Src/stm32f4xx_hal_dma.c **** @endverbatim
 160:../Drivers/STM32F4xx_HAL_Driver/Src/stm32f4xx_hal_dma.c ****   * @{
 161:../Drivers/STM32F4xx_HAL_Driver/Src/stm32f4xx_hal_dma.c ****   */
 162:../Drivers/STM32F4xx_HAL_Driver/Src/stm32f4xx_hal_dma.c ****   
 163:../Drivers/STM32F4xx_HAL_Driver/Src/stm32f4xx_hal_dma.c **** /**
 164:../Drivers/STM32F4xx_HAL_Driver/Src/stm32f4xx_hal_dma.c ****   * @brief  Initializes the DMA according to the specified
 165:../Drivers/STM32F4xx_HAL_Driver/Src/stm32f4xx_hal_dma.c ****   *         parameters in the DMA_InitTypeDef and create the associated handle.
 166:../Drivers/STM32F4xx_HAL_Driver/Src/stm32f4xx_hal_dma.c ****   * @param  hdma: Pointer to a DMA_HandleTypeDef structure that contains
 167:../Drivers/STM32F4xx_HAL_Driver/Src/stm32f4xx_hal_dma.c ****   *               the configuration information for the specified DMA Stream.  
 168:../Drivers/STM32F4xx_HAL_Driver/Src/stm32f4xx_hal_dma.c ****   * @retval HAL status
 169:../Drivers/STM32F4xx_HAL_Driver/Src/stm32f4xx_hal_dma.c ****   */
 170:../Drivers/STM32F4xx_HAL_Driver/Src/stm32f4xx_hal_dma.c **** HAL_StatusTypeDef HAL_DMA_Init(DMA_HandleTypeDef *hdma)
 171:../Drivers/STM32F4xx_HAL_Driver/Src/stm32f4xx_hal_dma.c **** { 
 172:../Drivers/STM32F4xx_HAL_Driver/Src/stm32f4xx_hal_dma.c ****   uint32_t tmp = 0;
 173:../Drivers/STM32F4xx_HAL_Driver/Src/stm32f4xx_hal_dma.c ****   
 174:../Drivers/STM32F4xx_HAL_Driver/Src/stm32f4xx_hal_dma.c ****   /* Check the DMA peripheral state */
 175:../Drivers/STM32F4xx_HAL_Driver/Src/stm32f4xx_hal_dma.c ****   if(hdma == NULL)
 176:../Drivers/STM32F4xx_HAL_Driver/Src/stm32f4xx_hal_dma.c ****   {
 177:../Drivers/STM32F4xx_HAL_Driver/Src/stm32f4xx_hal_dma.c ****     return HAL_ERROR;
 178:../Drivers/STM32F4xx_HAL_Driver/Src/stm32f4xx_hal_dma.c ****   }
 179:../Drivers/STM32F4xx_HAL_Driver/Src/stm32f4xx_hal_dma.c **** 
 180:../Drivers/STM32F4xx_HAL_Driver/Src/stm32f4xx_hal_dma.c ****   /* Check the parameters */
 181:../Drivers/STM32F4xx_HAL_Driver/Src/stm32f4xx_hal_dma.c ****   assert_param(IS_DMA_STREAM_ALL_INSTANCE(hdma->Instance));
 182:../Drivers/STM32F4xx_HAL_Driver/Src/stm32f4xx_hal_dma.c ****   assert_param(IS_DMA_CHANNEL(hdma->Init.Channel));
 183:../Drivers/STM32F4xx_HAL_Driver/Src/stm32f4xx_hal_dma.c ****   assert_param(IS_DMA_DIRECTION(hdma->Init.Direction));
 184:../Drivers/STM32F4xx_HAL_Driver/Src/stm32f4xx_hal_dma.c ****   assert_param(IS_DMA_PERIPHERAL_INC_STATE(hdma->Init.PeriphInc));
 185:../Drivers/STM32F4xx_HAL_Driver/Src/stm32f4xx_hal_dma.c ****   assert_param(IS_DMA_MEMORY_INC_STATE(hdma->Init.MemInc));
 186:../Drivers/STM32F4xx_HAL_Driver/Src/stm32f4xx_hal_dma.c ****   assert_param(IS_DMA_PERIPHERAL_DATA_SIZE(hdma->Init.PeriphDataAlignment));
 187:../Drivers/STM32F4xx_HAL_Driver/Src/stm32f4xx_hal_dma.c ****   assert_param(IS_DMA_MEMORY_DATA_SIZE(hdma->Init.MemDataAlignment));
 188:../Drivers/STM32F4xx_HAL_Driver/Src/stm32f4xx_hal_dma.c ****   assert_param(IS_DMA_MODE(hdma->Init.Mode));
 189:../Drivers/STM32F4xx_HAL_Driver/Src/stm32f4xx_hal_dma.c ****   assert_param(IS_DMA_PRIORITY(hdma->Init.Priority));
 190:../Drivers/STM32F4xx_HAL_Driver/Src/stm32f4xx_hal_dma.c ****   assert_param(IS_DMA_FIFO_MODE_STATE(hdma->Init.FIFOMode));
 191:../Drivers/STM32F4xx_HAL_Driver/Src/stm32f4xx_hal_dma.c ****   /* Check the memory burst, peripheral burst and FIFO threshold parameters only
 192:../Drivers/STM32F4xx_HAL_Driver/Src/stm32f4xx_hal_dma.c ****      when FIFO mode is enabled */
 193:../Drivers/STM32F4xx_HAL_Driver/Src/stm32f4xx_hal_dma.c ****   if(hdma->Init.FIFOMode != DMA_FIFOMODE_DISABLE)
 194:../Drivers/STM32F4xx_HAL_Driver/Src/stm32f4xx_hal_dma.c ****   {
 195:../Drivers/STM32F4xx_HAL_Driver/Src/stm32f4xx_hal_dma.c ****     assert_param(IS_DMA_FIFO_THRESHOLD(hdma->Init.FIFOThreshold));
 196:../Drivers/STM32F4xx_HAL_Driver/Src/stm32f4xx_hal_dma.c ****     assert_param(IS_DMA_MEMORY_BURST(hdma->Init.MemBurst));
 197:../Drivers/STM32F4xx_HAL_Driver/Src/stm32f4xx_hal_dma.c ****     assert_param(IS_DMA_PERIPHERAL_BURST(hdma->Init.PeriphBurst));
 198:../Drivers/STM32F4xx_HAL_Driver/Src/stm32f4xx_hal_dma.c ****   }
 199:../Drivers/STM32F4xx_HAL_Driver/Src/stm32f4xx_hal_dma.c **** 
 200:../Drivers/STM32F4xx_HAL_Driver/Src/stm32f4xx_hal_dma.c ****   /* Change DMA peripheral state */
 201:../Drivers/STM32F4xx_HAL_Driver/Src/stm32f4xx_hal_dma.c ****   hdma->State = HAL_DMA_STATE_BUSY;
ARM GAS  /tmp/ccIvKYQX.s 			page 5


 202:../Drivers/STM32F4xx_HAL_Driver/Src/stm32f4xx_hal_dma.c **** 
 203:../Drivers/STM32F4xx_HAL_Driver/Src/stm32f4xx_hal_dma.c ****   /* Get the CR register value */
 204:../Drivers/STM32F4xx_HAL_Driver/Src/stm32f4xx_hal_dma.c ****   tmp = hdma->Instance->CR;
 205:../Drivers/STM32F4xx_HAL_Driver/Src/stm32f4xx_hal_dma.c **** 
 206:../Drivers/STM32F4xx_HAL_Driver/Src/stm32f4xx_hal_dma.c ****   /* Clear CHSEL, MBURST, PBURST, PL, MSIZE, PSIZE, MINC, PINC, CIRC, DIR and CT bits */
 207:../Drivers/STM32F4xx_HAL_Driver/Src/stm32f4xx_hal_dma.c ****   tmp &= ((uint32_t)~(DMA_SxCR_CHSEL | DMA_SxCR_MBURST | DMA_SxCR_PBURST | \
 208:../Drivers/STM32F4xx_HAL_Driver/Src/stm32f4xx_hal_dma.c ****                       DMA_SxCR_PL    | DMA_SxCR_MSIZE  | DMA_SxCR_PSIZE  | \
 209:../Drivers/STM32F4xx_HAL_Driver/Src/stm32f4xx_hal_dma.c ****                       DMA_SxCR_MINC  | DMA_SxCR_PINC   | DMA_SxCR_CIRC   | \
 210:../Drivers/STM32F4xx_HAL_Driver/Src/stm32f4xx_hal_dma.c ****                       DMA_SxCR_DIR   | DMA_SxCR_CT  ));
 211:../Drivers/STM32F4xx_HAL_Driver/Src/stm32f4xx_hal_dma.c **** 
 212:../Drivers/STM32F4xx_HAL_Driver/Src/stm32f4xx_hal_dma.c ****   /* Prepare the DMA Stream configuration */
 213:../Drivers/STM32F4xx_HAL_Driver/Src/stm32f4xx_hal_dma.c ****   tmp |=  hdma->Init.Channel             | hdma->Init.Direction        |
 214:../Drivers/STM32F4xx_HAL_Driver/Src/stm32f4xx_hal_dma.c ****           hdma->Init.PeriphInc           | hdma->Init.MemInc           |
 215:../Drivers/STM32F4xx_HAL_Driver/Src/stm32f4xx_hal_dma.c ****           hdma->Init.PeriphDataAlignment | hdma->Init.MemDataAlignment |
 216:../Drivers/STM32F4xx_HAL_Driver/Src/stm32f4xx_hal_dma.c ****           hdma->Init.Mode                | hdma->Init.Priority;
 217:../Drivers/STM32F4xx_HAL_Driver/Src/stm32f4xx_hal_dma.c **** 
 218:../Drivers/STM32F4xx_HAL_Driver/Src/stm32f4xx_hal_dma.c ****   /* the Memory burst and peripheral burst are not used when the FIFO is disabled */
 219:../Drivers/STM32F4xx_HAL_Driver/Src/stm32f4xx_hal_dma.c ****   if(hdma->Init.FIFOMode == DMA_FIFOMODE_ENABLE)
 220:../Drivers/STM32F4xx_HAL_Driver/Src/stm32f4xx_hal_dma.c ****   {
 221:../Drivers/STM32F4xx_HAL_Driver/Src/stm32f4xx_hal_dma.c ****     /* Get memory burst and peripheral burst */
 222:../Drivers/STM32F4xx_HAL_Driver/Src/stm32f4xx_hal_dma.c ****     tmp |=  hdma->Init.MemBurst | hdma->Init.PeriphBurst;
 223:../Drivers/STM32F4xx_HAL_Driver/Src/stm32f4xx_hal_dma.c ****   }
 224:../Drivers/STM32F4xx_HAL_Driver/Src/stm32f4xx_hal_dma.c ****   
 225:../Drivers/STM32F4xx_HAL_Driver/Src/stm32f4xx_hal_dma.c ****   /* Write to DMA Stream CR register */
 226:../Drivers/STM32F4xx_HAL_Driver/Src/stm32f4xx_hal_dma.c ****   hdma->Instance->CR = tmp;  
 227:../Drivers/STM32F4xx_HAL_Driver/Src/stm32f4xx_hal_dma.c **** 
 228:../Drivers/STM32F4xx_HAL_Driver/Src/stm32f4xx_hal_dma.c ****   /* Get the FCR register value */
 229:../Drivers/STM32F4xx_HAL_Driver/Src/stm32f4xx_hal_dma.c ****   tmp = hdma->Instance->FCR;
 230:../Drivers/STM32F4xx_HAL_Driver/Src/stm32f4xx_hal_dma.c **** 
 231:../Drivers/STM32F4xx_HAL_Driver/Src/stm32f4xx_hal_dma.c ****   /* Clear Direct mode and FIFO threshold bits */
 232:../Drivers/STM32F4xx_HAL_Driver/Src/stm32f4xx_hal_dma.c ****   tmp &= (uint32_t)~(DMA_SxFCR_DMDIS | DMA_SxFCR_FTH);
 233:../Drivers/STM32F4xx_HAL_Driver/Src/stm32f4xx_hal_dma.c **** 
 234:../Drivers/STM32F4xx_HAL_Driver/Src/stm32f4xx_hal_dma.c ****   /* Prepare the DMA Stream FIFO configuration */
 235:../Drivers/STM32F4xx_HAL_Driver/Src/stm32f4xx_hal_dma.c ****   tmp |= hdma->Init.FIFOMode;
 236:../Drivers/STM32F4xx_HAL_Driver/Src/stm32f4xx_hal_dma.c **** 
 237:../Drivers/STM32F4xx_HAL_Driver/Src/stm32f4xx_hal_dma.c ****   /* the FIFO threshold is not used when the FIFO mode is disabled */
 238:../Drivers/STM32F4xx_HAL_Driver/Src/stm32f4xx_hal_dma.c ****   if(hdma->Init.FIFOMode == DMA_FIFOMODE_ENABLE)
 239:../Drivers/STM32F4xx_HAL_Driver/Src/stm32f4xx_hal_dma.c ****   {
 240:../Drivers/STM32F4xx_HAL_Driver/Src/stm32f4xx_hal_dma.c ****     /* Get the FIFO threshold */
 241:../Drivers/STM32F4xx_HAL_Driver/Src/stm32f4xx_hal_dma.c ****     tmp |= hdma->Init.FIFOThreshold;
 242:../Drivers/STM32F4xx_HAL_Driver/Src/stm32f4xx_hal_dma.c ****   }
 243:../Drivers/STM32F4xx_HAL_Driver/Src/stm32f4xx_hal_dma.c ****   
 244:../Drivers/STM32F4xx_HAL_Driver/Src/stm32f4xx_hal_dma.c ****   /* Write to DMA Stream FCR */
 245:../Drivers/STM32F4xx_HAL_Driver/Src/stm32f4xx_hal_dma.c ****   hdma->Instance->FCR = tmp;
 246:../Drivers/STM32F4xx_HAL_Driver/Src/stm32f4xx_hal_dma.c **** 
 247:../Drivers/STM32F4xx_HAL_Driver/Src/stm32f4xx_hal_dma.c ****   /* Initialise the error code */
 248:../Drivers/STM32F4xx_HAL_Driver/Src/stm32f4xx_hal_dma.c ****   hdma->ErrorCode = HAL_DMA_ERROR_NONE;
 249:../Drivers/STM32F4xx_HAL_Driver/Src/stm32f4xx_hal_dma.c **** 
 250:../Drivers/STM32F4xx_HAL_Driver/Src/stm32f4xx_hal_dma.c ****   /* Initialize the DMA state */
 251:../Drivers/STM32F4xx_HAL_Driver/Src/stm32f4xx_hal_dma.c ****   hdma->State = HAL_DMA_STATE_READY;
 252:../Drivers/STM32F4xx_HAL_Driver/Src/stm32f4xx_hal_dma.c **** 
 253:../Drivers/STM32F4xx_HAL_Driver/Src/stm32f4xx_hal_dma.c ****   return HAL_OK;
 254:../Drivers/STM32F4xx_HAL_Driver/Src/stm32f4xx_hal_dma.c **** }
 255:../Drivers/STM32F4xx_HAL_Driver/Src/stm32f4xx_hal_dma.c **** 
 256:../Drivers/STM32F4xx_HAL_Driver/Src/stm32f4xx_hal_dma.c **** /**
 257:../Drivers/STM32F4xx_HAL_Driver/Src/stm32f4xx_hal_dma.c ****   * @brief  DeInitializes the DMA peripheral 
 258:../Drivers/STM32F4xx_HAL_Driver/Src/stm32f4xx_hal_dma.c ****   * @param  hdma: pointer to a DMA_HandleTypeDef structure that contains
ARM GAS  /tmp/ccIvKYQX.s 			page 6


 259:../Drivers/STM32F4xx_HAL_Driver/Src/stm32f4xx_hal_dma.c ****   *               the configuration information for the specified DMA Stream.  
 260:../Drivers/STM32F4xx_HAL_Driver/Src/stm32f4xx_hal_dma.c ****   * @retval HAL status
 261:../Drivers/STM32F4xx_HAL_Driver/Src/stm32f4xx_hal_dma.c ****   */
 262:../Drivers/STM32F4xx_HAL_Driver/Src/stm32f4xx_hal_dma.c **** HAL_StatusTypeDef HAL_DMA_DeInit(DMA_HandleTypeDef *hdma)
 263:../Drivers/STM32F4xx_HAL_Driver/Src/stm32f4xx_hal_dma.c **** {
 264:../Drivers/STM32F4xx_HAL_Driver/Src/stm32f4xx_hal_dma.c ****   /* Check the DMA peripheral state */
 265:../Drivers/STM32F4xx_HAL_Driver/Src/stm32f4xx_hal_dma.c ****   if(hdma == NULL)
 266:../Drivers/STM32F4xx_HAL_Driver/Src/stm32f4xx_hal_dma.c ****   {
 267:../Drivers/STM32F4xx_HAL_Driver/Src/stm32f4xx_hal_dma.c ****     return HAL_ERROR;
 268:../Drivers/STM32F4xx_HAL_Driver/Src/stm32f4xx_hal_dma.c ****   }
 269:../Drivers/STM32F4xx_HAL_Driver/Src/stm32f4xx_hal_dma.c ****   
 270:../Drivers/STM32F4xx_HAL_Driver/Src/stm32f4xx_hal_dma.c ****   /* Check the DMA peripheral state */
 271:../Drivers/STM32F4xx_HAL_Driver/Src/stm32f4xx_hal_dma.c ****   if(hdma->State == HAL_DMA_STATE_BUSY)
 272:../Drivers/STM32F4xx_HAL_Driver/Src/stm32f4xx_hal_dma.c ****   {
 273:../Drivers/STM32F4xx_HAL_Driver/Src/stm32f4xx_hal_dma.c ****      return HAL_ERROR;
 274:../Drivers/STM32F4xx_HAL_Driver/Src/stm32f4xx_hal_dma.c ****   }
 275:../Drivers/STM32F4xx_HAL_Driver/Src/stm32f4xx_hal_dma.c **** 
 276:../Drivers/STM32F4xx_HAL_Driver/Src/stm32f4xx_hal_dma.c ****   /* Disable the selected DMA Streamx */
 277:../Drivers/STM32F4xx_HAL_Driver/Src/stm32f4xx_hal_dma.c ****   __HAL_DMA_DISABLE(hdma);
 278:../Drivers/STM32F4xx_HAL_Driver/Src/stm32f4xx_hal_dma.c **** 
 279:../Drivers/STM32F4xx_HAL_Driver/Src/stm32f4xx_hal_dma.c ****   /* Reset DMA Streamx control register */
 280:../Drivers/STM32F4xx_HAL_Driver/Src/stm32f4xx_hal_dma.c ****   hdma->Instance->CR   = 0;
 281:../Drivers/STM32F4xx_HAL_Driver/Src/stm32f4xx_hal_dma.c **** 
 282:../Drivers/STM32F4xx_HAL_Driver/Src/stm32f4xx_hal_dma.c ****   /* Reset DMA Streamx number of data to transfer register */
 283:../Drivers/STM32F4xx_HAL_Driver/Src/stm32f4xx_hal_dma.c ****   hdma->Instance->NDTR = 0;
 284:../Drivers/STM32F4xx_HAL_Driver/Src/stm32f4xx_hal_dma.c **** 
 285:../Drivers/STM32F4xx_HAL_Driver/Src/stm32f4xx_hal_dma.c ****   /* Reset DMA Streamx peripheral address register */
 286:../Drivers/STM32F4xx_HAL_Driver/Src/stm32f4xx_hal_dma.c ****   hdma->Instance->PAR  = 0;
 287:../Drivers/STM32F4xx_HAL_Driver/Src/stm32f4xx_hal_dma.c **** 
 288:../Drivers/STM32F4xx_HAL_Driver/Src/stm32f4xx_hal_dma.c ****   /* Reset DMA Streamx memory 0 address register */
 289:../Drivers/STM32F4xx_HAL_Driver/Src/stm32f4xx_hal_dma.c ****   hdma->Instance->M0AR = 0;
 290:../Drivers/STM32F4xx_HAL_Driver/Src/stm32f4xx_hal_dma.c **** 
 291:../Drivers/STM32F4xx_HAL_Driver/Src/stm32f4xx_hal_dma.c ****   /* Reset DMA Streamx memory 1 address register */
 292:../Drivers/STM32F4xx_HAL_Driver/Src/stm32f4xx_hal_dma.c ****   hdma->Instance->M1AR = 0;
 293:../Drivers/STM32F4xx_HAL_Driver/Src/stm32f4xx_hal_dma.c **** 
 294:../Drivers/STM32F4xx_HAL_Driver/Src/stm32f4xx_hal_dma.c ****   /* Reset DMA Streamx FIFO control register */
 295:../Drivers/STM32F4xx_HAL_Driver/Src/stm32f4xx_hal_dma.c ****   hdma->Instance->FCR  = (uint32_t)0x00000021;
 296:../Drivers/STM32F4xx_HAL_Driver/Src/stm32f4xx_hal_dma.c **** 
 297:../Drivers/STM32F4xx_HAL_Driver/Src/stm32f4xx_hal_dma.c ****   /* Clear all flags */
 298:../Drivers/STM32F4xx_HAL_Driver/Src/stm32f4xx_hal_dma.c ****   __HAL_DMA_CLEAR_FLAG(hdma, __HAL_DMA_GET_DME_FLAG_INDEX(hdma));
 299:../Drivers/STM32F4xx_HAL_Driver/Src/stm32f4xx_hal_dma.c ****   __HAL_DMA_CLEAR_FLAG(hdma, __HAL_DMA_GET_TC_FLAG_INDEX(hdma));
 300:../Drivers/STM32F4xx_HAL_Driver/Src/stm32f4xx_hal_dma.c ****   __HAL_DMA_CLEAR_FLAG(hdma, __HAL_DMA_GET_TE_FLAG_INDEX(hdma));
 301:../Drivers/STM32F4xx_HAL_Driver/Src/stm32f4xx_hal_dma.c ****   __HAL_DMA_CLEAR_FLAG(hdma, __HAL_DMA_GET_FE_FLAG_INDEX(hdma));
 302:../Drivers/STM32F4xx_HAL_Driver/Src/stm32f4xx_hal_dma.c ****   __HAL_DMA_CLEAR_FLAG(hdma, __HAL_DMA_GET_HT_FLAG_INDEX(hdma));
 303:../Drivers/STM32F4xx_HAL_Driver/Src/stm32f4xx_hal_dma.c **** 
 304:../Drivers/STM32F4xx_HAL_Driver/Src/stm32f4xx_hal_dma.c ****   /* Initialise the error code */
 305:../Drivers/STM32F4xx_HAL_Driver/Src/stm32f4xx_hal_dma.c ****   hdma->ErrorCode = HAL_DMA_ERROR_NONE;
 306:../Drivers/STM32F4xx_HAL_Driver/Src/stm32f4xx_hal_dma.c **** 
 307:../Drivers/STM32F4xx_HAL_Driver/Src/stm32f4xx_hal_dma.c ****   /* Initialize the DMA state */
 308:../Drivers/STM32F4xx_HAL_Driver/Src/stm32f4xx_hal_dma.c ****   hdma->State = HAL_DMA_STATE_RESET;
 309:../Drivers/STM32F4xx_HAL_Driver/Src/stm32f4xx_hal_dma.c **** 
 310:../Drivers/STM32F4xx_HAL_Driver/Src/stm32f4xx_hal_dma.c ****   /* Release Lock */
 311:../Drivers/STM32F4xx_HAL_Driver/Src/stm32f4xx_hal_dma.c ****   __HAL_UNLOCK(hdma);
 312:../Drivers/STM32F4xx_HAL_Driver/Src/stm32f4xx_hal_dma.c **** 
 313:../Drivers/STM32F4xx_HAL_Driver/Src/stm32f4xx_hal_dma.c ****   return HAL_OK;
 314:../Drivers/STM32F4xx_HAL_Driver/Src/stm32f4xx_hal_dma.c **** }
 315:../Drivers/STM32F4xx_HAL_Driver/Src/stm32f4xx_hal_dma.c **** 
ARM GAS  /tmp/ccIvKYQX.s 			page 7


 316:../Drivers/STM32F4xx_HAL_Driver/Src/stm32f4xx_hal_dma.c **** /**
 317:../Drivers/STM32F4xx_HAL_Driver/Src/stm32f4xx_hal_dma.c ****   * @}
 318:../Drivers/STM32F4xx_HAL_Driver/Src/stm32f4xx_hal_dma.c ****   */
 319:../Drivers/STM32F4xx_HAL_Driver/Src/stm32f4xx_hal_dma.c **** 
 320:../Drivers/STM32F4xx_HAL_Driver/Src/stm32f4xx_hal_dma.c **** /** @defgroup DMA_Group2 I/O operation functions 
 321:../Drivers/STM32F4xx_HAL_Driver/Src/stm32f4xx_hal_dma.c ****  *  @brief   I/O operation functions  
 322:../Drivers/STM32F4xx_HAL_Driver/Src/stm32f4xx_hal_dma.c ****  *
 323:../Drivers/STM32F4xx_HAL_Driver/Src/stm32f4xx_hal_dma.c **** @verbatim   
 324:../Drivers/STM32F4xx_HAL_Driver/Src/stm32f4xx_hal_dma.c ****  ===============================================================================
 325:../Drivers/STM32F4xx_HAL_Driver/Src/stm32f4xx_hal_dma.c ****                       #####  IO operation functions  #####
 326:../Drivers/STM32F4xx_HAL_Driver/Src/stm32f4xx_hal_dma.c ****  ===============================================================================  
 327:../Drivers/STM32F4xx_HAL_Driver/Src/stm32f4xx_hal_dma.c ****     [..]  This section provides functions allowing to:
 328:../Drivers/STM32F4xx_HAL_Driver/Src/stm32f4xx_hal_dma.c ****       (+) Configure the source, destination address and data length and Start DMA transfer
 329:../Drivers/STM32F4xx_HAL_Driver/Src/stm32f4xx_hal_dma.c ****       (+) Configure the source, destination address and data length and 
 330:../Drivers/STM32F4xx_HAL_Driver/Src/stm32f4xx_hal_dma.c ****           Start DMA transfer with interrupt
 331:../Drivers/STM32F4xx_HAL_Driver/Src/stm32f4xx_hal_dma.c ****       (+) Abort DMA transfer
 332:../Drivers/STM32F4xx_HAL_Driver/Src/stm32f4xx_hal_dma.c ****       (+) Poll for transfer complete
 333:../Drivers/STM32F4xx_HAL_Driver/Src/stm32f4xx_hal_dma.c ****       (+) Handle DMA interrupt request  
 334:../Drivers/STM32F4xx_HAL_Driver/Src/stm32f4xx_hal_dma.c **** 
 335:../Drivers/STM32F4xx_HAL_Driver/Src/stm32f4xx_hal_dma.c **** @endverbatim
 336:../Drivers/STM32F4xx_HAL_Driver/Src/stm32f4xx_hal_dma.c ****   * @{
 337:../Drivers/STM32F4xx_HAL_Driver/Src/stm32f4xx_hal_dma.c ****   */
 338:../Drivers/STM32F4xx_HAL_Driver/Src/stm32f4xx_hal_dma.c **** 
 339:../Drivers/STM32F4xx_HAL_Driver/Src/stm32f4xx_hal_dma.c **** /**
 340:../Drivers/STM32F4xx_HAL_Driver/Src/stm32f4xx_hal_dma.c ****   * @brief  Starts the DMA Transfer.
 341:../Drivers/STM32F4xx_HAL_Driver/Src/stm32f4xx_hal_dma.c ****   * @param  hdma      : pointer to a DMA_HandleTypeDef structure that contains
 342:../Drivers/STM32F4xx_HAL_Driver/Src/stm32f4xx_hal_dma.c ****   *                     the configuration information for the specified DMA Stream.  
 343:../Drivers/STM32F4xx_HAL_Driver/Src/stm32f4xx_hal_dma.c ****   * @param  SrcAddress: The source memory Buffer address
 344:../Drivers/STM32F4xx_HAL_Driver/Src/stm32f4xx_hal_dma.c ****   * @param  DstAddress: The destination memory Buffer address
 345:../Drivers/STM32F4xx_HAL_Driver/Src/stm32f4xx_hal_dma.c ****   * @param  DataLength: The length of data to be transferred from source to destination
 346:../Drivers/STM32F4xx_HAL_Driver/Src/stm32f4xx_hal_dma.c ****   * @retval HAL status
 347:../Drivers/STM32F4xx_HAL_Driver/Src/stm32f4xx_hal_dma.c ****   */
 348:../Drivers/STM32F4xx_HAL_Driver/Src/stm32f4xx_hal_dma.c **** HAL_StatusTypeDef HAL_DMA_Start(DMA_HandleTypeDef *hdma, uint32_t SrcAddress, uint32_t DstAddress, 
 349:../Drivers/STM32F4xx_HAL_Driver/Src/stm32f4xx_hal_dma.c **** {
 350:../Drivers/STM32F4xx_HAL_Driver/Src/stm32f4xx_hal_dma.c ****   /* Process locked */
 351:../Drivers/STM32F4xx_HAL_Driver/Src/stm32f4xx_hal_dma.c ****   __HAL_LOCK(hdma);
 352:../Drivers/STM32F4xx_HAL_Driver/Src/stm32f4xx_hal_dma.c **** 
 353:../Drivers/STM32F4xx_HAL_Driver/Src/stm32f4xx_hal_dma.c ****   /* Change DMA peripheral state */
 354:../Drivers/STM32F4xx_HAL_Driver/Src/stm32f4xx_hal_dma.c ****   hdma->State = HAL_DMA_STATE_BUSY;
 355:../Drivers/STM32F4xx_HAL_Driver/Src/stm32f4xx_hal_dma.c **** 
 356:../Drivers/STM32F4xx_HAL_Driver/Src/stm32f4xx_hal_dma.c ****    /* Check the parameters */
 357:../Drivers/STM32F4xx_HAL_Driver/Src/stm32f4xx_hal_dma.c ****   assert_param(IS_DMA_BUFFER_SIZE(DataLength));
 358:../Drivers/STM32F4xx_HAL_Driver/Src/stm32f4xx_hal_dma.c **** 
 359:../Drivers/STM32F4xx_HAL_Driver/Src/stm32f4xx_hal_dma.c ****   /* Disable the peripheral */
 360:../Drivers/STM32F4xx_HAL_Driver/Src/stm32f4xx_hal_dma.c ****   __HAL_DMA_DISABLE(hdma);
 361:../Drivers/STM32F4xx_HAL_Driver/Src/stm32f4xx_hal_dma.c **** 
 362:../Drivers/STM32F4xx_HAL_Driver/Src/stm32f4xx_hal_dma.c ****   /* Configure the source, destination address and the data length */
 363:../Drivers/STM32F4xx_HAL_Driver/Src/stm32f4xx_hal_dma.c ****   DMA_SetConfig(hdma, SrcAddress, DstAddress, DataLength);
 364:../Drivers/STM32F4xx_HAL_Driver/Src/stm32f4xx_hal_dma.c **** 
 365:../Drivers/STM32F4xx_HAL_Driver/Src/stm32f4xx_hal_dma.c ****   /* Enable the Peripheral */
 366:../Drivers/STM32F4xx_HAL_Driver/Src/stm32f4xx_hal_dma.c ****   __HAL_DMA_ENABLE(hdma);
 367:../Drivers/STM32F4xx_HAL_Driver/Src/stm32f4xx_hal_dma.c **** 
 368:../Drivers/STM32F4xx_HAL_Driver/Src/stm32f4xx_hal_dma.c ****   return HAL_OK; 
 369:../Drivers/STM32F4xx_HAL_Driver/Src/stm32f4xx_hal_dma.c **** }
 370:../Drivers/STM32F4xx_HAL_Driver/Src/stm32f4xx_hal_dma.c **** 
 371:../Drivers/STM32F4xx_HAL_Driver/Src/stm32f4xx_hal_dma.c **** /**
 372:../Drivers/STM32F4xx_HAL_Driver/Src/stm32f4xx_hal_dma.c ****   * @brief  Start the DMA Transfer with interrupt enabled.
ARM GAS  /tmp/ccIvKYQX.s 			page 8


 373:../Drivers/STM32F4xx_HAL_Driver/Src/stm32f4xx_hal_dma.c ****   * @param  hdma:       pointer to a DMA_HandleTypeDef structure that contains
 374:../Drivers/STM32F4xx_HAL_Driver/Src/stm32f4xx_hal_dma.c ****   *                     the configuration information for the specified DMA Stream.  
 375:../Drivers/STM32F4xx_HAL_Driver/Src/stm32f4xx_hal_dma.c ****   * @param  SrcAddress: The source memory Buffer address
 376:../Drivers/STM32F4xx_HAL_Driver/Src/stm32f4xx_hal_dma.c ****   * @param  DstAddress: The destination memory Buffer address
 377:../Drivers/STM32F4xx_HAL_Driver/Src/stm32f4xx_hal_dma.c ****   * @param  DataLength: The length of data to be transferred from source to destination
 378:../Drivers/STM32F4xx_HAL_Driver/Src/stm32f4xx_hal_dma.c ****   * @retval HAL status
 379:../Drivers/STM32F4xx_HAL_Driver/Src/stm32f4xx_hal_dma.c ****   */
 380:../Drivers/STM32F4xx_HAL_Driver/Src/stm32f4xx_hal_dma.c **** HAL_StatusTypeDef HAL_DMA_Start_IT(DMA_HandleTypeDef *hdma, uint32_t SrcAddress, uint32_t DstAddres
 381:../Drivers/STM32F4xx_HAL_Driver/Src/stm32f4xx_hal_dma.c **** {
 382:../Drivers/STM32F4xx_HAL_Driver/Src/stm32f4xx_hal_dma.c ****   /* Process locked */
 383:../Drivers/STM32F4xx_HAL_Driver/Src/stm32f4xx_hal_dma.c ****   __HAL_LOCK(hdma);
 384:../Drivers/STM32F4xx_HAL_Driver/Src/stm32f4xx_hal_dma.c **** 
 385:../Drivers/STM32F4xx_HAL_Driver/Src/stm32f4xx_hal_dma.c ****   /* Change DMA peripheral state */
 386:../Drivers/STM32F4xx_HAL_Driver/Src/stm32f4xx_hal_dma.c ****   hdma->State = HAL_DMA_STATE_BUSY;
 387:../Drivers/STM32F4xx_HAL_Driver/Src/stm32f4xx_hal_dma.c **** 
 388:../Drivers/STM32F4xx_HAL_Driver/Src/stm32f4xx_hal_dma.c ****    /* Check the parameters */
 389:../Drivers/STM32F4xx_HAL_Driver/Src/stm32f4xx_hal_dma.c ****   assert_param(IS_DMA_BUFFER_SIZE(DataLength));
 390:../Drivers/STM32F4xx_HAL_Driver/Src/stm32f4xx_hal_dma.c **** 
 391:../Drivers/STM32F4xx_HAL_Driver/Src/stm32f4xx_hal_dma.c ****   /* Disable the peripheral */
 392:../Drivers/STM32F4xx_HAL_Driver/Src/stm32f4xx_hal_dma.c ****   __HAL_DMA_DISABLE(hdma);
 393:../Drivers/STM32F4xx_HAL_Driver/Src/stm32f4xx_hal_dma.c **** 
 394:../Drivers/STM32F4xx_HAL_Driver/Src/stm32f4xx_hal_dma.c ****   /* Configure the source, destination address and the data length */
 395:../Drivers/STM32F4xx_HAL_Driver/Src/stm32f4xx_hal_dma.c ****   DMA_SetConfig(hdma, SrcAddress, DstAddress, DataLength);
 396:../Drivers/STM32F4xx_HAL_Driver/Src/stm32f4xx_hal_dma.c **** 
 397:../Drivers/STM32F4xx_HAL_Driver/Src/stm32f4xx_hal_dma.c ****   /* Enable the transfer complete interrupt */
 398:../Drivers/STM32F4xx_HAL_Driver/Src/stm32f4xx_hal_dma.c ****   __HAL_DMA_ENABLE_IT(hdma, DMA_IT_TC);
 399:../Drivers/STM32F4xx_HAL_Driver/Src/stm32f4xx_hal_dma.c **** 
 400:../Drivers/STM32F4xx_HAL_Driver/Src/stm32f4xx_hal_dma.c ****   /* Enable the Half transfer complete interrupt */
 401:../Drivers/STM32F4xx_HAL_Driver/Src/stm32f4xx_hal_dma.c ****   __HAL_DMA_ENABLE_IT(hdma, DMA_IT_HT);  
 402:../Drivers/STM32F4xx_HAL_Driver/Src/stm32f4xx_hal_dma.c **** 
 403:../Drivers/STM32F4xx_HAL_Driver/Src/stm32f4xx_hal_dma.c ****   /* Enable the transfer Error interrupt */
 404:../Drivers/STM32F4xx_HAL_Driver/Src/stm32f4xx_hal_dma.c ****   __HAL_DMA_ENABLE_IT(hdma, DMA_IT_TE);
 405:../Drivers/STM32F4xx_HAL_Driver/Src/stm32f4xx_hal_dma.c **** 
 406:../Drivers/STM32F4xx_HAL_Driver/Src/stm32f4xx_hal_dma.c ****   /* Enable the FIFO Error interrupt */
 407:../Drivers/STM32F4xx_HAL_Driver/Src/stm32f4xx_hal_dma.c ****   __HAL_DMA_ENABLE_IT(hdma, DMA_IT_FE);
 408:../Drivers/STM32F4xx_HAL_Driver/Src/stm32f4xx_hal_dma.c **** 
 409:../Drivers/STM32F4xx_HAL_Driver/Src/stm32f4xx_hal_dma.c ****   /* Enable the direct mode Error interrupt */
 410:../Drivers/STM32F4xx_HAL_Driver/Src/stm32f4xx_hal_dma.c ****   __HAL_DMA_ENABLE_IT(hdma, DMA_IT_DME);
 411:../Drivers/STM32F4xx_HAL_Driver/Src/stm32f4xx_hal_dma.c **** 
 412:../Drivers/STM32F4xx_HAL_Driver/Src/stm32f4xx_hal_dma.c ****    /* Enable the Peripheral */
 413:../Drivers/STM32F4xx_HAL_Driver/Src/stm32f4xx_hal_dma.c ****   __HAL_DMA_ENABLE(hdma);
 414:../Drivers/STM32F4xx_HAL_Driver/Src/stm32f4xx_hal_dma.c **** 
 415:../Drivers/STM32F4xx_HAL_Driver/Src/stm32f4xx_hal_dma.c ****   return HAL_OK;
 416:../Drivers/STM32F4xx_HAL_Driver/Src/stm32f4xx_hal_dma.c **** } 
 417:../Drivers/STM32F4xx_HAL_Driver/Src/stm32f4xx_hal_dma.c **** 
 418:../Drivers/STM32F4xx_HAL_Driver/Src/stm32f4xx_hal_dma.c **** /**
 419:../Drivers/STM32F4xx_HAL_Driver/Src/stm32f4xx_hal_dma.c ****   * @brief  Aborts the DMA Transfer.
 420:../Drivers/STM32F4xx_HAL_Driver/Src/stm32f4xx_hal_dma.c ****   * @param  hdma  : pointer to a DMA_HandleTypeDef structure that contains
 421:../Drivers/STM32F4xx_HAL_Driver/Src/stm32f4xx_hal_dma.c ****   *                 the configuration information for the specified DMA Stream.
 422:../Drivers/STM32F4xx_HAL_Driver/Src/stm32f4xx_hal_dma.c ****   *                   
 423:../Drivers/STM32F4xx_HAL_Driver/Src/stm32f4xx_hal_dma.c ****   * @note  After disabling a DMA Stream, a check for wait until the DMA Stream is 
 424:../Drivers/STM32F4xx_HAL_Driver/Src/stm32f4xx_hal_dma.c ****   *        effectively disabled is added. If a Stream is disabled 
 425:../Drivers/STM32F4xx_HAL_Driver/Src/stm32f4xx_hal_dma.c ****   *        while a data transfer is ongoing, the current data will be transferred
 426:../Drivers/STM32F4xx_HAL_Driver/Src/stm32f4xx_hal_dma.c ****   *        and the Stream will be effectively disabled only after the transfer of
 427:../Drivers/STM32F4xx_HAL_Driver/Src/stm32f4xx_hal_dma.c ****   *        this single data is finished.  
 428:../Drivers/STM32F4xx_HAL_Driver/Src/stm32f4xx_hal_dma.c ****   * @retval HAL status
 429:../Drivers/STM32F4xx_HAL_Driver/Src/stm32f4xx_hal_dma.c ****   */
ARM GAS  /tmp/ccIvKYQX.s 			page 9


 430:../Drivers/STM32F4xx_HAL_Driver/Src/stm32f4xx_hal_dma.c **** HAL_StatusTypeDef HAL_DMA_Abort(DMA_HandleTypeDef *hdma)
 431:../Drivers/STM32F4xx_HAL_Driver/Src/stm32f4xx_hal_dma.c **** {
 432:../Drivers/STM32F4xx_HAL_Driver/Src/stm32f4xx_hal_dma.c ****   uint32_t tickstart = 0;
 433:../Drivers/STM32F4xx_HAL_Driver/Src/stm32f4xx_hal_dma.c **** 
 434:../Drivers/STM32F4xx_HAL_Driver/Src/stm32f4xx_hal_dma.c ****   /* Disable the stream */
 435:../Drivers/STM32F4xx_HAL_Driver/Src/stm32f4xx_hal_dma.c ****   __HAL_DMA_DISABLE(hdma);
 436:../Drivers/STM32F4xx_HAL_Driver/Src/stm32f4xx_hal_dma.c **** 
 437:../Drivers/STM32F4xx_HAL_Driver/Src/stm32f4xx_hal_dma.c ****   /* Get tick */
 438:../Drivers/STM32F4xx_HAL_Driver/Src/stm32f4xx_hal_dma.c ****   tickstart = HAL_GetTick();
 439:../Drivers/STM32F4xx_HAL_Driver/Src/stm32f4xx_hal_dma.c **** 
 440:../Drivers/STM32F4xx_HAL_Driver/Src/stm32f4xx_hal_dma.c ****   /* Check if the DMA Stream is effectively disabled */
 441:../Drivers/STM32F4xx_HAL_Driver/Src/stm32f4xx_hal_dma.c ****   while((hdma->Instance->CR & DMA_SxCR_EN) != 0)
 442:../Drivers/STM32F4xx_HAL_Driver/Src/stm32f4xx_hal_dma.c ****   {
 443:../Drivers/STM32F4xx_HAL_Driver/Src/stm32f4xx_hal_dma.c ****     /* Check for the Timeout */
 444:../Drivers/STM32F4xx_HAL_Driver/Src/stm32f4xx_hal_dma.c ****     if((HAL_GetTick() - tickstart ) > HAL_TIMEOUT_DMA_ABORT)
 445:../Drivers/STM32F4xx_HAL_Driver/Src/stm32f4xx_hal_dma.c ****     {
 446:../Drivers/STM32F4xx_HAL_Driver/Src/stm32f4xx_hal_dma.c ****       /* Update error code */
 447:../Drivers/STM32F4xx_HAL_Driver/Src/stm32f4xx_hal_dma.c ****       hdma->ErrorCode |= HAL_DMA_ERROR_TIMEOUT;
 448:../Drivers/STM32F4xx_HAL_Driver/Src/stm32f4xx_hal_dma.c ****       
 449:../Drivers/STM32F4xx_HAL_Driver/Src/stm32f4xx_hal_dma.c ****       /* Process Unlocked */
 450:../Drivers/STM32F4xx_HAL_Driver/Src/stm32f4xx_hal_dma.c ****       __HAL_UNLOCK(hdma);
 451:../Drivers/STM32F4xx_HAL_Driver/Src/stm32f4xx_hal_dma.c ****       
 452:../Drivers/STM32F4xx_HAL_Driver/Src/stm32f4xx_hal_dma.c ****       /* Change the DMA state */
 453:../Drivers/STM32F4xx_HAL_Driver/Src/stm32f4xx_hal_dma.c ****       hdma->State = HAL_DMA_STATE_TIMEOUT;
 454:../Drivers/STM32F4xx_HAL_Driver/Src/stm32f4xx_hal_dma.c ****       
 455:../Drivers/STM32F4xx_HAL_Driver/Src/stm32f4xx_hal_dma.c ****       return HAL_TIMEOUT;
 456:../Drivers/STM32F4xx_HAL_Driver/Src/stm32f4xx_hal_dma.c ****     }
 457:../Drivers/STM32F4xx_HAL_Driver/Src/stm32f4xx_hal_dma.c ****   }
 458:../Drivers/STM32F4xx_HAL_Driver/Src/stm32f4xx_hal_dma.c ****   /* Process Unlocked */
 459:../Drivers/STM32F4xx_HAL_Driver/Src/stm32f4xx_hal_dma.c ****   __HAL_UNLOCK(hdma);
 460:../Drivers/STM32F4xx_HAL_Driver/Src/stm32f4xx_hal_dma.c **** 
 461:../Drivers/STM32F4xx_HAL_Driver/Src/stm32f4xx_hal_dma.c ****   /* Change the DMA state*/
 462:../Drivers/STM32F4xx_HAL_Driver/Src/stm32f4xx_hal_dma.c ****   hdma->State = HAL_DMA_STATE_READY;
 463:../Drivers/STM32F4xx_HAL_Driver/Src/stm32f4xx_hal_dma.c **** 
 464:../Drivers/STM32F4xx_HAL_Driver/Src/stm32f4xx_hal_dma.c ****   return HAL_OK;
 465:../Drivers/STM32F4xx_HAL_Driver/Src/stm32f4xx_hal_dma.c **** }
 466:../Drivers/STM32F4xx_HAL_Driver/Src/stm32f4xx_hal_dma.c **** 
 467:../Drivers/STM32F4xx_HAL_Driver/Src/stm32f4xx_hal_dma.c **** /**
 468:../Drivers/STM32F4xx_HAL_Driver/Src/stm32f4xx_hal_dma.c ****   * @brief  Polling for transfer complete.
 469:../Drivers/STM32F4xx_HAL_Driver/Src/stm32f4xx_hal_dma.c ****   * @param  hdma:          pointer to a DMA_HandleTypeDef structure that contains
 470:../Drivers/STM32F4xx_HAL_Driver/Src/stm32f4xx_hal_dma.c ****   *                        the configuration information for the specified DMA Stream.
 471:../Drivers/STM32F4xx_HAL_Driver/Src/stm32f4xx_hal_dma.c ****   * @param  CompleteLevel: Specifies the DMA level complete.  
 472:../Drivers/STM32F4xx_HAL_Driver/Src/stm32f4xx_hal_dma.c ****   * @param  Timeout:       Timeout duration.
 473:../Drivers/STM32F4xx_HAL_Driver/Src/stm32f4xx_hal_dma.c ****   * @retval HAL status
 474:../Drivers/STM32F4xx_HAL_Driver/Src/stm32f4xx_hal_dma.c ****   */
 475:../Drivers/STM32F4xx_HAL_Driver/Src/stm32f4xx_hal_dma.c **** HAL_StatusTypeDef HAL_DMA_PollForTransfer(DMA_HandleTypeDef *hdma, uint32_t CompleteLevel, uint32_t
 476:../Drivers/STM32F4xx_HAL_Driver/Src/stm32f4xx_hal_dma.c **** {
 477:../Drivers/STM32F4xx_HAL_Driver/Src/stm32f4xx_hal_dma.c ****   uint32_t temp, tmp, tmp1, tmp2;
 478:../Drivers/STM32F4xx_HAL_Driver/Src/stm32f4xx_hal_dma.c ****   uint32_t tickstart = 0; 
 479:../Drivers/STM32F4xx_HAL_Driver/Src/stm32f4xx_hal_dma.c **** 
 480:../Drivers/STM32F4xx_HAL_Driver/Src/stm32f4xx_hal_dma.c ****   /* Get the level transfer complete flag */
 481:../Drivers/STM32F4xx_HAL_Driver/Src/stm32f4xx_hal_dma.c ****   if(CompleteLevel == HAL_DMA_FULL_TRANSFER)
 482:../Drivers/STM32F4xx_HAL_Driver/Src/stm32f4xx_hal_dma.c ****   {
 483:../Drivers/STM32F4xx_HAL_Driver/Src/stm32f4xx_hal_dma.c ****     /* Transfer Complete flag */
 484:../Drivers/STM32F4xx_HAL_Driver/Src/stm32f4xx_hal_dma.c ****     temp = __HAL_DMA_GET_TC_FLAG_INDEX(hdma);
 485:../Drivers/STM32F4xx_HAL_Driver/Src/stm32f4xx_hal_dma.c ****   }
 486:../Drivers/STM32F4xx_HAL_Driver/Src/stm32f4xx_hal_dma.c ****   else
ARM GAS  /tmp/ccIvKYQX.s 			page 10


 487:../Drivers/STM32F4xx_HAL_Driver/Src/stm32f4xx_hal_dma.c ****   {
 488:../Drivers/STM32F4xx_HAL_Driver/Src/stm32f4xx_hal_dma.c ****     /* Half Transfer Complete flag */
 489:../Drivers/STM32F4xx_HAL_Driver/Src/stm32f4xx_hal_dma.c ****     temp = __HAL_DMA_GET_HT_FLAG_INDEX(hdma);
 490:../Drivers/STM32F4xx_HAL_Driver/Src/stm32f4xx_hal_dma.c ****   }
 491:../Drivers/STM32F4xx_HAL_Driver/Src/stm32f4xx_hal_dma.c **** 
 492:../Drivers/STM32F4xx_HAL_Driver/Src/stm32f4xx_hal_dma.c ****   /* Get tick */
 493:../Drivers/STM32F4xx_HAL_Driver/Src/stm32f4xx_hal_dma.c ****   tickstart = HAL_GetTick();
 494:../Drivers/STM32F4xx_HAL_Driver/Src/stm32f4xx_hal_dma.c **** 
 495:../Drivers/STM32F4xx_HAL_Driver/Src/stm32f4xx_hal_dma.c ****   while(__HAL_DMA_GET_FLAG(hdma, temp) == RESET)
 496:../Drivers/STM32F4xx_HAL_Driver/Src/stm32f4xx_hal_dma.c ****   {
 497:../Drivers/STM32F4xx_HAL_Driver/Src/stm32f4xx_hal_dma.c ****     tmp  = __HAL_DMA_GET_FLAG(hdma, __HAL_DMA_GET_TE_FLAG_INDEX(hdma));
 498:../Drivers/STM32F4xx_HAL_Driver/Src/stm32f4xx_hal_dma.c ****     tmp1 = __HAL_DMA_GET_FLAG(hdma, __HAL_DMA_GET_FE_FLAG_INDEX(hdma));
 499:../Drivers/STM32F4xx_HAL_Driver/Src/stm32f4xx_hal_dma.c ****     tmp2 = __HAL_DMA_GET_FLAG(hdma, __HAL_DMA_GET_DME_FLAG_INDEX(hdma));
 500:../Drivers/STM32F4xx_HAL_Driver/Src/stm32f4xx_hal_dma.c ****     if((tmp != RESET) || (tmp1 != RESET) || (tmp2 != RESET))
 501:../Drivers/STM32F4xx_HAL_Driver/Src/stm32f4xx_hal_dma.c ****     {
 502:../Drivers/STM32F4xx_HAL_Driver/Src/stm32f4xx_hal_dma.c ****       if(tmp != RESET)
 503:../Drivers/STM32F4xx_HAL_Driver/Src/stm32f4xx_hal_dma.c ****       {
 504:../Drivers/STM32F4xx_HAL_Driver/Src/stm32f4xx_hal_dma.c ****         /* Update error code */
 505:../Drivers/STM32F4xx_HAL_Driver/Src/stm32f4xx_hal_dma.c ****         hdma->ErrorCode |= HAL_DMA_ERROR_TE;
 506:../Drivers/STM32F4xx_HAL_Driver/Src/stm32f4xx_hal_dma.c **** 
 507:../Drivers/STM32F4xx_HAL_Driver/Src/stm32f4xx_hal_dma.c ****         /* Clear the transfer error flag */
 508:../Drivers/STM32F4xx_HAL_Driver/Src/stm32f4xx_hal_dma.c ****         __HAL_DMA_CLEAR_FLAG(hdma, __HAL_DMA_GET_TE_FLAG_INDEX(hdma));
 509:../Drivers/STM32F4xx_HAL_Driver/Src/stm32f4xx_hal_dma.c ****       }
 510:../Drivers/STM32F4xx_HAL_Driver/Src/stm32f4xx_hal_dma.c ****       if(tmp1 != RESET)
 511:../Drivers/STM32F4xx_HAL_Driver/Src/stm32f4xx_hal_dma.c ****       {
 512:../Drivers/STM32F4xx_HAL_Driver/Src/stm32f4xx_hal_dma.c ****         /* Update error code */
 513:../Drivers/STM32F4xx_HAL_Driver/Src/stm32f4xx_hal_dma.c ****         hdma->ErrorCode |= HAL_DMA_ERROR_FE;
 514:../Drivers/STM32F4xx_HAL_Driver/Src/stm32f4xx_hal_dma.c ****  
 515:../Drivers/STM32F4xx_HAL_Driver/Src/stm32f4xx_hal_dma.c ****         /* Clear the FIFO error flag */
 516:../Drivers/STM32F4xx_HAL_Driver/Src/stm32f4xx_hal_dma.c ****         __HAL_DMA_CLEAR_FLAG(hdma, __HAL_DMA_GET_FE_FLAG_INDEX(hdma));
 517:../Drivers/STM32F4xx_HAL_Driver/Src/stm32f4xx_hal_dma.c ****       }
 518:../Drivers/STM32F4xx_HAL_Driver/Src/stm32f4xx_hal_dma.c ****       if(tmp2 != RESET)
 519:../Drivers/STM32F4xx_HAL_Driver/Src/stm32f4xx_hal_dma.c ****       {
 520:../Drivers/STM32F4xx_HAL_Driver/Src/stm32f4xx_hal_dma.c ****         /* Update error code */
 521:../Drivers/STM32F4xx_HAL_Driver/Src/stm32f4xx_hal_dma.c ****         hdma->ErrorCode |= HAL_DMA_ERROR_DME;
 522:../Drivers/STM32F4xx_HAL_Driver/Src/stm32f4xx_hal_dma.c **** 
 523:../Drivers/STM32F4xx_HAL_Driver/Src/stm32f4xx_hal_dma.c ****         /* Clear the Direct Mode error flag */
 524:../Drivers/STM32F4xx_HAL_Driver/Src/stm32f4xx_hal_dma.c ****         __HAL_DMA_CLEAR_FLAG(hdma, __HAL_DMA_GET_DME_FLAG_INDEX(hdma));
 525:../Drivers/STM32F4xx_HAL_Driver/Src/stm32f4xx_hal_dma.c ****       }
 526:../Drivers/STM32F4xx_HAL_Driver/Src/stm32f4xx_hal_dma.c ****       /* Change the DMA state */
 527:../Drivers/STM32F4xx_HAL_Driver/Src/stm32f4xx_hal_dma.c ****       hdma->State= HAL_DMA_STATE_ERROR;
 528:../Drivers/STM32F4xx_HAL_Driver/Src/stm32f4xx_hal_dma.c ****       
 529:../Drivers/STM32F4xx_HAL_Driver/Src/stm32f4xx_hal_dma.c ****       /* Process Unlocked */
 530:../Drivers/STM32F4xx_HAL_Driver/Src/stm32f4xx_hal_dma.c ****       __HAL_UNLOCK(hdma);
 531:../Drivers/STM32F4xx_HAL_Driver/Src/stm32f4xx_hal_dma.c **** 
 532:../Drivers/STM32F4xx_HAL_Driver/Src/stm32f4xx_hal_dma.c ****       return HAL_ERROR;
 533:../Drivers/STM32F4xx_HAL_Driver/Src/stm32f4xx_hal_dma.c ****     }  
 534:../Drivers/STM32F4xx_HAL_Driver/Src/stm32f4xx_hal_dma.c ****     /* Check for the Timeout */
 535:../Drivers/STM32F4xx_HAL_Driver/Src/stm32f4xx_hal_dma.c ****     if(Timeout != HAL_MAX_DELAY)
 536:../Drivers/STM32F4xx_HAL_Driver/Src/stm32f4xx_hal_dma.c ****     {
 537:../Drivers/STM32F4xx_HAL_Driver/Src/stm32f4xx_hal_dma.c ****       if((Timeout == 0)||((HAL_GetTick() - tickstart ) > Timeout))
 538:../Drivers/STM32F4xx_HAL_Driver/Src/stm32f4xx_hal_dma.c ****       {
 539:../Drivers/STM32F4xx_HAL_Driver/Src/stm32f4xx_hal_dma.c ****         /* Update error code */
 540:../Drivers/STM32F4xx_HAL_Driver/Src/stm32f4xx_hal_dma.c ****         hdma->ErrorCode |= HAL_DMA_ERROR_TIMEOUT;
 541:../Drivers/STM32F4xx_HAL_Driver/Src/stm32f4xx_hal_dma.c **** 
 542:../Drivers/STM32F4xx_HAL_Driver/Src/stm32f4xx_hal_dma.c ****         /* Change the DMA state */
 543:../Drivers/STM32F4xx_HAL_Driver/Src/stm32f4xx_hal_dma.c ****         hdma->State = HAL_DMA_STATE_TIMEOUT;
ARM GAS  /tmp/ccIvKYQX.s 			page 11


 544:../Drivers/STM32F4xx_HAL_Driver/Src/stm32f4xx_hal_dma.c **** 
 545:../Drivers/STM32F4xx_HAL_Driver/Src/stm32f4xx_hal_dma.c ****         /* Process Unlocked */
 546:../Drivers/STM32F4xx_HAL_Driver/Src/stm32f4xx_hal_dma.c ****         __HAL_UNLOCK(hdma);
 547:../Drivers/STM32F4xx_HAL_Driver/Src/stm32f4xx_hal_dma.c ****         
 548:../Drivers/STM32F4xx_HAL_Driver/Src/stm32f4xx_hal_dma.c ****         return HAL_TIMEOUT;
 549:../Drivers/STM32F4xx_HAL_Driver/Src/stm32f4xx_hal_dma.c ****       }
 550:../Drivers/STM32F4xx_HAL_Driver/Src/stm32f4xx_hal_dma.c ****     }
 551:../Drivers/STM32F4xx_HAL_Driver/Src/stm32f4xx_hal_dma.c ****   }
 552:../Drivers/STM32F4xx_HAL_Driver/Src/stm32f4xx_hal_dma.c **** 
 553:../Drivers/STM32F4xx_HAL_Driver/Src/stm32f4xx_hal_dma.c ****   if(CompleteLevel == HAL_DMA_FULL_TRANSFER)
 554:../Drivers/STM32F4xx_HAL_Driver/Src/stm32f4xx_hal_dma.c ****   {
 555:../Drivers/STM32F4xx_HAL_Driver/Src/stm32f4xx_hal_dma.c ****     /* Multi_Buffering mode enabled */
 556:../Drivers/STM32F4xx_HAL_Driver/Src/stm32f4xx_hal_dma.c ****     if(((hdma->Instance->CR) & (uint32_t)(DMA_SxCR_DBM)) != 0)
 557:../Drivers/STM32F4xx_HAL_Driver/Src/stm32f4xx_hal_dma.c ****     {
 558:../Drivers/STM32F4xx_HAL_Driver/Src/stm32f4xx_hal_dma.c ****       /* Clear the half transfer complete flag */
 559:../Drivers/STM32F4xx_HAL_Driver/Src/stm32f4xx_hal_dma.c ****       __HAL_DMA_CLEAR_FLAG(hdma, __HAL_DMA_GET_HT_FLAG_INDEX(hdma));
 560:../Drivers/STM32F4xx_HAL_Driver/Src/stm32f4xx_hal_dma.c ****       /* Clear the transfer complete flag */
 561:../Drivers/STM32F4xx_HAL_Driver/Src/stm32f4xx_hal_dma.c ****       __HAL_DMA_CLEAR_FLAG(hdma, __HAL_DMA_GET_TC_FLAG_INDEX(hdma));
 562:../Drivers/STM32F4xx_HAL_Driver/Src/stm32f4xx_hal_dma.c **** 
 563:../Drivers/STM32F4xx_HAL_Driver/Src/stm32f4xx_hal_dma.c ****       /* Current memory buffer used is Memory 0 */
 564:../Drivers/STM32F4xx_HAL_Driver/Src/stm32f4xx_hal_dma.c ****       if((hdma->Instance->CR & DMA_SxCR_CT) == 0)
 565:../Drivers/STM32F4xx_HAL_Driver/Src/stm32f4xx_hal_dma.c ****       {
 566:../Drivers/STM32F4xx_HAL_Driver/Src/stm32f4xx_hal_dma.c ****         /* Change DMA peripheral state */
 567:../Drivers/STM32F4xx_HAL_Driver/Src/stm32f4xx_hal_dma.c ****         hdma->State = HAL_DMA_STATE_READY_MEM0;
 568:../Drivers/STM32F4xx_HAL_Driver/Src/stm32f4xx_hal_dma.c ****       }
 569:../Drivers/STM32F4xx_HAL_Driver/Src/stm32f4xx_hal_dma.c ****       /* Current memory buffer used is Memory 1 */
 570:../Drivers/STM32F4xx_HAL_Driver/Src/stm32f4xx_hal_dma.c ****       else if((hdma->Instance->CR & DMA_SxCR_CT) != 0)
 571:../Drivers/STM32F4xx_HAL_Driver/Src/stm32f4xx_hal_dma.c ****       {
 572:../Drivers/STM32F4xx_HAL_Driver/Src/stm32f4xx_hal_dma.c ****         /* Change DMA peripheral state */
 573:../Drivers/STM32F4xx_HAL_Driver/Src/stm32f4xx_hal_dma.c ****         hdma->State = HAL_DMA_STATE_READY_MEM1;
 574:../Drivers/STM32F4xx_HAL_Driver/Src/stm32f4xx_hal_dma.c ****       }
 575:../Drivers/STM32F4xx_HAL_Driver/Src/stm32f4xx_hal_dma.c ****     }
 576:../Drivers/STM32F4xx_HAL_Driver/Src/stm32f4xx_hal_dma.c ****     else
 577:../Drivers/STM32F4xx_HAL_Driver/Src/stm32f4xx_hal_dma.c ****     {
 578:../Drivers/STM32F4xx_HAL_Driver/Src/stm32f4xx_hal_dma.c ****       /* Clear the half transfer complete flag */
 579:../Drivers/STM32F4xx_HAL_Driver/Src/stm32f4xx_hal_dma.c ****       __HAL_DMA_CLEAR_FLAG(hdma, __HAL_DMA_GET_HT_FLAG_INDEX(hdma));
 580:../Drivers/STM32F4xx_HAL_Driver/Src/stm32f4xx_hal_dma.c ****       /* Clear the transfer complete flag */
 581:../Drivers/STM32F4xx_HAL_Driver/Src/stm32f4xx_hal_dma.c ****       __HAL_DMA_CLEAR_FLAG(hdma, __HAL_DMA_GET_TC_FLAG_INDEX(hdma)); 
 582:../Drivers/STM32F4xx_HAL_Driver/Src/stm32f4xx_hal_dma.c **** 
 583:../Drivers/STM32F4xx_HAL_Driver/Src/stm32f4xx_hal_dma.c ****       /* The selected Streamx EN bit is cleared (DMA is disabled and all transfers
 584:../Drivers/STM32F4xx_HAL_Driver/Src/stm32f4xx_hal_dma.c ****          are complete) */
 585:../Drivers/STM32F4xx_HAL_Driver/Src/stm32f4xx_hal_dma.c ****       hdma->State = HAL_DMA_STATE_READY_MEM0;
 586:../Drivers/STM32F4xx_HAL_Driver/Src/stm32f4xx_hal_dma.c ****     }
 587:../Drivers/STM32F4xx_HAL_Driver/Src/stm32f4xx_hal_dma.c ****     /* Process Unlocked */
 588:../Drivers/STM32F4xx_HAL_Driver/Src/stm32f4xx_hal_dma.c ****     __HAL_UNLOCK(hdma);
 589:../Drivers/STM32F4xx_HAL_Driver/Src/stm32f4xx_hal_dma.c ****   }
 590:../Drivers/STM32F4xx_HAL_Driver/Src/stm32f4xx_hal_dma.c ****   else
 591:../Drivers/STM32F4xx_HAL_Driver/Src/stm32f4xx_hal_dma.c ****   { 
 592:../Drivers/STM32F4xx_HAL_Driver/Src/stm32f4xx_hal_dma.c ****     /* Multi_Buffering mode enabled */
 593:../Drivers/STM32F4xx_HAL_Driver/Src/stm32f4xx_hal_dma.c ****     if(((hdma->Instance->CR) & (uint32_t)(DMA_SxCR_DBM)) != 0)
 594:../Drivers/STM32F4xx_HAL_Driver/Src/stm32f4xx_hal_dma.c ****     {
 595:../Drivers/STM32F4xx_HAL_Driver/Src/stm32f4xx_hal_dma.c ****       /* Clear the half transfer complete flag */
 596:../Drivers/STM32F4xx_HAL_Driver/Src/stm32f4xx_hal_dma.c ****       __HAL_DMA_CLEAR_FLAG(hdma, __HAL_DMA_GET_HT_FLAG_INDEX(hdma));
 597:../Drivers/STM32F4xx_HAL_Driver/Src/stm32f4xx_hal_dma.c **** 
 598:../Drivers/STM32F4xx_HAL_Driver/Src/stm32f4xx_hal_dma.c ****       /* Current memory buffer used is Memory 0 */
 599:../Drivers/STM32F4xx_HAL_Driver/Src/stm32f4xx_hal_dma.c ****       if((hdma->Instance->CR & DMA_SxCR_CT) == 0)
 600:../Drivers/STM32F4xx_HAL_Driver/Src/stm32f4xx_hal_dma.c ****       {
ARM GAS  /tmp/ccIvKYQX.s 			page 12


 601:../Drivers/STM32F4xx_HAL_Driver/Src/stm32f4xx_hal_dma.c ****         /* Change DMA peripheral state */
 602:../Drivers/STM32F4xx_HAL_Driver/Src/stm32f4xx_hal_dma.c ****         hdma->State = HAL_DMA_STATE_READY_HALF_MEM0;
 603:../Drivers/STM32F4xx_HAL_Driver/Src/stm32f4xx_hal_dma.c ****       }
 604:../Drivers/STM32F4xx_HAL_Driver/Src/stm32f4xx_hal_dma.c ****       /* Current memory buffer used is Memory 1 */
 605:../Drivers/STM32F4xx_HAL_Driver/Src/stm32f4xx_hal_dma.c ****       else if((hdma->Instance->CR & DMA_SxCR_CT) != 0)
 606:../Drivers/STM32F4xx_HAL_Driver/Src/stm32f4xx_hal_dma.c ****       {
 607:../Drivers/STM32F4xx_HAL_Driver/Src/stm32f4xx_hal_dma.c ****         /* Change DMA peripheral state */
 608:../Drivers/STM32F4xx_HAL_Driver/Src/stm32f4xx_hal_dma.c ****         hdma->State = HAL_DMA_STATE_READY_HALF_MEM1;
 609:../Drivers/STM32F4xx_HAL_Driver/Src/stm32f4xx_hal_dma.c ****       }
 610:../Drivers/STM32F4xx_HAL_Driver/Src/stm32f4xx_hal_dma.c ****     }
 611:../Drivers/STM32F4xx_HAL_Driver/Src/stm32f4xx_hal_dma.c ****     else
 612:../Drivers/STM32F4xx_HAL_Driver/Src/stm32f4xx_hal_dma.c ****     {
 613:../Drivers/STM32F4xx_HAL_Driver/Src/stm32f4xx_hal_dma.c ****       /* Clear the half transfer complete flag */
 614:../Drivers/STM32F4xx_HAL_Driver/Src/stm32f4xx_hal_dma.c ****       __HAL_DMA_CLEAR_FLAG(hdma, __HAL_DMA_GET_HT_FLAG_INDEX(hdma));
 615:../Drivers/STM32F4xx_HAL_Driver/Src/stm32f4xx_hal_dma.c **** 
 616:../Drivers/STM32F4xx_HAL_Driver/Src/stm32f4xx_hal_dma.c ****       /* Change DMA peripheral state */
 617:../Drivers/STM32F4xx_HAL_Driver/Src/stm32f4xx_hal_dma.c ****       hdma->State = HAL_DMA_STATE_READY_HALF_MEM0;
 618:../Drivers/STM32F4xx_HAL_Driver/Src/stm32f4xx_hal_dma.c ****     }
 619:../Drivers/STM32F4xx_HAL_Driver/Src/stm32f4xx_hal_dma.c ****   }
 620:../Drivers/STM32F4xx_HAL_Driver/Src/stm32f4xx_hal_dma.c ****   return HAL_OK;
 621:../Drivers/STM32F4xx_HAL_Driver/Src/stm32f4xx_hal_dma.c **** }
 622:../Drivers/STM32F4xx_HAL_Driver/Src/stm32f4xx_hal_dma.c **** 
 623:../Drivers/STM32F4xx_HAL_Driver/Src/stm32f4xx_hal_dma.c **** /**
 624:../Drivers/STM32F4xx_HAL_Driver/Src/stm32f4xx_hal_dma.c ****   * @brief  Handles DMA interrupt request.
 625:../Drivers/STM32F4xx_HAL_Driver/Src/stm32f4xx_hal_dma.c ****   * @param  hdma: pointer to a DMA_HandleTypeDef structure that contains
 626:../Drivers/STM32F4xx_HAL_Driver/Src/stm32f4xx_hal_dma.c ****   *               the configuration information for the specified DMA Stream.  
 627:../Drivers/STM32F4xx_HAL_Driver/Src/stm32f4xx_hal_dma.c ****   * @retval None
 628:../Drivers/STM32F4xx_HAL_Driver/Src/stm32f4xx_hal_dma.c ****   */
 629:../Drivers/STM32F4xx_HAL_Driver/Src/stm32f4xx_hal_dma.c **** void HAL_DMA_IRQHandler(DMA_HandleTypeDef *hdma)
 630:../Drivers/STM32F4xx_HAL_Driver/Src/stm32f4xx_hal_dma.c **** {
 631:../Drivers/STM32F4xx_HAL_Driver/Src/stm32f4xx_hal_dma.c ****   /* Transfer Error Interrupt management ***************************************/
 632:../Drivers/STM32F4xx_HAL_Driver/Src/stm32f4xx_hal_dma.c ****   if(__HAL_DMA_GET_FLAG(hdma, __HAL_DMA_GET_TE_FLAG_INDEX(hdma)) != RESET)
 633:../Drivers/STM32F4xx_HAL_Driver/Src/stm32f4xx_hal_dma.c ****   {
 634:../Drivers/STM32F4xx_HAL_Driver/Src/stm32f4xx_hal_dma.c ****     if(__HAL_DMA_GET_IT_SOURCE(hdma, DMA_IT_TE) != RESET)
 635:../Drivers/STM32F4xx_HAL_Driver/Src/stm32f4xx_hal_dma.c ****     {
 636:../Drivers/STM32F4xx_HAL_Driver/Src/stm32f4xx_hal_dma.c ****       /* Disable the transfer error interrupt */
 637:../Drivers/STM32F4xx_HAL_Driver/Src/stm32f4xx_hal_dma.c ****       __HAL_DMA_DISABLE_IT(hdma, DMA_IT_TE);
 638:../Drivers/STM32F4xx_HAL_Driver/Src/stm32f4xx_hal_dma.c **** 
 639:../Drivers/STM32F4xx_HAL_Driver/Src/stm32f4xx_hal_dma.c ****       /* Clear the transfer error flag */
 640:../Drivers/STM32F4xx_HAL_Driver/Src/stm32f4xx_hal_dma.c ****       __HAL_DMA_CLEAR_FLAG(hdma, __HAL_DMA_GET_TE_FLAG_INDEX(hdma));
 641:../Drivers/STM32F4xx_HAL_Driver/Src/stm32f4xx_hal_dma.c **** 
 642:../Drivers/STM32F4xx_HAL_Driver/Src/stm32f4xx_hal_dma.c ****       /* Update error code */
 643:../Drivers/STM32F4xx_HAL_Driver/Src/stm32f4xx_hal_dma.c ****       hdma->ErrorCode |= HAL_DMA_ERROR_TE;
 644:../Drivers/STM32F4xx_HAL_Driver/Src/stm32f4xx_hal_dma.c **** 
 645:../Drivers/STM32F4xx_HAL_Driver/Src/stm32f4xx_hal_dma.c ****       /* Change the DMA state */
 646:../Drivers/STM32F4xx_HAL_Driver/Src/stm32f4xx_hal_dma.c ****       hdma->State = HAL_DMA_STATE_ERROR;
 647:../Drivers/STM32F4xx_HAL_Driver/Src/stm32f4xx_hal_dma.c **** 
 648:../Drivers/STM32F4xx_HAL_Driver/Src/stm32f4xx_hal_dma.c ****       /* Process Unlocked */
 649:../Drivers/STM32F4xx_HAL_Driver/Src/stm32f4xx_hal_dma.c ****       __HAL_UNLOCK(hdma); 
 650:../Drivers/STM32F4xx_HAL_Driver/Src/stm32f4xx_hal_dma.c **** 
 651:../Drivers/STM32F4xx_HAL_Driver/Src/stm32f4xx_hal_dma.c ****       if(hdma->XferErrorCallback != NULL)
 652:../Drivers/STM32F4xx_HAL_Driver/Src/stm32f4xx_hal_dma.c ****       {
 653:../Drivers/STM32F4xx_HAL_Driver/Src/stm32f4xx_hal_dma.c ****         /* Transfer error callback */
 654:../Drivers/STM32F4xx_HAL_Driver/Src/stm32f4xx_hal_dma.c ****         hdma->XferErrorCallback(hdma);
 655:../Drivers/STM32F4xx_HAL_Driver/Src/stm32f4xx_hal_dma.c ****       }
 656:../Drivers/STM32F4xx_HAL_Driver/Src/stm32f4xx_hal_dma.c ****     }
 657:../Drivers/STM32F4xx_HAL_Driver/Src/stm32f4xx_hal_dma.c ****   }
ARM GAS  /tmp/ccIvKYQX.s 			page 13


 658:../Drivers/STM32F4xx_HAL_Driver/Src/stm32f4xx_hal_dma.c ****   /* FIFO Error Interrupt management ******************************************/
 659:../Drivers/STM32F4xx_HAL_Driver/Src/stm32f4xx_hal_dma.c ****   if(__HAL_DMA_GET_FLAG(hdma, __HAL_DMA_GET_FE_FLAG_INDEX(hdma)) != RESET)
 660:../Drivers/STM32F4xx_HAL_Driver/Src/stm32f4xx_hal_dma.c ****   {
 661:../Drivers/STM32F4xx_HAL_Driver/Src/stm32f4xx_hal_dma.c ****     if(__HAL_DMA_GET_IT_SOURCE(hdma, DMA_IT_FE) != RESET)
 662:../Drivers/STM32F4xx_HAL_Driver/Src/stm32f4xx_hal_dma.c ****     {
 663:../Drivers/STM32F4xx_HAL_Driver/Src/stm32f4xx_hal_dma.c ****       /* Disable the FIFO Error interrupt */
 664:../Drivers/STM32F4xx_HAL_Driver/Src/stm32f4xx_hal_dma.c ****       __HAL_DMA_DISABLE_IT(hdma, DMA_IT_FE);
 665:../Drivers/STM32F4xx_HAL_Driver/Src/stm32f4xx_hal_dma.c **** 
 666:../Drivers/STM32F4xx_HAL_Driver/Src/stm32f4xx_hal_dma.c ****       /* Clear the FIFO error flag */
 667:../Drivers/STM32F4xx_HAL_Driver/Src/stm32f4xx_hal_dma.c ****       __HAL_DMA_CLEAR_FLAG(hdma, __HAL_DMA_GET_FE_FLAG_INDEX(hdma));
 668:../Drivers/STM32F4xx_HAL_Driver/Src/stm32f4xx_hal_dma.c **** 
 669:../Drivers/STM32F4xx_HAL_Driver/Src/stm32f4xx_hal_dma.c ****       /* Update error code */
 670:../Drivers/STM32F4xx_HAL_Driver/Src/stm32f4xx_hal_dma.c ****       hdma->ErrorCode |= HAL_DMA_ERROR_FE;
 671:../Drivers/STM32F4xx_HAL_Driver/Src/stm32f4xx_hal_dma.c **** 
 672:../Drivers/STM32F4xx_HAL_Driver/Src/stm32f4xx_hal_dma.c ****       /* Change the DMA state */
 673:../Drivers/STM32F4xx_HAL_Driver/Src/stm32f4xx_hal_dma.c ****       hdma->State = HAL_DMA_STATE_ERROR;
 674:../Drivers/STM32F4xx_HAL_Driver/Src/stm32f4xx_hal_dma.c **** 
 675:../Drivers/STM32F4xx_HAL_Driver/Src/stm32f4xx_hal_dma.c ****       /* Process Unlocked */
 676:../Drivers/STM32F4xx_HAL_Driver/Src/stm32f4xx_hal_dma.c ****       __HAL_UNLOCK(hdma);
 677:../Drivers/STM32F4xx_HAL_Driver/Src/stm32f4xx_hal_dma.c **** 
 678:../Drivers/STM32F4xx_HAL_Driver/Src/stm32f4xx_hal_dma.c ****       if(hdma->XferErrorCallback != NULL)
 679:../Drivers/STM32F4xx_HAL_Driver/Src/stm32f4xx_hal_dma.c ****       {
 680:../Drivers/STM32F4xx_HAL_Driver/Src/stm32f4xx_hal_dma.c ****         /* Transfer error callback */
 681:../Drivers/STM32F4xx_HAL_Driver/Src/stm32f4xx_hal_dma.c ****         hdma->XferErrorCallback(hdma);
 682:../Drivers/STM32F4xx_HAL_Driver/Src/stm32f4xx_hal_dma.c ****       }
 683:../Drivers/STM32F4xx_HAL_Driver/Src/stm32f4xx_hal_dma.c ****     }
 684:../Drivers/STM32F4xx_HAL_Driver/Src/stm32f4xx_hal_dma.c ****   }
 685:../Drivers/STM32F4xx_HAL_Driver/Src/stm32f4xx_hal_dma.c ****   /* Direct Mode Error Interrupt management ***********************************/
 686:../Drivers/STM32F4xx_HAL_Driver/Src/stm32f4xx_hal_dma.c ****   if(__HAL_DMA_GET_FLAG(hdma, __HAL_DMA_GET_DME_FLAG_INDEX(hdma)) != RESET)
 687:../Drivers/STM32F4xx_HAL_Driver/Src/stm32f4xx_hal_dma.c ****   {
 688:../Drivers/STM32F4xx_HAL_Driver/Src/stm32f4xx_hal_dma.c ****     if(__HAL_DMA_GET_IT_SOURCE(hdma, DMA_IT_DME) != RESET)
 689:../Drivers/STM32F4xx_HAL_Driver/Src/stm32f4xx_hal_dma.c ****     {
 690:../Drivers/STM32F4xx_HAL_Driver/Src/stm32f4xx_hal_dma.c ****       /* Disable the direct mode Error interrupt */
 691:../Drivers/STM32F4xx_HAL_Driver/Src/stm32f4xx_hal_dma.c ****       __HAL_DMA_DISABLE_IT(hdma, DMA_IT_DME);
 692:../Drivers/STM32F4xx_HAL_Driver/Src/stm32f4xx_hal_dma.c **** 
 693:../Drivers/STM32F4xx_HAL_Driver/Src/stm32f4xx_hal_dma.c ****       /* Clear the direct mode error flag */
 694:../Drivers/STM32F4xx_HAL_Driver/Src/stm32f4xx_hal_dma.c ****       __HAL_DMA_CLEAR_FLAG(hdma, __HAL_DMA_GET_DME_FLAG_INDEX(hdma));
 695:../Drivers/STM32F4xx_HAL_Driver/Src/stm32f4xx_hal_dma.c **** 
 696:../Drivers/STM32F4xx_HAL_Driver/Src/stm32f4xx_hal_dma.c ****       /* Update error code */
 697:../Drivers/STM32F4xx_HAL_Driver/Src/stm32f4xx_hal_dma.c ****       hdma->ErrorCode |= HAL_DMA_ERROR_DME;
 698:../Drivers/STM32F4xx_HAL_Driver/Src/stm32f4xx_hal_dma.c **** 
 699:../Drivers/STM32F4xx_HAL_Driver/Src/stm32f4xx_hal_dma.c ****       /* Change the DMA state */
 700:../Drivers/STM32F4xx_HAL_Driver/Src/stm32f4xx_hal_dma.c ****       hdma->State = HAL_DMA_STATE_ERROR;
 701:../Drivers/STM32F4xx_HAL_Driver/Src/stm32f4xx_hal_dma.c **** 
 702:../Drivers/STM32F4xx_HAL_Driver/Src/stm32f4xx_hal_dma.c ****       /* Process Unlocked */
 703:../Drivers/STM32F4xx_HAL_Driver/Src/stm32f4xx_hal_dma.c ****       __HAL_UNLOCK(hdma);
 704:../Drivers/STM32F4xx_HAL_Driver/Src/stm32f4xx_hal_dma.c **** 
 705:../Drivers/STM32F4xx_HAL_Driver/Src/stm32f4xx_hal_dma.c ****       if(hdma->XferErrorCallback != NULL)
 706:../Drivers/STM32F4xx_HAL_Driver/Src/stm32f4xx_hal_dma.c ****       {
 707:../Drivers/STM32F4xx_HAL_Driver/Src/stm32f4xx_hal_dma.c ****         /* Transfer error callback */
 708:../Drivers/STM32F4xx_HAL_Driver/Src/stm32f4xx_hal_dma.c ****         hdma->XferErrorCallback(hdma);
 709:../Drivers/STM32F4xx_HAL_Driver/Src/stm32f4xx_hal_dma.c ****       }
 710:../Drivers/STM32F4xx_HAL_Driver/Src/stm32f4xx_hal_dma.c ****     }
 711:../Drivers/STM32F4xx_HAL_Driver/Src/stm32f4xx_hal_dma.c ****   }
 712:../Drivers/STM32F4xx_HAL_Driver/Src/stm32f4xx_hal_dma.c ****   /* Half Transfer Complete Interrupt management ******************************/
 713:../Drivers/STM32F4xx_HAL_Driver/Src/stm32f4xx_hal_dma.c ****   if(__HAL_DMA_GET_FLAG(hdma, __HAL_DMA_GET_HT_FLAG_INDEX(hdma)) != RESET)
 714:../Drivers/STM32F4xx_HAL_Driver/Src/stm32f4xx_hal_dma.c ****   {
ARM GAS  /tmp/ccIvKYQX.s 			page 14


 715:../Drivers/STM32F4xx_HAL_Driver/Src/stm32f4xx_hal_dma.c ****     if(__HAL_DMA_GET_IT_SOURCE(hdma, DMA_IT_HT) != RESET)
 716:../Drivers/STM32F4xx_HAL_Driver/Src/stm32f4xx_hal_dma.c ****     { 
 717:../Drivers/STM32F4xx_HAL_Driver/Src/stm32f4xx_hal_dma.c ****       /* Multi_Buffering mode enabled */
 718:../Drivers/STM32F4xx_HAL_Driver/Src/stm32f4xx_hal_dma.c ****       if(((hdma->Instance->CR) & (uint32_t)(DMA_SxCR_DBM)) != 0)
 719:../Drivers/STM32F4xx_HAL_Driver/Src/stm32f4xx_hal_dma.c ****       {
 720:../Drivers/STM32F4xx_HAL_Driver/Src/stm32f4xx_hal_dma.c ****         /* Clear the half transfer complete flag */
 721:../Drivers/STM32F4xx_HAL_Driver/Src/stm32f4xx_hal_dma.c ****         __HAL_DMA_CLEAR_FLAG(hdma, __HAL_DMA_GET_HT_FLAG_INDEX(hdma));
 722:../Drivers/STM32F4xx_HAL_Driver/Src/stm32f4xx_hal_dma.c **** 
 723:../Drivers/STM32F4xx_HAL_Driver/Src/stm32f4xx_hal_dma.c ****         /* Current memory buffer used is Memory 0 */
 724:../Drivers/STM32F4xx_HAL_Driver/Src/stm32f4xx_hal_dma.c ****         if((hdma->Instance->CR & DMA_SxCR_CT) == 0)
 725:../Drivers/STM32F4xx_HAL_Driver/Src/stm32f4xx_hal_dma.c ****         {
 726:../Drivers/STM32F4xx_HAL_Driver/Src/stm32f4xx_hal_dma.c ****           /* Change DMA peripheral state */
 727:../Drivers/STM32F4xx_HAL_Driver/Src/stm32f4xx_hal_dma.c ****           hdma->State = HAL_DMA_STATE_READY_HALF_MEM0;
 728:../Drivers/STM32F4xx_HAL_Driver/Src/stm32f4xx_hal_dma.c ****         }
 729:../Drivers/STM32F4xx_HAL_Driver/Src/stm32f4xx_hal_dma.c ****         /* Current memory buffer used is Memory 1 */
 730:../Drivers/STM32F4xx_HAL_Driver/Src/stm32f4xx_hal_dma.c ****         else if((hdma->Instance->CR & DMA_SxCR_CT) != 0)
 731:../Drivers/STM32F4xx_HAL_Driver/Src/stm32f4xx_hal_dma.c ****         {
 732:../Drivers/STM32F4xx_HAL_Driver/Src/stm32f4xx_hal_dma.c ****           /* Change DMA peripheral state */
 733:../Drivers/STM32F4xx_HAL_Driver/Src/stm32f4xx_hal_dma.c ****           hdma->State = HAL_DMA_STATE_READY_HALF_MEM1;
 734:../Drivers/STM32F4xx_HAL_Driver/Src/stm32f4xx_hal_dma.c ****         }
 735:../Drivers/STM32F4xx_HAL_Driver/Src/stm32f4xx_hal_dma.c ****       }
 736:../Drivers/STM32F4xx_HAL_Driver/Src/stm32f4xx_hal_dma.c ****       else
 737:../Drivers/STM32F4xx_HAL_Driver/Src/stm32f4xx_hal_dma.c ****       {
 738:../Drivers/STM32F4xx_HAL_Driver/Src/stm32f4xx_hal_dma.c ****         /* Disable the half transfer interrupt if the DMA mode is not CIRCULAR */
 739:../Drivers/STM32F4xx_HAL_Driver/Src/stm32f4xx_hal_dma.c ****         if((hdma->Instance->CR & DMA_SxCR_CIRC) == 0)
 740:../Drivers/STM32F4xx_HAL_Driver/Src/stm32f4xx_hal_dma.c ****         {
 741:../Drivers/STM32F4xx_HAL_Driver/Src/stm32f4xx_hal_dma.c ****           /* Disable the half transfer interrupt */
 742:../Drivers/STM32F4xx_HAL_Driver/Src/stm32f4xx_hal_dma.c ****           __HAL_DMA_DISABLE_IT(hdma, DMA_IT_HT);
 743:../Drivers/STM32F4xx_HAL_Driver/Src/stm32f4xx_hal_dma.c ****         }
 744:../Drivers/STM32F4xx_HAL_Driver/Src/stm32f4xx_hal_dma.c ****         /* Clear the half transfer complete flag */
 745:../Drivers/STM32F4xx_HAL_Driver/Src/stm32f4xx_hal_dma.c ****         __HAL_DMA_CLEAR_FLAG(hdma, __HAL_DMA_GET_HT_FLAG_INDEX(hdma));
 746:../Drivers/STM32F4xx_HAL_Driver/Src/stm32f4xx_hal_dma.c **** 
 747:../Drivers/STM32F4xx_HAL_Driver/Src/stm32f4xx_hal_dma.c ****         /* Change DMA peripheral state */
 748:../Drivers/STM32F4xx_HAL_Driver/Src/stm32f4xx_hal_dma.c ****         hdma->State = HAL_DMA_STATE_READY_HALF_MEM0;
 749:../Drivers/STM32F4xx_HAL_Driver/Src/stm32f4xx_hal_dma.c ****       }
 750:../Drivers/STM32F4xx_HAL_Driver/Src/stm32f4xx_hal_dma.c **** 
 751:../Drivers/STM32F4xx_HAL_Driver/Src/stm32f4xx_hal_dma.c ****       if(hdma->XferHalfCpltCallback != NULL)
 752:../Drivers/STM32F4xx_HAL_Driver/Src/stm32f4xx_hal_dma.c ****       {
 753:../Drivers/STM32F4xx_HAL_Driver/Src/stm32f4xx_hal_dma.c ****         /* Half transfer callback */
 754:../Drivers/STM32F4xx_HAL_Driver/Src/stm32f4xx_hal_dma.c ****         hdma->XferHalfCpltCallback(hdma);
 755:../Drivers/STM32F4xx_HAL_Driver/Src/stm32f4xx_hal_dma.c ****       }
 756:../Drivers/STM32F4xx_HAL_Driver/Src/stm32f4xx_hal_dma.c ****     }
 757:../Drivers/STM32F4xx_HAL_Driver/Src/stm32f4xx_hal_dma.c ****   }
 758:../Drivers/STM32F4xx_HAL_Driver/Src/stm32f4xx_hal_dma.c ****   /* Transfer Complete Interrupt management ***********************************/
 759:../Drivers/STM32F4xx_HAL_Driver/Src/stm32f4xx_hal_dma.c ****   if(__HAL_DMA_GET_FLAG(hdma, __HAL_DMA_GET_TC_FLAG_INDEX(hdma)) != RESET)
 760:../Drivers/STM32F4xx_HAL_Driver/Src/stm32f4xx_hal_dma.c ****   {
 761:../Drivers/STM32F4xx_HAL_Driver/Src/stm32f4xx_hal_dma.c ****     if(__HAL_DMA_GET_IT_SOURCE(hdma, DMA_IT_TC) != RESET)
 762:../Drivers/STM32F4xx_HAL_Driver/Src/stm32f4xx_hal_dma.c ****     {
 763:../Drivers/STM32F4xx_HAL_Driver/Src/stm32f4xx_hal_dma.c ****       if(((hdma->Instance->CR) & (uint32_t)(DMA_SxCR_DBM)) != 0)
 764:../Drivers/STM32F4xx_HAL_Driver/Src/stm32f4xx_hal_dma.c ****       {
 765:../Drivers/STM32F4xx_HAL_Driver/Src/stm32f4xx_hal_dma.c ****         /* Clear the transfer complete flag */
 766:../Drivers/STM32F4xx_HAL_Driver/Src/stm32f4xx_hal_dma.c ****         __HAL_DMA_CLEAR_FLAG(hdma, __HAL_DMA_GET_TC_FLAG_INDEX(hdma));
 767:../Drivers/STM32F4xx_HAL_Driver/Src/stm32f4xx_hal_dma.c **** 
 768:../Drivers/STM32F4xx_HAL_Driver/Src/stm32f4xx_hal_dma.c ****         /* Current memory buffer used is Memory 1 */
 769:../Drivers/STM32F4xx_HAL_Driver/Src/stm32f4xx_hal_dma.c ****         if((hdma->Instance->CR & DMA_SxCR_CT) == 0)
 770:../Drivers/STM32F4xx_HAL_Driver/Src/stm32f4xx_hal_dma.c ****         {
 771:../Drivers/STM32F4xx_HAL_Driver/Src/stm32f4xx_hal_dma.c ****           if(hdma->XferM1CpltCallback != NULL)
ARM GAS  /tmp/ccIvKYQX.s 			page 15


 772:../Drivers/STM32F4xx_HAL_Driver/Src/stm32f4xx_hal_dma.c ****           {
 773:../Drivers/STM32F4xx_HAL_Driver/Src/stm32f4xx_hal_dma.c ****             /* Transfer complete Callback for memory1 */
 774:../Drivers/STM32F4xx_HAL_Driver/Src/stm32f4xx_hal_dma.c ****             hdma->XferM1CpltCallback(hdma);
 775:../Drivers/STM32F4xx_HAL_Driver/Src/stm32f4xx_hal_dma.c ****           }
 776:../Drivers/STM32F4xx_HAL_Driver/Src/stm32f4xx_hal_dma.c ****         }
 777:../Drivers/STM32F4xx_HAL_Driver/Src/stm32f4xx_hal_dma.c ****         /* Current memory buffer used is Memory 0 */
 778:../Drivers/STM32F4xx_HAL_Driver/Src/stm32f4xx_hal_dma.c ****         else if((hdma->Instance->CR & DMA_SxCR_CT) != 0) 
 779:../Drivers/STM32F4xx_HAL_Driver/Src/stm32f4xx_hal_dma.c ****         {
 780:../Drivers/STM32F4xx_HAL_Driver/Src/stm32f4xx_hal_dma.c ****           if(hdma->XferCpltCallback != NULL)
 781:../Drivers/STM32F4xx_HAL_Driver/Src/stm32f4xx_hal_dma.c ****           {
 782:../Drivers/STM32F4xx_HAL_Driver/Src/stm32f4xx_hal_dma.c ****             /* Transfer complete Callback for memory0 */
 783:../Drivers/STM32F4xx_HAL_Driver/Src/stm32f4xx_hal_dma.c ****             hdma->XferCpltCallback(hdma);
 784:../Drivers/STM32F4xx_HAL_Driver/Src/stm32f4xx_hal_dma.c ****           }
 785:../Drivers/STM32F4xx_HAL_Driver/Src/stm32f4xx_hal_dma.c ****         }
 786:../Drivers/STM32F4xx_HAL_Driver/Src/stm32f4xx_hal_dma.c ****       }
 787:../Drivers/STM32F4xx_HAL_Driver/Src/stm32f4xx_hal_dma.c ****       /* Disable the transfer complete interrupt if the DMA mode is not CIRCULAR */
 788:../Drivers/STM32F4xx_HAL_Driver/Src/stm32f4xx_hal_dma.c ****       else
 789:../Drivers/STM32F4xx_HAL_Driver/Src/stm32f4xx_hal_dma.c ****       {
 790:../Drivers/STM32F4xx_HAL_Driver/Src/stm32f4xx_hal_dma.c ****         if((hdma->Instance->CR & DMA_SxCR_CIRC) == 0)
 791:../Drivers/STM32F4xx_HAL_Driver/Src/stm32f4xx_hal_dma.c ****         {
 792:../Drivers/STM32F4xx_HAL_Driver/Src/stm32f4xx_hal_dma.c ****           /* Disable the transfer complete interrupt */
 793:../Drivers/STM32F4xx_HAL_Driver/Src/stm32f4xx_hal_dma.c ****           __HAL_DMA_DISABLE_IT(hdma, DMA_IT_TC);
 794:../Drivers/STM32F4xx_HAL_Driver/Src/stm32f4xx_hal_dma.c ****         }
 795:../Drivers/STM32F4xx_HAL_Driver/Src/stm32f4xx_hal_dma.c ****         /* Clear the transfer complete flag */
 796:../Drivers/STM32F4xx_HAL_Driver/Src/stm32f4xx_hal_dma.c ****         __HAL_DMA_CLEAR_FLAG(hdma, __HAL_DMA_GET_TC_FLAG_INDEX(hdma));
 797:../Drivers/STM32F4xx_HAL_Driver/Src/stm32f4xx_hal_dma.c **** 
 798:../Drivers/STM32F4xx_HAL_Driver/Src/stm32f4xx_hal_dma.c ****         /* Update error code */
 799:../Drivers/STM32F4xx_HAL_Driver/Src/stm32f4xx_hal_dma.c ****         hdma->ErrorCode |= HAL_DMA_ERROR_NONE;
 800:../Drivers/STM32F4xx_HAL_Driver/Src/stm32f4xx_hal_dma.c **** 
 801:../Drivers/STM32F4xx_HAL_Driver/Src/stm32f4xx_hal_dma.c ****         /* Change the DMA state */
 802:../Drivers/STM32F4xx_HAL_Driver/Src/stm32f4xx_hal_dma.c ****         hdma->State = HAL_DMA_STATE_READY_MEM0;
 803:../Drivers/STM32F4xx_HAL_Driver/Src/stm32f4xx_hal_dma.c **** 
 804:../Drivers/STM32F4xx_HAL_Driver/Src/stm32f4xx_hal_dma.c ****         /* Process Unlocked */
 805:../Drivers/STM32F4xx_HAL_Driver/Src/stm32f4xx_hal_dma.c ****         __HAL_UNLOCK(hdma);      
 806:../Drivers/STM32F4xx_HAL_Driver/Src/stm32f4xx_hal_dma.c **** 
 807:../Drivers/STM32F4xx_HAL_Driver/Src/stm32f4xx_hal_dma.c ****         if(hdma->XferCpltCallback != NULL)
 808:../Drivers/STM32F4xx_HAL_Driver/Src/stm32f4xx_hal_dma.c ****         {
 809:../Drivers/STM32F4xx_HAL_Driver/Src/stm32f4xx_hal_dma.c ****           /* Transfer complete callback */
 810:../Drivers/STM32F4xx_HAL_Driver/Src/stm32f4xx_hal_dma.c ****           hdma->XferCpltCallback(hdma);
 811:../Drivers/STM32F4xx_HAL_Driver/Src/stm32f4xx_hal_dma.c ****         }
 812:../Drivers/STM32F4xx_HAL_Driver/Src/stm32f4xx_hal_dma.c ****       }
 813:../Drivers/STM32F4xx_HAL_Driver/Src/stm32f4xx_hal_dma.c ****     }
 814:../Drivers/STM32F4xx_HAL_Driver/Src/stm32f4xx_hal_dma.c ****   }
 815:../Drivers/STM32F4xx_HAL_Driver/Src/stm32f4xx_hal_dma.c **** }
 816:../Drivers/STM32F4xx_HAL_Driver/Src/stm32f4xx_hal_dma.c **** 
 817:../Drivers/STM32F4xx_HAL_Driver/Src/stm32f4xx_hal_dma.c **** /**
 818:../Drivers/STM32F4xx_HAL_Driver/Src/stm32f4xx_hal_dma.c ****   * @}
 819:../Drivers/STM32F4xx_HAL_Driver/Src/stm32f4xx_hal_dma.c ****   */
 820:../Drivers/STM32F4xx_HAL_Driver/Src/stm32f4xx_hal_dma.c **** 
 821:../Drivers/STM32F4xx_HAL_Driver/Src/stm32f4xx_hal_dma.c **** /** @defgroup DMA_Group3 Peripheral State functions
 822:../Drivers/STM32F4xx_HAL_Driver/Src/stm32f4xx_hal_dma.c ****  *  @brief    Peripheral State functions 
 823:../Drivers/STM32F4xx_HAL_Driver/Src/stm32f4xx_hal_dma.c ****  *
 824:../Drivers/STM32F4xx_HAL_Driver/Src/stm32f4xx_hal_dma.c **** @verbatim
 825:../Drivers/STM32F4xx_HAL_Driver/Src/stm32f4xx_hal_dma.c ****  ===============================================================================
 826:../Drivers/STM32F4xx_HAL_Driver/Src/stm32f4xx_hal_dma.c ****                     ##### State and Errors functions #####
 827:../Drivers/STM32F4xx_HAL_Driver/Src/stm32f4xx_hal_dma.c ****  ===============================================================================
 828:../Drivers/STM32F4xx_HAL_Driver/Src/stm32f4xx_hal_dma.c ****     [..]
ARM GAS  /tmp/ccIvKYQX.s 			page 16


 829:../Drivers/STM32F4xx_HAL_Driver/Src/stm32f4xx_hal_dma.c ****     This subsection provides functions allowing to
 830:../Drivers/STM32F4xx_HAL_Driver/Src/stm32f4xx_hal_dma.c ****       (+) Check the DMA state
 831:../Drivers/STM32F4xx_HAL_Driver/Src/stm32f4xx_hal_dma.c ****       (+) Get error code
 832:../Drivers/STM32F4xx_HAL_Driver/Src/stm32f4xx_hal_dma.c **** 
 833:../Drivers/STM32F4xx_HAL_Driver/Src/stm32f4xx_hal_dma.c **** @endverbatim
 834:../Drivers/STM32F4xx_HAL_Driver/Src/stm32f4xx_hal_dma.c ****   * @{
 835:../Drivers/STM32F4xx_HAL_Driver/Src/stm32f4xx_hal_dma.c ****   */
 836:../Drivers/STM32F4xx_HAL_Driver/Src/stm32f4xx_hal_dma.c **** 
 837:../Drivers/STM32F4xx_HAL_Driver/Src/stm32f4xx_hal_dma.c **** /**
 838:../Drivers/STM32F4xx_HAL_Driver/Src/stm32f4xx_hal_dma.c ****   * @brief  Returns the DMA state.
 839:../Drivers/STM32F4xx_HAL_Driver/Src/stm32f4xx_hal_dma.c ****   * @param  hdma: pointer to a DMA_HandleTypeDef structure that contains
 840:../Drivers/STM32F4xx_HAL_Driver/Src/stm32f4xx_hal_dma.c ****   *               the configuration information for the specified DMA Stream.
 841:../Drivers/STM32F4xx_HAL_Driver/Src/stm32f4xx_hal_dma.c ****   * @retval HAL state
 842:../Drivers/STM32F4xx_HAL_Driver/Src/stm32f4xx_hal_dma.c ****   */
 843:../Drivers/STM32F4xx_HAL_Driver/Src/stm32f4xx_hal_dma.c **** HAL_DMA_StateTypeDef HAL_DMA_GetState(DMA_HandleTypeDef *hdma)
 844:../Drivers/STM32F4xx_HAL_Driver/Src/stm32f4xx_hal_dma.c **** {
 845:../Drivers/STM32F4xx_HAL_Driver/Src/stm32f4xx_hal_dma.c ****   return hdma->State;
 846:../Drivers/STM32F4xx_HAL_Driver/Src/stm32f4xx_hal_dma.c **** }
 847:../Drivers/STM32F4xx_HAL_Driver/Src/stm32f4xx_hal_dma.c **** 
 848:../Drivers/STM32F4xx_HAL_Driver/Src/stm32f4xx_hal_dma.c **** /**
 849:../Drivers/STM32F4xx_HAL_Driver/Src/stm32f4xx_hal_dma.c ****   * @brief  Return the DMA error code
 850:../Drivers/STM32F4xx_HAL_Driver/Src/stm32f4xx_hal_dma.c ****   * @param  hdma : pointer to a DMA_HandleTypeDef structure that contains
 851:../Drivers/STM32F4xx_HAL_Driver/Src/stm32f4xx_hal_dma.c ****   *              the configuration information for the specified DMA Stream.
 852:../Drivers/STM32F4xx_HAL_Driver/Src/stm32f4xx_hal_dma.c ****   * @retval DMA Error Code
 853:../Drivers/STM32F4xx_HAL_Driver/Src/stm32f4xx_hal_dma.c ****   */
 854:../Drivers/STM32F4xx_HAL_Driver/Src/stm32f4xx_hal_dma.c **** uint32_t HAL_DMA_GetError(DMA_HandleTypeDef *hdma)
 855:../Drivers/STM32F4xx_HAL_Driver/Src/stm32f4xx_hal_dma.c **** {
 856:../Drivers/STM32F4xx_HAL_Driver/Src/stm32f4xx_hal_dma.c ****   return hdma->ErrorCode;
 857:../Drivers/STM32F4xx_HAL_Driver/Src/stm32f4xx_hal_dma.c **** }
 858:../Drivers/STM32F4xx_HAL_Driver/Src/stm32f4xx_hal_dma.c **** 
 859:../Drivers/STM32F4xx_HAL_Driver/Src/stm32f4xx_hal_dma.c **** /**
 860:../Drivers/STM32F4xx_HAL_Driver/Src/stm32f4xx_hal_dma.c ****   * @}
 861:../Drivers/STM32F4xx_HAL_Driver/Src/stm32f4xx_hal_dma.c ****   */
 862:../Drivers/STM32F4xx_HAL_Driver/Src/stm32f4xx_hal_dma.c **** 
 863:../Drivers/STM32F4xx_HAL_Driver/Src/stm32f4xx_hal_dma.c **** /**
 864:../Drivers/STM32F4xx_HAL_Driver/Src/stm32f4xx_hal_dma.c ****   * @brief  Sets the DMA Transfer parameter.
 865:../Drivers/STM32F4xx_HAL_Driver/Src/stm32f4xx_hal_dma.c ****   * @param  hdma:       pointer to a DMA_HandleTypeDef structure that contains
 866:../Drivers/STM32F4xx_HAL_Driver/Src/stm32f4xx_hal_dma.c ****   *                     the configuration information for the specified DMA Stream.
 867:../Drivers/STM32F4xx_HAL_Driver/Src/stm32f4xx_hal_dma.c ****   * @param  SrcAddress: The source memory Buffer address
 868:../Drivers/STM32F4xx_HAL_Driver/Src/stm32f4xx_hal_dma.c ****   * @param  DstAddress: The destination memory Buffer address
 869:../Drivers/STM32F4xx_HAL_Driver/Src/stm32f4xx_hal_dma.c ****   * @param  DataLength: The length of data to be transferred from source to destination
 870:../Drivers/STM32F4xx_HAL_Driver/Src/stm32f4xx_hal_dma.c ****   * @retval HAL status
 871:../Drivers/STM32F4xx_HAL_Driver/Src/stm32f4xx_hal_dma.c ****   */
 872:../Drivers/STM32F4xx_HAL_Driver/Src/stm32f4xx_hal_dma.c **** static void DMA_SetConfig(DMA_HandleTypeDef *hdma, uint32_t SrcAddress, uint32_t DstAddress, uint32
 873:../Drivers/STM32F4xx_HAL_Driver/Src/stm32f4xx_hal_dma.c **** {
  29              		.loc 1 873 0
  30              		.cfi_startproc
  31              		@ args = 0, pretend = 0, frame = 0
  32              		@ frame_needed = 0, uses_anonymous_args = 0
  33              		@ link register save eliminated.
  34              	.LVL0:
  35 0000 10B4     		push	{r4}
  36              	.LCFI0:
  37              		.cfi_def_cfa_offset 4
  38              		.cfi_offset 4, -4
 874:../Drivers/STM32F4xx_HAL_Driver/Src/stm32f4xx_hal_dma.c ****   /* Configure DMA Stream data length */
 875:../Drivers/STM32F4xx_HAL_Driver/Src/stm32f4xx_hal_dma.c ****   hdma->Instance->NDTR = DataLength;
ARM GAS  /tmp/ccIvKYQX.s 			page 17


  39              		.loc 1 875 0
  40 0002 0468     		ldr	r4, [r0]
  41 0004 6360     		str	r3, [r4, #4]
 876:../Drivers/STM32F4xx_HAL_Driver/Src/stm32f4xx_hal_dma.c **** 
 877:../Drivers/STM32F4xx_HAL_Driver/Src/stm32f4xx_hal_dma.c ****   /* Peripheral to Memory */
 878:../Drivers/STM32F4xx_HAL_Driver/Src/stm32f4xx_hal_dma.c ****   if((hdma->Init.Direction) == DMA_MEMORY_TO_PERIPH)
  42              		.loc 1 878 0
  43 0006 8368     		ldr	r3, [r0, #8]
  44              	.LVL1:
  45 0008 402B     		cmp	r3, #64
  46 000a 04D1     		bne	.L2
 879:../Drivers/STM32F4xx_HAL_Driver/Src/stm32f4xx_hal_dma.c ****   {
 880:../Drivers/STM32F4xx_HAL_Driver/Src/stm32f4xx_hal_dma.c ****     /* Configure DMA Stream destination address */
 881:../Drivers/STM32F4xx_HAL_Driver/Src/stm32f4xx_hal_dma.c ****     hdma->Instance->PAR = DstAddress;
  47              		.loc 1 881 0
  48 000c 0368     		ldr	r3, [r0]
  49 000e 9A60     		str	r2, [r3, #8]
  50              	.LVL2:
 882:../Drivers/STM32F4xx_HAL_Driver/Src/stm32f4xx_hal_dma.c **** 
 883:../Drivers/STM32F4xx_HAL_Driver/Src/stm32f4xx_hal_dma.c ****     /* Configure DMA Stream source address */
 884:../Drivers/STM32F4xx_HAL_Driver/Src/stm32f4xx_hal_dma.c ****     hdma->Instance->M0AR = SrcAddress;
  51              		.loc 1 884 0
  52 0010 0368     		ldr	r3, [r0]
  53 0012 D960     		str	r1, [r3, #12]
  54 0014 03E0     		b	.L1
  55              	.LVL3:
  56              	.L2:
 885:../Drivers/STM32F4xx_HAL_Driver/Src/stm32f4xx_hal_dma.c ****   }
 886:../Drivers/STM32F4xx_HAL_Driver/Src/stm32f4xx_hal_dma.c ****   /* Memory to Peripheral */
 887:../Drivers/STM32F4xx_HAL_Driver/Src/stm32f4xx_hal_dma.c ****   else
 888:../Drivers/STM32F4xx_HAL_Driver/Src/stm32f4xx_hal_dma.c ****   {
 889:../Drivers/STM32F4xx_HAL_Driver/Src/stm32f4xx_hal_dma.c ****     /* Configure DMA Stream source address */
 890:../Drivers/STM32F4xx_HAL_Driver/Src/stm32f4xx_hal_dma.c ****     hdma->Instance->PAR = SrcAddress;
  57              		.loc 1 890 0
  58 0016 0368     		ldr	r3, [r0]
  59 0018 9960     		str	r1, [r3, #8]
  60              	.LVL4:
 891:../Drivers/STM32F4xx_HAL_Driver/Src/stm32f4xx_hal_dma.c ****     
 892:../Drivers/STM32F4xx_HAL_Driver/Src/stm32f4xx_hal_dma.c ****     /* Configure DMA Stream destination address */
 893:../Drivers/STM32F4xx_HAL_Driver/Src/stm32f4xx_hal_dma.c ****     hdma->Instance->M0AR = DstAddress;
  61              		.loc 1 893 0
  62 001a 0368     		ldr	r3, [r0]
  63 001c DA60     		str	r2, [r3, #12]
  64              	.L1:
 894:../Drivers/STM32F4xx_HAL_Driver/Src/stm32f4xx_hal_dma.c ****   }
 895:../Drivers/STM32F4xx_HAL_Driver/Src/stm32f4xx_hal_dma.c **** }
  65              		.loc 1 895 0
  66 001e 5DF8044B 		ldr	r4, [sp], #4
  67              	.LCFI1:
  68              		.cfi_restore 4
  69              		.cfi_def_cfa_offset 0
  70 0022 7047     		bx	lr
  71              		.cfi_endproc
  72              	.LFE121:
  74              		.section	.text.HAL_DMA_Init,"ax",%progbits
  75              		.align	2
  76              		.global	HAL_DMA_Init
ARM GAS  /tmp/ccIvKYQX.s 			page 18


  77              		.thumb
  78              		.thumb_func
  80              	HAL_DMA_Init:
  81              	.LFB112:
 171:../Drivers/STM32F4xx_HAL_Driver/Src/stm32f4xx_hal_dma.c ****   uint32_t tmp = 0;
  82              		.loc 1 171 0
  83              		.cfi_startproc
  84              		@ args = 0, pretend = 0, frame = 0
  85              		@ frame_needed = 0, uses_anonymous_args = 0
  86              		@ link register save eliminated.
  87              	.LVL5:
 175:../Drivers/STM32F4xx_HAL_Driver/Src/stm32f4xx_hal_dma.c ****   {
  88              		.loc 1 175 0
  89 0000 0028     		cmp	r0, #0
  90 0002 32D0     		beq	.L9
 171:../Drivers/STM32F4xx_HAL_Driver/Src/stm32f4xx_hal_dma.c ****   uint32_t tmp = 0;
  91              		.loc 1 171 0
  92 0004 10B4     		push	{r4}
  93              	.LCFI2:
  94              		.cfi_def_cfa_offset 4
  95              		.cfi_offset 4, -4
  96 0006 0346     		mov	r3, r0
 201:../Drivers/STM32F4xx_HAL_Driver/Src/stm32f4xx_hal_dma.c **** 
  97              		.loc 1 201 0
  98 0008 0222     		movs	r2, #2
  99 000a 80F83520 		strb	r2, [r0, #53]
 204:../Drivers/STM32F4xx_HAL_Driver/Src/stm32f4xx_hal_dma.c **** 
 100              		.loc 1 204 0
 101 000e 0468     		ldr	r4, [r0]
 102 0010 2268     		ldr	r2, [r4]
 103              	.LVL6:
 207:../Drivers/STM32F4xx_HAL_Driver/Src/stm32f4xx_hal_dma.c ****                       DMA_SxCR_PL    | DMA_SxCR_MSIZE  | DMA_SxCR_PSIZE  | \
 104              		.loc 1 207 0
 105 0012 1848     		ldr	r0, .L12
 106              	.LVL7:
 107 0014 1040     		ands	r0, r0, r2
 108              	.LVL8:
 213:../Drivers/STM32F4xx_HAL_Driver/Src/stm32f4xx_hal_dma.c ****           hdma->Init.PeriphInc           | hdma->Init.MemInc           |
 109              		.loc 1 213 0
 110 0016 5968     		ldr	r1, [r3, #4]
 111 0018 9A68     		ldr	r2, [r3, #8]
 112 001a 1143     		orrs	r1, r1, r2
 214:../Drivers/STM32F4xx_HAL_Driver/Src/stm32f4xx_hal_dma.c ****           hdma->Init.PeriphDataAlignment | hdma->Init.MemDataAlignment |
 113              		.loc 1 214 0
 114 001c DA68     		ldr	r2, [r3, #12]
 213:../Drivers/STM32F4xx_HAL_Driver/Src/stm32f4xx_hal_dma.c ****           hdma->Init.PeriphInc           | hdma->Init.MemInc           |
 115              		.loc 1 213 0
 116 001e 1143     		orrs	r1, r1, r2
 214:../Drivers/STM32F4xx_HAL_Driver/Src/stm32f4xx_hal_dma.c ****           hdma->Init.PeriphDataAlignment | hdma->Init.MemDataAlignment |
 117              		.loc 1 214 0
 118 0020 1A69     		ldr	r2, [r3, #16]
 119 0022 1143     		orrs	r1, r1, r2
 215:../Drivers/STM32F4xx_HAL_Driver/Src/stm32f4xx_hal_dma.c ****           hdma->Init.Mode                | hdma->Init.Priority;
 120              		.loc 1 215 0
 121 0024 5A69     		ldr	r2, [r3, #20]
 214:../Drivers/STM32F4xx_HAL_Driver/Src/stm32f4xx_hal_dma.c ****           hdma->Init.PeriphDataAlignment | hdma->Init.MemDataAlignment |
 122              		.loc 1 214 0
ARM GAS  /tmp/ccIvKYQX.s 			page 19


 123 0026 1143     		orrs	r1, r1, r2
 215:../Drivers/STM32F4xx_HAL_Driver/Src/stm32f4xx_hal_dma.c ****           hdma->Init.Mode                | hdma->Init.Priority;
 124              		.loc 1 215 0
 125 0028 9A69     		ldr	r2, [r3, #24]
 126 002a 1143     		orrs	r1, r1, r2
 216:../Drivers/STM32F4xx_HAL_Driver/Src/stm32f4xx_hal_dma.c **** 
 127              		.loc 1 216 0
 128 002c DA69     		ldr	r2, [r3, #28]
 215:../Drivers/STM32F4xx_HAL_Driver/Src/stm32f4xx_hal_dma.c ****           hdma->Init.Mode                | hdma->Init.Priority;
 129              		.loc 1 215 0
 130 002e 0A43     		orrs	r2, r2, r1
 216:../Drivers/STM32F4xx_HAL_Driver/Src/stm32f4xx_hal_dma.c **** 
 131              		.loc 1 216 0
 132 0030 196A     		ldr	r1, [r3, #32]
 133 0032 1143     		orrs	r1, r1, r2
 213:../Drivers/STM32F4xx_HAL_Driver/Src/stm32f4xx_hal_dma.c ****           hdma->Init.PeriphInc           | hdma->Init.MemInc           |
 134              		.loc 1 213 0
 135 0034 40EA0102 		orr	r2, r0, r1
 136              	.LVL9:
 219:../Drivers/STM32F4xx_HAL_Driver/Src/stm32f4xx_hal_dma.c ****   {
 137              		.loc 1 219 0
 138 0038 596A     		ldr	r1, [r3, #36]
 139 003a 0429     		cmp	r1, #4
 140 003c 03D1     		bne	.L7
 222:../Drivers/STM32F4xx_HAL_Driver/Src/stm32f4xx_hal_dma.c ****   }
 141              		.loc 1 222 0
 142 003e D86A     		ldr	r0, [r3, #44]
 143 0040 196B     		ldr	r1, [r3, #48]
 144 0042 0143     		orrs	r1, r1, r0
 145 0044 0A43     		orrs	r2, r2, r1
 146              	.LVL10:
 147              	.L7:
 226:../Drivers/STM32F4xx_HAL_Driver/Src/stm32f4xx_hal_dma.c **** 
 148              		.loc 1 226 0
 149 0046 2260     		str	r2, [r4]
 229:../Drivers/STM32F4xx_HAL_Driver/Src/stm32f4xx_hal_dma.c **** 
 150              		.loc 1 229 0
 151 0048 1968     		ldr	r1, [r3]
 152 004a 4A69     		ldr	r2, [r1, #20]
 153              	.LVL11:
 232:../Drivers/STM32F4xx_HAL_Driver/Src/stm32f4xx_hal_dma.c **** 
 154              		.loc 1 232 0
 155 004c 22F00702 		bic	r2, r2, #7
 156              	.LVL12:
 235:../Drivers/STM32F4xx_HAL_Driver/Src/stm32f4xx_hal_dma.c **** 
 157              		.loc 1 235 0
 158 0050 586A     		ldr	r0, [r3, #36]
 159 0052 0243     		orrs	r2, r2, r0
 160              	.LVL13:
 238:../Drivers/STM32F4xx_HAL_Driver/Src/stm32f4xx_hal_dma.c ****   {
 161              		.loc 1 238 0
 162 0054 0428     		cmp	r0, #4
 163 0056 01D1     		bne	.L8
 241:../Drivers/STM32F4xx_HAL_Driver/Src/stm32f4xx_hal_dma.c ****   }
 164              		.loc 1 241 0
 165 0058 986A     		ldr	r0, [r3, #40]
 166 005a 0243     		orrs	r2, r2, r0
ARM GAS  /tmp/ccIvKYQX.s 			page 20


 167              	.LVL14:
 168              	.L8:
 245:../Drivers/STM32F4xx_HAL_Driver/Src/stm32f4xx_hal_dma.c **** 
 169              		.loc 1 245 0
 170 005c 4A61     		str	r2, [r1, #20]
 248:../Drivers/STM32F4xx_HAL_Driver/Src/stm32f4xx_hal_dma.c **** 
 171              		.loc 1 248 0
 172 005e 0020     		movs	r0, #0
 173 0060 D864     		str	r0, [r3, #76]
 251:../Drivers/STM32F4xx_HAL_Driver/Src/stm32f4xx_hal_dma.c **** 
 174              		.loc 1 251 0
 175 0062 0122     		movs	r2, #1
 176              	.LVL15:
 177 0064 83F83520 		strb	r2, [r3, #53]
 253:../Drivers/STM32F4xx_HAL_Driver/Src/stm32f4xx_hal_dma.c **** }
 178              		.loc 1 253 0
 179 0068 01E0     		b	.L6
 180              	.LVL16:
 181              	.L9:
 182              	.LCFI3:
 183              		.cfi_def_cfa_offset 0
 184              		.cfi_restore 4
 177:../Drivers/STM32F4xx_HAL_Driver/Src/stm32f4xx_hal_dma.c ****   }
 185              		.loc 1 177 0
 186 006a 0120     		movs	r0, #1
 187              	.LVL17:
 188 006c 7047     		bx	lr
 189              	.LVL18:
 190              	.L6:
 191              	.LCFI4:
 192              		.cfi_def_cfa_offset 4
 193              		.cfi_offset 4, -4
 254:../Drivers/STM32F4xx_HAL_Driver/Src/stm32f4xx_hal_dma.c **** 
 194              		.loc 1 254 0
 195 006e 5DF8044B 		ldr	r4, [sp], #4
 196              	.LCFI5:
 197              		.cfi_restore 4
 198              		.cfi_def_cfa_offset 0
 199 0072 7047     		bx	lr
 200              	.L13:
 201              		.align	2
 202              	.L12:
 203 0074 3F8014F0 		.word	-267091905
 204              		.cfi_endproc
 205              	.LFE112:
 207              		.section	.text.HAL_DMA_DeInit,"ax",%progbits
 208              		.align	2
 209              		.global	HAL_DMA_DeInit
 210              		.thumb
 211              		.thumb_func
 213              	HAL_DMA_DeInit:
 214              	.LFB113:
 263:../Drivers/STM32F4xx_HAL_Driver/Src/stm32f4xx_hal_dma.c ****   /* Check the DMA peripheral state */
 215              		.loc 1 263 0
 216              		.cfi_startproc
 217              		@ args = 0, pretend = 0, frame = 0
 218              		@ frame_needed = 0, uses_anonymous_args = 0
ARM GAS  /tmp/ccIvKYQX.s 			page 21


 219              		@ link register save eliminated.
 220              	.LVL19:
 265:../Drivers/STM32F4xx_HAL_Driver/Src/stm32f4xx_hal_dma.c ****   {
 221              		.loc 1 265 0
 222 0000 0346     		mov	r3, r0
 223 0002 0028     		cmp	r0, #0
 224 0004 00F00787 		beq	.L61
 271:../Drivers/STM32F4xx_HAL_Driver/Src/stm32f4xx_hal_dma.c ****   {
 225              		.loc 1 271 0
 226 0008 90F83520 		ldrb	r2, [r0, #53]	@ zero_extendqisi2
 227 000c D2B2     		uxtb	r2, r2
 228 000e 022A     		cmp	r2, #2
 229 0010 00F00387 		beq	.L62
 277:../Drivers/STM32F4xx_HAL_Driver/Src/stm32f4xx_hal_dma.c **** 
 230              		.loc 1 277 0
 231 0014 0168     		ldr	r1, [r0]
 232 0016 0A68     		ldr	r2, [r1]
 233 0018 22F00102 		bic	r2, r2, #1
 234 001c 0A60     		str	r2, [r1]
 280:../Drivers/STM32F4xx_HAL_Driver/Src/stm32f4xx_hal_dma.c **** 
 235              		.loc 1 280 0
 236 001e 0168     		ldr	r1, [r0]
 237 0020 0022     		movs	r2, #0
 238 0022 0A60     		str	r2, [r1]
 283:../Drivers/STM32F4xx_HAL_Driver/Src/stm32f4xx_hal_dma.c **** 
 239              		.loc 1 283 0
 240 0024 0168     		ldr	r1, [r0]
 241 0026 4A60     		str	r2, [r1, #4]
 286:../Drivers/STM32F4xx_HAL_Driver/Src/stm32f4xx_hal_dma.c **** 
 242              		.loc 1 286 0
 243 0028 0168     		ldr	r1, [r0]
 244 002a 8A60     		str	r2, [r1, #8]
 289:../Drivers/STM32F4xx_HAL_Driver/Src/stm32f4xx_hal_dma.c **** 
 245              		.loc 1 289 0
 246 002c 0168     		ldr	r1, [r0]
 247 002e CA60     		str	r2, [r1, #12]
 292:../Drivers/STM32F4xx_HAL_Driver/Src/stm32f4xx_hal_dma.c **** 
 248              		.loc 1 292 0
 249 0030 0168     		ldr	r1, [r0]
 250 0032 0A61     		str	r2, [r1, #16]
 295:../Drivers/STM32F4xx_HAL_Driver/Src/stm32f4xx_hal_dma.c **** 
 251              		.loc 1 295 0
 252 0034 0268     		ldr	r2, [r0]
 253 0036 2121     		movs	r1, #33
 254 0038 5161     		str	r1, [r2, #20]
 298:../Drivers/STM32F4xx_HAL_Driver/Src/stm32f4xx_hal_dma.c ****   __HAL_DMA_CLEAR_FLAG(hdma, __HAL_DMA_GET_TC_FLAG_INDEX(hdma));
 255              		.loc 1 298 0
 256 003a 0268     		ldr	r2, [r0]
 257 003c AA49     		ldr	r1, .L303
 258 003e 8A42     		cmp	r2, r1
 259 0040 54D9     		bls	.L16
 298:../Drivers/STM32F4xx_HAL_Driver/Src/stm32f4xx_hal_dma.c ****   __HAL_DMA_CLEAR_FLAG(hdma, __HAL_DMA_GET_TC_FLAG_INDEX(hdma));
 260              		.loc 1 298 0 is_stmt 0 discriminator 1
 261 0042 A1F58961 		sub	r1, r1, #1096
 262 0046 8A42     		cmp	r2, r1
 263 0048 2ED0     		beq	.L63
 298:../Drivers/STM32F4xx_HAL_Driver/Src/stm32f4xx_hal_dma.c ****   __HAL_DMA_CLEAR_FLAG(hdma, __HAL_DMA_GET_TC_FLAG_INDEX(hdma));
ARM GAS  /tmp/ccIvKYQX.s 			page 22


 264              		.loc 1 298 0 discriminator 3
 265 004a 01F58061 		add	r1, r1, #1024
 266 004e 8A42     		cmp	r2, r1
 267 0050 2CD0     		beq	.L64
 298:../Drivers/STM32F4xx_HAL_Driver/Src/stm32f4xx_hal_dma.c ****   __HAL_DMA_CLEAR_FLAG(hdma, __HAL_DMA_GET_TC_FLAG_INDEX(hdma));
 268              		.loc 1 298 0 discriminator 5
 269 0052 A1F56871 		sub	r1, r1, #928
 270 0056 8A42     		cmp	r2, r1
 271 0058 2AD0     		beq	.L65
 298:../Drivers/STM32F4xx_HAL_Driver/Src/stm32f4xx_hal_dma.c ****   __HAL_DMA_CLEAR_FLAG(hdma, __HAL_DMA_GET_TC_FLAG_INDEX(hdma));
 272              		.loc 1 298 0 discriminator 7
 273 005a 01F58061 		add	r1, r1, #1024
 274 005e 8A42     		cmp	r2, r1
 275 0060 28D0     		beq	.L66
 298:../Drivers/STM32F4xx_HAL_Driver/Src/stm32f4xx_hal_dma.c ****   __HAL_DMA_CLEAR_FLAG(hdma, __HAL_DMA_GET_TC_FLAG_INDEX(hdma));
 276              		.loc 1 298 0 discriminator 9
 277 0062 A1F58961 		sub	r1, r1, #1096
 278 0066 8A42     		cmp	r2, r1
 279 0068 26D0     		beq	.L67
 298:../Drivers/STM32F4xx_HAL_Driver/Src/stm32f4xx_hal_dma.c ****   __HAL_DMA_CLEAR_FLAG(hdma, __HAL_DMA_GET_TC_FLAG_INDEX(hdma));
 280              		.loc 1 298 0 discriminator 11
 281 006a 01F58061 		add	r1, r1, #1024
 282 006e 8A42     		cmp	r2, r1
 283 0070 25D0     		beq	.L68
 298:../Drivers/STM32F4xx_HAL_Driver/Src/stm32f4xx_hal_dma.c ****   __HAL_DMA_CLEAR_FLAG(hdma, __HAL_DMA_GET_TC_FLAG_INDEX(hdma));
 284              		.loc 1 298 0 discriminator 13
 285 0072 A1F56871 		sub	r1, r1, #928
 286 0076 8A42     		cmp	r2, r1
 287 0078 24D0     		beq	.L69
 298:../Drivers/STM32F4xx_HAL_Driver/Src/stm32f4xx_hal_dma.c ****   __HAL_DMA_CLEAR_FLAG(hdma, __HAL_DMA_GET_TC_FLAG_INDEX(hdma));
 288              		.loc 1 298 0 discriminator 15
 289 007a 01F58061 		add	r1, r1, #1024
 290 007e 8A42     		cmp	r2, r1
 291 0080 23D0     		beq	.L70
 298:../Drivers/STM32F4xx_HAL_Driver/Src/stm32f4xx_hal_dma.c ****   __HAL_DMA_CLEAR_FLAG(hdma, __HAL_DMA_GET_TC_FLAG_INDEX(hdma));
 292              		.loc 1 298 0 discriminator 17
 293 0082 A1F58961 		sub	r1, r1, #1096
 294 0086 8A42     		cmp	r2, r1
 295 0088 22D0     		beq	.L71
 298:../Drivers/STM32F4xx_HAL_Driver/Src/stm32f4xx_hal_dma.c ****   __HAL_DMA_CLEAR_FLAG(hdma, __HAL_DMA_GET_TC_FLAG_INDEX(hdma));
 296              		.loc 1 298 0 discriminator 19
 297 008a 01F58061 		add	r1, r1, #1024
 298 008e 8A42     		cmp	r2, r1
 299 0090 21D0     		beq	.L72
 298:../Drivers/STM32F4xx_HAL_Driver/Src/stm32f4xx_hal_dma.c ****   __HAL_DMA_CLEAR_FLAG(hdma, __HAL_DMA_GET_TC_FLAG_INDEX(hdma));
 300              		.loc 1 298 0 discriminator 21
 301 0092 A1F56871 		sub	r1, r1, #928
 302 0096 8A42     		cmp	r2, r1
 303 0098 20D0     		beq	.L73
 298:../Drivers/STM32F4xx_HAL_Driver/Src/stm32f4xx_hal_dma.c ****   __HAL_DMA_CLEAR_FLAG(hdma, __HAL_DMA_GET_TC_FLAG_INDEX(hdma));
 304              		.loc 1 298 0 discriminator 23
 305 009a 01F58061 		add	r1, r1, #1024
 306 009e 8A42     		cmp	r2, r1
 307 00a0 1FD1     		bne	.L74
 298:../Drivers/STM32F4xx_HAL_Driver/Src/stm32f4xx_hal_dma.c ****   __HAL_DMA_CLEAR_FLAG(hdma, __HAL_DMA_GET_TC_FLAG_INDEX(hdma));
 308              		.loc 1 298 0
 309 00a2 4FF48021 		mov	r1, #262144
ARM GAS  /tmp/ccIvKYQX.s 			page 23


 310 00a6 1EE0     		b	.L17
 311              	.L63:
 312 00a8 9049     		ldr	r1, .L303+4
 313 00aa 1CE0     		b	.L17
 314              	.L64:
 315 00ac 8F49     		ldr	r1, .L303+4
 316 00ae 1AE0     		b	.L17
 317              	.L65:
 318 00b0 8E49     		ldr	r1, .L303+4
 319 00b2 18E0     		b	.L17
 320              	.L66:
 321 00b4 8D49     		ldr	r1, .L303+4
 322 00b6 16E0     		b	.L17
 323              	.L67:
 324 00b8 4FF48071 		mov	r1, #256
 325 00bc 13E0     		b	.L17
 326              	.L68:
 327 00be 4FF48071 		mov	r1, #256
 328 00c2 10E0     		b	.L17
 329              	.L69:
 330 00c4 4FF48071 		mov	r1, #256
 331 00c8 0DE0     		b	.L17
 332              	.L70:
 333 00ca 4FF48071 		mov	r1, #256
 334 00ce 0AE0     		b	.L17
 335              	.L71:
 336 00d0 4FF48021 		mov	r1, #262144
 337 00d4 07E0     		b	.L17
 338              	.L72:
 339 00d6 4FF48021 		mov	r1, #262144
 340 00da 04E0     		b	.L17
 341              	.L73:
 342 00dc 4FF48021 		mov	r1, #262144
 343 00e0 01E0     		b	.L17
 344              	.L74:
 345 00e2 4FF08071 		mov	r1, #16777216
 346              	.L17:
 298:../Drivers/STM32F4xx_HAL_Driver/Src/stm32f4xx_hal_dma.c ****   __HAL_DMA_CLEAR_FLAG(hdma, __HAL_DMA_GET_TC_FLAG_INDEX(hdma));
 347              		.loc 1 298 0 discriminator 50
 348 00e6 824A     		ldr	r2, .L303+8
 349 00e8 D160     		str	r1, [r2, #12]
 350 00ea 0FE1     		b	.L18
 351              	.L16:
 298:../Drivers/STM32F4xx_HAL_Driver/Src/stm32f4xx_hal_dma.c ****   __HAL_DMA_CLEAR_FLAG(hdma, __HAL_DMA_GET_TC_FLAG_INDEX(hdma));
 352              		.loc 1 298 0 discriminator 2
 353 00ec 8149     		ldr	r1, .L303+12
 354 00ee 8A42     		cmp	r2, r1
 355 00f0 53D9     		bls	.L19
 298:../Drivers/STM32F4xx_HAL_Driver/Src/stm32f4xx_hal_dma.c ****   __HAL_DMA_CLEAR_FLAG(hdma, __HAL_DMA_GET_TC_FLAG_INDEX(hdma));
 356              		.loc 1 298 0 discriminator 51
 357 00f2 A839     		subs	r1, r1, #168
 358 00f4 8A42     		cmp	r2, r1
 359 00f6 2ED0     		beq	.L75
 298:../Drivers/STM32F4xx_HAL_Driver/Src/stm32f4xx_hal_dma.c ****   __HAL_DMA_CLEAR_FLAG(hdma, __HAL_DMA_GET_TC_FLAG_INDEX(hdma));
 360              		.loc 1 298 0 discriminator 53
 361 00f8 01F58061 		add	r1, r1, #1024
 362 00fc 8A42     		cmp	r2, r1
ARM GAS  /tmp/ccIvKYQX.s 			page 24


 363 00fe 2CD0     		beq	.L76
 298:../Drivers/STM32F4xx_HAL_Driver/Src/stm32f4xx_hal_dma.c ****   __HAL_DMA_CLEAR_FLAG(hdma, __HAL_DMA_GET_TC_FLAG_INDEX(hdma));
 364              		.loc 1 298 0 discriminator 55
 365 0100 A1F56871 		sub	r1, r1, #928
 366 0104 8A42     		cmp	r2, r1
 367 0106 2AD0     		beq	.L77
 298:../Drivers/STM32F4xx_HAL_Driver/Src/stm32f4xx_hal_dma.c ****   __HAL_DMA_CLEAR_FLAG(hdma, __HAL_DMA_GET_TC_FLAG_INDEX(hdma));
 368              		.loc 1 298 0 discriminator 57
 369 0108 01F58061 		add	r1, r1, #1024
 370 010c 8A42     		cmp	r2, r1
 371 010e 28D0     		beq	.L78
 298:../Drivers/STM32F4xx_HAL_Driver/Src/stm32f4xx_hal_dma.c ****   __HAL_DMA_CLEAR_FLAG(hdma, __HAL_DMA_GET_TC_FLAG_INDEX(hdma));
 372              		.loc 1 298 0 discriminator 59
 373 0110 A1F58961 		sub	r1, r1, #1096
 374 0114 8A42     		cmp	r2, r1
 375 0116 26D0     		beq	.L79
 298:../Drivers/STM32F4xx_HAL_Driver/Src/stm32f4xx_hal_dma.c ****   __HAL_DMA_CLEAR_FLAG(hdma, __HAL_DMA_GET_TC_FLAG_INDEX(hdma));
 376              		.loc 1 298 0 discriminator 61
 377 0118 01F58061 		add	r1, r1, #1024
 378 011c 8A42     		cmp	r2, r1
 379 011e 25D0     		beq	.L80
 298:../Drivers/STM32F4xx_HAL_Driver/Src/stm32f4xx_hal_dma.c ****   __HAL_DMA_CLEAR_FLAG(hdma, __HAL_DMA_GET_TC_FLAG_INDEX(hdma));
 380              		.loc 1 298 0 discriminator 63
 381 0120 A1F56871 		sub	r1, r1, #928
 382 0124 8A42     		cmp	r2, r1
 383 0126 24D0     		beq	.L81
 298:../Drivers/STM32F4xx_HAL_Driver/Src/stm32f4xx_hal_dma.c ****   __HAL_DMA_CLEAR_FLAG(hdma, __HAL_DMA_GET_TC_FLAG_INDEX(hdma));
 384              		.loc 1 298 0 discriminator 65
 385 0128 01F58061 		add	r1, r1, #1024
 386 012c 8A42     		cmp	r2, r1
 387 012e 23D0     		beq	.L82
 298:../Drivers/STM32F4xx_HAL_Driver/Src/stm32f4xx_hal_dma.c ****   __HAL_DMA_CLEAR_FLAG(hdma, __HAL_DMA_GET_TC_FLAG_INDEX(hdma));
 388              		.loc 1 298 0 discriminator 67
 389 0130 A1F58961 		sub	r1, r1, #1096
 390 0134 8A42     		cmp	r2, r1
 391 0136 22D0     		beq	.L83
 298:../Drivers/STM32F4xx_HAL_Driver/Src/stm32f4xx_hal_dma.c ****   __HAL_DMA_CLEAR_FLAG(hdma, __HAL_DMA_GET_TC_FLAG_INDEX(hdma));
 392              		.loc 1 298 0 discriminator 69
 393 0138 01F58061 		add	r1, r1, #1024
 394 013c 8A42     		cmp	r2, r1
 395 013e 21D0     		beq	.L84
 298:../Drivers/STM32F4xx_HAL_Driver/Src/stm32f4xx_hal_dma.c ****   __HAL_DMA_CLEAR_FLAG(hdma, __HAL_DMA_GET_TC_FLAG_INDEX(hdma));
 396              		.loc 1 298 0 discriminator 71
 397 0140 A1F56871 		sub	r1, r1, #928
 398 0144 8A42     		cmp	r2, r1
 399 0146 20D0     		beq	.L85
 298:../Drivers/STM32F4xx_HAL_Driver/Src/stm32f4xx_hal_dma.c ****   __HAL_DMA_CLEAR_FLAG(hdma, __HAL_DMA_GET_TC_FLAG_INDEX(hdma));
 400              		.loc 1 298 0 discriminator 73
 401 0148 01F58061 		add	r1, r1, #1024
 402 014c 8A42     		cmp	r2, r1
 403 014e 1FD1     		bne	.L86
 298:../Drivers/STM32F4xx_HAL_Driver/Src/stm32f4xx_hal_dma.c ****   __HAL_DMA_CLEAR_FLAG(hdma, __HAL_DMA_GET_TC_FLAG_INDEX(hdma));
 404              		.loc 1 298 0
 405 0150 4FF48021 		mov	r1, #262144
 406 0154 1EE0     		b	.L20
 407              	.L75:
 408 0156 6549     		ldr	r1, .L303+4
ARM GAS  /tmp/ccIvKYQX.s 			page 25


 409 0158 1CE0     		b	.L20
 410              	.L76:
 411 015a 6449     		ldr	r1, .L303+4
 412 015c 1AE0     		b	.L20
 413              	.L77:
 414 015e 6349     		ldr	r1, .L303+4
 415 0160 18E0     		b	.L20
 416              	.L78:
 417 0162 6249     		ldr	r1, .L303+4
 418 0164 16E0     		b	.L20
 419              	.L79:
 420 0166 4FF48071 		mov	r1, #256
 421 016a 13E0     		b	.L20
 422              	.L80:
 423 016c 4FF48071 		mov	r1, #256
 424 0170 10E0     		b	.L20
 425              	.L81:
 426 0172 4FF48071 		mov	r1, #256
 427 0176 0DE0     		b	.L20
 428              	.L82:
 429 0178 4FF48071 		mov	r1, #256
 430 017c 0AE0     		b	.L20
 431              	.L83:
 432 017e 4FF48021 		mov	r1, #262144
 433 0182 07E0     		b	.L20
 434              	.L84:
 435 0184 4FF48021 		mov	r1, #262144
 436 0188 04E0     		b	.L20
 437              	.L85:
 438 018a 4FF48021 		mov	r1, #262144
 439 018e 01E0     		b	.L20
 440              	.L86:
 441 0190 4FF08071 		mov	r1, #16777216
 442              	.L20:
 298:../Drivers/STM32F4xx_HAL_Driver/Src/stm32f4xx_hal_dma.c ****   __HAL_DMA_CLEAR_FLAG(hdma, __HAL_DMA_GET_TC_FLAG_INDEX(hdma));
 443              		.loc 1 298 0 discriminator 100
 444 0194 564A     		ldr	r2, .L303+8
 445 0196 9160     		str	r1, [r2, #8]
 446 0198 B8E0     		b	.L18
 447              	.L19:
 298:../Drivers/STM32F4xx_HAL_Driver/Src/stm32f4xx_hal_dma.c ****   __HAL_DMA_CLEAR_FLAG(hdma, __HAL_DMA_GET_TC_FLAG_INDEX(hdma));
 448              		.loc 1 298 0 discriminator 52
 449 019a 5749     		ldr	r1, .L303+16
 450 019c 8A42     		cmp	r2, r1
 451 019e 53D9     		bls	.L22
 298:../Drivers/STM32F4xx_HAL_Driver/Src/stm32f4xx_hal_dma.c ****   __HAL_DMA_CLEAR_FLAG(hdma, __HAL_DMA_GET_TC_FLAG_INDEX(hdma));
 452              		.loc 1 298 0 discriminator 102
 453 01a0 4839     		subs	r1, r1, #72
 454 01a2 8A42     		cmp	r2, r1
 455 01a4 2ED0     		beq	.L87
 298:../Drivers/STM32F4xx_HAL_Driver/Src/stm32f4xx_hal_dma.c ****   __HAL_DMA_CLEAR_FLAG(hdma, __HAL_DMA_GET_TC_FLAG_INDEX(hdma));
 456              		.loc 1 298 0 discriminator 104
 457 01a6 01F58061 		add	r1, r1, #1024
 458 01aa 8A42     		cmp	r2, r1
 459 01ac 2CD0     		beq	.L88
 298:../Drivers/STM32F4xx_HAL_Driver/Src/stm32f4xx_hal_dma.c ****   __HAL_DMA_CLEAR_FLAG(hdma, __HAL_DMA_GET_TC_FLAG_INDEX(hdma));
 460              		.loc 1 298 0 discriminator 106
ARM GAS  /tmp/ccIvKYQX.s 			page 26


 461 01ae A1F56871 		sub	r1, r1, #928
 462 01b2 8A42     		cmp	r2, r1
 463 01b4 2AD0     		beq	.L89
 298:../Drivers/STM32F4xx_HAL_Driver/Src/stm32f4xx_hal_dma.c ****   __HAL_DMA_CLEAR_FLAG(hdma, __HAL_DMA_GET_TC_FLAG_INDEX(hdma));
 464              		.loc 1 298 0 discriminator 108
 465 01b6 01F58061 		add	r1, r1, #1024
 466 01ba 8A42     		cmp	r2, r1
 467 01bc 28D0     		beq	.L90
 298:../Drivers/STM32F4xx_HAL_Driver/Src/stm32f4xx_hal_dma.c ****   __HAL_DMA_CLEAR_FLAG(hdma, __HAL_DMA_GET_TC_FLAG_INDEX(hdma));
 468              		.loc 1 298 0 discriminator 110
 469 01be A1F58961 		sub	r1, r1, #1096
 470 01c2 8A42     		cmp	r2, r1
 471 01c4 26D0     		beq	.L91
 298:../Drivers/STM32F4xx_HAL_Driver/Src/stm32f4xx_hal_dma.c ****   __HAL_DMA_CLEAR_FLAG(hdma, __HAL_DMA_GET_TC_FLAG_INDEX(hdma));
 472              		.loc 1 298 0 discriminator 112
 473 01c6 01F58061 		add	r1, r1, #1024
 474 01ca 8A42     		cmp	r2, r1
 475 01cc 25D0     		beq	.L92
 298:../Drivers/STM32F4xx_HAL_Driver/Src/stm32f4xx_hal_dma.c ****   __HAL_DMA_CLEAR_FLAG(hdma, __HAL_DMA_GET_TC_FLAG_INDEX(hdma));
 476              		.loc 1 298 0 discriminator 114
 477 01ce A1F56871 		sub	r1, r1, #928
 478 01d2 8A42     		cmp	r2, r1
 479 01d4 24D0     		beq	.L93
 298:../Drivers/STM32F4xx_HAL_Driver/Src/stm32f4xx_hal_dma.c ****   __HAL_DMA_CLEAR_FLAG(hdma, __HAL_DMA_GET_TC_FLAG_INDEX(hdma));
 480              		.loc 1 298 0 discriminator 116
 481 01d6 01F58061 		add	r1, r1, #1024
 482 01da 8A42     		cmp	r2, r1
 483 01dc 23D0     		beq	.L94
 298:../Drivers/STM32F4xx_HAL_Driver/Src/stm32f4xx_hal_dma.c ****   __HAL_DMA_CLEAR_FLAG(hdma, __HAL_DMA_GET_TC_FLAG_INDEX(hdma));
 484              		.loc 1 298 0 discriminator 118
 485 01de A1F58961 		sub	r1, r1, #1096
 486 01e2 8A42     		cmp	r2, r1
 487 01e4 22D0     		beq	.L95
 298:../Drivers/STM32F4xx_HAL_Driver/Src/stm32f4xx_hal_dma.c ****   __HAL_DMA_CLEAR_FLAG(hdma, __HAL_DMA_GET_TC_FLAG_INDEX(hdma));
 488              		.loc 1 298 0 discriminator 120
 489 01e6 01F58061 		add	r1, r1, #1024
 490 01ea 8A42     		cmp	r2, r1
 491 01ec 21D0     		beq	.L96
 298:../Drivers/STM32F4xx_HAL_Driver/Src/stm32f4xx_hal_dma.c ****   __HAL_DMA_CLEAR_FLAG(hdma, __HAL_DMA_GET_TC_FLAG_INDEX(hdma));
 492              		.loc 1 298 0 discriminator 122
 493 01ee A1F56871 		sub	r1, r1, #928
 494 01f2 8A42     		cmp	r2, r1
 495 01f4 20D0     		beq	.L97
 298:../Drivers/STM32F4xx_HAL_Driver/Src/stm32f4xx_hal_dma.c ****   __HAL_DMA_CLEAR_FLAG(hdma, __HAL_DMA_GET_TC_FLAG_INDEX(hdma));
 496              		.loc 1 298 0 discriminator 124
 497 01f6 01F58061 		add	r1, r1, #1024
 498 01fa 8A42     		cmp	r2, r1
 499 01fc 1FD1     		bne	.L98
 298:../Drivers/STM32F4xx_HAL_Driver/Src/stm32f4xx_hal_dma.c ****   __HAL_DMA_CLEAR_FLAG(hdma, __HAL_DMA_GET_TC_FLAG_INDEX(hdma));
 500              		.loc 1 298 0
 501 01fe 4FF48021 		mov	r1, #262144
 502 0202 1EE0     		b	.L23
 503              	.L87:
 504 0204 3949     		ldr	r1, .L303+4
 505 0206 1CE0     		b	.L23
 506              	.L88:
 507 0208 3849     		ldr	r1, .L303+4
ARM GAS  /tmp/ccIvKYQX.s 			page 27


 508 020a 1AE0     		b	.L23
 509              	.L89:
 510 020c 3749     		ldr	r1, .L303+4
 511 020e 18E0     		b	.L23
 512              	.L90:
 513 0210 3649     		ldr	r1, .L303+4
 514 0212 16E0     		b	.L23
 515              	.L91:
 516 0214 4FF48071 		mov	r1, #256
 517 0218 13E0     		b	.L23
 518              	.L92:
 519 021a 4FF48071 		mov	r1, #256
 520 021e 10E0     		b	.L23
 521              	.L93:
 522 0220 4FF48071 		mov	r1, #256
 523 0224 0DE0     		b	.L23
 524              	.L94:
 525 0226 4FF48071 		mov	r1, #256
 526 022a 0AE0     		b	.L23
 527              	.L95:
 528 022c 4FF48021 		mov	r1, #262144
 529 0230 07E0     		b	.L23
 530              	.L96:
 531 0232 4FF48021 		mov	r1, #262144
 532 0236 04E0     		b	.L23
 533              	.L97:
 534 0238 4FF48021 		mov	r1, #262144
 535 023c 01E0     		b	.L23
 536              	.L98:
 537 023e 4FF08071 		mov	r1, #16777216
 538              	.L23:
 298:../Drivers/STM32F4xx_HAL_Driver/Src/stm32f4xx_hal_dma.c ****   __HAL_DMA_CLEAR_FLAG(hdma, __HAL_DMA_GET_TC_FLAG_INDEX(hdma));
 539              		.loc 1 298 0 discriminator 151
 540 0242 2E4A     		ldr	r2, .L303+20
 541 0244 D160     		str	r1, [r2, #12]
 542 0246 61E0     		b	.L18
 543              	.L22:
 298:../Drivers/STM32F4xx_HAL_Driver/Src/stm32f4xx_hal_dma.c ****   __HAL_DMA_CLEAR_FLAG(hdma, __HAL_DMA_GET_TC_FLAG_INDEX(hdma));
 544              		.loc 1 298 0 discriminator 103
 545 0248 2D49     		ldr	r1, .L303+24
 546 024a 8A42     		cmp	r2, r1
 547 024c 2ED0     		beq	.L99
 298:../Drivers/STM32F4xx_HAL_Driver/Src/stm32f4xx_hal_dma.c ****   __HAL_DMA_CLEAR_FLAG(hdma, __HAL_DMA_GET_TC_FLAG_INDEX(hdma));
 548              		.loc 1 298 0 discriminator 153
 549 024e 01F58061 		add	r1, r1, #1024
 550 0252 8A42     		cmp	r2, r1
 551 0254 2CD0     		beq	.L100
 298:../Drivers/STM32F4xx_HAL_Driver/Src/stm32f4xx_hal_dma.c ****   __HAL_DMA_CLEAR_FLAG(hdma, __HAL_DMA_GET_TC_FLAG_INDEX(hdma));
 552              		.loc 1 298 0 discriminator 155
 553 0256 A1F56871 		sub	r1, r1, #928
 554 025a 8A42     		cmp	r2, r1
 555 025c 2AD0     		beq	.L101
 298:../Drivers/STM32F4xx_HAL_Driver/Src/stm32f4xx_hal_dma.c ****   __HAL_DMA_CLEAR_FLAG(hdma, __HAL_DMA_GET_TC_FLAG_INDEX(hdma));
 556              		.loc 1 298 0 discriminator 157
 557 025e 01F58061 		add	r1, r1, #1024
 558 0262 8A42     		cmp	r2, r1
 559 0264 28D0     		beq	.L102
ARM GAS  /tmp/ccIvKYQX.s 			page 28


 298:../Drivers/STM32F4xx_HAL_Driver/Src/stm32f4xx_hal_dma.c ****   __HAL_DMA_CLEAR_FLAG(hdma, __HAL_DMA_GET_TC_FLAG_INDEX(hdma));
 560              		.loc 1 298 0 discriminator 159
 561 0266 A1F58961 		sub	r1, r1, #1096
 562 026a 8A42     		cmp	r2, r1
 563 026c 26D0     		beq	.L103
 298:../Drivers/STM32F4xx_HAL_Driver/Src/stm32f4xx_hal_dma.c ****   __HAL_DMA_CLEAR_FLAG(hdma, __HAL_DMA_GET_TC_FLAG_INDEX(hdma));
 564              		.loc 1 298 0 discriminator 161
 565 026e 01F58061 		add	r1, r1, #1024
 566 0272 8A42     		cmp	r2, r1
 567 0274 25D0     		beq	.L104
 298:../Drivers/STM32F4xx_HAL_Driver/Src/stm32f4xx_hal_dma.c ****   __HAL_DMA_CLEAR_FLAG(hdma, __HAL_DMA_GET_TC_FLAG_INDEX(hdma));
 568              		.loc 1 298 0 discriminator 163
 569 0276 A1F56871 		sub	r1, r1, #928
 570 027a 8A42     		cmp	r2, r1
 571 027c 24D0     		beq	.L105
 298:../Drivers/STM32F4xx_HAL_Driver/Src/stm32f4xx_hal_dma.c ****   __HAL_DMA_CLEAR_FLAG(hdma, __HAL_DMA_GET_TC_FLAG_INDEX(hdma));
 572              		.loc 1 298 0 discriminator 165
 573 027e 01F58061 		add	r1, r1, #1024
 574 0282 8A42     		cmp	r2, r1
 575 0284 23D0     		beq	.L106
 298:../Drivers/STM32F4xx_HAL_Driver/Src/stm32f4xx_hal_dma.c ****   __HAL_DMA_CLEAR_FLAG(hdma, __HAL_DMA_GET_TC_FLAG_INDEX(hdma));
 576              		.loc 1 298 0 discriminator 167
 577 0286 A1F58961 		sub	r1, r1, #1096
 578 028a 8A42     		cmp	r2, r1
 579 028c 22D0     		beq	.L107
 298:../Drivers/STM32F4xx_HAL_Driver/Src/stm32f4xx_hal_dma.c ****   __HAL_DMA_CLEAR_FLAG(hdma, __HAL_DMA_GET_TC_FLAG_INDEX(hdma));
 580              		.loc 1 298 0 discriminator 169
 581 028e 01F58061 		add	r1, r1, #1024
 582 0292 8A42     		cmp	r2, r1
 583 0294 21D0     		beq	.L108
 298:../Drivers/STM32F4xx_HAL_Driver/Src/stm32f4xx_hal_dma.c ****   __HAL_DMA_CLEAR_FLAG(hdma, __HAL_DMA_GET_TC_FLAG_INDEX(hdma));
 584              		.loc 1 298 0 discriminator 171
 585 0296 A1F56871 		sub	r1, r1, #928
 586 029a 8A42     		cmp	r2, r1
 587 029c 20D0     		beq	.L109
 298:../Drivers/STM32F4xx_HAL_Driver/Src/stm32f4xx_hal_dma.c ****   __HAL_DMA_CLEAR_FLAG(hdma, __HAL_DMA_GET_TC_FLAG_INDEX(hdma));
 588              		.loc 1 298 0 discriminator 173
 589 029e 01F58061 		add	r1, r1, #1024
 590 02a2 8A42     		cmp	r2, r1
 591 02a4 2ED1     		bne	.L110
 298:../Drivers/STM32F4xx_HAL_Driver/Src/stm32f4xx_hal_dma.c ****   __HAL_DMA_CLEAR_FLAG(hdma, __HAL_DMA_GET_TC_FLAG_INDEX(hdma));
 592              		.loc 1 298 0
 593 02a6 4FF48021 		mov	r1, #262144
 594 02aa 2DE0     		b	.L24
 595              	.L99:
 596 02ac 0F49     		ldr	r1, .L303+4
 597 02ae 2BE0     		b	.L24
 598              	.L100:
 599 02b0 0E49     		ldr	r1, .L303+4
 600 02b2 29E0     		b	.L24
 601              	.L101:
 602 02b4 0D49     		ldr	r1, .L303+4
 603 02b6 27E0     		b	.L24
 604              	.L102:
 605 02b8 0C49     		ldr	r1, .L303+4
 606 02ba 25E0     		b	.L24
 607              	.L103:
ARM GAS  /tmp/ccIvKYQX.s 			page 29


 608 02bc 4FF48071 		mov	r1, #256
 609 02c0 22E0     		b	.L24
 610              	.L104:
 611 02c2 4FF48071 		mov	r1, #256
 612 02c6 1FE0     		b	.L24
 613              	.L105:
 614 02c8 4FF48071 		mov	r1, #256
 615 02cc 1CE0     		b	.L24
 616              	.L106:
 617 02ce 4FF48071 		mov	r1, #256
 618 02d2 19E0     		b	.L24
 619              	.L107:
 620 02d4 4FF48021 		mov	r1, #262144
 621 02d8 16E0     		b	.L24
 622              	.L108:
 623 02da 4FF48021 		mov	r1, #262144
 624 02de 13E0     		b	.L24
 625              	.L109:
 626 02e0 4FF48021 		mov	r1, #262144
 627 02e4 10E0     		b	.L24
 628              	.L304:
 629 02e6 00BF     		.align	2
 630              	.L303:
 631 02e8 58640240 		.word	1073898584
 632 02ec 04008000 		.word	8388612
 633 02f0 00640240 		.word	1073898496
 634 02f4 B8600240 		.word	1073897656
 635 02f8 58600240 		.word	1073897560
 636 02fc 00600240 		.word	1073897472
 637 0300 10600240 		.word	1073897488
 638              	.L110:
 639 0304 4FF08071 		mov	r1, #16777216
 640              	.L24:
 298:../Drivers/STM32F4xx_HAL_Driver/Src/stm32f4xx_hal_dma.c ****   __HAL_DMA_CLEAR_FLAG(hdma, __HAL_DMA_GET_TC_FLAG_INDEX(hdma));
 641              		.loc 1 298 0 discriminator 200
 642 0308 AB4A     		ldr	r2, .L305
 643 030a 9160     		str	r1, [r2, #8]
 644              	.L18:
 299:../Drivers/STM32F4xx_HAL_Driver/Src/stm32f4xx_hal_dma.c ****   __HAL_DMA_CLEAR_FLAG(hdma, __HAL_DMA_GET_TE_FLAG_INDEX(hdma));
 645              		.loc 1 299 0 is_stmt 1
 646 030c 1A68     		ldr	r2, [r3]
 647 030e AB49     		ldr	r1, .L305+4
 648 0310 8A42     		cmp	r2, r1
 649 0312 54D9     		bls	.L25
 299:../Drivers/STM32F4xx_HAL_Driver/Src/stm32f4xx_hal_dma.c ****   __HAL_DMA_CLEAR_FLAG(hdma, __HAL_DMA_GET_TE_FLAG_INDEX(hdma));
 650              		.loc 1 299 0 is_stmt 0 discriminator 1
 651 0314 A1F58961 		sub	r1, r1, #1096
 652 0318 8A42     		cmp	r2, r1
 653 031a 2ED0     		beq	.L111
 299:../Drivers/STM32F4xx_HAL_Driver/Src/stm32f4xx_hal_dma.c ****   __HAL_DMA_CLEAR_FLAG(hdma, __HAL_DMA_GET_TE_FLAG_INDEX(hdma));
 654              		.loc 1 299 0 discriminator 3
 655 031c 01F58061 		add	r1, r1, #1024
 656 0320 8A42     		cmp	r2, r1
 657 0322 2CD0     		beq	.L112
 299:../Drivers/STM32F4xx_HAL_Driver/Src/stm32f4xx_hal_dma.c ****   __HAL_DMA_CLEAR_FLAG(hdma, __HAL_DMA_GET_TE_FLAG_INDEX(hdma));
 658              		.loc 1 299 0 discriminator 5
 659 0324 A1F56871 		sub	r1, r1, #928
ARM GAS  /tmp/ccIvKYQX.s 			page 30


 660 0328 8A42     		cmp	r2, r1
 661 032a 2AD0     		beq	.L113
 299:../Drivers/STM32F4xx_HAL_Driver/Src/stm32f4xx_hal_dma.c ****   __HAL_DMA_CLEAR_FLAG(hdma, __HAL_DMA_GET_TE_FLAG_INDEX(hdma));
 662              		.loc 1 299 0 discriminator 7
 663 032c 01F58061 		add	r1, r1, #1024
 664 0330 8A42     		cmp	r2, r1
 665 0332 28D0     		beq	.L114
 299:../Drivers/STM32F4xx_HAL_Driver/Src/stm32f4xx_hal_dma.c ****   __HAL_DMA_CLEAR_FLAG(hdma, __HAL_DMA_GET_TE_FLAG_INDEX(hdma));
 666              		.loc 1 299 0 discriminator 9
 667 0334 A1F58961 		sub	r1, r1, #1096
 668 0338 8A42     		cmp	r2, r1
 669 033a 26D0     		beq	.L115
 299:../Drivers/STM32F4xx_HAL_Driver/Src/stm32f4xx_hal_dma.c ****   __HAL_DMA_CLEAR_FLAG(hdma, __HAL_DMA_GET_TE_FLAG_INDEX(hdma));
 670              		.loc 1 299 0 discriminator 11
 671 033c 01F58061 		add	r1, r1, #1024
 672 0340 8A42     		cmp	r2, r1
 673 0342 25D0     		beq	.L116
 299:../Drivers/STM32F4xx_HAL_Driver/Src/stm32f4xx_hal_dma.c ****   __HAL_DMA_CLEAR_FLAG(hdma, __HAL_DMA_GET_TE_FLAG_INDEX(hdma));
 674              		.loc 1 299 0 discriminator 13
 675 0344 A1F56871 		sub	r1, r1, #928
 676 0348 8A42     		cmp	r2, r1
 677 034a 24D0     		beq	.L117
 299:../Drivers/STM32F4xx_HAL_Driver/Src/stm32f4xx_hal_dma.c ****   __HAL_DMA_CLEAR_FLAG(hdma, __HAL_DMA_GET_TE_FLAG_INDEX(hdma));
 678              		.loc 1 299 0 discriminator 15
 679 034c 01F58061 		add	r1, r1, #1024
 680 0350 8A42     		cmp	r2, r1
 681 0352 23D0     		beq	.L118
 299:../Drivers/STM32F4xx_HAL_Driver/Src/stm32f4xx_hal_dma.c ****   __HAL_DMA_CLEAR_FLAG(hdma, __HAL_DMA_GET_TE_FLAG_INDEX(hdma));
 682              		.loc 1 299 0 discriminator 17
 683 0354 A1F58961 		sub	r1, r1, #1096
 684 0358 8A42     		cmp	r2, r1
 685 035a 22D0     		beq	.L119
 299:../Drivers/STM32F4xx_HAL_Driver/Src/stm32f4xx_hal_dma.c ****   __HAL_DMA_CLEAR_FLAG(hdma, __HAL_DMA_GET_TE_FLAG_INDEX(hdma));
 686              		.loc 1 299 0 discriminator 19
 687 035c 01F58061 		add	r1, r1, #1024
 688 0360 8A42     		cmp	r2, r1
 689 0362 21D0     		beq	.L120
 299:../Drivers/STM32F4xx_HAL_Driver/Src/stm32f4xx_hal_dma.c ****   __HAL_DMA_CLEAR_FLAG(hdma, __HAL_DMA_GET_TE_FLAG_INDEX(hdma));
 690              		.loc 1 299 0 discriminator 21
 691 0364 A1F56871 		sub	r1, r1, #928
 692 0368 8A42     		cmp	r2, r1
 693 036a 20D0     		beq	.L121
 299:../Drivers/STM32F4xx_HAL_Driver/Src/stm32f4xx_hal_dma.c ****   __HAL_DMA_CLEAR_FLAG(hdma, __HAL_DMA_GET_TE_FLAG_INDEX(hdma));
 694              		.loc 1 299 0 discriminator 23
 695 036c 01F58061 		add	r1, r1, #1024
 696 0370 8A42     		cmp	r2, r1
 697 0372 1FD1     		bne	.L122
 299:../Drivers/STM32F4xx_HAL_Driver/Src/stm32f4xx_hal_dma.c ****   __HAL_DMA_CLEAR_FLAG(hdma, __HAL_DMA_GET_TE_FLAG_INDEX(hdma));
 698              		.loc 1 299 0
 699 0374 4FF40011 		mov	r1, #2097152
 700 0378 1EE0     		b	.L26
 701              	.L111:
 702 037a 2021     		movs	r1, #32
 703 037c 1CE0     		b	.L26
 704              	.L112:
 705 037e 2021     		movs	r1, #32
 706 0380 1AE0     		b	.L26
ARM GAS  /tmp/ccIvKYQX.s 			page 31


 707              	.L113:
 708 0382 2021     		movs	r1, #32
 709 0384 18E0     		b	.L26
 710              	.L114:
 711 0386 2021     		movs	r1, #32
 712 0388 16E0     		b	.L26
 713              	.L115:
 714 038a 4FF40061 		mov	r1, #2048
 715 038e 13E0     		b	.L26
 716              	.L116:
 717 0390 4FF40061 		mov	r1, #2048
 718 0394 10E0     		b	.L26
 719              	.L117:
 720 0396 4FF40061 		mov	r1, #2048
 721 039a 0DE0     		b	.L26
 722              	.L118:
 723 039c 4FF40061 		mov	r1, #2048
 724 03a0 0AE0     		b	.L26
 725              	.L119:
 726 03a2 4FF40011 		mov	r1, #2097152
 727 03a6 07E0     		b	.L26
 728              	.L120:
 729 03a8 4FF40011 		mov	r1, #2097152
 730 03ac 04E0     		b	.L26
 731              	.L121:
 732 03ae 4FF40011 		mov	r1, #2097152
 733 03b2 01E0     		b	.L26
 734              	.L122:
 735 03b4 4FF00061 		mov	r1, #134217728
 736              	.L26:
 299:../Drivers/STM32F4xx_HAL_Driver/Src/stm32f4xx_hal_dma.c ****   __HAL_DMA_CLEAR_FLAG(hdma, __HAL_DMA_GET_TE_FLAG_INDEX(hdma));
 737              		.loc 1 299 0 discriminator 50
 738 03b8 814A     		ldr	r2, .L305+8
 739 03ba D160     		str	r1, [r2, #12]
 740 03bc 0CE1     		b	.L27
 741              	.L25:
 299:../Drivers/STM32F4xx_HAL_Driver/Src/stm32f4xx_hal_dma.c ****   __HAL_DMA_CLEAR_FLAG(hdma, __HAL_DMA_GET_TE_FLAG_INDEX(hdma));
 742              		.loc 1 299 0 discriminator 2
 743 03be 8149     		ldr	r1, .L305+12
 744 03c0 8A42     		cmp	r2, r1
 745 03c2 53D9     		bls	.L28
 299:../Drivers/STM32F4xx_HAL_Driver/Src/stm32f4xx_hal_dma.c ****   __HAL_DMA_CLEAR_FLAG(hdma, __HAL_DMA_GET_TE_FLAG_INDEX(hdma));
 746              		.loc 1 299 0 discriminator 51
 747 03c4 A839     		subs	r1, r1, #168
 748 03c6 8A42     		cmp	r2, r1
 749 03c8 2ED0     		beq	.L123
 299:../Drivers/STM32F4xx_HAL_Driver/Src/stm32f4xx_hal_dma.c ****   __HAL_DMA_CLEAR_FLAG(hdma, __HAL_DMA_GET_TE_FLAG_INDEX(hdma));
 750              		.loc 1 299 0 discriminator 53
 751 03ca 01F58061 		add	r1, r1, #1024
 752 03ce 8A42     		cmp	r2, r1
 753 03d0 2CD0     		beq	.L124
 299:../Drivers/STM32F4xx_HAL_Driver/Src/stm32f4xx_hal_dma.c ****   __HAL_DMA_CLEAR_FLAG(hdma, __HAL_DMA_GET_TE_FLAG_INDEX(hdma));
 754              		.loc 1 299 0 discriminator 55
 755 03d2 A1F56871 		sub	r1, r1, #928
 756 03d6 8A42     		cmp	r2, r1
 757 03d8 2AD0     		beq	.L125
 299:../Drivers/STM32F4xx_HAL_Driver/Src/stm32f4xx_hal_dma.c ****   __HAL_DMA_CLEAR_FLAG(hdma, __HAL_DMA_GET_TE_FLAG_INDEX(hdma));
ARM GAS  /tmp/ccIvKYQX.s 			page 32


 758              		.loc 1 299 0 discriminator 57
 759 03da 01F58061 		add	r1, r1, #1024
 760 03de 8A42     		cmp	r2, r1
 761 03e0 28D0     		beq	.L126
 299:../Drivers/STM32F4xx_HAL_Driver/Src/stm32f4xx_hal_dma.c ****   __HAL_DMA_CLEAR_FLAG(hdma, __HAL_DMA_GET_TE_FLAG_INDEX(hdma));
 762              		.loc 1 299 0 discriminator 59
 763 03e2 A1F58961 		sub	r1, r1, #1096
 764 03e6 8A42     		cmp	r2, r1
 765 03e8 26D0     		beq	.L127
 299:../Drivers/STM32F4xx_HAL_Driver/Src/stm32f4xx_hal_dma.c ****   __HAL_DMA_CLEAR_FLAG(hdma, __HAL_DMA_GET_TE_FLAG_INDEX(hdma));
 766              		.loc 1 299 0 discriminator 61
 767 03ea 01F58061 		add	r1, r1, #1024
 768 03ee 8A42     		cmp	r2, r1
 769 03f0 25D0     		beq	.L128
 299:../Drivers/STM32F4xx_HAL_Driver/Src/stm32f4xx_hal_dma.c ****   __HAL_DMA_CLEAR_FLAG(hdma, __HAL_DMA_GET_TE_FLAG_INDEX(hdma));
 770              		.loc 1 299 0 discriminator 63
 771 03f2 A1F56871 		sub	r1, r1, #928
 772 03f6 8A42     		cmp	r2, r1
 773 03f8 24D0     		beq	.L129
 299:../Drivers/STM32F4xx_HAL_Driver/Src/stm32f4xx_hal_dma.c ****   __HAL_DMA_CLEAR_FLAG(hdma, __HAL_DMA_GET_TE_FLAG_INDEX(hdma));
 774              		.loc 1 299 0 discriminator 65
 775 03fa 01F58061 		add	r1, r1, #1024
 776 03fe 8A42     		cmp	r2, r1
 777 0400 23D0     		beq	.L130
 299:../Drivers/STM32F4xx_HAL_Driver/Src/stm32f4xx_hal_dma.c ****   __HAL_DMA_CLEAR_FLAG(hdma, __HAL_DMA_GET_TE_FLAG_INDEX(hdma));
 778              		.loc 1 299 0 discriminator 67
 779 0402 A1F58961 		sub	r1, r1, #1096
 780 0406 8A42     		cmp	r2, r1
 781 0408 22D0     		beq	.L131
 299:../Drivers/STM32F4xx_HAL_Driver/Src/stm32f4xx_hal_dma.c ****   __HAL_DMA_CLEAR_FLAG(hdma, __HAL_DMA_GET_TE_FLAG_INDEX(hdma));
 782              		.loc 1 299 0 discriminator 69
 783 040a 01F58061 		add	r1, r1, #1024
 784 040e 8A42     		cmp	r2, r1
 785 0410 21D0     		beq	.L132
 299:../Drivers/STM32F4xx_HAL_Driver/Src/stm32f4xx_hal_dma.c ****   __HAL_DMA_CLEAR_FLAG(hdma, __HAL_DMA_GET_TE_FLAG_INDEX(hdma));
 786              		.loc 1 299 0 discriminator 71
 787 0412 A1F56871 		sub	r1, r1, #928
 788 0416 8A42     		cmp	r2, r1
 789 0418 20D0     		beq	.L133
 299:../Drivers/STM32F4xx_HAL_Driver/Src/stm32f4xx_hal_dma.c ****   __HAL_DMA_CLEAR_FLAG(hdma, __HAL_DMA_GET_TE_FLAG_INDEX(hdma));
 790              		.loc 1 299 0 discriminator 73
 791 041a 01F58061 		add	r1, r1, #1024
 792 041e 8A42     		cmp	r2, r1
 793 0420 1FD1     		bne	.L134
 299:../Drivers/STM32F4xx_HAL_Driver/Src/stm32f4xx_hal_dma.c ****   __HAL_DMA_CLEAR_FLAG(hdma, __HAL_DMA_GET_TE_FLAG_INDEX(hdma));
 794              		.loc 1 299 0
 795 0422 4FF40011 		mov	r1, #2097152
 796 0426 1EE0     		b	.L29
 797              	.L123:
 798 0428 2021     		movs	r1, #32
 799 042a 1CE0     		b	.L29
 800              	.L124:
 801 042c 2021     		movs	r1, #32
 802 042e 1AE0     		b	.L29
 803              	.L125:
 804 0430 2021     		movs	r1, #32
 805 0432 18E0     		b	.L29
ARM GAS  /tmp/ccIvKYQX.s 			page 33


 806              	.L126:
 807 0434 2021     		movs	r1, #32
 808 0436 16E0     		b	.L29
 809              	.L127:
 810 0438 4FF40061 		mov	r1, #2048
 811 043c 13E0     		b	.L29
 812              	.L128:
 813 043e 4FF40061 		mov	r1, #2048
 814 0442 10E0     		b	.L29
 815              	.L129:
 816 0444 4FF40061 		mov	r1, #2048
 817 0448 0DE0     		b	.L29
 818              	.L130:
 819 044a 4FF40061 		mov	r1, #2048
 820 044e 0AE0     		b	.L29
 821              	.L131:
 822 0450 4FF40011 		mov	r1, #2097152
 823 0454 07E0     		b	.L29
 824              	.L132:
 825 0456 4FF40011 		mov	r1, #2097152
 826 045a 04E0     		b	.L29
 827              	.L133:
 828 045c 4FF40011 		mov	r1, #2097152
 829 0460 01E0     		b	.L29
 830              	.L134:
 831 0462 4FF00061 		mov	r1, #134217728
 832              	.L29:
 299:../Drivers/STM32F4xx_HAL_Driver/Src/stm32f4xx_hal_dma.c ****   __HAL_DMA_CLEAR_FLAG(hdma, __HAL_DMA_GET_TE_FLAG_INDEX(hdma));
 833              		.loc 1 299 0 discriminator 100
 834 0466 564A     		ldr	r2, .L305+8
 835 0468 9160     		str	r1, [r2, #8]
 836 046a B5E0     		b	.L27
 837              	.L28:
 299:../Drivers/STM32F4xx_HAL_Driver/Src/stm32f4xx_hal_dma.c ****   __HAL_DMA_CLEAR_FLAG(hdma, __HAL_DMA_GET_TE_FLAG_INDEX(hdma));
 838              		.loc 1 299 0 discriminator 52
 839 046c 5649     		ldr	r1, .L305+16
 840 046e 8A42     		cmp	r2, r1
 841 0470 53D9     		bls	.L31
 299:../Drivers/STM32F4xx_HAL_Driver/Src/stm32f4xx_hal_dma.c ****   __HAL_DMA_CLEAR_FLAG(hdma, __HAL_DMA_GET_TE_FLAG_INDEX(hdma));
 842              		.loc 1 299 0 discriminator 102
 843 0472 4839     		subs	r1, r1, #72
 844 0474 8A42     		cmp	r2, r1
 845 0476 2ED0     		beq	.L135
 299:../Drivers/STM32F4xx_HAL_Driver/Src/stm32f4xx_hal_dma.c ****   __HAL_DMA_CLEAR_FLAG(hdma, __HAL_DMA_GET_TE_FLAG_INDEX(hdma));
 846              		.loc 1 299 0 discriminator 104
 847 0478 01F58061 		add	r1, r1, #1024
 848 047c 8A42     		cmp	r2, r1
 849 047e 2CD0     		beq	.L136
 299:../Drivers/STM32F4xx_HAL_Driver/Src/stm32f4xx_hal_dma.c ****   __HAL_DMA_CLEAR_FLAG(hdma, __HAL_DMA_GET_TE_FLAG_INDEX(hdma));
 850              		.loc 1 299 0 discriminator 106
 851 0480 A1F56871 		sub	r1, r1, #928
 852 0484 8A42     		cmp	r2, r1
 853 0486 2AD0     		beq	.L137
 299:../Drivers/STM32F4xx_HAL_Driver/Src/stm32f4xx_hal_dma.c ****   __HAL_DMA_CLEAR_FLAG(hdma, __HAL_DMA_GET_TE_FLAG_INDEX(hdma));
 854              		.loc 1 299 0 discriminator 108
 855 0488 01F58061 		add	r1, r1, #1024
 856 048c 8A42     		cmp	r2, r1
ARM GAS  /tmp/ccIvKYQX.s 			page 34


 857 048e 28D0     		beq	.L138
 299:../Drivers/STM32F4xx_HAL_Driver/Src/stm32f4xx_hal_dma.c ****   __HAL_DMA_CLEAR_FLAG(hdma, __HAL_DMA_GET_TE_FLAG_INDEX(hdma));
 858              		.loc 1 299 0 discriminator 110
 859 0490 A1F58961 		sub	r1, r1, #1096
 860 0494 8A42     		cmp	r2, r1
 861 0496 26D0     		beq	.L139
 299:../Drivers/STM32F4xx_HAL_Driver/Src/stm32f4xx_hal_dma.c ****   __HAL_DMA_CLEAR_FLAG(hdma, __HAL_DMA_GET_TE_FLAG_INDEX(hdma));
 862              		.loc 1 299 0 discriminator 112
 863 0498 01F58061 		add	r1, r1, #1024
 864 049c 8A42     		cmp	r2, r1
 865 049e 25D0     		beq	.L140
 299:../Drivers/STM32F4xx_HAL_Driver/Src/stm32f4xx_hal_dma.c ****   __HAL_DMA_CLEAR_FLAG(hdma, __HAL_DMA_GET_TE_FLAG_INDEX(hdma));
 866              		.loc 1 299 0 discriminator 114
 867 04a0 A1F56871 		sub	r1, r1, #928
 868 04a4 8A42     		cmp	r2, r1
 869 04a6 24D0     		beq	.L141
 299:../Drivers/STM32F4xx_HAL_Driver/Src/stm32f4xx_hal_dma.c ****   __HAL_DMA_CLEAR_FLAG(hdma, __HAL_DMA_GET_TE_FLAG_INDEX(hdma));
 870              		.loc 1 299 0 discriminator 116
 871 04a8 01F58061 		add	r1, r1, #1024
 872 04ac 8A42     		cmp	r2, r1
 873 04ae 23D0     		beq	.L142
 299:../Drivers/STM32F4xx_HAL_Driver/Src/stm32f4xx_hal_dma.c ****   __HAL_DMA_CLEAR_FLAG(hdma, __HAL_DMA_GET_TE_FLAG_INDEX(hdma));
 874              		.loc 1 299 0 discriminator 118
 875 04b0 A1F58961 		sub	r1, r1, #1096
 876 04b4 8A42     		cmp	r2, r1
 877 04b6 22D0     		beq	.L143
 299:../Drivers/STM32F4xx_HAL_Driver/Src/stm32f4xx_hal_dma.c ****   __HAL_DMA_CLEAR_FLAG(hdma, __HAL_DMA_GET_TE_FLAG_INDEX(hdma));
 878              		.loc 1 299 0 discriminator 120
 879 04b8 01F58061 		add	r1, r1, #1024
 880 04bc 8A42     		cmp	r2, r1
 881 04be 21D0     		beq	.L144
 299:../Drivers/STM32F4xx_HAL_Driver/Src/stm32f4xx_hal_dma.c ****   __HAL_DMA_CLEAR_FLAG(hdma, __HAL_DMA_GET_TE_FLAG_INDEX(hdma));
 882              		.loc 1 299 0 discriminator 122
 883 04c0 A1F56871 		sub	r1, r1, #928
 884 04c4 8A42     		cmp	r2, r1
 885 04c6 20D0     		beq	.L145
 299:../Drivers/STM32F4xx_HAL_Driver/Src/stm32f4xx_hal_dma.c ****   __HAL_DMA_CLEAR_FLAG(hdma, __HAL_DMA_GET_TE_FLAG_INDEX(hdma));
 886              		.loc 1 299 0 discriminator 124
 887 04c8 01F58061 		add	r1, r1, #1024
 888 04cc 8A42     		cmp	r2, r1
 889 04ce 1FD1     		bne	.L146
 299:../Drivers/STM32F4xx_HAL_Driver/Src/stm32f4xx_hal_dma.c ****   __HAL_DMA_CLEAR_FLAG(hdma, __HAL_DMA_GET_TE_FLAG_INDEX(hdma));
 890              		.loc 1 299 0
 891 04d0 4FF40011 		mov	r1, #2097152
 892 04d4 1EE0     		b	.L32
 893              	.L135:
 894 04d6 2021     		movs	r1, #32
 895 04d8 1CE0     		b	.L32
 896              	.L136:
 897 04da 2021     		movs	r1, #32
 898 04dc 1AE0     		b	.L32
 899              	.L137:
 900 04de 2021     		movs	r1, #32
 901 04e0 18E0     		b	.L32
 902              	.L138:
 903 04e2 2021     		movs	r1, #32
 904 04e4 16E0     		b	.L32
ARM GAS  /tmp/ccIvKYQX.s 			page 35


 905              	.L139:
 906 04e6 4FF40061 		mov	r1, #2048
 907 04ea 13E0     		b	.L32
 908              	.L140:
 909 04ec 4FF40061 		mov	r1, #2048
 910 04f0 10E0     		b	.L32
 911              	.L141:
 912 04f2 4FF40061 		mov	r1, #2048
 913 04f6 0DE0     		b	.L32
 914              	.L142:
 915 04f8 4FF40061 		mov	r1, #2048
 916 04fc 0AE0     		b	.L32
 917              	.L143:
 918 04fe 4FF40011 		mov	r1, #2097152
 919 0502 07E0     		b	.L32
 920              	.L144:
 921 0504 4FF40011 		mov	r1, #2097152
 922 0508 04E0     		b	.L32
 923              	.L145:
 924 050a 4FF40011 		mov	r1, #2097152
 925 050e 01E0     		b	.L32
 926              	.L146:
 927 0510 4FF00061 		mov	r1, #134217728
 928              	.L32:
 299:../Drivers/STM32F4xx_HAL_Driver/Src/stm32f4xx_hal_dma.c ****   __HAL_DMA_CLEAR_FLAG(hdma, __HAL_DMA_GET_TE_FLAG_INDEX(hdma));
 929              		.loc 1 299 0 discriminator 151
 930 0514 284A     		ldr	r2, .L305
 931 0516 D160     		str	r1, [r2, #12]
 932 0518 5EE0     		b	.L27
 933              	.L31:
 299:../Drivers/STM32F4xx_HAL_Driver/Src/stm32f4xx_hal_dma.c ****   __HAL_DMA_CLEAR_FLAG(hdma, __HAL_DMA_GET_TE_FLAG_INDEX(hdma));
 934              		.loc 1 299 0 discriminator 103
 935 051a 2C49     		ldr	r1, .L305+20
 936 051c 8A42     		cmp	r2, r1
 937 051e 2ED0     		beq	.L147
 299:../Drivers/STM32F4xx_HAL_Driver/Src/stm32f4xx_hal_dma.c ****   __HAL_DMA_CLEAR_FLAG(hdma, __HAL_DMA_GET_TE_FLAG_INDEX(hdma));
 938              		.loc 1 299 0 discriminator 153
 939 0520 01F58061 		add	r1, r1, #1024
 940 0524 8A42     		cmp	r2, r1
 941 0526 2CD0     		beq	.L148
 299:../Drivers/STM32F4xx_HAL_Driver/Src/stm32f4xx_hal_dma.c ****   __HAL_DMA_CLEAR_FLAG(hdma, __HAL_DMA_GET_TE_FLAG_INDEX(hdma));
 942              		.loc 1 299 0 discriminator 155
 943 0528 A1F56871 		sub	r1, r1, #928
 944 052c 8A42     		cmp	r2, r1
 945 052e 2AD0     		beq	.L149
 299:../Drivers/STM32F4xx_HAL_Driver/Src/stm32f4xx_hal_dma.c ****   __HAL_DMA_CLEAR_FLAG(hdma, __HAL_DMA_GET_TE_FLAG_INDEX(hdma));
 946              		.loc 1 299 0 discriminator 157
 947 0530 01F58061 		add	r1, r1, #1024
 948 0534 8A42     		cmp	r2, r1
 949 0536 28D0     		beq	.L150
 299:../Drivers/STM32F4xx_HAL_Driver/Src/stm32f4xx_hal_dma.c ****   __HAL_DMA_CLEAR_FLAG(hdma, __HAL_DMA_GET_TE_FLAG_INDEX(hdma));
 950              		.loc 1 299 0 discriminator 159
 951 0538 A1F58961 		sub	r1, r1, #1096
 952 053c 8A42     		cmp	r2, r1
 953 053e 26D0     		beq	.L151
 299:../Drivers/STM32F4xx_HAL_Driver/Src/stm32f4xx_hal_dma.c ****   __HAL_DMA_CLEAR_FLAG(hdma, __HAL_DMA_GET_TE_FLAG_INDEX(hdma));
 954              		.loc 1 299 0 discriminator 161
ARM GAS  /tmp/ccIvKYQX.s 			page 36


 955 0540 01F58061 		add	r1, r1, #1024
 956 0544 8A42     		cmp	r2, r1
 957 0546 25D0     		beq	.L152
 299:../Drivers/STM32F4xx_HAL_Driver/Src/stm32f4xx_hal_dma.c ****   __HAL_DMA_CLEAR_FLAG(hdma, __HAL_DMA_GET_TE_FLAG_INDEX(hdma));
 958              		.loc 1 299 0 discriminator 163
 959 0548 A1F56871 		sub	r1, r1, #928
 960 054c 8A42     		cmp	r2, r1
 961 054e 24D0     		beq	.L153
 299:../Drivers/STM32F4xx_HAL_Driver/Src/stm32f4xx_hal_dma.c ****   __HAL_DMA_CLEAR_FLAG(hdma, __HAL_DMA_GET_TE_FLAG_INDEX(hdma));
 962              		.loc 1 299 0 discriminator 165
 963 0550 01F58061 		add	r1, r1, #1024
 964 0554 8A42     		cmp	r2, r1
 965 0556 23D0     		beq	.L154
 299:../Drivers/STM32F4xx_HAL_Driver/Src/stm32f4xx_hal_dma.c ****   __HAL_DMA_CLEAR_FLAG(hdma, __HAL_DMA_GET_TE_FLAG_INDEX(hdma));
 966              		.loc 1 299 0 discriminator 167
 967 0558 A1F58961 		sub	r1, r1, #1096
 968 055c 8A42     		cmp	r2, r1
 969 055e 22D0     		beq	.L155
 299:../Drivers/STM32F4xx_HAL_Driver/Src/stm32f4xx_hal_dma.c ****   __HAL_DMA_CLEAR_FLAG(hdma, __HAL_DMA_GET_TE_FLAG_INDEX(hdma));
 970              		.loc 1 299 0 discriminator 169
 971 0560 01F58061 		add	r1, r1, #1024
 972 0564 8A42     		cmp	r2, r1
 973 0566 21D0     		beq	.L156
 299:../Drivers/STM32F4xx_HAL_Driver/Src/stm32f4xx_hal_dma.c ****   __HAL_DMA_CLEAR_FLAG(hdma, __HAL_DMA_GET_TE_FLAG_INDEX(hdma));
 974              		.loc 1 299 0 discriminator 171
 975 0568 A1F56871 		sub	r1, r1, #928
 976 056c 8A42     		cmp	r2, r1
 977 056e 20D0     		beq	.L157
 299:../Drivers/STM32F4xx_HAL_Driver/Src/stm32f4xx_hal_dma.c ****   __HAL_DMA_CLEAR_FLAG(hdma, __HAL_DMA_GET_TE_FLAG_INDEX(hdma));
 978              		.loc 1 299 0 discriminator 173
 979 0570 01F58061 		add	r1, r1, #1024
 980 0574 8A42     		cmp	r2, r1
 981 0576 2BD1     		bne	.L158
 299:../Drivers/STM32F4xx_HAL_Driver/Src/stm32f4xx_hal_dma.c ****   __HAL_DMA_CLEAR_FLAG(hdma, __HAL_DMA_GET_TE_FLAG_INDEX(hdma));
 982              		.loc 1 299 0
 983 0578 4FF40011 		mov	r1, #2097152
 984 057c 2AE0     		b	.L33
 985              	.L147:
 986 057e 2021     		movs	r1, #32
 987 0580 28E0     		b	.L33
 988              	.L148:
 989 0582 2021     		movs	r1, #32
 990 0584 26E0     		b	.L33
 991              	.L149:
 992 0586 2021     		movs	r1, #32
 993 0588 24E0     		b	.L33
 994              	.L150:
 995 058a 2021     		movs	r1, #32
 996 058c 22E0     		b	.L33
 997              	.L151:
 998 058e 4FF40061 		mov	r1, #2048
 999 0592 1FE0     		b	.L33
 1000              	.L152:
 1001 0594 4FF40061 		mov	r1, #2048
 1002 0598 1CE0     		b	.L33
 1003              	.L153:
 1004 059a 4FF40061 		mov	r1, #2048
ARM GAS  /tmp/ccIvKYQX.s 			page 37


 1005 059e 19E0     		b	.L33
 1006              	.L154:
 1007 05a0 4FF40061 		mov	r1, #2048
 1008 05a4 16E0     		b	.L33
 1009              	.L155:
 1010 05a6 4FF40011 		mov	r1, #2097152
 1011 05aa 13E0     		b	.L33
 1012              	.L156:
 1013 05ac 4FF40011 		mov	r1, #2097152
 1014 05b0 10E0     		b	.L33
 1015              	.L157:
 1016 05b2 4FF40011 		mov	r1, #2097152
 1017 05b6 0DE0     		b	.L33
 1018              	.L306:
 1019              		.align	2
 1020              	.L305:
 1021 05b8 00600240 		.word	1073897472
 1022 05bc 58640240 		.word	1073898584
 1023 05c0 00640240 		.word	1073898496
 1024 05c4 B8600240 		.word	1073897656
 1025 05c8 58600240 		.word	1073897560
 1026 05cc 10600240 		.word	1073897488
 1027              	.L158:
 1028 05d0 4FF00061 		mov	r1, #134217728
 1029              	.L33:
 299:../Drivers/STM32F4xx_HAL_Driver/Src/stm32f4xx_hal_dma.c ****   __HAL_DMA_CLEAR_FLAG(hdma, __HAL_DMA_GET_TE_FLAG_INDEX(hdma));
 1030              		.loc 1 299 0 discriminator 200
 1031 05d4 AB4A     		ldr	r2, .L307
 1032 05d6 9160     		str	r1, [r2, #8]
 1033              	.L27:
 300:../Drivers/STM32F4xx_HAL_Driver/Src/stm32f4xx_hal_dma.c ****   __HAL_DMA_CLEAR_FLAG(hdma, __HAL_DMA_GET_FE_FLAG_INDEX(hdma));
 1034              		.loc 1 300 0 is_stmt 1
 1035 05d8 1A68     		ldr	r2, [r3]
 1036 05da AB49     		ldr	r1, .L307+4
 1037 05dc 8A42     		cmp	r2, r1
 1038 05de 54D9     		bls	.L34
 300:../Drivers/STM32F4xx_HAL_Driver/Src/stm32f4xx_hal_dma.c ****   __HAL_DMA_CLEAR_FLAG(hdma, __HAL_DMA_GET_FE_FLAG_INDEX(hdma));
 1039              		.loc 1 300 0 is_stmt 0 discriminator 1
 1040 05e0 A1F58961 		sub	r1, r1, #1096
 1041 05e4 8A42     		cmp	r2, r1
 1042 05e6 2ED0     		beq	.L159
 300:../Drivers/STM32F4xx_HAL_Driver/Src/stm32f4xx_hal_dma.c ****   __HAL_DMA_CLEAR_FLAG(hdma, __HAL_DMA_GET_FE_FLAG_INDEX(hdma));
 1043              		.loc 1 300 0 discriminator 3
 1044 05e8 01F58061 		add	r1, r1, #1024
 1045 05ec 8A42     		cmp	r2, r1
 1046 05ee 2CD0     		beq	.L160
 300:../Drivers/STM32F4xx_HAL_Driver/Src/stm32f4xx_hal_dma.c ****   __HAL_DMA_CLEAR_FLAG(hdma, __HAL_DMA_GET_FE_FLAG_INDEX(hdma));
 1047              		.loc 1 300 0 discriminator 5
 1048 05f0 A1F56871 		sub	r1, r1, #928
 1049 05f4 8A42     		cmp	r2, r1
 1050 05f6 2AD0     		beq	.L161
 300:../Drivers/STM32F4xx_HAL_Driver/Src/stm32f4xx_hal_dma.c ****   __HAL_DMA_CLEAR_FLAG(hdma, __HAL_DMA_GET_FE_FLAG_INDEX(hdma));
 1051              		.loc 1 300 0 discriminator 7
 1052 05f8 01F58061 		add	r1, r1, #1024
 1053 05fc 8A42     		cmp	r2, r1
 1054 05fe 28D0     		beq	.L162
 300:../Drivers/STM32F4xx_HAL_Driver/Src/stm32f4xx_hal_dma.c ****   __HAL_DMA_CLEAR_FLAG(hdma, __HAL_DMA_GET_FE_FLAG_INDEX(hdma));
ARM GAS  /tmp/ccIvKYQX.s 			page 38


 1055              		.loc 1 300 0 discriminator 9
 1056 0600 A1F58961 		sub	r1, r1, #1096
 1057 0604 8A42     		cmp	r2, r1
 1058 0606 26D0     		beq	.L163
 300:../Drivers/STM32F4xx_HAL_Driver/Src/stm32f4xx_hal_dma.c ****   __HAL_DMA_CLEAR_FLAG(hdma, __HAL_DMA_GET_FE_FLAG_INDEX(hdma));
 1059              		.loc 1 300 0 discriminator 11
 1060 0608 01F58061 		add	r1, r1, #1024
 1061 060c 8A42     		cmp	r2, r1
 1062 060e 25D0     		beq	.L164
 300:../Drivers/STM32F4xx_HAL_Driver/Src/stm32f4xx_hal_dma.c ****   __HAL_DMA_CLEAR_FLAG(hdma, __HAL_DMA_GET_FE_FLAG_INDEX(hdma));
 1063              		.loc 1 300 0 discriminator 13
 1064 0610 A1F56871 		sub	r1, r1, #928
 1065 0614 8A42     		cmp	r2, r1
 1066 0616 24D0     		beq	.L165
 300:../Drivers/STM32F4xx_HAL_Driver/Src/stm32f4xx_hal_dma.c ****   __HAL_DMA_CLEAR_FLAG(hdma, __HAL_DMA_GET_FE_FLAG_INDEX(hdma));
 1067              		.loc 1 300 0 discriminator 15
 1068 0618 01F58061 		add	r1, r1, #1024
 1069 061c 8A42     		cmp	r2, r1
 1070 061e 23D0     		beq	.L166
 300:../Drivers/STM32F4xx_HAL_Driver/Src/stm32f4xx_hal_dma.c ****   __HAL_DMA_CLEAR_FLAG(hdma, __HAL_DMA_GET_FE_FLAG_INDEX(hdma));
 1071              		.loc 1 300 0 discriminator 17
 1072 0620 A1F58961 		sub	r1, r1, #1096
 1073 0624 8A42     		cmp	r2, r1
 1074 0626 22D0     		beq	.L167
 300:../Drivers/STM32F4xx_HAL_Driver/Src/stm32f4xx_hal_dma.c ****   __HAL_DMA_CLEAR_FLAG(hdma, __HAL_DMA_GET_FE_FLAG_INDEX(hdma));
 1075              		.loc 1 300 0 discriminator 19
 1076 0628 01F58061 		add	r1, r1, #1024
 1077 062c 8A42     		cmp	r2, r1
 1078 062e 21D0     		beq	.L168
 300:../Drivers/STM32F4xx_HAL_Driver/Src/stm32f4xx_hal_dma.c ****   __HAL_DMA_CLEAR_FLAG(hdma, __HAL_DMA_GET_FE_FLAG_INDEX(hdma));
 1079              		.loc 1 300 0 discriminator 21
 1080 0630 A1F56871 		sub	r1, r1, #928
 1081 0634 8A42     		cmp	r2, r1
 1082 0636 20D0     		beq	.L169
 300:../Drivers/STM32F4xx_HAL_Driver/Src/stm32f4xx_hal_dma.c ****   __HAL_DMA_CLEAR_FLAG(hdma, __HAL_DMA_GET_FE_FLAG_INDEX(hdma));
 1083              		.loc 1 300 0 discriminator 23
 1084 0638 01F58061 		add	r1, r1, #1024
 1085 063c 8A42     		cmp	r2, r1
 1086 063e 1FD1     		bne	.L170
 300:../Drivers/STM32F4xx_HAL_Driver/Src/stm32f4xx_hal_dma.c ****   __HAL_DMA_CLEAR_FLAG(hdma, __HAL_DMA_GET_FE_FLAG_INDEX(hdma));
 1087              		.loc 1 300 0
 1088 0640 4FF40021 		mov	r1, #524288
 1089 0644 1EE0     		b	.L35
 1090              	.L159:
 1091 0646 0821     		movs	r1, #8
 1092 0648 1CE0     		b	.L35
 1093              	.L160:
 1094 064a 0821     		movs	r1, #8
 1095 064c 1AE0     		b	.L35
 1096              	.L161:
 1097 064e 0821     		movs	r1, #8
 1098 0650 18E0     		b	.L35
 1099              	.L162:
 1100 0652 0821     		movs	r1, #8
 1101 0654 16E0     		b	.L35
 1102              	.L163:
 1103 0656 4FF40071 		mov	r1, #512
ARM GAS  /tmp/ccIvKYQX.s 			page 39


 1104 065a 13E0     		b	.L35
 1105              	.L164:
 1106 065c 4FF40071 		mov	r1, #512
 1107 0660 10E0     		b	.L35
 1108              	.L165:
 1109 0662 4FF40071 		mov	r1, #512
 1110 0666 0DE0     		b	.L35
 1111              	.L166:
 1112 0668 4FF40071 		mov	r1, #512
 1113 066c 0AE0     		b	.L35
 1114              	.L167:
 1115 066e 4FF40021 		mov	r1, #524288
 1116 0672 07E0     		b	.L35
 1117              	.L168:
 1118 0674 4FF40021 		mov	r1, #524288
 1119 0678 04E0     		b	.L35
 1120              	.L169:
 1121 067a 4FF40021 		mov	r1, #524288
 1122 067e 01E0     		b	.L35
 1123              	.L170:
 1124 0680 4FF00071 		mov	r1, #33554432
 1125              	.L35:
 300:../Drivers/STM32F4xx_HAL_Driver/Src/stm32f4xx_hal_dma.c ****   __HAL_DMA_CLEAR_FLAG(hdma, __HAL_DMA_GET_FE_FLAG_INDEX(hdma));
 1126              		.loc 1 300 0 discriminator 50
 1127 0684 814A     		ldr	r2, .L307+8
 1128 0686 D160     		str	r1, [r2, #12]
 1129 0688 0CE1     		b	.L36
 1130              	.L34:
 300:../Drivers/STM32F4xx_HAL_Driver/Src/stm32f4xx_hal_dma.c ****   __HAL_DMA_CLEAR_FLAG(hdma, __HAL_DMA_GET_FE_FLAG_INDEX(hdma));
 1131              		.loc 1 300 0 discriminator 2
 1132 068a 8149     		ldr	r1, .L307+12
 1133 068c 8A42     		cmp	r2, r1
 1134 068e 53D9     		bls	.L37
 300:../Drivers/STM32F4xx_HAL_Driver/Src/stm32f4xx_hal_dma.c ****   __HAL_DMA_CLEAR_FLAG(hdma, __HAL_DMA_GET_FE_FLAG_INDEX(hdma));
 1135              		.loc 1 300 0 discriminator 51
 1136 0690 A839     		subs	r1, r1, #168
 1137 0692 8A42     		cmp	r2, r1
 1138 0694 2ED0     		beq	.L171
 300:../Drivers/STM32F4xx_HAL_Driver/Src/stm32f4xx_hal_dma.c ****   __HAL_DMA_CLEAR_FLAG(hdma, __HAL_DMA_GET_FE_FLAG_INDEX(hdma));
 1139              		.loc 1 300 0 discriminator 53
 1140 0696 01F58061 		add	r1, r1, #1024
 1141 069a 8A42     		cmp	r2, r1
 1142 069c 2CD0     		beq	.L172
 300:../Drivers/STM32F4xx_HAL_Driver/Src/stm32f4xx_hal_dma.c ****   __HAL_DMA_CLEAR_FLAG(hdma, __HAL_DMA_GET_FE_FLAG_INDEX(hdma));
 1143              		.loc 1 300 0 discriminator 55
 1144 069e A1F56871 		sub	r1, r1, #928
 1145 06a2 8A42     		cmp	r2, r1
 1146 06a4 2AD0     		beq	.L173
 300:../Drivers/STM32F4xx_HAL_Driver/Src/stm32f4xx_hal_dma.c ****   __HAL_DMA_CLEAR_FLAG(hdma, __HAL_DMA_GET_FE_FLAG_INDEX(hdma));
 1147              		.loc 1 300 0 discriminator 57
 1148 06a6 01F58061 		add	r1, r1, #1024
 1149 06aa 8A42     		cmp	r2, r1
 1150 06ac 28D0     		beq	.L174
 300:../Drivers/STM32F4xx_HAL_Driver/Src/stm32f4xx_hal_dma.c ****   __HAL_DMA_CLEAR_FLAG(hdma, __HAL_DMA_GET_FE_FLAG_INDEX(hdma));
 1151              		.loc 1 300 0 discriminator 59
 1152 06ae A1F58961 		sub	r1, r1, #1096
 1153 06b2 8A42     		cmp	r2, r1
ARM GAS  /tmp/ccIvKYQX.s 			page 40


 1154 06b4 26D0     		beq	.L175
 300:../Drivers/STM32F4xx_HAL_Driver/Src/stm32f4xx_hal_dma.c ****   __HAL_DMA_CLEAR_FLAG(hdma, __HAL_DMA_GET_FE_FLAG_INDEX(hdma));
 1155              		.loc 1 300 0 discriminator 61
 1156 06b6 01F58061 		add	r1, r1, #1024
 1157 06ba 8A42     		cmp	r2, r1
 1158 06bc 25D0     		beq	.L176
 300:../Drivers/STM32F4xx_HAL_Driver/Src/stm32f4xx_hal_dma.c ****   __HAL_DMA_CLEAR_FLAG(hdma, __HAL_DMA_GET_FE_FLAG_INDEX(hdma));
 1159              		.loc 1 300 0 discriminator 63
 1160 06be A1F56871 		sub	r1, r1, #928
 1161 06c2 8A42     		cmp	r2, r1
 1162 06c4 24D0     		beq	.L177
 300:../Drivers/STM32F4xx_HAL_Driver/Src/stm32f4xx_hal_dma.c ****   __HAL_DMA_CLEAR_FLAG(hdma, __HAL_DMA_GET_FE_FLAG_INDEX(hdma));
 1163              		.loc 1 300 0 discriminator 65
 1164 06c6 01F58061 		add	r1, r1, #1024
 1165 06ca 8A42     		cmp	r2, r1
 1166 06cc 23D0     		beq	.L178
 300:../Drivers/STM32F4xx_HAL_Driver/Src/stm32f4xx_hal_dma.c ****   __HAL_DMA_CLEAR_FLAG(hdma, __HAL_DMA_GET_FE_FLAG_INDEX(hdma));
 1167              		.loc 1 300 0 discriminator 67
 1168 06ce A1F58961 		sub	r1, r1, #1096
 1169 06d2 8A42     		cmp	r2, r1
 1170 06d4 22D0     		beq	.L179
 300:../Drivers/STM32F4xx_HAL_Driver/Src/stm32f4xx_hal_dma.c ****   __HAL_DMA_CLEAR_FLAG(hdma, __HAL_DMA_GET_FE_FLAG_INDEX(hdma));
 1171              		.loc 1 300 0 discriminator 69
 1172 06d6 01F58061 		add	r1, r1, #1024
 1173 06da 8A42     		cmp	r2, r1
 1174 06dc 21D0     		beq	.L180
 300:../Drivers/STM32F4xx_HAL_Driver/Src/stm32f4xx_hal_dma.c ****   __HAL_DMA_CLEAR_FLAG(hdma, __HAL_DMA_GET_FE_FLAG_INDEX(hdma));
 1175              		.loc 1 300 0 discriminator 71
 1176 06de A1F56871 		sub	r1, r1, #928
 1177 06e2 8A42     		cmp	r2, r1
 1178 06e4 20D0     		beq	.L181
 300:../Drivers/STM32F4xx_HAL_Driver/Src/stm32f4xx_hal_dma.c ****   __HAL_DMA_CLEAR_FLAG(hdma, __HAL_DMA_GET_FE_FLAG_INDEX(hdma));
 1179              		.loc 1 300 0 discriminator 73
 1180 06e6 01F58061 		add	r1, r1, #1024
 1181 06ea 8A42     		cmp	r2, r1
 1182 06ec 1FD1     		bne	.L182
 300:../Drivers/STM32F4xx_HAL_Driver/Src/stm32f4xx_hal_dma.c ****   __HAL_DMA_CLEAR_FLAG(hdma, __HAL_DMA_GET_FE_FLAG_INDEX(hdma));
 1183              		.loc 1 300 0
 1184 06ee 4FF40021 		mov	r1, #524288
 1185 06f2 1EE0     		b	.L38
 1186              	.L171:
 1187 06f4 0821     		movs	r1, #8
 1188 06f6 1CE0     		b	.L38
 1189              	.L172:
 1190 06f8 0821     		movs	r1, #8
 1191 06fa 1AE0     		b	.L38
 1192              	.L173:
 1193 06fc 0821     		movs	r1, #8
 1194 06fe 18E0     		b	.L38
 1195              	.L174:
 1196 0700 0821     		movs	r1, #8
 1197 0702 16E0     		b	.L38
 1198              	.L175:
 1199 0704 4FF40071 		mov	r1, #512
 1200 0708 13E0     		b	.L38
 1201              	.L176:
 1202 070a 4FF40071 		mov	r1, #512
ARM GAS  /tmp/ccIvKYQX.s 			page 41


 1203 070e 10E0     		b	.L38
 1204              	.L177:
 1205 0710 4FF40071 		mov	r1, #512
 1206 0714 0DE0     		b	.L38
 1207              	.L178:
 1208 0716 4FF40071 		mov	r1, #512
 1209 071a 0AE0     		b	.L38
 1210              	.L179:
 1211 071c 4FF40021 		mov	r1, #524288
 1212 0720 07E0     		b	.L38
 1213              	.L180:
 1214 0722 4FF40021 		mov	r1, #524288
 1215 0726 04E0     		b	.L38
 1216              	.L181:
 1217 0728 4FF40021 		mov	r1, #524288
 1218 072c 01E0     		b	.L38
 1219              	.L182:
 1220 072e 4FF00071 		mov	r1, #33554432
 1221              	.L38:
 300:../Drivers/STM32F4xx_HAL_Driver/Src/stm32f4xx_hal_dma.c ****   __HAL_DMA_CLEAR_FLAG(hdma, __HAL_DMA_GET_FE_FLAG_INDEX(hdma));
 1222              		.loc 1 300 0 discriminator 100
 1223 0732 564A     		ldr	r2, .L307+8
 1224 0734 9160     		str	r1, [r2, #8]
 1225 0736 B5E0     		b	.L36
 1226              	.L37:
 300:../Drivers/STM32F4xx_HAL_Driver/Src/stm32f4xx_hal_dma.c ****   __HAL_DMA_CLEAR_FLAG(hdma, __HAL_DMA_GET_FE_FLAG_INDEX(hdma));
 1227              		.loc 1 300 0 discriminator 52
 1228 0738 5649     		ldr	r1, .L307+16
 1229 073a 8A42     		cmp	r2, r1
 1230 073c 53D9     		bls	.L40
 300:../Drivers/STM32F4xx_HAL_Driver/Src/stm32f4xx_hal_dma.c ****   __HAL_DMA_CLEAR_FLAG(hdma, __HAL_DMA_GET_FE_FLAG_INDEX(hdma));
 1231              		.loc 1 300 0 discriminator 102
 1232 073e 4839     		subs	r1, r1, #72
 1233 0740 8A42     		cmp	r2, r1
 1234 0742 2ED0     		beq	.L183
 300:../Drivers/STM32F4xx_HAL_Driver/Src/stm32f4xx_hal_dma.c ****   __HAL_DMA_CLEAR_FLAG(hdma, __HAL_DMA_GET_FE_FLAG_INDEX(hdma));
 1235              		.loc 1 300 0 discriminator 104
 1236 0744 01F58061 		add	r1, r1, #1024
 1237 0748 8A42     		cmp	r2, r1
 1238 074a 2CD0     		beq	.L184
 300:../Drivers/STM32F4xx_HAL_Driver/Src/stm32f4xx_hal_dma.c ****   __HAL_DMA_CLEAR_FLAG(hdma, __HAL_DMA_GET_FE_FLAG_INDEX(hdma));
 1239              		.loc 1 300 0 discriminator 106
 1240 074c A1F56871 		sub	r1, r1, #928
 1241 0750 8A42     		cmp	r2, r1
 1242 0752 2AD0     		beq	.L185
 300:../Drivers/STM32F4xx_HAL_Driver/Src/stm32f4xx_hal_dma.c ****   __HAL_DMA_CLEAR_FLAG(hdma, __HAL_DMA_GET_FE_FLAG_INDEX(hdma));
 1243              		.loc 1 300 0 discriminator 108
 1244 0754 01F58061 		add	r1, r1, #1024
 1245 0758 8A42     		cmp	r2, r1
 1246 075a 28D0     		beq	.L186
 300:../Drivers/STM32F4xx_HAL_Driver/Src/stm32f4xx_hal_dma.c ****   __HAL_DMA_CLEAR_FLAG(hdma, __HAL_DMA_GET_FE_FLAG_INDEX(hdma));
 1247              		.loc 1 300 0 discriminator 110
 1248 075c A1F58961 		sub	r1, r1, #1096
 1249 0760 8A42     		cmp	r2, r1
 1250 0762 26D0     		beq	.L187
 300:../Drivers/STM32F4xx_HAL_Driver/Src/stm32f4xx_hal_dma.c ****   __HAL_DMA_CLEAR_FLAG(hdma, __HAL_DMA_GET_FE_FLAG_INDEX(hdma));
 1251              		.loc 1 300 0 discriminator 112
ARM GAS  /tmp/ccIvKYQX.s 			page 42


 1252 0764 01F58061 		add	r1, r1, #1024
 1253 0768 8A42     		cmp	r2, r1
 1254 076a 25D0     		beq	.L188
 300:../Drivers/STM32F4xx_HAL_Driver/Src/stm32f4xx_hal_dma.c ****   __HAL_DMA_CLEAR_FLAG(hdma, __HAL_DMA_GET_FE_FLAG_INDEX(hdma));
 1255              		.loc 1 300 0 discriminator 114
 1256 076c A1F56871 		sub	r1, r1, #928
 1257 0770 8A42     		cmp	r2, r1
 1258 0772 24D0     		beq	.L189
 300:../Drivers/STM32F4xx_HAL_Driver/Src/stm32f4xx_hal_dma.c ****   __HAL_DMA_CLEAR_FLAG(hdma, __HAL_DMA_GET_FE_FLAG_INDEX(hdma));
 1259              		.loc 1 300 0 discriminator 116
 1260 0774 01F58061 		add	r1, r1, #1024
 1261 0778 8A42     		cmp	r2, r1
 1262 077a 23D0     		beq	.L190
 300:../Drivers/STM32F4xx_HAL_Driver/Src/stm32f4xx_hal_dma.c ****   __HAL_DMA_CLEAR_FLAG(hdma, __HAL_DMA_GET_FE_FLAG_INDEX(hdma));
 1263              		.loc 1 300 0 discriminator 118
 1264 077c A1F58961 		sub	r1, r1, #1096
 1265 0780 8A42     		cmp	r2, r1
 1266 0782 22D0     		beq	.L191
 300:../Drivers/STM32F4xx_HAL_Driver/Src/stm32f4xx_hal_dma.c ****   __HAL_DMA_CLEAR_FLAG(hdma, __HAL_DMA_GET_FE_FLAG_INDEX(hdma));
 1267              		.loc 1 300 0 discriminator 120
 1268 0784 01F58061 		add	r1, r1, #1024
 1269 0788 8A42     		cmp	r2, r1
 1270 078a 21D0     		beq	.L192
 300:../Drivers/STM32F4xx_HAL_Driver/Src/stm32f4xx_hal_dma.c ****   __HAL_DMA_CLEAR_FLAG(hdma, __HAL_DMA_GET_FE_FLAG_INDEX(hdma));
 1271              		.loc 1 300 0 discriminator 122
 1272 078c A1F56871 		sub	r1, r1, #928
 1273 0790 8A42     		cmp	r2, r1
 1274 0792 20D0     		beq	.L193
 300:../Drivers/STM32F4xx_HAL_Driver/Src/stm32f4xx_hal_dma.c ****   __HAL_DMA_CLEAR_FLAG(hdma, __HAL_DMA_GET_FE_FLAG_INDEX(hdma));
 1275              		.loc 1 300 0 discriminator 124
 1276 0794 01F58061 		add	r1, r1, #1024
 1277 0798 8A42     		cmp	r2, r1
 1278 079a 1FD1     		bne	.L194
 300:../Drivers/STM32F4xx_HAL_Driver/Src/stm32f4xx_hal_dma.c ****   __HAL_DMA_CLEAR_FLAG(hdma, __HAL_DMA_GET_FE_FLAG_INDEX(hdma));
 1279              		.loc 1 300 0
 1280 079c 4FF40021 		mov	r1, #524288
 1281 07a0 1EE0     		b	.L41
 1282              	.L183:
 1283 07a2 0821     		movs	r1, #8
 1284 07a4 1CE0     		b	.L41
 1285              	.L184:
 1286 07a6 0821     		movs	r1, #8
 1287 07a8 1AE0     		b	.L41
 1288              	.L185:
 1289 07aa 0821     		movs	r1, #8
 1290 07ac 18E0     		b	.L41
 1291              	.L186:
 1292 07ae 0821     		movs	r1, #8
 1293 07b0 16E0     		b	.L41
 1294              	.L187:
 1295 07b2 4FF40071 		mov	r1, #512
 1296 07b6 13E0     		b	.L41
 1297              	.L188:
 1298 07b8 4FF40071 		mov	r1, #512
 1299 07bc 10E0     		b	.L41
 1300              	.L189:
 1301 07be 4FF40071 		mov	r1, #512
ARM GAS  /tmp/ccIvKYQX.s 			page 43


 1302 07c2 0DE0     		b	.L41
 1303              	.L190:
 1304 07c4 4FF40071 		mov	r1, #512
 1305 07c8 0AE0     		b	.L41
 1306              	.L191:
 1307 07ca 4FF40021 		mov	r1, #524288
 1308 07ce 07E0     		b	.L41
 1309              	.L192:
 1310 07d0 4FF40021 		mov	r1, #524288
 1311 07d4 04E0     		b	.L41
 1312              	.L193:
 1313 07d6 4FF40021 		mov	r1, #524288
 1314 07da 01E0     		b	.L41
 1315              	.L194:
 1316 07dc 4FF00071 		mov	r1, #33554432
 1317              	.L41:
 300:../Drivers/STM32F4xx_HAL_Driver/Src/stm32f4xx_hal_dma.c ****   __HAL_DMA_CLEAR_FLAG(hdma, __HAL_DMA_GET_FE_FLAG_INDEX(hdma));
 1318              		.loc 1 300 0 discriminator 151
 1319 07e0 284A     		ldr	r2, .L307
 1320 07e2 D160     		str	r1, [r2, #12]
 1321 07e4 5EE0     		b	.L36
 1322              	.L40:
 300:../Drivers/STM32F4xx_HAL_Driver/Src/stm32f4xx_hal_dma.c ****   __HAL_DMA_CLEAR_FLAG(hdma, __HAL_DMA_GET_FE_FLAG_INDEX(hdma));
 1323              		.loc 1 300 0 discriminator 103
 1324 07e6 2C49     		ldr	r1, .L307+20
 1325 07e8 8A42     		cmp	r2, r1
 1326 07ea 2ED0     		beq	.L195
 300:../Drivers/STM32F4xx_HAL_Driver/Src/stm32f4xx_hal_dma.c ****   __HAL_DMA_CLEAR_FLAG(hdma, __HAL_DMA_GET_FE_FLAG_INDEX(hdma));
 1327              		.loc 1 300 0 discriminator 153
 1328 07ec 01F58061 		add	r1, r1, #1024
 1329 07f0 8A42     		cmp	r2, r1
 1330 07f2 2CD0     		beq	.L196
 300:../Drivers/STM32F4xx_HAL_Driver/Src/stm32f4xx_hal_dma.c ****   __HAL_DMA_CLEAR_FLAG(hdma, __HAL_DMA_GET_FE_FLAG_INDEX(hdma));
 1331              		.loc 1 300 0 discriminator 155
 1332 07f4 A1F56871 		sub	r1, r1, #928
 1333 07f8 8A42     		cmp	r2, r1
 1334 07fa 2AD0     		beq	.L197
 300:../Drivers/STM32F4xx_HAL_Driver/Src/stm32f4xx_hal_dma.c ****   __HAL_DMA_CLEAR_FLAG(hdma, __HAL_DMA_GET_FE_FLAG_INDEX(hdma));
 1335              		.loc 1 300 0 discriminator 157
 1336 07fc 01F58061 		add	r1, r1, #1024
 1337 0800 8A42     		cmp	r2, r1
 1338 0802 28D0     		beq	.L198
 300:../Drivers/STM32F4xx_HAL_Driver/Src/stm32f4xx_hal_dma.c ****   __HAL_DMA_CLEAR_FLAG(hdma, __HAL_DMA_GET_FE_FLAG_INDEX(hdma));
 1339              		.loc 1 300 0 discriminator 159
 1340 0804 A1F58961 		sub	r1, r1, #1096
 1341 0808 8A42     		cmp	r2, r1
 1342 080a 26D0     		beq	.L199
 300:../Drivers/STM32F4xx_HAL_Driver/Src/stm32f4xx_hal_dma.c ****   __HAL_DMA_CLEAR_FLAG(hdma, __HAL_DMA_GET_FE_FLAG_INDEX(hdma));
 1343              		.loc 1 300 0 discriminator 161
 1344 080c 01F58061 		add	r1, r1, #1024
 1345 0810 8A42     		cmp	r2, r1
 1346 0812 25D0     		beq	.L200
 300:../Drivers/STM32F4xx_HAL_Driver/Src/stm32f4xx_hal_dma.c ****   __HAL_DMA_CLEAR_FLAG(hdma, __HAL_DMA_GET_FE_FLAG_INDEX(hdma));
 1347              		.loc 1 300 0 discriminator 163
 1348 0814 A1F56871 		sub	r1, r1, #928
 1349 0818 8A42     		cmp	r2, r1
 1350 081a 24D0     		beq	.L201
ARM GAS  /tmp/ccIvKYQX.s 			page 44


 300:../Drivers/STM32F4xx_HAL_Driver/Src/stm32f4xx_hal_dma.c ****   __HAL_DMA_CLEAR_FLAG(hdma, __HAL_DMA_GET_FE_FLAG_INDEX(hdma));
 1351              		.loc 1 300 0 discriminator 165
 1352 081c 01F58061 		add	r1, r1, #1024
 1353 0820 8A42     		cmp	r2, r1
 1354 0822 23D0     		beq	.L202
 300:../Drivers/STM32F4xx_HAL_Driver/Src/stm32f4xx_hal_dma.c ****   __HAL_DMA_CLEAR_FLAG(hdma, __HAL_DMA_GET_FE_FLAG_INDEX(hdma));
 1355              		.loc 1 300 0 discriminator 167
 1356 0824 A1F58961 		sub	r1, r1, #1096
 1357 0828 8A42     		cmp	r2, r1
 1358 082a 22D0     		beq	.L203
 300:../Drivers/STM32F4xx_HAL_Driver/Src/stm32f4xx_hal_dma.c ****   __HAL_DMA_CLEAR_FLAG(hdma, __HAL_DMA_GET_FE_FLAG_INDEX(hdma));
 1359              		.loc 1 300 0 discriminator 169
 1360 082c 01F58061 		add	r1, r1, #1024
 1361 0830 8A42     		cmp	r2, r1
 1362 0832 21D0     		beq	.L204
 300:../Drivers/STM32F4xx_HAL_Driver/Src/stm32f4xx_hal_dma.c ****   __HAL_DMA_CLEAR_FLAG(hdma, __HAL_DMA_GET_FE_FLAG_INDEX(hdma));
 1363              		.loc 1 300 0 discriminator 171
 1364 0834 A1F56871 		sub	r1, r1, #928
 1365 0838 8A42     		cmp	r2, r1
 1366 083a 20D0     		beq	.L205
 300:../Drivers/STM32F4xx_HAL_Driver/Src/stm32f4xx_hal_dma.c ****   __HAL_DMA_CLEAR_FLAG(hdma, __HAL_DMA_GET_FE_FLAG_INDEX(hdma));
 1367              		.loc 1 300 0 discriminator 173
 1368 083c 01F58061 		add	r1, r1, #1024
 1369 0840 8A42     		cmp	r2, r1
 1370 0842 2BD1     		bne	.L206
 300:../Drivers/STM32F4xx_HAL_Driver/Src/stm32f4xx_hal_dma.c ****   __HAL_DMA_CLEAR_FLAG(hdma, __HAL_DMA_GET_FE_FLAG_INDEX(hdma));
 1371              		.loc 1 300 0
 1372 0844 4FF40021 		mov	r1, #524288
 1373 0848 2AE0     		b	.L42
 1374              	.L195:
 1375 084a 0821     		movs	r1, #8
 1376 084c 28E0     		b	.L42
 1377              	.L196:
 1378 084e 0821     		movs	r1, #8
 1379 0850 26E0     		b	.L42
 1380              	.L197:
 1381 0852 0821     		movs	r1, #8
 1382 0854 24E0     		b	.L42
 1383              	.L198:
 1384 0856 0821     		movs	r1, #8
 1385 0858 22E0     		b	.L42
 1386              	.L199:
 1387 085a 4FF40071 		mov	r1, #512
 1388 085e 1FE0     		b	.L42
 1389              	.L200:
 1390 0860 4FF40071 		mov	r1, #512
 1391 0864 1CE0     		b	.L42
 1392              	.L201:
 1393 0866 4FF40071 		mov	r1, #512
 1394 086a 19E0     		b	.L42
 1395              	.L202:
 1396 086c 4FF40071 		mov	r1, #512
 1397 0870 16E0     		b	.L42
 1398              	.L203:
 1399 0872 4FF40021 		mov	r1, #524288
 1400 0876 13E0     		b	.L42
 1401              	.L204:
ARM GAS  /tmp/ccIvKYQX.s 			page 45


 1402 0878 4FF40021 		mov	r1, #524288
 1403 087c 10E0     		b	.L42
 1404              	.L205:
 1405 087e 4FF40021 		mov	r1, #524288
 1406 0882 0DE0     		b	.L42
 1407              	.L308:
 1408              		.align	2
 1409              	.L307:
 1410 0884 00600240 		.word	1073897472
 1411 0888 58640240 		.word	1073898584
 1412 088c 00640240 		.word	1073898496
 1413 0890 B8600240 		.word	1073897656
 1414 0894 58600240 		.word	1073897560
 1415 0898 10600240 		.word	1073897488
 1416              	.L206:
 1417 089c 4FF00071 		mov	r1, #33554432
 1418              	.L42:
 300:../Drivers/STM32F4xx_HAL_Driver/Src/stm32f4xx_hal_dma.c ****   __HAL_DMA_CLEAR_FLAG(hdma, __HAL_DMA_GET_FE_FLAG_INDEX(hdma));
 1419              		.loc 1 300 0 discriminator 200
 1420 08a0 A34A     		ldr	r2, .L309
 1421 08a2 9160     		str	r1, [r2, #8]
 1422              	.L36:
 301:../Drivers/STM32F4xx_HAL_Driver/Src/stm32f4xx_hal_dma.c ****   __HAL_DMA_CLEAR_FLAG(hdma, __HAL_DMA_GET_HT_FLAG_INDEX(hdma));
 1423              		.loc 1 301 0 is_stmt 1
 1424 08a4 1A68     		ldr	r2, [r3]
 1425 08a6 A349     		ldr	r1, .L309+4
 1426 08a8 8A42     		cmp	r2, r1
 1427 08aa 50D9     		bls	.L43
 301:../Drivers/STM32F4xx_HAL_Driver/Src/stm32f4xx_hal_dma.c ****   __HAL_DMA_CLEAR_FLAG(hdma, __HAL_DMA_GET_HT_FLAG_INDEX(hdma));
 1428              		.loc 1 301 0 is_stmt 0 discriminator 1
 1429 08ac A1F58961 		sub	r1, r1, #1096
 1430 08b0 8A42     		cmp	r2, r1
 1431 08b2 2ED0     		beq	.L207
 301:../Drivers/STM32F4xx_HAL_Driver/Src/stm32f4xx_hal_dma.c ****   __HAL_DMA_CLEAR_FLAG(hdma, __HAL_DMA_GET_HT_FLAG_INDEX(hdma));
 1432              		.loc 1 301 0 discriminator 3
 1433 08b4 01F58061 		add	r1, r1, #1024
 1434 08b8 8A42     		cmp	r2, r1
 1435 08ba 2CD0     		beq	.L208
 301:../Drivers/STM32F4xx_HAL_Driver/Src/stm32f4xx_hal_dma.c ****   __HAL_DMA_CLEAR_FLAG(hdma, __HAL_DMA_GET_HT_FLAG_INDEX(hdma));
 1436              		.loc 1 301 0 discriminator 5
 1437 08bc A1F56871 		sub	r1, r1, #928
 1438 08c0 8A42     		cmp	r2, r1
 1439 08c2 2AD0     		beq	.L209
 301:../Drivers/STM32F4xx_HAL_Driver/Src/stm32f4xx_hal_dma.c ****   __HAL_DMA_CLEAR_FLAG(hdma, __HAL_DMA_GET_HT_FLAG_INDEX(hdma));
 1440              		.loc 1 301 0 discriminator 7
 1441 08c4 01F58061 		add	r1, r1, #1024
 1442 08c8 8A42     		cmp	r2, r1
 1443 08ca 28D0     		beq	.L210
 301:../Drivers/STM32F4xx_HAL_Driver/Src/stm32f4xx_hal_dma.c ****   __HAL_DMA_CLEAR_FLAG(hdma, __HAL_DMA_GET_HT_FLAG_INDEX(hdma));
 1444              		.loc 1 301 0 discriminator 9
 1445 08cc A1F58961 		sub	r1, r1, #1096
 1446 08d0 8A42     		cmp	r2, r1
 1447 08d2 26D0     		beq	.L211
 301:../Drivers/STM32F4xx_HAL_Driver/Src/stm32f4xx_hal_dma.c ****   __HAL_DMA_CLEAR_FLAG(hdma, __HAL_DMA_GET_HT_FLAG_INDEX(hdma));
 1448              		.loc 1 301 0 discriminator 11
 1449 08d4 01F58061 		add	r1, r1, #1024
 1450 08d8 8A42     		cmp	r2, r1
ARM GAS  /tmp/ccIvKYQX.s 			page 46


 1451 08da 24D0     		beq	.L212
 301:../Drivers/STM32F4xx_HAL_Driver/Src/stm32f4xx_hal_dma.c ****   __HAL_DMA_CLEAR_FLAG(hdma, __HAL_DMA_GET_HT_FLAG_INDEX(hdma));
 1452              		.loc 1 301 0 discriminator 13
 1453 08dc A1F56871 		sub	r1, r1, #928
 1454 08e0 8A42     		cmp	r2, r1
 1455 08e2 22D0     		beq	.L213
 301:../Drivers/STM32F4xx_HAL_Driver/Src/stm32f4xx_hal_dma.c ****   __HAL_DMA_CLEAR_FLAG(hdma, __HAL_DMA_GET_HT_FLAG_INDEX(hdma));
 1456              		.loc 1 301 0 discriminator 15
 1457 08e4 01F58061 		add	r1, r1, #1024
 1458 08e8 8A42     		cmp	r2, r1
 1459 08ea 20D0     		beq	.L214
 301:../Drivers/STM32F4xx_HAL_Driver/Src/stm32f4xx_hal_dma.c ****   __HAL_DMA_CLEAR_FLAG(hdma, __HAL_DMA_GET_HT_FLAG_INDEX(hdma));
 1460              		.loc 1 301 0 discriminator 17
 1461 08ec A1F58961 		sub	r1, r1, #1096
 1462 08f0 8A42     		cmp	r2, r1
 1463 08f2 1ED0     		beq	.L215
 301:../Drivers/STM32F4xx_HAL_Driver/Src/stm32f4xx_hal_dma.c ****   __HAL_DMA_CLEAR_FLAG(hdma, __HAL_DMA_GET_HT_FLAG_INDEX(hdma));
 1464              		.loc 1 301 0 discriminator 19
 1465 08f4 01F58061 		add	r1, r1, #1024
 1466 08f8 8A42     		cmp	r2, r1
 1467 08fa 1DD0     		beq	.L216
 301:../Drivers/STM32F4xx_HAL_Driver/Src/stm32f4xx_hal_dma.c ****   __HAL_DMA_CLEAR_FLAG(hdma, __HAL_DMA_GET_HT_FLAG_INDEX(hdma));
 1468              		.loc 1 301 0 discriminator 21
 1469 08fc A1F56871 		sub	r1, r1, #928
 1470 0900 8A42     		cmp	r2, r1
 1471 0902 1CD0     		beq	.L217
 301:../Drivers/STM32F4xx_HAL_Driver/Src/stm32f4xx_hal_dma.c ****   __HAL_DMA_CLEAR_FLAG(hdma, __HAL_DMA_GET_HT_FLAG_INDEX(hdma));
 1472              		.loc 1 301 0 discriminator 23
 1473 0904 01F58061 		add	r1, r1, #1024
 1474 0908 8A42     		cmp	r2, r1
 1475 090a 1BD1     		bne	.L218
 301:../Drivers/STM32F4xx_HAL_Driver/Src/stm32f4xx_hal_dma.c ****   __HAL_DMA_CLEAR_FLAG(hdma, __HAL_DMA_GET_HT_FLAG_INDEX(hdma));
 1476              		.loc 1 301 0
 1477 090c 4FF48031 		mov	r1, #65536
 1478 0910 1AE0     		b	.L44
 1479              	.L207:
 1480 0912 8949     		ldr	r1, .L309+8
 1481 0914 18E0     		b	.L44
 1482              	.L208:
 1483 0916 8849     		ldr	r1, .L309+8
 1484 0918 16E0     		b	.L44
 1485              	.L209:
 1486 091a 8749     		ldr	r1, .L309+8
 1487 091c 14E0     		b	.L44
 1488              	.L210:
 1489 091e 8649     		ldr	r1, .L309+8
 1490 0920 12E0     		b	.L44
 1491              	.L211:
 1492 0922 4021     		movs	r1, #64
 1493 0924 10E0     		b	.L44
 1494              	.L212:
 1495 0926 4021     		movs	r1, #64
 1496 0928 0EE0     		b	.L44
 1497              	.L213:
 1498 092a 4021     		movs	r1, #64
 1499 092c 0CE0     		b	.L44
 1500              	.L214:
ARM GAS  /tmp/ccIvKYQX.s 			page 47


 1501 092e 4021     		movs	r1, #64
 1502 0930 0AE0     		b	.L44
 1503              	.L215:
 1504 0932 4FF48031 		mov	r1, #65536
 1505 0936 07E0     		b	.L44
 1506              	.L216:
 1507 0938 4FF48031 		mov	r1, #65536
 1508 093c 04E0     		b	.L44
 1509              	.L217:
 1510 093e 4FF48031 		mov	r1, #65536
 1511 0942 01E0     		b	.L44
 1512              	.L218:
 1513 0944 4FF48001 		mov	r1, #4194304
 1514              	.L44:
 301:../Drivers/STM32F4xx_HAL_Driver/Src/stm32f4xx_hal_dma.c ****   __HAL_DMA_CLEAR_FLAG(hdma, __HAL_DMA_GET_HT_FLAG_INDEX(hdma));
 1515              		.loc 1 301 0 discriminator 50
 1516 0948 7C4A     		ldr	r2, .L309+12
 1517 094a D160     		str	r1, [r2, #12]
 1518 094c 02E1     		b	.L45
 1519              	.L43:
 301:../Drivers/STM32F4xx_HAL_Driver/Src/stm32f4xx_hal_dma.c ****   __HAL_DMA_CLEAR_FLAG(hdma, __HAL_DMA_GET_HT_FLAG_INDEX(hdma));
 1520              		.loc 1 301 0 discriminator 2
 1521 094e 7C49     		ldr	r1, .L309+16
 1522 0950 8A42     		cmp	r2, r1
 1523 0952 4FD9     		bls	.L46
 301:../Drivers/STM32F4xx_HAL_Driver/Src/stm32f4xx_hal_dma.c ****   __HAL_DMA_CLEAR_FLAG(hdma, __HAL_DMA_GET_HT_FLAG_INDEX(hdma));
 1524              		.loc 1 301 0 discriminator 51
 1525 0954 A839     		subs	r1, r1, #168
 1526 0956 8A42     		cmp	r2, r1
 1527 0958 2ED0     		beq	.L219
 301:../Drivers/STM32F4xx_HAL_Driver/Src/stm32f4xx_hal_dma.c ****   __HAL_DMA_CLEAR_FLAG(hdma, __HAL_DMA_GET_HT_FLAG_INDEX(hdma));
 1528              		.loc 1 301 0 discriminator 53
 1529 095a 01F58061 		add	r1, r1, #1024
 1530 095e 8A42     		cmp	r2, r1
 1531 0960 2CD0     		beq	.L220
 301:../Drivers/STM32F4xx_HAL_Driver/Src/stm32f4xx_hal_dma.c ****   __HAL_DMA_CLEAR_FLAG(hdma, __HAL_DMA_GET_HT_FLAG_INDEX(hdma));
 1532              		.loc 1 301 0 discriminator 55
 1533 0962 A1F56871 		sub	r1, r1, #928
 1534 0966 8A42     		cmp	r2, r1
 1535 0968 2AD0     		beq	.L221
 301:../Drivers/STM32F4xx_HAL_Driver/Src/stm32f4xx_hal_dma.c ****   __HAL_DMA_CLEAR_FLAG(hdma, __HAL_DMA_GET_HT_FLAG_INDEX(hdma));
 1536              		.loc 1 301 0 discriminator 57
 1537 096a 01F58061 		add	r1, r1, #1024
 1538 096e 8A42     		cmp	r2, r1
 1539 0970 28D0     		beq	.L222
 301:../Drivers/STM32F4xx_HAL_Driver/Src/stm32f4xx_hal_dma.c ****   __HAL_DMA_CLEAR_FLAG(hdma, __HAL_DMA_GET_HT_FLAG_INDEX(hdma));
 1540              		.loc 1 301 0 discriminator 59
 1541 0972 A1F58961 		sub	r1, r1, #1096
 1542 0976 8A42     		cmp	r2, r1
 1543 0978 26D0     		beq	.L223
 301:../Drivers/STM32F4xx_HAL_Driver/Src/stm32f4xx_hal_dma.c ****   __HAL_DMA_CLEAR_FLAG(hdma, __HAL_DMA_GET_HT_FLAG_INDEX(hdma));
 1544              		.loc 1 301 0 discriminator 61
 1545 097a 01F58061 		add	r1, r1, #1024
 1546 097e 8A42     		cmp	r2, r1
 1547 0980 24D0     		beq	.L224
 301:../Drivers/STM32F4xx_HAL_Driver/Src/stm32f4xx_hal_dma.c ****   __HAL_DMA_CLEAR_FLAG(hdma, __HAL_DMA_GET_HT_FLAG_INDEX(hdma));
 1548              		.loc 1 301 0 discriminator 63
ARM GAS  /tmp/ccIvKYQX.s 			page 48


 1549 0982 A1F56871 		sub	r1, r1, #928
 1550 0986 8A42     		cmp	r2, r1
 1551 0988 22D0     		beq	.L225
 301:../Drivers/STM32F4xx_HAL_Driver/Src/stm32f4xx_hal_dma.c ****   __HAL_DMA_CLEAR_FLAG(hdma, __HAL_DMA_GET_HT_FLAG_INDEX(hdma));
 1552              		.loc 1 301 0 discriminator 65
 1553 098a 01F58061 		add	r1, r1, #1024
 1554 098e 8A42     		cmp	r2, r1
 1555 0990 20D0     		beq	.L226
 301:../Drivers/STM32F4xx_HAL_Driver/Src/stm32f4xx_hal_dma.c ****   __HAL_DMA_CLEAR_FLAG(hdma, __HAL_DMA_GET_HT_FLAG_INDEX(hdma));
 1556              		.loc 1 301 0 discriminator 67
 1557 0992 A1F58961 		sub	r1, r1, #1096
 1558 0996 8A42     		cmp	r2, r1
 1559 0998 1ED0     		beq	.L227
 301:../Drivers/STM32F4xx_HAL_Driver/Src/stm32f4xx_hal_dma.c ****   __HAL_DMA_CLEAR_FLAG(hdma, __HAL_DMA_GET_HT_FLAG_INDEX(hdma));
 1560              		.loc 1 301 0 discriminator 69
 1561 099a 01F58061 		add	r1, r1, #1024
 1562 099e 8A42     		cmp	r2, r1
 1563 09a0 1DD0     		beq	.L228
 301:../Drivers/STM32F4xx_HAL_Driver/Src/stm32f4xx_hal_dma.c ****   __HAL_DMA_CLEAR_FLAG(hdma, __HAL_DMA_GET_HT_FLAG_INDEX(hdma));
 1564              		.loc 1 301 0 discriminator 71
 1565 09a2 A1F56871 		sub	r1, r1, #928
 1566 09a6 8A42     		cmp	r2, r1
 1567 09a8 1CD0     		beq	.L229
 301:../Drivers/STM32F4xx_HAL_Driver/Src/stm32f4xx_hal_dma.c ****   __HAL_DMA_CLEAR_FLAG(hdma, __HAL_DMA_GET_HT_FLAG_INDEX(hdma));
 1568              		.loc 1 301 0 discriminator 73
 1569 09aa 01F58061 		add	r1, r1, #1024
 1570 09ae 8A42     		cmp	r2, r1
 1571 09b0 1BD1     		bne	.L230
 301:../Drivers/STM32F4xx_HAL_Driver/Src/stm32f4xx_hal_dma.c ****   __HAL_DMA_CLEAR_FLAG(hdma, __HAL_DMA_GET_HT_FLAG_INDEX(hdma));
 1572              		.loc 1 301 0
 1573 09b2 4FF48031 		mov	r1, #65536
 1574 09b6 1AE0     		b	.L47
 1575              	.L219:
 1576 09b8 5F49     		ldr	r1, .L309+8
 1577 09ba 18E0     		b	.L47
 1578              	.L220:
 1579 09bc 5E49     		ldr	r1, .L309+8
 1580 09be 16E0     		b	.L47
 1581              	.L221:
 1582 09c0 5D49     		ldr	r1, .L309+8
 1583 09c2 14E0     		b	.L47
 1584              	.L222:
 1585 09c4 5C49     		ldr	r1, .L309+8
 1586 09c6 12E0     		b	.L47
 1587              	.L223:
 1588 09c8 4021     		movs	r1, #64
 1589 09ca 10E0     		b	.L47
 1590              	.L224:
 1591 09cc 4021     		movs	r1, #64
 1592 09ce 0EE0     		b	.L47
 1593              	.L225:
 1594 09d0 4021     		movs	r1, #64
 1595 09d2 0CE0     		b	.L47
 1596              	.L226:
 1597 09d4 4021     		movs	r1, #64
 1598 09d6 0AE0     		b	.L47
 1599              	.L227:
ARM GAS  /tmp/ccIvKYQX.s 			page 49


 1600 09d8 4FF48031 		mov	r1, #65536
 1601 09dc 07E0     		b	.L47
 1602              	.L228:
 1603 09de 4FF48031 		mov	r1, #65536
 1604 09e2 04E0     		b	.L47
 1605              	.L229:
 1606 09e4 4FF48031 		mov	r1, #65536
 1607 09e8 01E0     		b	.L47
 1608              	.L230:
 1609 09ea 4FF48001 		mov	r1, #4194304
 1610              	.L47:
 301:../Drivers/STM32F4xx_HAL_Driver/Src/stm32f4xx_hal_dma.c ****   __HAL_DMA_CLEAR_FLAG(hdma, __HAL_DMA_GET_HT_FLAG_INDEX(hdma));
 1611              		.loc 1 301 0 discriminator 100
 1612 09ee 534A     		ldr	r2, .L309+12
 1613 09f0 9160     		str	r1, [r2, #8]
 1614 09f2 AFE0     		b	.L45
 1615              	.L46:
 301:../Drivers/STM32F4xx_HAL_Driver/Src/stm32f4xx_hal_dma.c ****   __HAL_DMA_CLEAR_FLAG(hdma, __HAL_DMA_GET_HT_FLAG_INDEX(hdma));
 1616              		.loc 1 301 0 discriminator 52
 1617 09f4 5349     		ldr	r1, .L309+20
 1618 09f6 8A42     		cmp	r2, r1
 1619 09f8 4FD9     		bls	.L49
 301:../Drivers/STM32F4xx_HAL_Driver/Src/stm32f4xx_hal_dma.c ****   __HAL_DMA_CLEAR_FLAG(hdma, __HAL_DMA_GET_HT_FLAG_INDEX(hdma));
 1620              		.loc 1 301 0 discriminator 102
 1621 09fa 4839     		subs	r1, r1, #72
 1622 09fc 8A42     		cmp	r2, r1
 1623 09fe 2ED0     		beq	.L231
 301:../Drivers/STM32F4xx_HAL_Driver/Src/stm32f4xx_hal_dma.c ****   __HAL_DMA_CLEAR_FLAG(hdma, __HAL_DMA_GET_HT_FLAG_INDEX(hdma));
 1624              		.loc 1 301 0 discriminator 104
 1625 0a00 01F58061 		add	r1, r1, #1024
 1626 0a04 8A42     		cmp	r2, r1
 1627 0a06 2CD0     		beq	.L232
 301:../Drivers/STM32F4xx_HAL_Driver/Src/stm32f4xx_hal_dma.c ****   __HAL_DMA_CLEAR_FLAG(hdma, __HAL_DMA_GET_HT_FLAG_INDEX(hdma));
 1628              		.loc 1 301 0 discriminator 106
 1629 0a08 A1F56871 		sub	r1, r1, #928
 1630 0a0c 8A42     		cmp	r2, r1
 1631 0a0e 2AD0     		beq	.L233
 301:../Drivers/STM32F4xx_HAL_Driver/Src/stm32f4xx_hal_dma.c ****   __HAL_DMA_CLEAR_FLAG(hdma, __HAL_DMA_GET_HT_FLAG_INDEX(hdma));
 1632              		.loc 1 301 0 discriminator 108
 1633 0a10 01F58061 		add	r1, r1, #1024
 1634 0a14 8A42     		cmp	r2, r1
 1635 0a16 28D0     		beq	.L234
 301:../Drivers/STM32F4xx_HAL_Driver/Src/stm32f4xx_hal_dma.c ****   __HAL_DMA_CLEAR_FLAG(hdma, __HAL_DMA_GET_HT_FLAG_INDEX(hdma));
 1636              		.loc 1 301 0 discriminator 110
 1637 0a18 A1F58961 		sub	r1, r1, #1096
 1638 0a1c 8A42     		cmp	r2, r1
 1639 0a1e 26D0     		beq	.L235
 301:../Drivers/STM32F4xx_HAL_Driver/Src/stm32f4xx_hal_dma.c ****   __HAL_DMA_CLEAR_FLAG(hdma, __HAL_DMA_GET_HT_FLAG_INDEX(hdma));
 1640              		.loc 1 301 0 discriminator 112
 1641 0a20 01F58061 		add	r1, r1, #1024
 1642 0a24 8A42     		cmp	r2, r1
 1643 0a26 24D0     		beq	.L236
 301:../Drivers/STM32F4xx_HAL_Driver/Src/stm32f4xx_hal_dma.c ****   __HAL_DMA_CLEAR_FLAG(hdma, __HAL_DMA_GET_HT_FLAG_INDEX(hdma));
 1644              		.loc 1 301 0 discriminator 114
 1645 0a28 A1F56871 		sub	r1, r1, #928
 1646 0a2c 8A42     		cmp	r2, r1
 1647 0a2e 22D0     		beq	.L237
ARM GAS  /tmp/ccIvKYQX.s 			page 50


 301:../Drivers/STM32F4xx_HAL_Driver/Src/stm32f4xx_hal_dma.c ****   __HAL_DMA_CLEAR_FLAG(hdma, __HAL_DMA_GET_HT_FLAG_INDEX(hdma));
 1648              		.loc 1 301 0 discriminator 116
 1649 0a30 01F58061 		add	r1, r1, #1024
 1650 0a34 8A42     		cmp	r2, r1
 1651 0a36 20D0     		beq	.L238
 301:../Drivers/STM32F4xx_HAL_Driver/Src/stm32f4xx_hal_dma.c ****   __HAL_DMA_CLEAR_FLAG(hdma, __HAL_DMA_GET_HT_FLAG_INDEX(hdma));
 1652              		.loc 1 301 0 discriminator 118
 1653 0a38 A1F58961 		sub	r1, r1, #1096
 1654 0a3c 8A42     		cmp	r2, r1
 1655 0a3e 1ED0     		beq	.L239
 301:../Drivers/STM32F4xx_HAL_Driver/Src/stm32f4xx_hal_dma.c ****   __HAL_DMA_CLEAR_FLAG(hdma, __HAL_DMA_GET_HT_FLAG_INDEX(hdma));
 1656              		.loc 1 301 0 discriminator 120
 1657 0a40 01F58061 		add	r1, r1, #1024
 1658 0a44 8A42     		cmp	r2, r1
 1659 0a46 1DD0     		beq	.L240
 301:../Drivers/STM32F4xx_HAL_Driver/Src/stm32f4xx_hal_dma.c ****   __HAL_DMA_CLEAR_FLAG(hdma, __HAL_DMA_GET_HT_FLAG_INDEX(hdma));
 1660              		.loc 1 301 0 discriminator 122
 1661 0a48 A1F56871 		sub	r1, r1, #928
 1662 0a4c 8A42     		cmp	r2, r1
 1663 0a4e 1CD0     		beq	.L241
 301:../Drivers/STM32F4xx_HAL_Driver/Src/stm32f4xx_hal_dma.c ****   __HAL_DMA_CLEAR_FLAG(hdma, __HAL_DMA_GET_HT_FLAG_INDEX(hdma));
 1664              		.loc 1 301 0 discriminator 124
 1665 0a50 01F58061 		add	r1, r1, #1024
 1666 0a54 8A42     		cmp	r2, r1
 1667 0a56 1BD1     		bne	.L242
 301:../Drivers/STM32F4xx_HAL_Driver/Src/stm32f4xx_hal_dma.c ****   __HAL_DMA_CLEAR_FLAG(hdma, __HAL_DMA_GET_HT_FLAG_INDEX(hdma));
 1668              		.loc 1 301 0
 1669 0a58 4FF48031 		mov	r1, #65536
 1670 0a5c 1AE0     		b	.L50
 1671              	.L231:
 1672 0a5e 3649     		ldr	r1, .L309+8
 1673 0a60 18E0     		b	.L50
 1674              	.L232:
 1675 0a62 3549     		ldr	r1, .L309+8
 1676 0a64 16E0     		b	.L50
 1677              	.L233:
 1678 0a66 3449     		ldr	r1, .L309+8
 1679 0a68 14E0     		b	.L50
 1680              	.L234:
 1681 0a6a 3349     		ldr	r1, .L309+8
 1682 0a6c 12E0     		b	.L50
 1683              	.L235:
 1684 0a6e 4021     		movs	r1, #64
 1685 0a70 10E0     		b	.L50
 1686              	.L236:
 1687 0a72 4021     		movs	r1, #64
 1688 0a74 0EE0     		b	.L50
 1689              	.L237:
 1690 0a76 4021     		movs	r1, #64
 1691 0a78 0CE0     		b	.L50
 1692              	.L238:
 1693 0a7a 4021     		movs	r1, #64
 1694 0a7c 0AE0     		b	.L50
 1695              	.L239:
 1696 0a7e 4FF48031 		mov	r1, #65536
 1697 0a82 07E0     		b	.L50
 1698              	.L240:
ARM GAS  /tmp/ccIvKYQX.s 			page 51


 1699 0a84 4FF48031 		mov	r1, #65536
 1700 0a88 04E0     		b	.L50
 1701              	.L241:
 1702 0a8a 4FF48031 		mov	r1, #65536
 1703 0a8e 01E0     		b	.L50
 1704              	.L242:
 1705 0a90 4FF48001 		mov	r1, #4194304
 1706              	.L50:
 301:../Drivers/STM32F4xx_HAL_Driver/Src/stm32f4xx_hal_dma.c ****   __HAL_DMA_CLEAR_FLAG(hdma, __HAL_DMA_GET_HT_FLAG_INDEX(hdma));
 1707              		.loc 1 301 0 discriminator 151
 1708 0a94 264A     		ldr	r2, .L309
 1709 0a96 D160     		str	r1, [r2, #12]
 1710 0a98 5CE0     		b	.L45
 1711              	.L49:
 301:../Drivers/STM32F4xx_HAL_Driver/Src/stm32f4xx_hal_dma.c ****   __HAL_DMA_CLEAR_FLAG(hdma, __HAL_DMA_GET_HT_FLAG_INDEX(hdma));
 1712              		.loc 1 301 0 discriminator 103
 1713 0a9a 2B49     		ldr	r1, .L309+24
 1714 0a9c 8A42     		cmp	r2, r1
 1715 0a9e 2ED0     		beq	.L243
 301:../Drivers/STM32F4xx_HAL_Driver/Src/stm32f4xx_hal_dma.c ****   __HAL_DMA_CLEAR_FLAG(hdma, __HAL_DMA_GET_HT_FLAG_INDEX(hdma));
 1716              		.loc 1 301 0 discriminator 153
 1717 0aa0 01F58061 		add	r1, r1, #1024
 1718 0aa4 8A42     		cmp	r2, r1
 1719 0aa6 2CD0     		beq	.L244
 301:../Drivers/STM32F4xx_HAL_Driver/Src/stm32f4xx_hal_dma.c ****   __HAL_DMA_CLEAR_FLAG(hdma, __HAL_DMA_GET_HT_FLAG_INDEX(hdma));
 1720              		.loc 1 301 0 discriminator 155
 1721 0aa8 A1F56871 		sub	r1, r1, #928
 1722 0aac 8A42     		cmp	r2, r1
 1723 0aae 2AD0     		beq	.L245
 301:../Drivers/STM32F4xx_HAL_Driver/Src/stm32f4xx_hal_dma.c ****   __HAL_DMA_CLEAR_FLAG(hdma, __HAL_DMA_GET_HT_FLAG_INDEX(hdma));
 1724              		.loc 1 301 0 discriminator 157
 1725 0ab0 01F58061 		add	r1, r1, #1024
 1726 0ab4 8A42     		cmp	r2, r1
 1727 0ab6 28D0     		beq	.L246
 301:../Drivers/STM32F4xx_HAL_Driver/Src/stm32f4xx_hal_dma.c ****   __HAL_DMA_CLEAR_FLAG(hdma, __HAL_DMA_GET_HT_FLAG_INDEX(hdma));
 1728              		.loc 1 301 0 discriminator 159
 1729 0ab8 A1F58961 		sub	r1, r1, #1096
 1730 0abc 8A42     		cmp	r2, r1
 1731 0abe 26D0     		beq	.L247
 301:../Drivers/STM32F4xx_HAL_Driver/Src/stm32f4xx_hal_dma.c ****   __HAL_DMA_CLEAR_FLAG(hdma, __HAL_DMA_GET_HT_FLAG_INDEX(hdma));
 1732              		.loc 1 301 0 discriminator 161
 1733 0ac0 01F58061 		add	r1, r1, #1024
 1734 0ac4 8A42     		cmp	r2, r1
 1735 0ac6 24D0     		beq	.L248
 301:../Drivers/STM32F4xx_HAL_Driver/Src/stm32f4xx_hal_dma.c ****   __HAL_DMA_CLEAR_FLAG(hdma, __HAL_DMA_GET_HT_FLAG_INDEX(hdma));
 1736              		.loc 1 301 0 discriminator 163
 1737 0ac8 A1F56871 		sub	r1, r1, #928
 1738 0acc 8A42     		cmp	r2, r1
 1739 0ace 22D0     		beq	.L249
 301:../Drivers/STM32F4xx_HAL_Driver/Src/stm32f4xx_hal_dma.c ****   __HAL_DMA_CLEAR_FLAG(hdma, __HAL_DMA_GET_HT_FLAG_INDEX(hdma));
 1740              		.loc 1 301 0 discriminator 165
 1741 0ad0 01F58061 		add	r1, r1, #1024
 1742 0ad4 8A42     		cmp	r2, r1
 1743 0ad6 20D0     		beq	.L250
 301:../Drivers/STM32F4xx_HAL_Driver/Src/stm32f4xx_hal_dma.c ****   __HAL_DMA_CLEAR_FLAG(hdma, __HAL_DMA_GET_HT_FLAG_INDEX(hdma));
 1744              		.loc 1 301 0 discriminator 167
 1745 0ad8 A1F58961 		sub	r1, r1, #1096
ARM GAS  /tmp/ccIvKYQX.s 			page 52


 1746 0adc 8A42     		cmp	r2, r1
 1747 0ade 1ED0     		beq	.L251
 301:../Drivers/STM32F4xx_HAL_Driver/Src/stm32f4xx_hal_dma.c ****   __HAL_DMA_CLEAR_FLAG(hdma, __HAL_DMA_GET_HT_FLAG_INDEX(hdma));
 1748              		.loc 1 301 0 discriminator 169
 1749 0ae0 01F58061 		add	r1, r1, #1024
 1750 0ae4 8A42     		cmp	r2, r1
 1751 0ae6 1DD0     		beq	.L252
 301:../Drivers/STM32F4xx_HAL_Driver/Src/stm32f4xx_hal_dma.c ****   __HAL_DMA_CLEAR_FLAG(hdma, __HAL_DMA_GET_HT_FLAG_INDEX(hdma));
 1752              		.loc 1 301 0 discriminator 171
 1753 0ae8 A1F56871 		sub	r1, r1, #928
 1754 0aec 8A42     		cmp	r2, r1
 1755 0aee 1CD0     		beq	.L253
 301:../Drivers/STM32F4xx_HAL_Driver/Src/stm32f4xx_hal_dma.c ****   __HAL_DMA_CLEAR_FLAG(hdma, __HAL_DMA_GET_HT_FLAG_INDEX(hdma));
 1756              		.loc 1 301 0 discriminator 173
 1757 0af0 01F58061 		add	r1, r1, #1024
 1758 0af4 8A42     		cmp	r2, r1
 1759 0af6 29D1     		bne	.L254
 301:../Drivers/STM32F4xx_HAL_Driver/Src/stm32f4xx_hal_dma.c ****   __HAL_DMA_CLEAR_FLAG(hdma, __HAL_DMA_GET_HT_FLAG_INDEX(hdma));
 1760              		.loc 1 301 0
 1761 0af8 4FF48031 		mov	r1, #65536
 1762 0afc 28E0     		b	.L51
 1763              	.L243:
 1764 0afe 0E49     		ldr	r1, .L309+8
 1765 0b00 26E0     		b	.L51
 1766              	.L244:
 1767 0b02 0D49     		ldr	r1, .L309+8
 1768 0b04 24E0     		b	.L51
 1769              	.L245:
 1770 0b06 0C49     		ldr	r1, .L309+8
 1771 0b08 22E0     		b	.L51
 1772              	.L246:
 1773 0b0a 0B49     		ldr	r1, .L309+8
 1774 0b0c 20E0     		b	.L51
 1775              	.L247:
 1776 0b0e 4021     		movs	r1, #64
 1777 0b10 1EE0     		b	.L51
 1778              	.L248:
 1779 0b12 4021     		movs	r1, #64
 1780 0b14 1CE0     		b	.L51
 1781              	.L249:
 1782 0b16 4021     		movs	r1, #64
 1783 0b18 1AE0     		b	.L51
 1784              	.L250:
 1785 0b1a 4021     		movs	r1, #64
 1786 0b1c 18E0     		b	.L51
 1787              	.L251:
 1788 0b1e 4FF48031 		mov	r1, #65536
 1789 0b22 15E0     		b	.L51
 1790              	.L252:
 1791 0b24 4FF48031 		mov	r1, #65536
 1792 0b28 12E0     		b	.L51
 1793              	.L253:
 1794 0b2a 4FF48031 		mov	r1, #65536
 1795 0b2e 0FE0     		b	.L51
 1796              	.L310:
 1797              		.align	2
 1798              	.L309:
ARM GAS  /tmp/ccIvKYQX.s 			page 53


 1799 0b30 00600240 		.word	1073897472
 1800 0b34 58640240 		.word	1073898584
 1801 0b38 01008000 		.word	8388609
 1802 0b3c 00640240 		.word	1073898496
 1803 0b40 B8600240 		.word	1073897656
 1804 0b44 58600240 		.word	1073897560
 1805 0b48 10600240 		.word	1073897488
 1806              	.L254:
 1807 0b4c 4FF48001 		mov	r1, #4194304
 1808              	.L51:
 301:../Drivers/STM32F4xx_HAL_Driver/Src/stm32f4xx_hal_dma.c ****   __HAL_DMA_CLEAR_FLAG(hdma, __HAL_DMA_GET_HT_FLAG_INDEX(hdma));
 1809              		.loc 1 301 0 discriminator 200
 1810 0b50 B34A     		ldr	r2, .L311
 1811 0b52 9160     		str	r1, [r2, #8]
 1812              	.L45:
 302:../Drivers/STM32F4xx_HAL_Driver/Src/stm32f4xx_hal_dma.c **** 
 1813              		.loc 1 302 0 is_stmt 1
 1814 0b54 1A68     		ldr	r2, [r3]
 1815 0b56 B349     		ldr	r1, .L311+4
 1816 0b58 8A42     		cmp	r2, r1
 1817 0b5a 54D9     		bls	.L52
 302:../Drivers/STM32F4xx_HAL_Driver/Src/stm32f4xx_hal_dma.c **** 
 1818              		.loc 1 302 0 is_stmt 0 discriminator 1
 1819 0b5c A1F58961 		sub	r1, r1, #1096
 1820 0b60 8A42     		cmp	r2, r1
 1821 0b62 2ED0     		beq	.L255
 302:../Drivers/STM32F4xx_HAL_Driver/Src/stm32f4xx_hal_dma.c **** 
 1822              		.loc 1 302 0 discriminator 3
 1823 0b64 01F58061 		add	r1, r1, #1024
 1824 0b68 8A42     		cmp	r2, r1
 1825 0b6a 2CD0     		beq	.L256
 302:../Drivers/STM32F4xx_HAL_Driver/Src/stm32f4xx_hal_dma.c **** 
 1826              		.loc 1 302 0 discriminator 5
 1827 0b6c A1F56871 		sub	r1, r1, #928
 1828 0b70 8A42     		cmp	r2, r1
 1829 0b72 2AD0     		beq	.L257
 302:../Drivers/STM32F4xx_HAL_Driver/Src/stm32f4xx_hal_dma.c **** 
 1830              		.loc 1 302 0 discriminator 7
 1831 0b74 01F58061 		add	r1, r1, #1024
 1832 0b78 8A42     		cmp	r2, r1
 1833 0b7a 28D0     		beq	.L258
 302:../Drivers/STM32F4xx_HAL_Driver/Src/stm32f4xx_hal_dma.c **** 
 1834              		.loc 1 302 0 discriminator 9
 1835 0b7c A1F58961 		sub	r1, r1, #1096
 1836 0b80 8A42     		cmp	r2, r1
 1837 0b82 26D0     		beq	.L259
 302:../Drivers/STM32F4xx_HAL_Driver/Src/stm32f4xx_hal_dma.c **** 
 1838              		.loc 1 302 0 discriminator 11
 1839 0b84 01F58061 		add	r1, r1, #1024
 1840 0b88 8A42     		cmp	r2, r1
 1841 0b8a 25D0     		beq	.L260
 302:../Drivers/STM32F4xx_HAL_Driver/Src/stm32f4xx_hal_dma.c **** 
 1842              		.loc 1 302 0 discriminator 13
 1843 0b8c A1F56871 		sub	r1, r1, #928
 1844 0b90 8A42     		cmp	r2, r1
 1845 0b92 24D0     		beq	.L261
 302:../Drivers/STM32F4xx_HAL_Driver/Src/stm32f4xx_hal_dma.c **** 
ARM GAS  /tmp/ccIvKYQX.s 			page 54


 1846              		.loc 1 302 0 discriminator 15
 1847 0b94 01F58061 		add	r1, r1, #1024
 1848 0b98 8A42     		cmp	r2, r1
 1849 0b9a 23D0     		beq	.L262
 302:../Drivers/STM32F4xx_HAL_Driver/Src/stm32f4xx_hal_dma.c **** 
 1850              		.loc 1 302 0 discriminator 17
 1851 0b9c A1F58961 		sub	r1, r1, #1096
 1852 0ba0 8A42     		cmp	r2, r1
 1853 0ba2 22D0     		beq	.L263
 302:../Drivers/STM32F4xx_HAL_Driver/Src/stm32f4xx_hal_dma.c **** 
 1854              		.loc 1 302 0 discriminator 19
 1855 0ba4 01F58061 		add	r1, r1, #1024
 1856 0ba8 8A42     		cmp	r2, r1
 1857 0baa 21D0     		beq	.L264
 302:../Drivers/STM32F4xx_HAL_Driver/Src/stm32f4xx_hal_dma.c **** 
 1858              		.loc 1 302 0 discriminator 21
 1859 0bac A1F56871 		sub	r1, r1, #928
 1860 0bb0 8A42     		cmp	r2, r1
 1861 0bb2 20D0     		beq	.L265
 302:../Drivers/STM32F4xx_HAL_Driver/Src/stm32f4xx_hal_dma.c **** 
 1862              		.loc 1 302 0 discriminator 23
 1863 0bb4 01F58061 		add	r1, r1, #1024
 1864 0bb8 8A42     		cmp	r2, r1
 1865 0bba 1FD1     		bne	.L266
 302:../Drivers/STM32F4xx_HAL_Driver/Src/stm32f4xx_hal_dma.c **** 
 1866              		.loc 1 302 0
 1867 0bbc 4FF48011 		mov	r1, #1048576
 1868 0bc0 1EE0     		b	.L53
 1869              	.L255:
 1870 0bc2 1021     		movs	r1, #16
 1871 0bc4 1CE0     		b	.L53
 1872              	.L256:
 1873 0bc6 1021     		movs	r1, #16
 1874 0bc8 1AE0     		b	.L53
 1875              	.L257:
 1876 0bca 1021     		movs	r1, #16
 1877 0bcc 18E0     		b	.L53
 1878              	.L258:
 1879 0bce 1021     		movs	r1, #16
 1880 0bd0 16E0     		b	.L53
 1881              	.L259:
 1882 0bd2 4FF48061 		mov	r1, #1024
 1883 0bd6 13E0     		b	.L53
 1884              	.L260:
 1885 0bd8 4FF48061 		mov	r1, #1024
 1886 0bdc 10E0     		b	.L53
 1887              	.L261:
 1888 0bde 4FF48061 		mov	r1, #1024
 1889 0be2 0DE0     		b	.L53
 1890              	.L262:
 1891 0be4 4FF48061 		mov	r1, #1024
 1892 0be8 0AE0     		b	.L53
 1893              	.L263:
 1894 0bea 4FF48011 		mov	r1, #1048576
 1895 0bee 07E0     		b	.L53
 1896              	.L264:
 1897 0bf0 4FF48011 		mov	r1, #1048576
ARM GAS  /tmp/ccIvKYQX.s 			page 55


 1898 0bf4 04E0     		b	.L53
 1899              	.L265:
 1900 0bf6 4FF48011 		mov	r1, #1048576
 1901 0bfa 01E0     		b	.L53
 1902              	.L266:
 1903 0bfc 4FF08061 		mov	r1, #67108864
 1904              	.L53:
 302:../Drivers/STM32F4xx_HAL_Driver/Src/stm32f4xx_hal_dma.c **** 
 1905              		.loc 1 302 0 discriminator 50
 1906 0c00 894A     		ldr	r2, .L311+8
 1907 0c02 D160     		str	r1, [r2, #12]
 1908 0c04 00E1     		b	.L54
 1909              	.L52:
 302:../Drivers/STM32F4xx_HAL_Driver/Src/stm32f4xx_hal_dma.c **** 
 1910              		.loc 1 302 0 discriminator 2
 1911 0c06 8949     		ldr	r1, .L311+12
 1912 0c08 8A42     		cmp	r2, r1
 1913 0c0a 53D9     		bls	.L55
 302:../Drivers/STM32F4xx_HAL_Driver/Src/stm32f4xx_hal_dma.c **** 
 1914              		.loc 1 302 0 discriminator 51
 1915 0c0c A839     		subs	r1, r1, #168
 1916 0c0e 8A42     		cmp	r2, r1
 1917 0c10 2ED0     		beq	.L267
 302:../Drivers/STM32F4xx_HAL_Driver/Src/stm32f4xx_hal_dma.c **** 
 1918              		.loc 1 302 0 discriminator 53
 1919 0c12 01F58061 		add	r1, r1, #1024
 1920 0c16 8A42     		cmp	r2, r1
 1921 0c18 2CD0     		beq	.L268
 302:../Drivers/STM32F4xx_HAL_Driver/Src/stm32f4xx_hal_dma.c **** 
 1922              		.loc 1 302 0 discriminator 55
 1923 0c1a A1F56871 		sub	r1, r1, #928
 1924 0c1e 8A42     		cmp	r2, r1
 1925 0c20 2AD0     		beq	.L269
 302:../Drivers/STM32F4xx_HAL_Driver/Src/stm32f4xx_hal_dma.c **** 
 1926              		.loc 1 302 0 discriminator 57
 1927 0c22 01F58061 		add	r1, r1, #1024
 1928 0c26 8A42     		cmp	r2, r1
 1929 0c28 28D0     		beq	.L270
 302:../Drivers/STM32F4xx_HAL_Driver/Src/stm32f4xx_hal_dma.c **** 
 1930              		.loc 1 302 0 discriminator 59
 1931 0c2a A1F58961 		sub	r1, r1, #1096
 1932 0c2e 8A42     		cmp	r2, r1
 1933 0c30 26D0     		beq	.L271
 302:../Drivers/STM32F4xx_HAL_Driver/Src/stm32f4xx_hal_dma.c **** 
 1934              		.loc 1 302 0 discriminator 61
 1935 0c32 01F58061 		add	r1, r1, #1024
 1936 0c36 8A42     		cmp	r2, r1
 1937 0c38 25D0     		beq	.L272
 302:../Drivers/STM32F4xx_HAL_Driver/Src/stm32f4xx_hal_dma.c **** 
 1938              		.loc 1 302 0 discriminator 63
 1939 0c3a A1F56871 		sub	r1, r1, #928
 1940 0c3e 8A42     		cmp	r2, r1
 1941 0c40 24D0     		beq	.L273
 302:../Drivers/STM32F4xx_HAL_Driver/Src/stm32f4xx_hal_dma.c **** 
 1942              		.loc 1 302 0 discriminator 65
 1943 0c42 01F58061 		add	r1, r1, #1024
 1944 0c46 8A42     		cmp	r2, r1
ARM GAS  /tmp/ccIvKYQX.s 			page 56


 1945 0c48 23D0     		beq	.L274
 302:../Drivers/STM32F4xx_HAL_Driver/Src/stm32f4xx_hal_dma.c **** 
 1946              		.loc 1 302 0 discriminator 67
 1947 0c4a A1F58961 		sub	r1, r1, #1096
 1948 0c4e 8A42     		cmp	r2, r1
 1949 0c50 22D0     		beq	.L275
 302:../Drivers/STM32F4xx_HAL_Driver/Src/stm32f4xx_hal_dma.c **** 
 1950              		.loc 1 302 0 discriminator 69
 1951 0c52 01F58061 		add	r1, r1, #1024
 1952 0c56 8A42     		cmp	r2, r1
 1953 0c58 21D0     		beq	.L276
 302:../Drivers/STM32F4xx_HAL_Driver/Src/stm32f4xx_hal_dma.c **** 
 1954              		.loc 1 302 0 discriminator 71
 1955 0c5a A1F56871 		sub	r1, r1, #928
 1956 0c5e 8A42     		cmp	r2, r1
 1957 0c60 20D0     		beq	.L277
 302:../Drivers/STM32F4xx_HAL_Driver/Src/stm32f4xx_hal_dma.c **** 
 1958              		.loc 1 302 0 discriminator 73
 1959 0c62 01F58061 		add	r1, r1, #1024
 1960 0c66 8A42     		cmp	r2, r1
 1961 0c68 1FD1     		bne	.L278
 302:../Drivers/STM32F4xx_HAL_Driver/Src/stm32f4xx_hal_dma.c **** 
 1962              		.loc 1 302 0
 1963 0c6a 4FF48011 		mov	r1, #1048576
 1964 0c6e 1EE0     		b	.L56
 1965              	.L267:
 1966 0c70 1021     		movs	r1, #16
 1967 0c72 1CE0     		b	.L56
 1968              	.L268:
 1969 0c74 1021     		movs	r1, #16
 1970 0c76 1AE0     		b	.L56
 1971              	.L269:
 1972 0c78 1021     		movs	r1, #16
 1973 0c7a 18E0     		b	.L56
 1974              	.L270:
 1975 0c7c 1021     		movs	r1, #16
 1976 0c7e 16E0     		b	.L56
 1977              	.L271:
 1978 0c80 4FF48061 		mov	r1, #1024
 1979 0c84 13E0     		b	.L56
 1980              	.L272:
 1981 0c86 4FF48061 		mov	r1, #1024
 1982 0c8a 10E0     		b	.L56
 1983              	.L273:
 1984 0c8c 4FF48061 		mov	r1, #1024
 1985 0c90 0DE0     		b	.L56
 1986              	.L274:
 1987 0c92 4FF48061 		mov	r1, #1024
 1988 0c96 0AE0     		b	.L56
 1989              	.L275:
 1990 0c98 4FF48011 		mov	r1, #1048576
 1991 0c9c 07E0     		b	.L56
 1992              	.L276:
 1993 0c9e 4FF48011 		mov	r1, #1048576
 1994 0ca2 04E0     		b	.L56
 1995              	.L277:
 1996 0ca4 4FF48011 		mov	r1, #1048576
ARM GAS  /tmp/ccIvKYQX.s 			page 57


 1997 0ca8 01E0     		b	.L56
 1998              	.L278:
 1999 0caa 4FF08061 		mov	r1, #67108864
 2000              	.L56:
 302:../Drivers/STM32F4xx_HAL_Driver/Src/stm32f4xx_hal_dma.c **** 
 2001              		.loc 1 302 0 discriminator 100
 2002 0cae 5E4A     		ldr	r2, .L311+8
 2003 0cb0 9160     		str	r1, [r2, #8]
 2004 0cb2 A9E0     		b	.L54
 2005              	.L55:
 302:../Drivers/STM32F4xx_HAL_Driver/Src/stm32f4xx_hal_dma.c **** 
 2006              		.loc 1 302 0 discriminator 52
 2007 0cb4 5E49     		ldr	r1, .L311+16
 2008 0cb6 8A42     		cmp	r2, r1
 2009 0cb8 53D9     		bls	.L58
 302:../Drivers/STM32F4xx_HAL_Driver/Src/stm32f4xx_hal_dma.c **** 
 2010              		.loc 1 302 0 discriminator 102
 2011 0cba 4839     		subs	r1, r1, #72
 2012 0cbc 8A42     		cmp	r2, r1
 2013 0cbe 2ED0     		beq	.L279
 302:../Drivers/STM32F4xx_HAL_Driver/Src/stm32f4xx_hal_dma.c **** 
 2014              		.loc 1 302 0 discriminator 104
 2015 0cc0 01F58061 		add	r1, r1, #1024
 2016 0cc4 8A42     		cmp	r2, r1
 2017 0cc6 2CD0     		beq	.L280
 302:../Drivers/STM32F4xx_HAL_Driver/Src/stm32f4xx_hal_dma.c **** 
 2018              		.loc 1 302 0 discriminator 106
 2019 0cc8 A1F56871 		sub	r1, r1, #928
 2020 0ccc 8A42     		cmp	r2, r1
 2021 0cce 2AD0     		beq	.L281
 302:../Drivers/STM32F4xx_HAL_Driver/Src/stm32f4xx_hal_dma.c **** 
 2022              		.loc 1 302 0 discriminator 108
 2023 0cd0 01F58061 		add	r1, r1, #1024
 2024 0cd4 8A42     		cmp	r2, r1
 2025 0cd6 28D0     		beq	.L282
 302:../Drivers/STM32F4xx_HAL_Driver/Src/stm32f4xx_hal_dma.c **** 
 2026              		.loc 1 302 0 discriminator 110
 2027 0cd8 A1F58961 		sub	r1, r1, #1096
 2028 0cdc 8A42     		cmp	r2, r1
 2029 0cde 26D0     		beq	.L283
 302:../Drivers/STM32F4xx_HAL_Driver/Src/stm32f4xx_hal_dma.c **** 
 2030              		.loc 1 302 0 discriminator 112
 2031 0ce0 01F58061 		add	r1, r1, #1024
 2032 0ce4 8A42     		cmp	r2, r1
 2033 0ce6 25D0     		beq	.L284
 302:../Drivers/STM32F4xx_HAL_Driver/Src/stm32f4xx_hal_dma.c **** 
 2034              		.loc 1 302 0 discriminator 114
 2035 0ce8 A1F56871 		sub	r1, r1, #928
 2036 0cec 8A42     		cmp	r2, r1
 2037 0cee 24D0     		beq	.L285
 302:../Drivers/STM32F4xx_HAL_Driver/Src/stm32f4xx_hal_dma.c **** 
 2038              		.loc 1 302 0 discriminator 116
 2039 0cf0 01F58061 		add	r1, r1, #1024
 2040 0cf4 8A42     		cmp	r2, r1
 2041 0cf6 23D0     		beq	.L286
 302:../Drivers/STM32F4xx_HAL_Driver/Src/stm32f4xx_hal_dma.c **** 
 2042              		.loc 1 302 0 discriminator 118
ARM GAS  /tmp/ccIvKYQX.s 			page 58


 2043 0cf8 A1F58961 		sub	r1, r1, #1096
 2044 0cfc 8A42     		cmp	r2, r1
 2045 0cfe 22D0     		beq	.L287
 302:../Drivers/STM32F4xx_HAL_Driver/Src/stm32f4xx_hal_dma.c **** 
 2046              		.loc 1 302 0 discriminator 120
 2047 0d00 01F58061 		add	r1, r1, #1024
 2048 0d04 8A42     		cmp	r2, r1
 2049 0d06 21D0     		beq	.L288
 302:../Drivers/STM32F4xx_HAL_Driver/Src/stm32f4xx_hal_dma.c **** 
 2050              		.loc 1 302 0 discriminator 122
 2051 0d08 A1F56871 		sub	r1, r1, #928
 2052 0d0c 8A42     		cmp	r2, r1
 2053 0d0e 20D0     		beq	.L289
 302:../Drivers/STM32F4xx_HAL_Driver/Src/stm32f4xx_hal_dma.c **** 
 2054              		.loc 1 302 0 discriminator 124
 2055 0d10 01F58061 		add	r1, r1, #1024
 2056 0d14 8A42     		cmp	r2, r1
 2057 0d16 1FD1     		bne	.L290
 302:../Drivers/STM32F4xx_HAL_Driver/Src/stm32f4xx_hal_dma.c **** 
 2058              		.loc 1 302 0
 2059 0d18 4FF48011 		mov	r1, #1048576
 2060 0d1c 1EE0     		b	.L59
 2061              	.L279:
 2062 0d1e 1021     		movs	r1, #16
 2063 0d20 1CE0     		b	.L59
 2064              	.L280:
 2065 0d22 1021     		movs	r1, #16
 2066 0d24 1AE0     		b	.L59
 2067              	.L281:
 2068 0d26 1021     		movs	r1, #16
 2069 0d28 18E0     		b	.L59
 2070              	.L282:
 2071 0d2a 1021     		movs	r1, #16
 2072 0d2c 16E0     		b	.L59
 2073              	.L283:
 2074 0d2e 4FF48061 		mov	r1, #1024
 2075 0d32 13E0     		b	.L59
 2076              	.L284:
 2077 0d34 4FF48061 		mov	r1, #1024
 2078 0d38 10E0     		b	.L59
 2079              	.L285:
 2080 0d3a 4FF48061 		mov	r1, #1024
 2081 0d3e 0DE0     		b	.L59
 2082              	.L286:
 2083 0d40 4FF48061 		mov	r1, #1024
 2084 0d44 0AE0     		b	.L59
 2085              	.L287:
 2086 0d46 4FF48011 		mov	r1, #1048576
 2087 0d4a 07E0     		b	.L59
 2088              	.L288:
 2089 0d4c 4FF48011 		mov	r1, #1048576
 2090 0d50 04E0     		b	.L59
 2091              	.L289:
 2092 0d52 4FF48011 		mov	r1, #1048576
 2093 0d56 01E0     		b	.L59
 2094              	.L290:
 2095 0d58 4FF08061 		mov	r1, #67108864
ARM GAS  /tmp/ccIvKYQX.s 			page 59


 2096              	.L59:
 302:../Drivers/STM32F4xx_HAL_Driver/Src/stm32f4xx_hal_dma.c **** 
 2097              		.loc 1 302 0 discriminator 151
 2098 0d5c 304A     		ldr	r2, .L311
 2099 0d5e D160     		str	r1, [r2, #12]
 2100 0d60 52E0     		b	.L54
 2101              	.L58:
 302:../Drivers/STM32F4xx_HAL_Driver/Src/stm32f4xx_hal_dma.c **** 
 2102              		.loc 1 302 0 discriminator 103
 2103 0d62 3449     		ldr	r1, .L311+20
 2104 0d64 8A42     		cmp	r2, r1
 2105 0d66 2ED0     		beq	.L291
 302:../Drivers/STM32F4xx_HAL_Driver/Src/stm32f4xx_hal_dma.c **** 
 2106              		.loc 1 302 0 discriminator 153
 2107 0d68 01F58061 		add	r1, r1, #1024
 2108 0d6c 8A42     		cmp	r2, r1
 2109 0d6e 2CD0     		beq	.L292
 302:../Drivers/STM32F4xx_HAL_Driver/Src/stm32f4xx_hal_dma.c **** 
 2110              		.loc 1 302 0 discriminator 155
 2111 0d70 A1F56871 		sub	r1, r1, #928
 2112 0d74 8A42     		cmp	r2, r1
 2113 0d76 2AD0     		beq	.L293
 302:../Drivers/STM32F4xx_HAL_Driver/Src/stm32f4xx_hal_dma.c **** 
 2114              		.loc 1 302 0 discriminator 157
 2115 0d78 01F58061 		add	r1, r1, #1024
 2116 0d7c 8A42     		cmp	r2, r1
 2117 0d7e 28D0     		beq	.L294
 302:../Drivers/STM32F4xx_HAL_Driver/Src/stm32f4xx_hal_dma.c **** 
 2118              		.loc 1 302 0 discriminator 159
 2119 0d80 A1F58961 		sub	r1, r1, #1096
 2120 0d84 8A42     		cmp	r2, r1
 2121 0d86 26D0     		beq	.L295
 302:../Drivers/STM32F4xx_HAL_Driver/Src/stm32f4xx_hal_dma.c **** 
 2122              		.loc 1 302 0 discriminator 161
 2123 0d88 01F58061 		add	r1, r1, #1024
 2124 0d8c 8A42     		cmp	r2, r1
 2125 0d8e 25D0     		beq	.L296
 302:../Drivers/STM32F4xx_HAL_Driver/Src/stm32f4xx_hal_dma.c **** 
 2126              		.loc 1 302 0 discriminator 163
 2127 0d90 A1F56871 		sub	r1, r1, #928
 2128 0d94 8A42     		cmp	r2, r1
 2129 0d96 24D0     		beq	.L297
 302:../Drivers/STM32F4xx_HAL_Driver/Src/stm32f4xx_hal_dma.c **** 
 2130              		.loc 1 302 0 discriminator 165
 2131 0d98 01F58061 		add	r1, r1, #1024
 2132 0d9c 8A42     		cmp	r2, r1
 2133 0d9e 23D0     		beq	.L298
 302:../Drivers/STM32F4xx_HAL_Driver/Src/stm32f4xx_hal_dma.c **** 
 2134              		.loc 1 302 0 discriminator 167
 2135 0da0 A1F58961 		sub	r1, r1, #1096
 2136 0da4 8A42     		cmp	r2, r1
 2137 0da6 22D0     		beq	.L299
 302:../Drivers/STM32F4xx_HAL_Driver/Src/stm32f4xx_hal_dma.c **** 
 2138              		.loc 1 302 0 discriminator 169
 2139 0da8 01F58061 		add	r1, r1, #1024
 2140 0dac 8A42     		cmp	r2, r1
 2141 0dae 21D0     		beq	.L300
ARM GAS  /tmp/ccIvKYQX.s 			page 60


 302:../Drivers/STM32F4xx_HAL_Driver/Src/stm32f4xx_hal_dma.c **** 
 2142              		.loc 1 302 0 discriminator 171
 2143 0db0 A1F56871 		sub	r1, r1, #928
 2144 0db4 8A42     		cmp	r2, r1
 2145 0db6 20D0     		beq	.L301
 302:../Drivers/STM32F4xx_HAL_Driver/Src/stm32f4xx_hal_dma.c **** 
 2146              		.loc 1 302 0 discriminator 173
 2147 0db8 01F58061 		add	r1, r1, #1024
 2148 0dbc 8A42     		cmp	r2, r1
 2149 0dbe 1FD1     		bne	.L302
 302:../Drivers/STM32F4xx_HAL_Driver/Src/stm32f4xx_hal_dma.c **** 
 2150              		.loc 1 302 0
 2151 0dc0 4FF48011 		mov	r1, #1048576
 2152 0dc4 1EE0     		b	.L60
 2153              	.L291:
 2154 0dc6 1021     		movs	r1, #16
 2155 0dc8 1CE0     		b	.L60
 2156              	.L292:
 2157 0dca 1021     		movs	r1, #16
 2158 0dcc 1AE0     		b	.L60
 2159              	.L293:
 2160 0dce 1021     		movs	r1, #16
 2161 0dd0 18E0     		b	.L60
 2162              	.L294:
 2163 0dd2 1021     		movs	r1, #16
 2164 0dd4 16E0     		b	.L60
 2165              	.L295:
 2166 0dd6 4FF48061 		mov	r1, #1024
 2167 0dda 13E0     		b	.L60
 2168              	.L296:
 2169 0ddc 4FF48061 		mov	r1, #1024
 2170 0de0 10E0     		b	.L60
 2171              	.L297:
 2172 0de2 4FF48061 		mov	r1, #1024
 2173 0de6 0DE0     		b	.L60
 2174              	.L298:
 2175 0de8 4FF48061 		mov	r1, #1024
 2176 0dec 0AE0     		b	.L60
 2177              	.L299:
 2178 0dee 4FF48011 		mov	r1, #1048576
 2179 0df2 07E0     		b	.L60
 2180              	.L300:
 2181 0df4 4FF48011 		mov	r1, #1048576
 2182 0df8 04E0     		b	.L60
 2183              	.L301:
 2184 0dfa 4FF48011 		mov	r1, #1048576
 2185 0dfe 01E0     		b	.L60
 2186              	.L302:
 2187 0e00 4FF08061 		mov	r1, #67108864
 2188              	.L60:
 302:../Drivers/STM32F4xx_HAL_Driver/Src/stm32f4xx_hal_dma.c **** 
 2189              		.loc 1 302 0 discriminator 200
 2190 0e04 064A     		ldr	r2, .L311
 2191 0e06 9160     		str	r1, [r2, #8]
 2192              	.L54:
 305:../Drivers/STM32F4xx_HAL_Driver/Src/stm32f4xx_hal_dma.c **** 
 2193              		.loc 1 305 0 is_stmt 1
ARM GAS  /tmp/ccIvKYQX.s 			page 61


 2194 0e08 0020     		movs	r0, #0
 2195              	.LVL20:
 2196 0e0a D864     		str	r0, [r3, #76]
 308:../Drivers/STM32F4xx_HAL_Driver/Src/stm32f4xx_hal_dma.c **** 
 2197              		.loc 1 308 0
 2198 0e0c 83F83500 		strb	r0, [r3, #53]
 311:../Drivers/STM32F4xx_HAL_Driver/Src/stm32f4xx_hal_dma.c **** 
 2199              		.loc 1 311 0
 2200 0e10 83F83400 		strb	r0, [r3, #52]
 313:../Drivers/STM32F4xx_HAL_Driver/Src/stm32f4xx_hal_dma.c **** }
 2201              		.loc 1 313 0
 2202 0e14 7047     		bx	lr
 2203              	.LVL21:
 2204              	.L61:
 267:../Drivers/STM32F4xx_HAL_Driver/Src/stm32f4xx_hal_dma.c ****   }
 2205              		.loc 1 267 0
 2206 0e16 0120     		movs	r0, #1
 2207              	.LVL22:
 2208 0e18 7047     		bx	lr
 2209              	.LVL23:
 2210              	.L62:
 273:../Drivers/STM32F4xx_HAL_Driver/Src/stm32f4xx_hal_dma.c ****   }
 2211              		.loc 1 273 0
 2212 0e1a 0120     		movs	r0, #1
 2213              	.LVL24:
 314:../Drivers/STM32F4xx_HAL_Driver/Src/stm32f4xx_hal_dma.c **** 
 2214              		.loc 1 314 0
 2215 0e1c 7047     		bx	lr
 2216              	.L312:
 2217 0e1e 00BF     		.align	2
 2218              	.L311:
 2219 0e20 00600240 		.word	1073897472
 2220 0e24 58640240 		.word	1073898584
 2221 0e28 00640240 		.word	1073898496
 2222 0e2c B8600240 		.word	1073897656
 2223 0e30 58600240 		.word	1073897560
 2224 0e34 10600240 		.word	1073897488
 2225              		.cfi_endproc
 2226              	.LFE113:
 2228              		.section	.text.HAL_DMA_Start,"ax",%progbits
 2229              		.align	2
 2230              		.global	HAL_DMA_Start
 2231              		.thumb
 2232              		.thumb_func
 2234              	HAL_DMA_Start:
 2235              	.LFB114:
 349:../Drivers/STM32F4xx_HAL_Driver/Src/stm32f4xx_hal_dma.c ****   /* Process locked */
 2236              		.loc 1 349 0
 2237              		.cfi_startproc
 2238              		@ args = 0, pretend = 0, frame = 0
 2239              		@ frame_needed = 0, uses_anonymous_args = 0
 2240              	.LVL25:
 2241 0000 38B5     		push	{r3, r4, r5, lr}
 2242              	.LCFI6:
 2243              		.cfi_def_cfa_offset 16
 2244              		.cfi_offset 3, -16
 2245              		.cfi_offset 4, -12
ARM GAS  /tmp/ccIvKYQX.s 			page 62


 2246              		.cfi_offset 5, -8
 2247              		.cfi_offset 14, -4
 351:../Drivers/STM32F4xx_HAL_Driver/Src/stm32f4xx_hal_dma.c **** 
 2248              		.loc 1 351 0
 2249 0002 90F83440 		ldrb	r4, [r0, #52]	@ zero_extendqisi2
 2250 0006 012C     		cmp	r4, #1
 2251 0008 15D0     		beq	.L315
 2252 000a 0446     		mov	r4, r0
 351:../Drivers/STM32F4xx_HAL_Driver/Src/stm32f4xx_hal_dma.c **** 
 2253              		.loc 1 351 0 is_stmt 0 discriminator 2
 2254 000c 0120     		movs	r0, #1
 2255              	.LVL26:
 2256 000e 84F83400 		strb	r0, [r4, #52]
 354:../Drivers/STM32F4xx_HAL_Driver/Src/stm32f4xx_hal_dma.c **** 
 2257              		.loc 1 354 0 is_stmt 1 discriminator 2
 2258 0012 0220     		movs	r0, #2
 2259 0014 84F83500 		strb	r0, [r4, #53]
 360:../Drivers/STM32F4xx_HAL_Driver/Src/stm32f4xx_hal_dma.c **** 
 2260              		.loc 1 360 0 discriminator 2
 2261 0018 2568     		ldr	r5, [r4]
 2262 001a 2868     		ldr	r0, [r5]
 2263 001c 20F00100 		bic	r0, r0, #1
 2264 0020 2860     		str	r0, [r5]
 363:../Drivers/STM32F4xx_HAL_Driver/Src/stm32f4xx_hal_dma.c **** 
 2265              		.loc 1 363 0 discriminator 2
 2266 0022 2046     		mov	r0, r4
 2267 0024 FFF7FEFF 		bl	DMA_SetConfig
 2268              	.LVL27:
 366:../Drivers/STM32F4xx_HAL_Driver/Src/stm32f4xx_hal_dma.c **** 
 2269              		.loc 1 366 0 discriminator 2
 2270 0028 2268     		ldr	r2, [r4]
 2271 002a 1368     		ldr	r3, [r2]
 2272 002c 43F00103 		orr	r3, r3, #1
 2273 0030 1360     		str	r3, [r2]
 368:../Drivers/STM32F4xx_HAL_Driver/Src/stm32f4xx_hal_dma.c **** }
 2274              		.loc 1 368 0 discriminator 2
 2275 0032 0020     		movs	r0, #0
 2276 0034 38BD     		pop	{r3, r4, r5, pc}
 2277              	.LVL28:
 2278              	.L315:
 351:../Drivers/STM32F4xx_HAL_Driver/Src/stm32f4xx_hal_dma.c **** 
 2279              		.loc 1 351 0
 2280 0036 0220     		movs	r0, #2
 2281              	.LVL29:
 369:../Drivers/STM32F4xx_HAL_Driver/Src/stm32f4xx_hal_dma.c **** 
 2282              		.loc 1 369 0
 2283 0038 38BD     		pop	{r3, r4, r5, pc}
 2284              		.cfi_endproc
 2285              	.LFE114:
 2287 003a 00BF     		.section	.text.HAL_DMA_Start_IT,"ax",%progbits
 2288              		.align	2
 2289              		.global	HAL_DMA_Start_IT
 2290              		.thumb
 2291              		.thumb_func
 2293              	HAL_DMA_Start_IT:
 2294              	.LFB115:
 381:../Drivers/STM32F4xx_HAL_Driver/Src/stm32f4xx_hal_dma.c ****   /* Process locked */
ARM GAS  /tmp/ccIvKYQX.s 			page 63


 2295              		.loc 1 381 0
 2296              		.cfi_startproc
 2297              		@ args = 0, pretend = 0, frame = 0
 2298              		@ frame_needed = 0, uses_anonymous_args = 0
 2299              	.LVL30:
 2300 0000 38B5     		push	{r3, r4, r5, lr}
 2301              	.LCFI7:
 2302              		.cfi_def_cfa_offset 16
 2303              		.cfi_offset 3, -16
 2304              		.cfi_offset 4, -12
 2305              		.cfi_offset 5, -8
 2306              		.cfi_offset 14, -4
 383:../Drivers/STM32F4xx_HAL_Driver/Src/stm32f4xx_hal_dma.c **** 
 2307              		.loc 1 383 0
 2308 0002 90F83440 		ldrb	r4, [r0, #52]	@ zero_extendqisi2
 2309 0006 012C     		cmp	r4, #1
 2310 0008 2ED0     		beq	.L319
 2311 000a 0446     		mov	r4, r0
 383:../Drivers/STM32F4xx_HAL_Driver/Src/stm32f4xx_hal_dma.c **** 
 2312              		.loc 1 383 0 is_stmt 0 discriminator 2
 2313 000c 0120     		movs	r0, #1
 2314              	.LVL31:
 2315 000e 84F83400 		strb	r0, [r4, #52]
 386:../Drivers/STM32F4xx_HAL_Driver/Src/stm32f4xx_hal_dma.c **** 
 2316              		.loc 1 386 0 is_stmt 1 discriminator 2
 2317 0012 0220     		movs	r0, #2
 2318 0014 84F83500 		strb	r0, [r4, #53]
 392:../Drivers/STM32F4xx_HAL_Driver/Src/stm32f4xx_hal_dma.c **** 
 2319              		.loc 1 392 0 discriminator 2
 2320 0018 2568     		ldr	r5, [r4]
 2321 001a 2868     		ldr	r0, [r5]
 2322 001c 20F00100 		bic	r0, r0, #1
 2323 0020 2860     		str	r0, [r5]
 395:../Drivers/STM32F4xx_HAL_Driver/Src/stm32f4xx_hal_dma.c **** 
 2324              		.loc 1 395 0 discriminator 2
 2325 0022 2046     		mov	r0, r4
 2326 0024 FFF7FEFF 		bl	DMA_SetConfig
 2327              	.LVL32:
 398:../Drivers/STM32F4xx_HAL_Driver/Src/stm32f4xx_hal_dma.c **** 
 2328              		.loc 1 398 0 discriminator 2
 2329 0028 2268     		ldr	r2, [r4]
 2330 002a 1368     		ldr	r3, [r2]
 2331 002c 43F01003 		orr	r3, r3, #16
 2332 0030 1360     		str	r3, [r2]
 401:../Drivers/STM32F4xx_HAL_Driver/Src/stm32f4xx_hal_dma.c **** 
 2333              		.loc 1 401 0 discriminator 2
 2334 0032 2268     		ldr	r2, [r4]
 2335 0034 1368     		ldr	r3, [r2]
 2336 0036 43F00803 		orr	r3, r3, #8
 2337 003a 1360     		str	r3, [r2]
 404:../Drivers/STM32F4xx_HAL_Driver/Src/stm32f4xx_hal_dma.c **** 
 2338              		.loc 1 404 0 discriminator 2
 2339 003c 2268     		ldr	r2, [r4]
 2340 003e 1368     		ldr	r3, [r2]
 2341 0040 43F00403 		orr	r3, r3, #4
 2342 0044 1360     		str	r3, [r2]
 407:../Drivers/STM32F4xx_HAL_Driver/Src/stm32f4xx_hal_dma.c **** 
ARM GAS  /tmp/ccIvKYQX.s 			page 64


 2343              		.loc 1 407 0 discriminator 2
 2344 0046 2268     		ldr	r2, [r4]
 2345 0048 5369     		ldr	r3, [r2, #20]
 2346 004a 43F08003 		orr	r3, r3, #128
 2347 004e 5361     		str	r3, [r2, #20]
 410:../Drivers/STM32F4xx_HAL_Driver/Src/stm32f4xx_hal_dma.c **** 
 2348              		.loc 1 410 0 discriminator 2
 2349 0050 2268     		ldr	r2, [r4]
 2350 0052 1368     		ldr	r3, [r2]
 2351 0054 43F00203 		orr	r3, r3, #2
 2352 0058 1360     		str	r3, [r2]
 413:../Drivers/STM32F4xx_HAL_Driver/Src/stm32f4xx_hal_dma.c **** 
 2353              		.loc 1 413 0 discriminator 2
 2354 005a 2268     		ldr	r2, [r4]
 2355 005c 1368     		ldr	r3, [r2]
 2356 005e 43F00103 		orr	r3, r3, #1
 2357 0062 1360     		str	r3, [r2]
 415:../Drivers/STM32F4xx_HAL_Driver/Src/stm32f4xx_hal_dma.c **** } 
 2358              		.loc 1 415 0 discriminator 2
 2359 0064 0020     		movs	r0, #0
 2360 0066 38BD     		pop	{r3, r4, r5, pc}
 2361              	.LVL33:
 2362              	.L319:
 383:../Drivers/STM32F4xx_HAL_Driver/Src/stm32f4xx_hal_dma.c **** 
 2363              		.loc 1 383 0
 2364 0068 0220     		movs	r0, #2
 2365              	.LVL34:
 416:../Drivers/STM32F4xx_HAL_Driver/Src/stm32f4xx_hal_dma.c **** 
 2366              		.loc 1 416 0
 2367 006a 38BD     		pop	{r3, r4, r5, pc}
 2368              		.cfi_endproc
 2369              	.LFE115:
 2371              		.section	.text.HAL_DMA_Abort,"ax",%progbits
 2372              		.align	2
 2373              		.global	HAL_DMA_Abort
 2374              		.thumb
 2375              		.thumb_func
 2377              	HAL_DMA_Abort:
 2378              	.LFB116:
 431:../Drivers/STM32F4xx_HAL_Driver/Src/stm32f4xx_hal_dma.c ****   uint32_t tickstart = 0;
 2379              		.loc 1 431 0
 2380              		.cfi_startproc
 2381              		@ args = 0, pretend = 0, frame = 0
 2382              		@ frame_needed = 0, uses_anonymous_args = 0
 2383              	.LVL35:
 2384 0000 38B5     		push	{r3, r4, r5, lr}
 2385              	.LCFI8:
 2386              		.cfi_def_cfa_offset 16
 2387              		.cfi_offset 3, -16
 2388              		.cfi_offset 4, -12
 2389              		.cfi_offset 5, -8
 2390              		.cfi_offset 14, -4
 2391 0002 0446     		mov	r4, r0
 2392              	.LVL36:
 435:../Drivers/STM32F4xx_HAL_Driver/Src/stm32f4xx_hal_dma.c **** 
 2393              		.loc 1 435 0
 2394 0004 0268     		ldr	r2, [r0]
ARM GAS  /tmp/ccIvKYQX.s 			page 65


 2395 0006 1368     		ldr	r3, [r2]
 2396 0008 23F00103 		bic	r3, r3, #1
 2397 000c 1360     		str	r3, [r2]
 438:../Drivers/STM32F4xx_HAL_Driver/Src/stm32f4xx_hal_dma.c **** 
 2398              		.loc 1 438 0
 2399 000e FFF7FEFF 		bl	HAL_GetTick
 2400              	.LVL37:
 2401 0012 0546     		mov	r5, r0
 2402              	.LVL38:
 441:../Drivers/STM32F4xx_HAL_Driver/Src/stm32f4xx_hal_dma.c ****   {
 2403              		.loc 1 441 0
 2404 0014 10E0     		b	.L322
 2405              	.LVL39:
 2406              	.L324:
 444:../Drivers/STM32F4xx_HAL_Driver/Src/stm32f4xx_hal_dma.c ****     {
 2407              		.loc 1 444 0
 2408 0016 FFF7FEFF 		bl	HAL_GetTick
 2409              	.LVL40:
 2410 001a 401B     		subs	r0, r0, r5
 2411 001c B0F57A7F 		cmp	r0, #1000
 2412 0020 0AD9     		bls	.L322
 447:../Drivers/STM32F4xx_HAL_Driver/Src/stm32f4xx_hal_dma.c ****       
 2413              		.loc 1 447 0
 2414 0022 E36C     		ldr	r3, [r4, #76]
 2415 0024 43F02003 		orr	r3, r3, #32
 2416 0028 E364     		str	r3, [r4, #76]
 450:../Drivers/STM32F4xx_HAL_Driver/Src/stm32f4xx_hal_dma.c ****       
 2417              		.loc 1 450 0
 2418 002a 0023     		movs	r3, #0
 2419 002c 84F83430 		strb	r3, [r4, #52]
 453:../Drivers/STM32F4xx_HAL_Driver/Src/stm32f4xx_hal_dma.c ****       
 2420              		.loc 1 453 0
 2421 0030 0320     		movs	r0, #3
 2422 0032 84F83500 		strb	r0, [r4, #53]
 455:../Drivers/STM32F4xx_HAL_Driver/Src/stm32f4xx_hal_dma.c ****     }
 2423              		.loc 1 455 0
 2424 0036 38BD     		pop	{r3, r4, r5, pc}
 2425              	.LVL41:
 2426              	.L322:
 441:../Drivers/STM32F4xx_HAL_Driver/Src/stm32f4xx_hal_dma.c ****   {
 2427              		.loc 1 441 0
 2428 0038 2368     		ldr	r3, [r4]
 2429 003a 1B68     		ldr	r3, [r3]
 2430 003c 13F0010F 		tst	r3, #1
 2431 0040 E9D1     		bne	.L324
 459:../Drivers/STM32F4xx_HAL_Driver/Src/stm32f4xx_hal_dma.c **** 
 2432              		.loc 1 459 0
 2433 0042 0020     		movs	r0, #0
 2434 0044 84F83400 		strb	r0, [r4, #52]
 462:../Drivers/STM32F4xx_HAL_Driver/Src/stm32f4xx_hal_dma.c **** 
 2435              		.loc 1 462 0
 2436 0048 0123     		movs	r3, #1
 2437 004a 84F83530 		strb	r3, [r4, #53]
 465:../Drivers/STM32F4xx_HAL_Driver/Src/stm32f4xx_hal_dma.c **** 
 2438              		.loc 1 465 0
 2439 004e 38BD     		pop	{r3, r4, r5, pc}
 2440              		.cfi_endproc
ARM GAS  /tmp/ccIvKYQX.s 			page 66


 2441              	.LFE116:
 2443              		.section	.text.HAL_DMA_PollForTransfer,"ax",%progbits
 2444              		.align	2
 2445              		.global	HAL_DMA_PollForTransfer
 2446              		.thumb
 2447              		.thumb_func
 2449              	HAL_DMA_PollForTransfer:
 2450              	.LFB117:
 476:../Drivers/STM32F4xx_HAL_Driver/Src/stm32f4xx_hal_dma.c ****   uint32_t temp, tmp, tmp1, tmp2;
 2451              		.loc 1 476 0
 2452              		.cfi_startproc
 2453              		@ args = 0, pretend = 0, frame = 0
 2454              		@ frame_needed = 0, uses_anonymous_args = 0
 2455              	.LVL42:
 2456 0000 2DE9F843 		push	{r3, r4, r5, r6, r7, r8, r9, lr}
 2457              	.LCFI9:
 2458              		.cfi_def_cfa_offset 32
 2459              		.cfi_offset 3, -32
 2460              		.cfi_offset 4, -28
 2461              		.cfi_offset 5, -24
 2462              		.cfi_offset 6, -20
 2463              		.cfi_offset 7, -16
 2464              		.cfi_offset 8, -12
 2465              		.cfi_offset 9, -8
 2466              		.cfi_offset 14, -4
 2467 0004 0446     		mov	r4, r0
 2468 0006 1646     		mov	r6, r2
 2469              	.LVL43:
 481:../Drivers/STM32F4xx_HAL_Driver/Src/stm32f4xx_hal_dma.c ****   {
 2470              		.loc 1 481 0
 2471 0008 8946     		mov	r9, r1
 2472 000a 91BB     		cbnz	r1, .L327
 484:../Drivers/STM32F4xx_HAL_Driver/Src/stm32f4xx_hal_dma.c ****   }
 2473              		.loc 1 484 0
 2474 000c 0368     		ldr	r3, [r0]
 2475 000e AC4A     		ldr	r2, .L1053
 2476              	.LVL44:
 2477 0010 9342     		cmp	r3, r2
 2478 0012 61D0     		beq	.L451
 484:../Drivers/STM32F4xx_HAL_Driver/Src/stm32f4xx_hal_dma.c ****   }
 2479              		.loc 1 484 0 is_stmt 0 discriminator 1
 2480 0014 02F58062 		add	r2, r2, #1024
 2481 0018 9342     		cmp	r3, r2
 2482 001a 5FD0     		beq	.L452
 484:../Drivers/STM32F4xx_HAL_Driver/Src/stm32f4xx_hal_dma.c ****   }
 2483              		.loc 1 484 0 discriminator 3
 2484 001c A2F56872 		sub	r2, r2, #928
 2485 0020 9342     		cmp	r3, r2
 2486 0022 5DD0     		beq	.L453
 484:../Drivers/STM32F4xx_HAL_Driver/Src/stm32f4xx_hal_dma.c ****   }
 2487              		.loc 1 484 0 discriminator 5
 2488 0024 02F58062 		add	r2, r2, #1024
 2489 0028 9342     		cmp	r3, r2
 2490 002a 5BD0     		beq	.L454
 484:../Drivers/STM32F4xx_HAL_Driver/Src/stm32f4xx_hal_dma.c ****   }
 2491              		.loc 1 484 0 discriminator 7
 2492 002c A2F58962 		sub	r2, r2, #1096
ARM GAS  /tmp/ccIvKYQX.s 			page 67


 2493 0030 9342     		cmp	r3, r2
 2494 0032 59D0     		beq	.L455
 484:../Drivers/STM32F4xx_HAL_Driver/Src/stm32f4xx_hal_dma.c ****   }
 2495              		.loc 1 484 0 discriminator 9
 2496 0034 02F58062 		add	r2, r2, #1024
 2497 0038 9342     		cmp	r3, r2
 2498 003a 58D0     		beq	.L456
 484:../Drivers/STM32F4xx_HAL_Driver/Src/stm32f4xx_hal_dma.c ****   }
 2499              		.loc 1 484 0 discriminator 11
 2500 003c A2F56872 		sub	r2, r2, #928
 2501 0040 9342     		cmp	r3, r2
 2502 0042 57D0     		beq	.L457
 484:../Drivers/STM32F4xx_HAL_Driver/Src/stm32f4xx_hal_dma.c ****   }
 2503              		.loc 1 484 0 discriminator 13
 2504 0044 02F58062 		add	r2, r2, #1024
 2505 0048 9342     		cmp	r3, r2
 2506 004a 56D0     		beq	.L458
 484:../Drivers/STM32F4xx_HAL_Driver/Src/stm32f4xx_hal_dma.c ****   }
 2507              		.loc 1 484 0 discriminator 15
 2508 004c A2F58962 		sub	r2, r2, #1096
 2509 0050 9342     		cmp	r3, r2
 2510 0052 55D0     		beq	.L459
 484:../Drivers/STM32F4xx_HAL_Driver/Src/stm32f4xx_hal_dma.c ****   }
 2511              		.loc 1 484 0 discriminator 17
 2512 0054 02F58062 		add	r2, r2, #1024
 2513 0058 9342     		cmp	r3, r2
 2514 005a 54D0     		beq	.L460
 484:../Drivers/STM32F4xx_HAL_Driver/Src/stm32f4xx_hal_dma.c ****   }
 2515              		.loc 1 484 0 discriminator 19
 2516 005c A2F56872 		sub	r2, r2, #928
 2517 0060 9342     		cmp	r3, r2
 2518 0062 53D0     		beq	.L461
 484:../Drivers/STM32F4xx_HAL_Driver/Src/stm32f4xx_hal_dma.c ****   }
 2519              		.loc 1 484 0 discriminator 21
 2520 0064 02F58062 		add	r2, r2, #1024
 2521 0068 9342     		cmp	r3, r2
 2522 006a 52D1     		bne	.L462
 484:../Drivers/STM32F4xx_HAL_Driver/Src/stm32f4xx_hal_dma.c ****   }
 2523              		.loc 1 484 0
 2524 006c 4FF40015 		mov	r5, #2097152
 2525 0070 71E0     		b	.L328
 2526              	.LVL45:
 2527              	.L327:
 489:../Drivers/STM32F4xx_HAL_Driver/Src/stm32f4xx_hal_dma.c ****   }
 2528              		.loc 1 489 0 is_stmt 1
 2529 0072 0368     		ldr	r3, [r0]
 2530 0074 924A     		ldr	r2, .L1053
 2531              	.LVL46:
 2532 0076 9342     		cmp	r3, r2
 2533 0078 4ED0     		beq	.L463
 489:../Drivers/STM32F4xx_HAL_Driver/Src/stm32f4xx_hal_dma.c ****   }
 2534              		.loc 1 489 0 is_stmt 0 discriminator 1
 2535 007a 02F58062 		add	r2, r2, #1024
 2536 007e 9342     		cmp	r3, r2
 2537 0080 4CD0     		beq	.L464
 489:../Drivers/STM32F4xx_HAL_Driver/Src/stm32f4xx_hal_dma.c ****   }
 2538              		.loc 1 489 0 discriminator 3
ARM GAS  /tmp/ccIvKYQX.s 			page 68


 2539 0082 A2F56872 		sub	r2, r2, #928
 2540 0086 9342     		cmp	r3, r2
 2541 0088 4AD0     		beq	.L465
 489:../Drivers/STM32F4xx_HAL_Driver/Src/stm32f4xx_hal_dma.c ****   }
 2542              		.loc 1 489 0 discriminator 5
 2543 008a 02F58062 		add	r2, r2, #1024
 2544 008e 9342     		cmp	r3, r2
 2545 0090 48D0     		beq	.L466
 489:../Drivers/STM32F4xx_HAL_Driver/Src/stm32f4xx_hal_dma.c ****   }
 2546              		.loc 1 489 0 discriminator 7
 2547 0092 A2F58962 		sub	r2, r2, #1096
 2548 0096 9342     		cmp	r3, r2
 2549 0098 46D0     		beq	.L467
 489:../Drivers/STM32F4xx_HAL_Driver/Src/stm32f4xx_hal_dma.c ****   }
 2550              		.loc 1 489 0 discriminator 9
 2551 009a 02F58062 		add	r2, r2, #1024
 2552 009e 9342     		cmp	r3, r2
 2553 00a0 45D0     		beq	.L468
 489:../Drivers/STM32F4xx_HAL_Driver/Src/stm32f4xx_hal_dma.c ****   }
 2554              		.loc 1 489 0 discriminator 11
 2555 00a2 A2F56872 		sub	r2, r2, #928
 2556 00a6 9342     		cmp	r3, r2
 2557 00a8 44D0     		beq	.L469
 489:../Drivers/STM32F4xx_HAL_Driver/Src/stm32f4xx_hal_dma.c ****   }
 2558              		.loc 1 489 0 discriminator 13
 2559 00aa 02F58062 		add	r2, r2, #1024
 2560 00ae 9342     		cmp	r3, r2
 2561 00b0 43D0     		beq	.L470
 489:../Drivers/STM32F4xx_HAL_Driver/Src/stm32f4xx_hal_dma.c ****   }
 2562              		.loc 1 489 0 discriminator 15
 2563 00b2 A2F58962 		sub	r2, r2, #1096
 2564 00b6 9342     		cmp	r3, r2
 2565 00b8 42D0     		beq	.L471
 489:../Drivers/STM32F4xx_HAL_Driver/Src/stm32f4xx_hal_dma.c ****   }
 2566              		.loc 1 489 0 discriminator 17
 2567 00ba 02F58062 		add	r2, r2, #1024
 2568 00be 9342     		cmp	r3, r2
 2569 00c0 41D0     		beq	.L472
 489:../Drivers/STM32F4xx_HAL_Driver/Src/stm32f4xx_hal_dma.c ****   }
 2570              		.loc 1 489 0 discriminator 19
 2571 00c2 A2F56872 		sub	r2, r2, #928
 2572 00c6 9342     		cmp	r3, r2
 2573 00c8 40D0     		beq	.L473
 489:../Drivers/STM32F4xx_HAL_Driver/Src/stm32f4xx_hal_dma.c ****   }
 2574              		.loc 1 489 0 discriminator 21
 2575 00ca 02F58062 		add	r2, r2, #1024
 2576 00ce 9342     		cmp	r3, r2
 2577 00d0 3FD1     		bne	.L474
 489:../Drivers/STM32F4xx_HAL_Driver/Src/stm32f4xx_hal_dma.c ****   }
 2578              		.loc 1 489 0
 2579 00d2 4FF48015 		mov	r5, #1048576
 2580 00d6 3EE0     		b	.L328
 2581              	.L451:
 484:../Drivers/STM32F4xx_HAL_Driver/Src/stm32f4xx_hal_dma.c ****   }
 2582              		.loc 1 484 0 is_stmt 1
 2583 00d8 2025     		movs	r5, #32
 2584 00da 3CE0     		b	.L328
ARM GAS  /tmp/ccIvKYQX.s 			page 69


 2585              	.L452:
 2586 00dc 2025     		movs	r5, #32
 2587 00de 3AE0     		b	.L328
 2588              	.L453:
 2589 00e0 2025     		movs	r5, #32
 2590 00e2 38E0     		b	.L328
 2591              	.L454:
 2592 00e4 2025     		movs	r5, #32
 2593 00e6 36E0     		b	.L328
 2594              	.L455:
 2595 00e8 4FF40065 		mov	r5, #2048
 2596 00ec 33E0     		b	.L328
 2597              	.L456:
 2598 00ee 4FF40065 		mov	r5, #2048
 2599 00f2 30E0     		b	.L328
 2600              	.L457:
 2601 00f4 4FF40065 		mov	r5, #2048
 2602 00f8 2DE0     		b	.L328
 2603              	.L458:
 2604 00fa 4FF40065 		mov	r5, #2048
 2605 00fe 2AE0     		b	.L328
 2606              	.L459:
 2607 0100 4FF40015 		mov	r5, #2097152
 2608 0104 27E0     		b	.L328
 2609              	.L460:
 2610 0106 4FF40015 		mov	r5, #2097152
 2611 010a 24E0     		b	.L328
 2612              	.L461:
 2613 010c 4FF40015 		mov	r5, #2097152
 2614 0110 21E0     		b	.L328
 2615              	.L462:
 2616 0112 4FF00065 		mov	r5, #134217728
 2617 0116 1EE0     		b	.L328
 2618              	.L463:
 489:../Drivers/STM32F4xx_HAL_Driver/Src/stm32f4xx_hal_dma.c ****   }
 2619              		.loc 1 489 0
 2620 0118 1025     		movs	r5, #16
 2621 011a 1CE0     		b	.L328
 2622              	.L464:
 2623 011c 1025     		movs	r5, #16
 2624 011e 1AE0     		b	.L328
 2625              	.L465:
 2626 0120 1025     		movs	r5, #16
 2627 0122 18E0     		b	.L328
 2628              	.L466:
 2629 0124 1025     		movs	r5, #16
 2630 0126 16E0     		b	.L328
 2631              	.L467:
 2632 0128 4FF48065 		mov	r5, #1024
 2633 012c 13E0     		b	.L328
 2634              	.L468:
 2635 012e 4FF48065 		mov	r5, #1024
 2636 0132 10E0     		b	.L328
 2637              	.L469:
 2638 0134 4FF48065 		mov	r5, #1024
 2639 0138 0DE0     		b	.L328
 2640              	.L470:
ARM GAS  /tmp/ccIvKYQX.s 			page 70


 2641 013a 4FF48065 		mov	r5, #1024
 2642 013e 0AE0     		b	.L328
 2643              	.L471:
 2644 0140 4FF48015 		mov	r5, #1048576
 2645 0144 07E0     		b	.L328
 2646              	.L472:
 2647 0146 4FF48015 		mov	r5, #1048576
 2648 014a 04E0     		b	.L328
 2649              	.L473:
 2650 014c 4FF48015 		mov	r5, #1048576
 2651 0150 01E0     		b	.L328
 2652              	.L474:
 2653 0152 4FF08065 		mov	r5, #67108864
 2654              	.L328:
 2655              	.LVL47:
 493:../Drivers/STM32F4xx_HAL_Driver/Src/stm32f4xx_hal_dma.c **** 
 2656              		.loc 1 493 0
 2657 0156 FFF7FEFF 		bl	HAL_GetTick
 2658              	.LVL48:
 2659 015a 8046     		mov	r8, r0
 2660              	.LVL49:
 495:../Drivers/STM32F4xx_HAL_Driver/Src/stm32f4xx_hal_dma.c ****   {
 2661              		.loc 1 495 0
 2662 015c 01F08FB8 		b	.L384
 2663              	.LVL50:
 2664              	.L390:
 497:../Drivers/STM32F4xx_HAL_Driver/Src/stm32f4xx_hal_dma.c ****     tmp1 = __HAL_DMA_GET_FLAG(hdma, __HAL_DMA_GET_FE_FLAG_INDEX(hdma));
 2665              		.loc 1 497 0
 2666 0160 584A     		ldr	r2, .L1053+4
 2667 0162 9342     		cmp	r3, r2
 2668 0164 53D9     		bls	.L330
 497:../Drivers/STM32F4xx_HAL_Driver/Src/stm32f4xx_hal_dma.c ****     tmp1 = __HAL_DMA_GET_FLAG(hdma, __HAL_DMA_GET_FE_FLAG_INDEX(hdma));
 2669              		.loc 1 497 0 is_stmt 0 discriminator 1
 2670 0166 583A     		subs	r2, r2, #88
 2671 0168 5068     		ldr	r0, [r2, #4]
 2672 016a 5549     		ldr	r1, .L1053
 2673 016c 8B42     		cmp	r3, r1
 2674 016e 2DD0     		beq	.L475
 497:../Drivers/STM32F4xx_HAL_Driver/Src/stm32f4xx_hal_dma.c ****     tmp1 = __HAL_DMA_GET_FLAG(hdma, __HAL_DMA_GET_FE_FLAG_INDEX(hdma));
 2675              		.loc 1 497 0 discriminator 3
 2676 0170 01F58061 		add	r1, r1, #1024
 2677 0174 8B42     		cmp	r3, r1
 2678 0176 2BD0     		beq	.L476
 497:../Drivers/STM32F4xx_HAL_Driver/Src/stm32f4xx_hal_dma.c ****     tmp1 = __HAL_DMA_GET_FLAG(hdma, __HAL_DMA_GET_FE_FLAG_INDEX(hdma));
 2679              		.loc 1 497 0 discriminator 5
 2680 0178 A1F56871 		sub	r1, r1, #928
 2681 017c 8B42     		cmp	r3, r1
 2682 017e 29D0     		beq	.L477
 497:../Drivers/STM32F4xx_HAL_Driver/Src/stm32f4xx_hal_dma.c ****     tmp1 = __HAL_DMA_GET_FLAG(hdma, __HAL_DMA_GET_FE_FLAG_INDEX(hdma));
 2683              		.loc 1 497 0 discriminator 7
 2684 0180 01F58061 		add	r1, r1, #1024
 2685 0184 8B42     		cmp	r3, r1
 2686 0186 27D0     		beq	.L478
 497:../Drivers/STM32F4xx_HAL_Driver/Src/stm32f4xx_hal_dma.c ****     tmp1 = __HAL_DMA_GET_FLAG(hdma, __HAL_DMA_GET_FE_FLAG_INDEX(hdma));
 2687              		.loc 1 497 0 discriminator 9
 2688 0188 A1F58961 		sub	r1, r1, #1096
 2689 018c 8B42     		cmp	r3, r1
ARM GAS  /tmp/ccIvKYQX.s 			page 71


 2690 018e 25D0     		beq	.L479
 497:../Drivers/STM32F4xx_HAL_Driver/Src/stm32f4xx_hal_dma.c ****     tmp1 = __HAL_DMA_GET_FLAG(hdma, __HAL_DMA_GET_FE_FLAG_INDEX(hdma));
 2691              		.loc 1 497 0 discriminator 11
 2692 0190 2832     		adds	r2, r2, #40
 2693 0192 9342     		cmp	r3, r2
 2694 0194 25D0     		beq	.L480
 497:../Drivers/STM32F4xx_HAL_Driver/Src/stm32f4xx_hal_dma.c ****     tmp1 = __HAL_DMA_GET_FLAG(hdma, __HAL_DMA_GET_FE_FLAG_INDEX(hdma));
 2695              		.loc 1 497 0 discriminator 13
 2696 0196 A2F56872 		sub	r2, r2, #928
 2697 019a 9342     		cmp	r3, r2
 2698 019c 24D0     		beq	.L481
 497:../Drivers/STM32F4xx_HAL_Driver/Src/stm32f4xx_hal_dma.c ****     tmp1 = __HAL_DMA_GET_FLAG(hdma, __HAL_DMA_GET_FE_FLAG_INDEX(hdma));
 2699              		.loc 1 497 0 discriminator 15
 2700 019e 02F58062 		add	r2, r2, #1024
 2701 01a2 9342     		cmp	r3, r2
 2702 01a4 23D0     		beq	.L482
 497:../Drivers/STM32F4xx_HAL_Driver/Src/stm32f4xx_hal_dma.c ****     tmp1 = __HAL_DMA_GET_FLAG(hdma, __HAL_DMA_GET_FE_FLAG_INDEX(hdma));
 2703              		.loc 1 497 0 discriminator 17
 2704 01a6 A2F58962 		sub	r2, r2, #1096
 2705 01aa 9342     		cmp	r3, r2
 2706 01ac 22D0     		beq	.L483
 497:../Drivers/STM32F4xx_HAL_Driver/Src/stm32f4xx_hal_dma.c ****     tmp1 = __HAL_DMA_GET_FLAG(hdma, __HAL_DMA_GET_FE_FLAG_INDEX(hdma));
 2707              		.loc 1 497 0 discriminator 19
 2708 01ae 02F58062 		add	r2, r2, #1024
 2709 01b2 9342     		cmp	r3, r2
 2710 01b4 21D0     		beq	.L484
 497:../Drivers/STM32F4xx_HAL_Driver/Src/stm32f4xx_hal_dma.c ****     tmp1 = __HAL_DMA_GET_FLAG(hdma, __HAL_DMA_GET_FE_FLAG_INDEX(hdma));
 2711              		.loc 1 497 0 discriminator 21
 2712 01b6 A2F56872 		sub	r2, r2, #928
 2713 01ba 9342     		cmp	r3, r2
 2714 01bc 20D0     		beq	.L485
 497:../Drivers/STM32F4xx_HAL_Driver/Src/stm32f4xx_hal_dma.c ****     tmp1 = __HAL_DMA_GET_FLAG(hdma, __HAL_DMA_GET_FE_FLAG_INDEX(hdma));
 2715              		.loc 1 497 0 discriminator 23
 2716 01be 02F58062 		add	r2, r2, #1024
 2717 01c2 9342     		cmp	r3, r2
 2718 01c4 1FD1     		bne	.L486
 497:../Drivers/STM32F4xx_HAL_Driver/Src/stm32f4xx_hal_dma.c ****     tmp1 = __HAL_DMA_GET_FLAG(hdma, __HAL_DMA_GET_FE_FLAG_INDEX(hdma));
 2719              		.loc 1 497 0
 2720 01c6 4FF40022 		mov	r2, #524288
 2721 01ca 1EE0     		b	.L331
 2722              	.L475:
 2723 01cc 0822     		movs	r2, #8
 2724 01ce 1CE0     		b	.L331
 2725              	.L476:
 2726 01d0 0822     		movs	r2, #8
 2727 01d2 1AE0     		b	.L331
 2728              	.L477:
 2729 01d4 0822     		movs	r2, #8
 2730 01d6 18E0     		b	.L331
 2731              	.L478:
 2732 01d8 0822     		movs	r2, #8
 2733 01da 16E0     		b	.L331
 2734              	.L479:
 2735 01dc 4FF40072 		mov	r2, #512
 2736 01e0 13E0     		b	.L331
 2737              	.L480:
 2738 01e2 4FF40072 		mov	r2, #512
ARM GAS  /tmp/ccIvKYQX.s 			page 72


 2739 01e6 10E0     		b	.L331
 2740              	.L481:
 2741 01e8 4FF40072 		mov	r2, #512
 2742 01ec 0DE0     		b	.L331
 2743              	.L482:
 2744 01ee 4FF40072 		mov	r2, #512
 2745 01f2 0AE0     		b	.L331
 2746              	.L483:
 2747 01f4 4FF40022 		mov	r2, #524288
 2748 01f8 07E0     		b	.L331
 2749              	.L484:
 2750 01fa 4FF40022 		mov	r2, #524288
 2751 01fe 04E0     		b	.L331
 2752              	.L485:
 2753 0200 4FF40022 		mov	r2, #524288
 2754 0204 01E0     		b	.L331
 2755              	.L486:
 2756 0206 4FF00072 		mov	r2, #33554432
 2757              	.L331:
 497:../Drivers/STM32F4xx_HAL_Driver/Src/stm32f4xx_hal_dma.c ****     tmp1 = __HAL_DMA_GET_FLAG(hdma, __HAL_DMA_GET_FE_FLAG_INDEX(hdma));
 2758              		.loc 1 497 0 discriminator 50
 2759 020a 0240     		ands	r2, r2, r0
 2760 020c 0AE1     		b	.L332
 2761              	.L330:
 497:../Drivers/STM32F4xx_HAL_Driver/Src/stm32f4xx_hal_dma.c ****     tmp1 = __HAL_DMA_GET_FLAG(hdma, __HAL_DMA_GET_FE_FLAG_INDEX(hdma));
 2762              		.loc 1 497 0 discriminator 2
 2763 020e 2E4A     		ldr	r2, .L1053+8
 2764 0210 9342     		cmp	r3, r2
 2765 0212 5BD9     		bls	.L333
 497:../Drivers/STM32F4xx_HAL_Driver/Src/stm32f4xx_hal_dma.c ****     tmp1 = __HAL_DMA_GET_FLAG(hdma, __HAL_DMA_GET_FE_FLAG_INDEX(hdma));
 2766              		.loc 1 497 0 discriminator 52
 2767 0214 02F55272 		add	r2, r2, #840
 2768 0218 1068     		ldr	r0, [r2]
 2769 021a 2949     		ldr	r1, .L1053
 2770 021c 8B42     		cmp	r3, r1
 2771 021e 2DD0     		beq	.L487
 497:../Drivers/STM32F4xx_HAL_Driver/Src/stm32f4xx_hal_dma.c ****     tmp1 = __HAL_DMA_GET_FLAG(hdma, __HAL_DMA_GET_FE_FLAG_INDEX(hdma));
 2772              		.loc 1 497 0 discriminator 54
 2773 0220 01F58061 		add	r1, r1, #1024
 2774 0224 8B42     		cmp	r3, r1
 2775 0226 2BD0     		beq	.L488
 497:../Drivers/STM32F4xx_HAL_Driver/Src/stm32f4xx_hal_dma.c ****     tmp1 = __HAL_DMA_GET_FLAG(hdma, __HAL_DMA_GET_FE_FLAG_INDEX(hdma));
 2776              		.loc 1 497 0 discriminator 56
 2777 0228 A1F56871 		sub	r1, r1, #928
 2778 022c 8B42     		cmp	r3, r1
 2779 022e 29D0     		beq	.L489
 497:../Drivers/STM32F4xx_HAL_Driver/Src/stm32f4xx_hal_dma.c ****     tmp1 = __HAL_DMA_GET_FLAG(hdma, __HAL_DMA_GET_FE_FLAG_INDEX(hdma));
 2780              		.loc 1 497 0 discriminator 58
 2781 0230 7032     		adds	r2, r2, #112
 2782 0232 9342     		cmp	r3, r2
 2783 0234 28D0     		beq	.L490
 497:../Drivers/STM32F4xx_HAL_Driver/Src/stm32f4xx_hal_dma.c ****     tmp1 = __HAL_DMA_GET_FLAG(hdma, __HAL_DMA_GET_FE_FLAG_INDEX(hdma));
 2784              		.loc 1 497 0 discriminator 60
 2785 0236 A2F58962 		sub	r2, r2, #1096
 2786 023a 9342     		cmp	r3, r2
 2787 023c 26D0     		beq	.L491
 497:../Drivers/STM32F4xx_HAL_Driver/Src/stm32f4xx_hal_dma.c ****     tmp1 = __HAL_DMA_GET_FLAG(hdma, __HAL_DMA_GET_FE_FLAG_INDEX(hdma));
ARM GAS  /tmp/ccIvKYQX.s 			page 73


 2788              		.loc 1 497 0 discriminator 62
 2789 023e 02F58062 		add	r2, r2, #1024
 2790 0242 9342     		cmp	r3, r2
 2791 0244 25D0     		beq	.L492
 497:../Drivers/STM32F4xx_HAL_Driver/Src/stm32f4xx_hal_dma.c ****     tmp1 = __HAL_DMA_GET_FLAG(hdma, __HAL_DMA_GET_FE_FLAG_INDEX(hdma));
 2792              		.loc 1 497 0 discriminator 64
 2793 0246 A2F56872 		sub	r2, r2, #928
 2794 024a 9342     		cmp	r3, r2
 2795 024c 24D0     		beq	.L493
 497:../Drivers/STM32F4xx_HAL_Driver/Src/stm32f4xx_hal_dma.c ****     tmp1 = __HAL_DMA_GET_FLAG(hdma, __HAL_DMA_GET_FE_FLAG_INDEX(hdma));
 2796              		.loc 1 497 0 discriminator 66
 2797 024e 02F58062 		add	r2, r2, #1024
 2798 0252 9342     		cmp	r3, r2
 2799 0254 23D0     		beq	.L494
 497:../Drivers/STM32F4xx_HAL_Driver/Src/stm32f4xx_hal_dma.c ****     tmp1 = __HAL_DMA_GET_FLAG(hdma, __HAL_DMA_GET_FE_FLAG_INDEX(hdma));
 2800              		.loc 1 497 0 discriminator 68
 2801 0256 A2F58962 		sub	r2, r2, #1096
 2802 025a 9342     		cmp	r3, r2
 2803 025c 22D0     		beq	.L495
 497:../Drivers/STM32F4xx_HAL_Driver/Src/stm32f4xx_hal_dma.c ****     tmp1 = __HAL_DMA_GET_FLAG(hdma, __HAL_DMA_GET_FE_FLAG_INDEX(hdma));
 2804              		.loc 1 497 0 discriminator 70
 2805 025e 02F58062 		add	r2, r2, #1024
 2806 0262 9342     		cmp	r3, r2
 2807 0264 21D0     		beq	.L496
 497:../Drivers/STM32F4xx_HAL_Driver/Src/stm32f4xx_hal_dma.c ****     tmp1 = __HAL_DMA_GET_FLAG(hdma, __HAL_DMA_GET_FE_FLAG_INDEX(hdma));
 2808              		.loc 1 497 0 discriminator 72
 2809 0266 A2F56872 		sub	r2, r2, #928
 2810 026a 9342     		cmp	r3, r2
 2811 026c 20D0     		beq	.L497
 497:../Drivers/STM32F4xx_HAL_Driver/Src/stm32f4xx_hal_dma.c ****     tmp1 = __HAL_DMA_GET_FLAG(hdma, __HAL_DMA_GET_FE_FLAG_INDEX(hdma));
 2812              		.loc 1 497 0 discriminator 74
 2813 026e 02F58062 		add	r2, r2, #1024
 2814 0272 9342     		cmp	r3, r2
 2815 0274 1FD1     		bne	.L498
 497:../Drivers/STM32F4xx_HAL_Driver/Src/stm32f4xx_hal_dma.c ****     tmp1 = __HAL_DMA_GET_FLAG(hdma, __HAL_DMA_GET_FE_FLAG_INDEX(hdma));
 2816              		.loc 1 497 0
 2817 0276 4FF40022 		mov	r2, #524288
 2818 027a 1EE0     		b	.L334
 2819              	.L487:
 2820 027c 0822     		movs	r2, #8
 2821 027e 1CE0     		b	.L334
 2822              	.L488:
 2823 0280 0822     		movs	r2, #8
 2824 0282 1AE0     		b	.L334
 2825              	.L489:
 2826 0284 0822     		movs	r2, #8
 2827 0286 18E0     		b	.L334
 2828              	.L490:
 2829 0288 0822     		movs	r2, #8
 2830 028a 16E0     		b	.L334
 2831              	.L491:
 2832 028c 4FF40072 		mov	r2, #512
 2833 0290 13E0     		b	.L334
 2834              	.L492:
 2835 0292 4FF40072 		mov	r2, #512
 2836 0296 10E0     		b	.L334
 2837              	.L493:
ARM GAS  /tmp/ccIvKYQX.s 			page 74


 2838 0298 4FF40072 		mov	r2, #512
 2839 029c 0DE0     		b	.L334
 2840              	.L494:
 2841 029e 4FF40072 		mov	r2, #512
 2842 02a2 0AE0     		b	.L334
 2843              	.L495:
 2844 02a4 4FF40022 		mov	r2, #524288
 2845 02a8 07E0     		b	.L334
 2846              	.L496:
 2847 02aa 4FF40022 		mov	r2, #524288
 2848 02ae 04E0     		b	.L334
 2849              	.L497:
 2850 02b0 4FF40022 		mov	r2, #524288
 2851 02b4 01E0     		b	.L334
 2852              	.L498:
 2853 02b6 4FF00072 		mov	r2, #33554432
 2854              	.L334:
 497:../Drivers/STM32F4xx_HAL_Driver/Src/stm32f4xx_hal_dma.c ****     tmp1 = __HAL_DMA_GET_FLAG(hdma, __HAL_DMA_GET_FE_FLAG_INDEX(hdma));
 2855              		.loc 1 497 0 discriminator 101
 2856 02ba 0240     		ands	r2, r2, r0
 2857 02bc B2E0     		b	.L332
 2858              	.L1054:
 2859 02be 00BF     		.align	2
 2860              	.L1053:
 2861 02c0 10600240 		.word	1073897488
 2862 02c4 58640240 		.word	1073898584
 2863 02c8 B8600240 		.word	1073897656
 2864              	.L333:
 497:../Drivers/STM32F4xx_HAL_Driver/Src/stm32f4xx_hal_dma.c ****     tmp1 = __HAL_DMA_GET_FLAG(hdma, __HAL_DMA_GET_FE_FLAG_INDEX(hdma));
 2865              		.loc 1 497 0 discriminator 53
 2866 02cc A94A     		ldr	r2, .L1055
 2867 02ce 9342     		cmp	r3, r2
 2868 02d0 54D9     		bls	.L335
 497:../Drivers/STM32F4xx_HAL_Driver/Src/stm32f4xx_hal_dma.c ****     tmp1 = __HAL_DMA_GET_FLAG(hdma, __HAL_DMA_GET_FE_FLAG_INDEX(hdma));
 2869              		.loc 1 497 0 discriminator 103
 2870 02d2 583A     		subs	r2, r2, #88
 2871 02d4 5268     		ldr	r2, [r2, #4]
 2872 02d6 A849     		ldr	r1, .L1055+4
 2873 02d8 8B42     		cmp	r3, r1
 2874 02da 2ED0     		beq	.L499
 497:../Drivers/STM32F4xx_HAL_Driver/Src/stm32f4xx_hal_dma.c ****     tmp1 = __HAL_DMA_GET_FLAG(hdma, __HAL_DMA_GET_FE_FLAG_INDEX(hdma));
 2875              		.loc 1 497 0 discriminator 105
 2876 02dc 01F58061 		add	r1, r1, #1024
 2877 02e0 8B42     		cmp	r3, r1
 2878 02e2 2CD0     		beq	.L500
 497:../Drivers/STM32F4xx_HAL_Driver/Src/stm32f4xx_hal_dma.c ****     tmp1 = __HAL_DMA_GET_FLAG(hdma, __HAL_DMA_GET_FE_FLAG_INDEX(hdma));
 2879              		.loc 1 497 0 discriminator 107
 2880 02e4 A1F56871 		sub	r1, r1, #928
 2881 02e8 8B42     		cmp	r3, r1
 2882 02ea 2AD0     		beq	.L501
 497:../Drivers/STM32F4xx_HAL_Driver/Src/stm32f4xx_hal_dma.c ****     tmp1 = __HAL_DMA_GET_FLAG(hdma, __HAL_DMA_GET_FE_FLAG_INDEX(hdma));
 2883              		.loc 1 497 0 discriminator 109
 2884 02ec 01F58061 		add	r1, r1, #1024
 2885 02f0 8B42     		cmp	r3, r1
 2886 02f2 28D0     		beq	.L502
 497:../Drivers/STM32F4xx_HAL_Driver/Src/stm32f4xx_hal_dma.c ****     tmp1 = __HAL_DMA_GET_FLAG(hdma, __HAL_DMA_GET_FE_FLAG_INDEX(hdma));
 2887              		.loc 1 497 0 discriminator 111
ARM GAS  /tmp/ccIvKYQX.s 			page 75


 2888 02f4 A1F58961 		sub	r1, r1, #1096
 2889 02f8 8B42     		cmp	r3, r1
 2890 02fa 26D0     		beq	.L503
 497:../Drivers/STM32F4xx_HAL_Driver/Src/stm32f4xx_hal_dma.c ****     tmp1 = __HAL_DMA_GET_FLAG(hdma, __HAL_DMA_GET_FE_FLAG_INDEX(hdma));
 2891              		.loc 1 497 0 discriminator 113
 2892 02fc 01F58061 		add	r1, r1, #1024
 2893 0300 8B42     		cmp	r3, r1
 2894 0302 25D0     		beq	.L504
 497:../Drivers/STM32F4xx_HAL_Driver/Src/stm32f4xx_hal_dma.c ****     tmp1 = __HAL_DMA_GET_FLAG(hdma, __HAL_DMA_GET_FE_FLAG_INDEX(hdma));
 2895              		.loc 1 497 0 discriminator 115
 2896 0304 A1F56871 		sub	r1, r1, #928
 2897 0308 8B42     		cmp	r3, r1
 2898 030a 24D0     		beq	.L505
 497:../Drivers/STM32F4xx_HAL_Driver/Src/stm32f4xx_hal_dma.c ****     tmp1 = __HAL_DMA_GET_FLAG(hdma, __HAL_DMA_GET_FE_FLAG_INDEX(hdma));
 2899              		.loc 1 497 0 discriminator 117
 2900 030c 01F58061 		add	r1, r1, #1024
 2901 0310 8B42     		cmp	r3, r1
 2902 0312 23D0     		beq	.L506
 497:../Drivers/STM32F4xx_HAL_Driver/Src/stm32f4xx_hal_dma.c ****     tmp1 = __HAL_DMA_GET_FLAG(hdma, __HAL_DMA_GET_FE_FLAG_INDEX(hdma));
 2903              		.loc 1 497 0 discriminator 119
 2904 0314 A1F58961 		sub	r1, r1, #1096
 2905 0318 8B42     		cmp	r3, r1
 2906 031a 22D0     		beq	.L507
 497:../Drivers/STM32F4xx_HAL_Driver/Src/stm32f4xx_hal_dma.c ****     tmp1 = __HAL_DMA_GET_FLAG(hdma, __HAL_DMA_GET_FE_FLAG_INDEX(hdma));
 2907              		.loc 1 497 0 discriminator 121
 2908 031c 01F58061 		add	r1, r1, #1024
 2909 0320 8B42     		cmp	r3, r1
 2910 0322 21D0     		beq	.L508
 497:../Drivers/STM32F4xx_HAL_Driver/Src/stm32f4xx_hal_dma.c ****     tmp1 = __HAL_DMA_GET_FLAG(hdma, __HAL_DMA_GET_FE_FLAG_INDEX(hdma));
 2911              		.loc 1 497 0 discriminator 123
 2912 0324 A1F56871 		sub	r1, r1, #928
 2913 0328 8B42     		cmp	r3, r1
 2914 032a 20D0     		beq	.L509
 497:../Drivers/STM32F4xx_HAL_Driver/Src/stm32f4xx_hal_dma.c ****     tmp1 = __HAL_DMA_GET_FLAG(hdma, __HAL_DMA_GET_FE_FLAG_INDEX(hdma));
 2915              		.loc 1 497 0 discriminator 125
 2916 032c 01F58061 		add	r1, r1, #1024
 2917 0330 8B42     		cmp	r3, r1
 2918 0332 1FD1     		bne	.L510
 497:../Drivers/STM32F4xx_HAL_Driver/Src/stm32f4xx_hal_dma.c ****     tmp1 = __HAL_DMA_GET_FLAG(hdma, __HAL_DMA_GET_FE_FLAG_INDEX(hdma));
 2919              		.loc 1 497 0
 2920 0334 4FF40021 		mov	r1, #524288
 2921 0338 1EE0     		b	.L336
 2922              	.L499:
 2923 033a 0821     		movs	r1, #8
 2924 033c 1CE0     		b	.L336
 2925              	.L500:
 2926 033e 0821     		movs	r1, #8
 2927 0340 1AE0     		b	.L336
 2928              	.L501:
 2929 0342 0821     		movs	r1, #8
 2930 0344 18E0     		b	.L336
 2931              	.L502:
 2932 0346 0821     		movs	r1, #8
 2933 0348 16E0     		b	.L336
 2934              	.L503:
 2935 034a 4FF40071 		mov	r1, #512
 2936 034e 13E0     		b	.L336
ARM GAS  /tmp/ccIvKYQX.s 			page 76


 2937              	.L504:
 2938 0350 4FF40071 		mov	r1, #512
 2939 0354 10E0     		b	.L336
 2940              	.L505:
 2941 0356 4FF40071 		mov	r1, #512
 2942 035a 0DE0     		b	.L336
 2943              	.L506:
 2944 035c 4FF40071 		mov	r1, #512
 2945 0360 0AE0     		b	.L336
 2946              	.L507:
 2947 0362 4FF40021 		mov	r1, #524288
 2948 0366 07E0     		b	.L336
 2949              	.L508:
 2950 0368 4FF40021 		mov	r1, #524288
 2951 036c 04E0     		b	.L336
 2952              	.L509:
 2953 036e 4FF40021 		mov	r1, #524288
 2954 0372 01E0     		b	.L336
 2955              	.L510:
 2956 0374 4FF00071 		mov	r1, #33554432
 2957              	.L336:
 497:../Drivers/STM32F4xx_HAL_Driver/Src/stm32f4xx_hal_dma.c ****     tmp1 = __HAL_DMA_GET_FLAG(hdma, __HAL_DMA_GET_FE_FLAG_INDEX(hdma));
 2958              		.loc 1 497 0 discriminator 152
 2959 0378 0A40     		ands	r2, r2, r1
 2960 037a 53E0     		b	.L332
 2961              	.L335:
 497:../Drivers/STM32F4xx_HAL_Driver/Src/stm32f4xx_hal_dma.c ****     tmp1 = __HAL_DMA_GET_FLAG(hdma, __HAL_DMA_GET_FE_FLAG_INDEX(hdma));
 2962              		.loc 1 497 0 discriminator 104
 2963 037c 7F4A     		ldr	r2, .L1055+8
 2964 037e 1268     		ldr	r2, [r2]
 2965 0380 7D49     		ldr	r1, .L1055+4
 2966 0382 8B42     		cmp	r3, r1
 2967 0384 2ED0     		beq	.L511
 497:../Drivers/STM32F4xx_HAL_Driver/Src/stm32f4xx_hal_dma.c ****     tmp1 = __HAL_DMA_GET_FLAG(hdma, __HAL_DMA_GET_FE_FLAG_INDEX(hdma));
 2968              		.loc 1 497 0 discriminator 154
 2969 0386 01F58061 		add	r1, r1, #1024
 2970 038a 8B42     		cmp	r3, r1
 2971 038c 2CD0     		beq	.L512
 497:../Drivers/STM32F4xx_HAL_Driver/Src/stm32f4xx_hal_dma.c ****     tmp1 = __HAL_DMA_GET_FLAG(hdma, __HAL_DMA_GET_FE_FLAG_INDEX(hdma));
 2972              		.loc 1 497 0 discriminator 156
 2973 038e A1F56871 		sub	r1, r1, #928
 2974 0392 8B42     		cmp	r3, r1
 2975 0394 2AD0     		beq	.L513
 497:../Drivers/STM32F4xx_HAL_Driver/Src/stm32f4xx_hal_dma.c ****     tmp1 = __HAL_DMA_GET_FLAG(hdma, __HAL_DMA_GET_FE_FLAG_INDEX(hdma));
 2976              		.loc 1 497 0 discriminator 158
 2977 0396 01F58061 		add	r1, r1, #1024
 2978 039a 8B42     		cmp	r3, r1
 2979 039c 28D0     		beq	.L514
 497:../Drivers/STM32F4xx_HAL_Driver/Src/stm32f4xx_hal_dma.c ****     tmp1 = __HAL_DMA_GET_FLAG(hdma, __HAL_DMA_GET_FE_FLAG_INDEX(hdma));
 2980              		.loc 1 497 0 discriminator 160
 2981 039e A1F58961 		sub	r1, r1, #1096
 2982 03a2 8B42     		cmp	r3, r1
 2983 03a4 26D0     		beq	.L515
 497:../Drivers/STM32F4xx_HAL_Driver/Src/stm32f4xx_hal_dma.c ****     tmp1 = __HAL_DMA_GET_FLAG(hdma, __HAL_DMA_GET_FE_FLAG_INDEX(hdma));
 2984              		.loc 1 497 0 discriminator 162
 2985 03a6 01F58061 		add	r1, r1, #1024
 2986 03aa 8B42     		cmp	r3, r1
ARM GAS  /tmp/ccIvKYQX.s 			page 77


 2987 03ac 25D0     		beq	.L516
 497:../Drivers/STM32F4xx_HAL_Driver/Src/stm32f4xx_hal_dma.c ****     tmp1 = __HAL_DMA_GET_FLAG(hdma, __HAL_DMA_GET_FE_FLAG_INDEX(hdma));
 2988              		.loc 1 497 0 discriminator 164
 2989 03ae A1F56871 		sub	r1, r1, #928
 2990 03b2 8B42     		cmp	r3, r1
 2991 03b4 24D0     		beq	.L517
 497:../Drivers/STM32F4xx_HAL_Driver/Src/stm32f4xx_hal_dma.c ****     tmp1 = __HAL_DMA_GET_FLAG(hdma, __HAL_DMA_GET_FE_FLAG_INDEX(hdma));
 2992              		.loc 1 497 0 discriminator 166
 2993 03b6 01F58061 		add	r1, r1, #1024
 2994 03ba 8B42     		cmp	r3, r1
 2995 03bc 23D0     		beq	.L518
 497:../Drivers/STM32F4xx_HAL_Driver/Src/stm32f4xx_hal_dma.c ****     tmp1 = __HAL_DMA_GET_FLAG(hdma, __HAL_DMA_GET_FE_FLAG_INDEX(hdma));
 2996              		.loc 1 497 0 discriminator 168
 2997 03be A1F58961 		sub	r1, r1, #1096
