ARM GAS  /tmp/ccSRu46N.s 			page 1


   1              		.syntax unified
   2              		.cpu cortex-m4
   3              		.eabi_attribute 27, 1
   4              		.eabi_attribute 28, 1
   5              		.fpu fpv4-sp-d16
   6              		.eabi_attribute 20, 1
   7              		.eabi_attribute 21, 1
   8              		.eabi_attribute 23, 3
   9              		.eabi_attribute 24, 1
  10              		.eabi_attribute 25, 1
  11              		.eabi_attribute 26, 1
  12              		.eabi_attribute 30, 1
  13              		.eabi_attribute 34, 1
  14              		.eabi_attribute 18, 4
  15              		.thumb
  16              		.syntax unified
  17              		.file	"stm32f4xx_hal_rcc_ex.c"
  18              		.text
  19              	.Ltext0:
  20              		.cfi_sections	.debug_frame
  21              		.section	.text.HAL_RCCEx_PeriphCLKConfig,"ax",%progbits
  22              		.align	2
  23              		.global	HAL_RCCEx_PeriphCLKConfig
  24              		.thumb
  25              		.thumb_func
  27              	HAL_RCCEx_PeriphCLKConfig:
  28              	.LFB112:
  29              		.file 1 "../Drivers/STM32F4xx_HAL_Driver/Src/stm32f4xx_hal_rcc_ex.c"
   1:../Drivers/STM32F4xx_HAL_Driver/Src/stm32f4xx_hal_rcc_ex.c **** /**
   2:../Drivers/STM32F4xx_HAL_Driver/Src/stm32f4xx_hal_rcc_ex.c ****   ******************************************************************************
   3:../Drivers/STM32F4xx_HAL_Driver/Src/stm32f4xx_hal_rcc_ex.c ****   * @file    stm32f4xx_hal_rcc_ex.c
   4:../Drivers/STM32F4xx_HAL_Driver/Src/stm32f4xx_hal_rcc_ex.c ****   * @author  MCD Application Team
   5:../Drivers/STM32F4xx_HAL_Driver/Src/stm32f4xx_hal_rcc_ex.c ****   * @version V1.1.0
   6:../Drivers/STM32F4xx_HAL_Driver/Src/stm32f4xx_hal_rcc_ex.c ****   * @date    19-June-2014
   7:../Drivers/STM32F4xx_HAL_Driver/Src/stm32f4xx_hal_rcc_ex.c ****   * @brief   Extension RCC HAL module driver.
   8:../Drivers/STM32F4xx_HAL_Driver/Src/stm32f4xx_hal_rcc_ex.c ****   *          This file provides firmware functions to manage the following 
   9:../Drivers/STM32F4xx_HAL_Driver/Src/stm32f4xx_hal_rcc_ex.c ****   *          functionalities RCC extension peripheral:
  10:../Drivers/STM32F4xx_HAL_Driver/Src/stm32f4xx_hal_rcc_ex.c ****   *           + Extended Peripheral Control functions
  11:../Drivers/STM32F4xx_HAL_Driver/Src/stm32f4xx_hal_rcc_ex.c ****   *  
  12:../Drivers/STM32F4xx_HAL_Driver/Src/stm32f4xx_hal_rcc_ex.c ****   ******************************************************************************
  13:../Drivers/STM32F4xx_HAL_Driver/Src/stm32f4xx_hal_rcc_ex.c ****   * @attention
  14:../Drivers/STM32F4xx_HAL_Driver/Src/stm32f4xx_hal_rcc_ex.c ****   *
  15:../Drivers/STM32F4xx_HAL_Driver/Src/stm32f4xx_hal_rcc_ex.c ****   * <h2><center>&copy; COPYRIGHT(c) 2014 STMicroelectronics</center></h2>
  16:../Drivers/STM32F4xx_HAL_Driver/Src/stm32f4xx_hal_rcc_ex.c ****   *
  17:../Drivers/STM32F4xx_HAL_Driver/Src/stm32f4xx_hal_rcc_ex.c ****   * Redistribution and use in source and binary forms, with or without modification,
  18:../Drivers/STM32F4xx_HAL_Driver/Src/stm32f4xx_hal_rcc_ex.c ****   * are permitted provided that the following conditions are met:
  19:../Drivers/STM32F4xx_HAL_Driver/Src/stm32f4xx_hal_rcc_ex.c ****   *   1. Redistributions of source code must retain the above copyright notice,
  20:../Drivers/STM32F4xx_HAL_Driver/Src/stm32f4xx_hal_rcc_ex.c ****   *      this list of conditions and the following disclaimer.
  21:../Drivers/STM32F4xx_HAL_Driver/Src/stm32f4xx_hal_rcc_ex.c ****   *   2. Redistributions in binary form must reproduce the above copyright notice,
  22:../Drivers/STM32F4xx_HAL_Driver/Src/stm32f4xx_hal_rcc_ex.c ****   *      this list of conditions and the following disclaimer in the documentation
  23:../Drivers/STM32F4xx_HAL_Driver/Src/stm32f4xx_hal_rcc_ex.c ****   *      and/or other materials provided with the distribution.
  24:../Drivers/STM32F4xx_HAL_Driver/Src/stm32f4xx_hal_rcc_ex.c ****   *   3. Neither the name of STMicroelectronics nor the names of its contributors
  25:../Drivers/STM32F4xx_HAL_Driver/Src/stm32f4xx_hal_rcc_ex.c ****   *      may be used to endorse or promote products derived from this software
  26:../Drivers/STM32F4xx_HAL_Driver/Src/stm32f4xx_hal_rcc_ex.c ****   *      without specific prior written permission.
  27:../Drivers/STM32F4xx_HAL_Driver/Src/stm32f4xx_hal_rcc_ex.c ****   *
  28:../Drivers/STM32F4xx_HAL_Driver/Src/stm32f4xx_hal_rcc_ex.c ****   * THIS SOFTWARE IS PROVIDED BY THE COPYRIGHT HOLDERS AND CONTRIBUTORS "AS IS"
  29:../Drivers/STM32F4xx_HAL_Driver/Src/stm32f4xx_hal_rcc_ex.c ****   * AND ANY EXPRESS OR IMPLIED WARRANTIES, INCLUDING, BUT NOT LIMITED TO, THE
ARM GAS  /tmp/ccSRu46N.s 			page 2


  30:../Drivers/STM32F4xx_HAL_Driver/Src/stm32f4xx_hal_rcc_ex.c ****   * IMPLIED WARRANTIES OF MERCHANTABILITY AND FITNESS FOR A PARTICULAR PURPOSE ARE
  31:../Drivers/STM32F4xx_HAL_Driver/Src/stm32f4xx_hal_rcc_ex.c ****   * DISCLAIMED. IN NO EVENT SHALL THE COPYRIGHT HOLDER OR CONTRIBUTORS BE LIABLE
  32:../Drivers/STM32F4xx_HAL_Driver/Src/stm32f4xx_hal_rcc_ex.c ****   * FOR ANY DIRECT, INDIRECT, INCIDENTAL, SPECIAL, EXEMPLARY, OR CONSEQUENTIAL
  33:../Drivers/STM32F4xx_HAL_Driver/Src/stm32f4xx_hal_rcc_ex.c ****   * DAMAGES (INCLUDING, BUT NOT LIMITED TO, PROCUREMENT OF SUBSTITUTE GOODS OR
  34:../Drivers/STM32F4xx_HAL_Driver/Src/stm32f4xx_hal_rcc_ex.c ****   * SERVICES; LOSS OF USE, DATA, OR PROFITS; OR BUSINESS INTERRUPTION) HOWEVER
  35:../Drivers/STM32F4xx_HAL_Driver/Src/stm32f4xx_hal_rcc_ex.c ****   * CAUSED AND ON ANY THEORY OF LIABILITY, WHETHER IN CONTRACT, STRICT LIABILITY,
  36:../Drivers/STM32F4xx_HAL_Driver/Src/stm32f4xx_hal_rcc_ex.c ****   * OR TORT (INCLUDING NEGLIGENCE OR OTHERWISE) ARISING IN ANY WAY OUT OF THE USE
  37:../Drivers/STM32F4xx_HAL_Driver/Src/stm32f4xx_hal_rcc_ex.c ****   * OF THIS SOFTWARE, EVEN IF ADVISED OF THE POSSIBILITY OF SUCH DAMAGE.
  38:../Drivers/STM32F4xx_HAL_Driver/Src/stm32f4xx_hal_rcc_ex.c ****   *
  39:../Drivers/STM32F4xx_HAL_Driver/Src/stm32f4xx_hal_rcc_ex.c ****   ******************************************************************************
  40:../Drivers/STM32F4xx_HAL_Driver/Src/stm32f4xx_hal_rcc_ex.c ****   */ 
  41:../Drivers/STM32F4xx_HAL_Driver/Src/stm32f4xx_hal_rcc_ex.c **** 
  42:../Drivers/STM32F4xx_HAL_Driver/Src/stm32f4xx_hal_rcc_ex.c **** /* Includes ------------------------------------------------------------------*/
  43:../Drivers/STM32F4xx_HAL_Driver/Src/stm32f4xx_hal_rcc_ex.c **** #include "stm32f4xx_hal.h"
  44:../Drivers/STM32F4xx_HAL_Driver/Src/stm32f4xx_hal_rcc_ex.c **** 
  45:../Drivers/STM32F4xx_HAL_Driver/Src/stm32f4xx_hal_rcc_ex.c **** /** @addtogroup STM32F4xx_HAL_Driver
  46:../Drivers/STM32F4xx_HAL_Driver/Src/stm32f4xx_hal_rcc_ex.c ****   * @{
  47:../Drivers/STM32F4xx_HAL_Driver/Src/stm32f4xx_hal_rcc_ex.c ****   */
  48:../Drivers/STM32F4xx_HAL_Driver/Src/stm32f4xx_hal_rcc_ex.c **** 
  49:../Drivers/STM32F4xx_HAL_Driver/Src/stm32f4xx_hal_rcc_ex.c **** /** @defgroup RCC 
  50:../Drivers/STM32F4xx_HAL_Driver/Src/stm32f4xx_hal_rcc_ex.c ****   * @brief RCC HAL module driver
  51:../Drivers/STM32F4xx_HAL_Driver/Src/stm32f4xx_hal_rcc_ex.c ****   * @{
  52:../Drivers/STM32F4xx_HAL_Driver/Src/stm32f4xx_hal_rcc_ex.c ****   */
  53:../Drivers/STM32F4xx_HAL_Driver/Src/stm32f4xx_hal_rcc_ex.c **** 
  54:../Drivers/STM32F4xx_HAL_Driver/Src/stm32f4xx_hal_rcc_ex.c **** #ifdef HAL_RCC_MODULE_ENABLED
  55:../Drivers/STM32F4xx_HAL_Driver/Src/stm32f4xx_hal_rcc_ex.c **** 
  56:../Drivers/STM32F4xx_HAL_Driver/Src/stm32f4xx_hal_rcc_ex.c **** /* Private typedef -----------------------------------------------------------*/
  57:../Drivers/STM32F4xx_HAL_Driver/Src/stm32f4xx_hal_rcc_ex.c **** /* Private define ------------------------------------------------------------*/
  58:../Drivers/STM32F4xx_HAL_Driver/Src/stm32f4xx_hal_rcc_ex.c **** #define PLLI2S_TIMEOUT_VALUE    100 /* Timeout value fixed to 100 ms  */
  59:../Drivers/STM32F4xx_HAL_Driver/Src/stm32f4xx_hal_rcc_ex.c **** #define PLLSAI_TIMEOUT_VALUE    100 /* Timeout value fixed to 100 ms  */
  60:../Drivers/STM32F4xx_HAL_Driver/Src/stm32f4xx_hal_rcc_ex.c **** /* Private macro -------------------------------------------------------------*/
  61:../Drivers/STM32F4xx_HAL_Driver/Src/stm32f4xx_hal_rcc_ex.c **** /* Private variables ---------------------------------------------------------*/
  62:../Drivers/STM32F4xx_HAL_Driver/Src/stm32f4xx_hal_rcc_ex.c **** /* Private function prototypes -----------------------------------------------*/
  63:../Drivers/STM32F4xx_HAL_Driver/Src/stm32f4xx_hal_rcc_ex.c **** /* Private functions ---------------------------------------------------------*/
  64:../Drivers/STM32F4xx_HAL_Driver/Src/stm32f4xx_hal_rcc_ex.c **** 
  65:../Drivers/STM32F4xx_HAL_Driver/Src/stm32f4xx_hal_rcc_ex.c **** /** @defgroup RCCEx_Private_Functions
  66:../Drivers/STM32F4xx_HAL_Driver/Src/stm32f4xx_hal_rcc_ex.c ****   * @{
  67:../Drivers/STM32F4xx_HAL_Driver/Src/stm32f4xx_hal_rcc_ex.c ****   */
  68:../Drivers/STM32F4xx_HAL_Driver/Src/stm32f4xx_hal_rcc_ex.c **** 
  69:../Drivers/STM32F4xx_HAL_Driver/Src/stm32f4xx_hal_rcc_ex.c **** /** @defgroup RCCEx_Group1 Extended Peripheral Control functions 
  70:../Drivers/STM32F4xx_HAL_Driver/Src/stm32f4xx_hal_rcc_ex.c ****  *  @brief  Extended Peripheral Control functions  
  71:../Drivers/STM32F4xx_HAL_Driver/Src/stm32f4xx_hal_rcc_ex.c ****  *
  72:../Drivers/STM32F4xx_HAL_Driver/Src/stm32f4xx_hal_rcc_ex.c **** @verbatim   
  73:../Drivers/STM32F4xx_HAL_Driver/Src/stm32f4xx_hal_rcc_ex.c ****  ===============================================================================
  74:../Drivers/STM32F4xx_HAL_Driver/Src/stm32f4xx_hal_rcc_ex.c ****                 ##### Extended Peripheral Control functions  #####
  75:../Drivers/STM32F4xx_HAL_Driver/Src/stm32f4xx_hal_rcc_ex.c ****  ===============================================================================  
  76:../Drivers/STM32F4xx_HAL_Driver/Src/stm32f4xx_hal_rcc_ex.c ****     [..]
  77:../Drivers/STM32F4xx_HAL_Driver/Src/stm32f4xx_hal_rcc_ex.c ****     This subsection provides a set of functions allowing to control the RCC Clocks 
  78:../Drivers/STM32F4xx_HAL_Driver/Src/stm32f4xx_hal_rcc_ex.c ****     frequencies.
  79:../Drivers/STM32F4xx_HAL_Driver/Src/stm32f4xx_hal_rcc_ex.c ****     [..] 
  80:../Drivers/STM32F4xx_HAL_Driver/Src/stm32f4xx_hal_rcc_ex.c ****     (@) Important note: Care must be taken when HAL_RCCEx_PeriphCLKConfig() is used to
  81:../Drivers/STM32F4xx_HAL_Driver/Src/stm32f4xx_hal_rcc_ex.c ****         select the RTC clock source; in this case the Backup domain will be reset in  
  82:../Drivers/STM32F4xx_HAL_Driver/Src/stm32f4xx_hal_rcc_ex.c ****         order to modify the RTC Clock source, as consequence RTC registers (including 
  83:../Drivers/STM32F4xx_HAL_Driver/Src/stm32f4xx_hal_rcc_ex.c ****         the backup registers) and RCC_BDCR register are set to their reset values.
  84:../Drivers/STM32F4xx_HAL_Driver/Src/stm32f4xx_hal_rcc_ex.c ****       
  85:../Drivers/STM32F4xx_HAL_Driver/Src/stm32f4xx_hal_rcc_ex.c **** @endverbatim
  86:../Drivers/STM32F4xx_HAL_Driver/Src/stm32f4xx_hal_rcc_ex.c ****   * @{
ARM GAS  /tmp/ccSRu46N.s 			page 3


  87:../Drivers/STM32F4xx_HAL_Driver/Src/stm32f4xx_hal_rcc_ex.c ****   */
  88:../Drivers/STM32F4xx_HAL_Driver/Src/stm32f4xx_hal_rcc_ex.c **** #if defined(STM32F427xx) || defined(STM32F437xx) || defined(STM32F429xx)|| defined(STM32F439xx) 
  89:../Drivers/STM32F4xx_HAL_Driver/Src/stm32f4xx_hal_rcc_ex.c **** /**
  90:../Drivers/STM32F4xx_HAL_Driver/Src/stm32f4xx_hal_rcc_ex.c ****   * @brief  Initializes the RCC extended peripherals clocks according to the specified
  91:../Drivers/STM32F4xx_HAL_Driver/Src/stm32f4xx_hal_rcc_ex.c ****   *         parameters in the RCC_PeriphCLKInitTypeDef.
  92:../Drivers/STM32F4xx_HAL_Driver/Src/stm32f4xx_hal_rcc_ex.c ****   * @param  PeriphClkInit: pointer to an RCC_PeriphCLKInitTypeDef structure that
  93:../Drivers/STM32F4xx_HAL_Driver/Src/stm32f4xx_hal_rcc_ex.c ****   *         contains the configuration information for the Extended Peripherals
  94:../Drivers/STM32F4xx_HAL_Driver/Src/stm32f4xx_hal_rcc_ex.c ****   *         clocks(I2S, SAI, LTDC RTC and TIM).
  95:../Drivers/STM32F4xx_HAL_Driver/Src/stm32f4xx_hal_rcc_ex.c ****   *         
  96:../Drivers/STM32F4xx_HAL_Driver/Src/stm32f4xx_hal_rcc_ex.c ****   * @note   Care must be taken when HAL_RCCEx_PeriphCLKConfig() is used to select 
  97:../Drivers/STM32F4xx_HAL_Driver/Src/stm32f4xx_hal_rcc_ex.c ****   *         the RTC clock source; in this case the Backup domain will be reset in  
  98:../Drivers/STM32F4xx_HAL_Driver/Src/stm32f4xx_hal_rcc_ex.c ****   *         order to modify the RTC Clock source, as consequence RTC registers (including 
  99:../Drivers/STM32F4xx_HAL_Driver/Src/stm32f4xx_hal_rcc_ex.c ****   *         the backup registers) and RCC_BDCR register are set to their reset values.
 100:../Drivers/STM32F4xx_HAL_Driver/Src/stm32f4xx_hal_rcc_ex.c ****   *
 101:../Drivers/STM32F4xx_HAL_Driver/Src/stm32f4xx_hal_rcc_ex.c ****   * @retval HAL status
 102:../Drivers/STM32F4xx_HAL_Driver/Src/stm32f4xx_hal_rcc_ex.c ****   */
 103:../Drivers/STM32F4xx_HAL_Driver/Src/stm32f4xx_hal_rcc_ex.c **** HAL_StatusTypeDef HAL_RCCEx_PeriphCLKConfig(RCC_PeriphCLKInitTypeDef  *PeriphClkInit)
 104:../Drivers/STM32F4xx_HAL_Driver/Src/stm32f4xx_hal_rcc_ex.c **** {
 105:../Drivers/STM32F4xx_HAL_Driver/Src/stm32f4xx_hal_rcc_ex.c ****   uint32_t tickstart = 0;
 106:../Drivers/STM32F4xx_HAL_Driver/Src/stm32f4xx_hal_rcc_ex.c ****   uint32_t tmpreg = 0;
 107:../Drivers/STM32F4xx_HAL_Driver/Src/stm32f4xx_hal_rcc_ex.c ****     
 108:../Drivers/STM32F4xx_HAL_Driver/Src/stm32f4xx_hal_rcc_ex.c ****   /* Check the parameters */
 109:../Drivers/STM32F4xx_HAL_Driver/Src/stm32f4xx_hal_rcc_ex.c ****   assert_param(IS_RCC_PERIPHCLOCK(PeriphClkInit->PeriphClockSelection));
 110:../Drivers/STM32F4xx_HAL_Driver/Src/stm32f4xx_hal_rcc_ex.c ****   
 111:../Drivers/STM32F4xx_HAL_Driver/Src/stm32f4xx_hal_rcc_ex.c ****   /*----------------------- SAI/I2S Configuration (PLLI2S) -------------------------*/
 112:../Drivers/STM32F4xx_HAL_Driver/Src/stm32f4xx_hal_rcc_ex.c ****   
 113:../Drivers/STM32F4xx_HAL_Driver/Src/stm32f4xx_hal_rcc_ex.c ****   /*----------------------- Common configuration SAI/I2S ---------------------------*/
 114:../Drivers/STM32F4xx_HAL_Driver/Src/stm32f4xx_hal_rcc_ex.c ****   /* In Case of SAI or I2S Clock Configuration through PLLI2S, PLLI2SN division   
 115:../Drivers/STM32F4xx_HAL_Driver/Src/stm32f4xx_hal_rcc_ex.c ****      factor is common parameters for both peripherals */ 
 116:../Drivers/STM32F4xx_HAL_Driver/Src/stm32f4xx_hal_rcc_ex.c ****   if((((PeriphClkInit->PeriphClockSelection) & RCC_PERIPHCLK_I2S) == RCC_PERIPHCLK_I2S) || 
 117:../Drivers/STM32F4xx_HAL_Driver/Src/stm32f4xx_hal_rcc_ex.c ****      (((PeriphClkInit->PeriphClockSelection) & RCC_PERIPHCLK_SAI_PLLI2S) == RCC_PERIPHCLK_SAI_PLLI2
 118:../Drivers/STM32F4xx_HAL_Driver/Src/stm32f4xx_hal_rcc_ex.c ****   {
 119:../Drivers/STM32F4xx_HAL_Driver/Src/stm32f4xx_hal_rcc_ex.c ****     /* check for Parameters */
 120:../Drivers/STM32F4xx_HAL_Driver/Src/stm32f4xx_hal_rcc_ex.c ****     assert_param(IS_RCC_PLLI2SN_VALUE(PeriphClkInit->PLLI2S.PLLI2SN));
 121:../Drivers/STM32F4xx_HAL_Driver/Src/stm32f4xx_hal_rcc_ex.c ****         
 122:../Drivers/STM32F4xx_HAL_Driver/Src/stm32f4xx_hal_rcc_ex.c ****     /* Disable the PLLI2S */
 123:../Drivers/STM32F4xx_HAL_Driver/Src/stm32f4xx_hal_rcc_ex.c ****     __HAL_RCC_PLLI2S_DISABLE();    
 124:../Drivers/STM32F4xx_HAL_Driver/Src/stm32f4xx_hal_rcc_ex.c ****     /* Get tick */
 125:../Drivers/STM32F4xx_HAL_Driver/Src/stm32f4xx_hal_rcc_ex.c ****     tickstart = HAL_GetTick();
 126:../Drivers/STM32F4xx_HAL_Driver/Src/stm32f4xx_hal_rcc_ex.c ****     /* Wait till PLLI2S is disabled */
 127:../Drivers/STM32F4xx_HAL_Driver/Src/stm32f4xx_hal_rcc_ex.c ****     while(__HAL_RCC_GET_FLAG(RCC_FLAG_PLLI2SRDY)  != RESET)
 128:../Drivers/STM32F4xx_HAL_Driver/Src/stm32f4xx_hal_rcc_ex.c ****     {
 129:../Drivers/STM32F4xx_HAL_Driver/Src/stm32f4xx_hal_rcc_ex.c ****       if((HAL_GetTick() - tickstart ) > PLLI2S_TIMEOUT_VALUE)
 130:../Drivers/STM32F4xx_HAL_Driver/Src/stm32f4xx_hal_rcc_ex.c ****       {
 131:../Drivers/STM32F4xx_HAL_Driver/Src/stm32f4xx_hal_rcc_ex.c ****         /* return in case of Timeout detected */
 132:../Drivers/STM32F4xx_HAL_Driver/Src/stm32f4xx_hal_rcc_ex.c ****         return HAL_TIMEOUT;
 133:../Drivers/STM32F4xx_HAL_Driver/Src/stm32f4xx_hal_rcc_ex.c ****       }
 134:../Drivers/STM32F4xx_HAL_Driver/Src/stm32f4xx_hal_rcc_ex.c ****     }
 135:../Drivers/STM32F4xx_HAL_Driver/Src/stm32f4xx_hal_rcc_ex.c ****     
 136:../Drivers/STM32F4xx_HAL_Driver/Src/stm32f4xx_hal_rcc_ex.c ****     /*---------------------------- I2S configuration -------------------------------*/
 137:../Drivers/STM32F4xx_HAL_Driver/Src/stm32f4xx_hal_rcc_ex.c ****     /* In Case of I2S Clock Configuration through PLLI2S, PLLI2SR must be added   
 138:../Drivers/STM32F4xx_HAL_Driver/Src/stm32f4xx_hal_rcc_ex.c ****       only for I2S configuration */     
 139:../Drivers/STM32F4xx_HAL_Driver/Src/stm32f4xx_hal_rcc_ex.c ****     if(((PeriphClkInit->PeriphClockSelection) & RCC_PERIPHCLK_I2S) == (RCC_PERIPHCLK_I2S))
 140:../Drivers/STM32F4xx_HAL_Driver/Src/stm32f4xx_hal_rcc_ex.c ****     {
 141:../Drivers/STM32F4xx_HAL_Driver/Src/stm32f4xx_hal_rcc_ex.c ****       /* check for Parameters */
 142:../Drivers/STM32F4xx_HAL_Driver/Src/stm32f4xx_hal_rcc_ex.c ****       assert_param(IS_RCC_PLLI2SR_VALUE(PeriphClkInit->PLLI2S.PLLI2SR));
 143:../Drivers/STM32F4xx_HAL_Driver/Src/stm32f4xx_hal_rcc_ex.c ****       /* Configure the PLLI2S division factors */
ARM GAS  /tmp/ccSRu46N.s 			page 4


 144:../Drivers/STM32F4xx_HAL_Driver/Src/stm32f4xx_hal_rcc_ex.c ****       /* PLLI2S_VCO = f(VCO clock) = f(PLLI2S clock input) × (PLLI2SN/PLLM) */
 145:../Drivers/STM32F4xx_HAL_Driver/Src/stm32f4xx_hal_rcc_ex.c ****       /* I2SCLK = f(PLLI2S clock output) = f(VCO clock) / PLLI2SR */
 146:../Drivers/STM32F4xx_HAL_Driver/Src/stm32f4xx_hal_rcc_ex.c ****       __HAL_RCC_PLLI2S_CONFIG(PeriphClkInit->PLLI2S.PLLI2SN , PeriphClkInit->PLLI2S.PLLI2SR);
 147:../Drivers/STM32F4xx_HAL_Driver/Src/stm32f4xx_hal_rcc_ex.c ****     }
 148:../Drivers/STM32F4xx_HAL_Driver/Src/stm32f4xx_hal_rcc_ex.c ****   
 149:../Drivers/STM32F4xx_HAL_Driver/Src/stm32f4xx_hal_rcc_ex.c ****     /*---------------------------- SAI configuration -------------------------------*/ 
 150:../Drivers/STM32F4xx_HAL_Driver/Src/stm32f4xx_hal_rcc_ex.c ****     /* In Case of SAI Clock Configuration through PLLI2S, PLLI2SQ and PLLI2S_DIVQ must  
 151:../Drivers/STM32F4xx_HAL_Driver/Src/stm32f4xx_hal_rcc_ex.c ****        be added only for SAI configuration */     
 152:../Drivers/STM32F4xx_HAL_Driver/Src/stm32f4xx_hal_rcc_ex.c ****     if(((PeriphClkInit->PeriphClockSelection) & RCC_PERIPHCLK_SAI_PLLI2S) == (RCC_PERIPHCLK_SAI_PLL
 153:../Drivers/STM32F4xx_HAL_Driver/Src/stm32f4xx_hal_rcc_ex.c ****     {
 154:../Drivers/STM32F4xx_HAL_Driver/Src/stm32f4xx_hal_rcc_ex.c ****       /* Check the PLLI2S division factors */
 155:../Drivers/STM32F4xx_HAL_Driver/Src/stm32f4xx_hal_rcc_ex.c ****       assert_param(IS_RCC_PLLI2SQ_VALUE(PeriphClkInit->PLLI2S.PLLI2SQ));
 156:../Drivers/STM32F4xx_HAL_Driver/Src/stm32f4xx_hal_rcc_ex.c ****       assert_param(IS_RCC_PLLI2S_DIVQ_VALUE(PeriphClkInit->PLLI2SDivQ));
 157:../Drivers/STM32F4xx_HAL_Driver/Src/stm32f4xx_hal_rcc_ex.c ****       
 158:../Drivers/STM32F4xx_HAL_Driver/Src/stm32f4xx_hal_rcc_ex.c ****       /* Read PLLI2SR value from PLLI2SCFGR register (this value is not need for SAI configuration)
 159:../Drivers/STM32F4xx_HAL_Driver/Src/stm32f4xx_hal_rcc_ex.c ****       tmpreg = ((RCC->PLLI2SCFGR & RCC_PLLI2SCFGR_PLLI2SR) >> POSITION_VAL(RCC_PLLI2SCFGR_PLLI2SR))
 160:../Drivers/STM32F4xx_HAL_Driver/Src/stm32f4xx_hal_rcc_ex.c ****       /* Configure the PLLI2S division factors */      
 161:../Drivers/STM32F4xx_HAL_Driver/Src/stm32f4xx_hal_rcc_ex.c ****       /* PLLI2S_VCO Input  = PLL_SOURCE/PLLM */
 162:../Drivers/STM32F4xx_HAL_Driver/Src/stm32f4xx_hal_rcc_ex.c ****       /* PLLI2S_VCO Output = PLLI2S_VCO Input * PLLI2SN */
 163:../Drivers/STM32F4xx_HAL_Driver/Src/stm32f4xx_hal_rcc_ex.c ****       /* SAI_CLK(first level) = PLLI2S_VCO Output/PLLI2SQ */
 164:../Drivers/STM32F4xx_HAL_Driver/Src/stm32f4xx_hal_rcc_ex.c ****       __HAL_RCC_PLLI2S_SAICLK_CONFIG(PeriphClkInit->PLLI2S.PLLI2SN , PeriphClkInit->PLLI2S.PLLI2SQ 
 165:../Drivers/STM32F4xx_HAL_Driver/Src/stm32f4xx_hal_rcc_ex.c ****       /* SAI_CLK_x = SAI_CLK(first level)/PLLI2SDIVQ */ 
 166:../Drivers/STM32F4xx_HAL_Driver/Src/stm32f4xx_hal_rcc_ex.c ****       __HAL_RCC_PLLI2S_PLLSAICLKDIVQ_CONFIG(PeriphClkInit->PLLI2SDivQ);
 167:../Drivers/STM32F4xx_HAL_Driver/Src/stm32f4xx_hal_rcc_ex.c ****     }
 168:../Drivers/STM32F4xx_HAL_Driver/Src/stm32f4xx_hal_rcc_ex.c ****     
 169:../Drivers/STM32F4xx_HAL_Driver/Src/stm32f4xx_hal_rcc_ex.c ****     /* Enable the PLLI2S */
 170:../Drivers/STM32F4xx_HAL_Driver/Src/stm32f4xx_hal_rcc_ex.c ****     __HAL_RCC_PLLI2S_ENABLE();
 171:../Drivers/STM32F4xx_HAL_Driver/Src/stm32f4xx_hal_rcc_ex.c ****     /* Get tick */
 172:../Drivers/STM32F4xx_HAL_Driver/Src/stm32f4xx_hal_rcc_ex.c ****     tickstart = HAL_GetTick();
 173:../Drivers/STM32F4xx_HAL_Driver/Src/stm32f4xx_hal_rcc_ex.c ****     /* Wait till PLLI2S is ready */
 174:../Drivers/STM32F4xx_HAL_Driver/Src/stm32f4xx_hal_rcc_ex.c ****     while(__HAL_RCC_GET_FLAG(RCC_FLAG_PLLI2SRDY)  == RESET)
 175:../Drivers/STM32F4xx_HAL_Driver/Src/stm32f4xx_hal_rcc_ex.c ****     {
 176:../Drivers/STM32F4xx_HAL_Driver/Src/stm32f4xx_hal_rcc_ex.c ****       if((HAL_GetTick() - tickstart ) > PLLI2S_TIMEOUT_VALUE)
 177:../Drivers/STM32F4xx_HAL_Driver/Src/stm32f4xx_hal_rcc_ex.c ****       {
 178:../Drivers/STM32F4xx_HAL_Driver/Src/stm32f4xx_hal_rcc_ex.c ****         /* return in case of Timeout detected */
 179:../Drivers/STM32F4xx_HAL_Driver/Src/stm32f4xx_hal_rcc_ex.c ****         return HAL_TIMEOUT;
 180:../Drivers/STM32F4xx_HAL_Driver/Src/stm32f4xx_hal_rcc_ex.c ****       }
 181:../Drivers/STM32F4xx_HAL_Driver/Src/stm32f4xx_hal_rcc_ex.c ****     }
 182:../Drivers/STM32F4xx_HAL_Driver/Src/stm32f4xx_hal_rcc_ex.c ****   }
 183:../Drivers/STM32F4xx_HAL_Driver/Src/stm32f4xx_hal_rcc_ex.c ****   
 184:../Drivers/STM32F4xx_HAL_Driver/Src/stm32f4xx_hal_rcc_ex.c ****   /*----------------------- SAI/LTDC Configuration (PLLSAI) ------------------*/
 185:../Drivers/STM32F4xx_HAL_Driver/Src/stm32f4xx_hal_rcc_ex.c ****   
 186:../Drivers/STM32F4xx_HAL_Driver/Src/stm32f4xx_hal_rcc_ex.c ****   /*----------------------- Common configuration SAI/LTDC --------------------*/
 187:../Drivers/STM32F4xx_HAL_Driver/Src/stm32f4xx_hal_rcc_ex.c ****   /* In Case of SAI or LTDC Clock Configuration through PLLSAI, PLLSAIN division
 188:../Drivers/STM32F4xx_HAL_Driver/Src/stm32f4xx_hal_rcc_ex.c ****      factor is common parameters for both peripherals */ 
 189:../Drivers/STM32F4xx_HAL_Driver/Src/stm32f4xx_hal_rcc_ex.c ****   if((((PeriphClkInit->PeriphClockSelection) & RCC_PERIPHCLK_SAI_PLLSAI) == RCC_PERIPHCLK_SAI_PLLSA
 190:../Drivers/STM32F4xx_HAL_Driver/Src/stm32f4xx_hal_rcc_ex.c ****      (((PeriphClkInit->PeriphClockSelection) & RCC_PERIPHCLK_LTDC) == RCC_PERIPHCLK_LTDC))
 191:../Drivers/STM32F4xx_HAL_Driver/Src/stm32f4xx_hal_rcc_ex.c ****   {
 192:../Drivers/STM32F4xx_HAL_Driver/Src/stm32f4xx_hal_rcc_ex.c ****     /* Check the PLLSAI division factors */
 193:../Drivers/STM32F4xx_HAL_Driver/Src/stm32f4xx_hal_rcc_ex.c ****     assert_param(IS_RCC_PLLSAIN_VALUE(PeriphClkInit->PLLSAI.PLLSAIN));
 194:../Drivers/STM32F4xx_HAL_Driver/Src/stm32f4xx_hal_rcc_ex.c ****  
 195:../Drivers/STM32F4xx_HAL_Driver/Src/stm32f4xx_hal_rcc_ex.c ****     /* Disable PLLSAI Clock */
 196:../Drivers/STM32F4xx_HAL_Driver/Src/stm32f4xx_hal_rcc_ex.c ****     __HAL_RCC_PLLSAI_DISABLE(); 
 197:../Drivers/STM32F4xx_HAL_Driver/Src/stm32f4xx_hal_rcc_ex.c ****     /* Get tick */
 198:../Drivers/STM32F4xx_HAL_Driver/Src/stm32f4xx_hal_rcc_ex.c ****     tickstart = HAL_GetTick();
 199:../Drivers/STM32F4xx_HAL_Driver/Src/stm32f4xx_hal_rcc_ex.c ****     /* Wait till PLLSAI is disabled */
 200:../Drivers/STM32F4xx_HAL_Driver/Src/stm32f4xx_hal_rcc_ex.c ****     while(__HAL_RCC_PLLSAI_GET_FLAG() != RESET)
ARM GAS  /tmp/ccSRu46N.s 			page 5


 201:../Drivers/STM32F4xx_HAL_Driver/Src/stm32f4xx_hal_rcc_ex.c ****     {
 202:../Drivers/STM32F4xx_HAL_Driver/Src/stm32f4xx_hal_rcc_ex.c ****       if((HAL_GetTick() - tickstart ) > PLLSAI_TIMEOUT_VALUE)
 203:../Drivers/STM32F4xx_HAL_Driver/Src/stm32f4xx_hal_rcc_ex.c ****       { 
 204:../Drivers/STM32F4xx_HAL_Driver/Src/stm32f4xx_hal_rcc_ex.c ****         /* return in case of Timeout detected */
 205:../Drivers/STM32F4xx_HAL_Driver/Src/stm32f4xx_hal_rcc_ex.c ****         return HAL_TIMEOUT;
 206:../Drivers/STM32F4xx_HAL_Driver/Src/stm32f4xx_hal_rcc_ex.c ****       }
 207:../Drivers/STM32F4xx_HAL_Driver/Src/stm32f4xx_hal_rcc_ex.c ****     }
 208:../Drivers/STM32F4xx_HAL_Driver/Src/stm32f4xx_hal_rcc_ex.c ****     
 209:../Drivers/STM32F4xx_HAL_Driver/Src/stm32f4xx_hal_rcc_ex.c ****     /*---------------------------- SAI configuration -------------------------*/
 210:../Drivers/STM32F4xx_HAL_Driver/Src/stm32f4xx_hal_rcc_ex.c ****     /* In Case of SAI Clock Configuration through PLLSAI, PLLSAIQ and PLLSAI_DIVQ must  
 211:../Drivers/STM32F4xx_HAL_Driver/Src/stm32f4xx_hal_rcc_ex.c ****        be added only for SAI configuration */     
 212:../Drivers/STM32F4xx_HAL_Driver/Src/stm32f4xx_hal_rcc_ex.c ****     if(((PeriphClkInit->PeriphClockSelection) & RCC_PERIPHCLK_SAI_PLLSAI) == (RCC_PERIPHCLK_SAI_PLL
 213:../Drivers/STM32F4xx_HAL_Driver/Src/stm32f4xx_hal_rcc_ex.c ****     {
 214:../Drivers/STM32F4xx_HAL_Driver/Src/stm32f4xx_hal_rcc_ex.c ****       assert_param(IS_RCC_PLLSAIQ_VALUE(PeriphClkInit->PLLSAI.PLLSAIQ));
 215:../Drivers/STM32F4xx_HAL_Driver/Src/stm32f4xx_hal_rcc_ex.c ****       assert_param(IS_RCC_PLLSAI_DIVQ_VALUE(PeriphClkInit->PLLSAIDivQ));
 216:../Drivers/STM32F4xx_HAL_Driver/Src/stm32f4xx_hal_rcc_ex.c ****       
 217:../Drivers/STM32F4xx_HAL_Driver/Src/stm32f4xx_hal_rcc_ex.c ****       /* Read PLLSAIR value from PLLSAICFGR register (this value is not need for SAI configuration)
 218:../Drivers/STM32F4xx_HAL_Driver/Src/stm32f4xx_hal_rcc_ex.c ****       tmpreg = ((RCC->PLLSAICFGR & RCC_PLLSAICFGR_PLLSAIR) >> POSITION_VAL(RCC_PLLSAICFGR_PLLSAIR))
 219:../Drivers/STM32F4xx_HAL_Driver/Src/stm32f4xx_hal_rcc_ex.c ****       /* PLLSAI_VCO Input  = PLL_SOURCE/PLLM */
 220:../Drivers/STM32F4xx_HAL_Driver/Src/stm32f4xx_hal_rcc_ex.c ****       /* PLLSAI_VCO Output = PLLSAI_VCO Input * PLLSAIN */
 221:../Drivers/STM32F4xx_HAL_Driver/Src/stm32f4xx_hal_rcc_ex.c ****       /* SAI_CLK(first level) = PLLSAI_VCO Output/PLLSAIQ */
 222:../Drivers/STM32F4xx_HAL_Driver/Src/stm32f4xx_hal_rcc_ex.c ****       __HAL_RCC_PLLSAI_CONFIG(PeriphClkInit->PLLSAI.PLLSAIN , PeriphClkInit->PLLSAI.PLLSAIQ, tmpreg
 223:../Drivers/STM32F4xx_HAL_Driver/Src/stm32f4xx_hal_rcc_ex.c ****       /* SAI_CLK_x = SAI_CLK(first level)/PLLSAIDIVQ */ 
 224:../Drivers/STM32F4xx_HAL_Driver/Src/stm32f4xx_hal_rcc_ex.c ****       __HAL_RCC_PLLSAI_PLLSAICLKDIVQ_CONFIG(PeriphClkInit->PLLSAIDivQ);
 225:../Drivers/STM32F4xx_HAL_Driver/Src/stm32f4xx_hal_rcc_ex.c ****     }
 226:../Drivers/STM32F4xx_HAL_Driver/Src/stm32f4xx_hal_rcc_ex.c ****     
 227:../Drivers/STM32F4xx_HAL_Driver/Src/stm32f4xx_hal_rcc_ex.c ****     /*---------------------------- LTDC configuration ------------------------*/
 228:../Drivers/STM32F4xx_HAL_Driver/Src/stm32f4xx_hal_rcc_ex.c ****     if(((PeriphClkInit->PeriphClockSelection) & RCC_PERIPHCLK_LTDC) == (RCC_PERIPHCLK_LTDC))
 229:../Drivers/STM32F4xx_HAL_Driver/Src/stm32f4xx_hal_rcc_ex.c ****     {
 230:../Drivers/STM32F4xx_HAL_Driver/Src/stm32f4xx_hal_rcc_ex.c ****       assert_param(IS_RCC_PLLSAIR_VALUE(PeriphClkInit->PLLSAI.PLLSAIR));
 231:../Drivers/STM32F4xx_HAL_Driver/Src/stm32f4xx_hal_rcc_ex.c ****       assert_param(IS_RCC_PLLSAI_DIVR_VALUE(PeriphClkInit->PLLSAIDivR));
 232:../Drivers/STM32F4xx_HAL_Driver/Src/stm32f4xx_hal_rcc_ex.c ****       
 233:../Drivers/STM32F4xx_HAL_Driver/Src/stm32f4xx_hal_rcc_ex.c ****       /* Read PLLSAIR value from PLLSAICFGR register (this value is not need for SAI configuration)
 234:../Drivers/STM32F4xx_HAL_Driver/Src/stm32f4xx_hal_rcc_ex.c ****       tmpreg = ((RCC->PLLSAICFGR & RCC_PLLSAICFGR_PLLSAIQ) >> POSITION_VAL(RCC_PLLSAICFGR_PLLSAIQ))
 235:../Drivers/STM32F4xx_HAL_Driver/Src/stm32f4xx_hal_rcc_ex.c ****       /* PLLSAI_VCO Input  = PLL_SOURCE/PLLM */
 236:../Drivers/STM32F4xx_HAL_Driver/Src/stm32f4xx_hal_rcc_ex.c ****       /* PLLSAI_VCO Output = PLLSAI_VCO Input * PLLSAIN */
 237:../Drivers/STM32F4xx_HAL_Driver/Src/stm32f4xx_hal_rcc_ex.c ****       /* LTDC_CLK(first level) = PLLSAI_VCO Output/PLLSAIR */
 238:../Drivers/STM32F4xx_HAL_Driver/Src/stm32f4xx_hal_rcc_ex.c ****       __HAL_RCC_PLLSAI_CONFIG(PeriphClkInit->PLLSAI.PLLSAIN , tmpreg, PeriphClkInit->PLLSAI.PLLSAIR
 239:../Drivers/STM32F4xx_HAL_Driver/Src/stm32f4xx_hal_rcc_ex.c ****       /* LTDC_CLK = LTDC_CLK(first level)/PLLSAIDIVR */ 
 240:../Drivers/STM32F4xx_HAL_Driver/Src/stm32f4xx_hal_rcc_ex.c ****       __HAL_RCC_PLLSAI_PLLSAICLKDIVR_CONFIG(PeriphClkInit->PLLSAIDivR);
 241:../Drivers/STM32F4xx_HAL_Driver/Src/stm32f4xx_hal_rcc_ex.c ****     }    
 242:../Drivers/STM32F4xx_HAL_Driver/Src/stm32f4xx_hal_rcc_ex.c ****     /* Enable PLLSAI Clock */
 243:../Drivers/STM32F4xx_HAL_Driver/Src/stm32f4xx_hal_rcc_ex.c ****     __HAL_RCC_PLLSAI_ENABLE();
 244:../Drivers/STM32F4xx_HAL_Driver/Src/stm32f4xx_hal_rcc_ex.c ****     /* Get tick */
 245:../Drivers/STM32F4xx_HAL_Driver/Src/stm32f4xx_hal_rcc_ex.c ****     tickstart = HAL_GetTick();
 246:../Drivers/STM32F4xx_HAL_Driver/Src/stm32f4xx_hal_rcc_ex.c ****     /* Wait till PLLSAI is ready */
 247:../Drivers/STM32F4xx_HAL_Driver/Src/stm32f4xx_hal_rcc_ex.c ****     while(__HAL_RCC_PLLSAI_GET_FLAG() == RESET)
 248:../Drivers/STM32F4xx_HAL_Driver/Src/stm32f4xx_hal_rcc_ex.c ****     {
 249:../Drivers/STM32F4xx_HAL_Driver/Src/stm32f4xx_hal_rcc_ex.c ****       if((HAL_GetTick() - tickstart ) > PLLSAI_TIMEOUT_VALUE)
 250:../Drivers/STM32F4xx_HAL_Driver/Src/stm32f4xx_hal_rcc_ex.c ****       { 
 251:../Drivers/STM32F4xx_HAL_Driver/Src/stm32f4xx_hal_rcc_ex.c ****         /* return in case of Timeout detected */
 252:../Drivers/STM32F4xx_HAL_Driver/Src/stm32f4xx_hal_rcc_ex.c ****         return HAL_TIMEOUT;
 253:../Drivers/STM32F4xx_HAL_Driver/Src/stm32f4xx_hal_rcc_ex.c ****       }
 254:../Drivers/STM32F4xx_HAL_Driver/Src/stm32f4xx_hal_rcc_ex.c ****     }  
 255:../Drivers/STM32F4xx_HAL_Driver/Src/stm32f4xx_hal_rcc_ex.c ****   }
 256:../Drivers/STM32F4xx_HAL_Driver/Src/stm32f4xx_hal_rcc_ex.c **** 
 257:../Drivers/STM32F4xx_HAL_Driver/Src/stm32f4xx_hal_rcc_ex.c ****    
ARM GAS  /tmp/ccSRu46N.s 			page 6


 258:../Drivers/STM32F4xx_HAL_Driver/Src/stm32f4xx_hal_rcc_ex.c ****   /*---------------------------- RTC configuration ---------------------------*/
 259:../Drivers/STM32F4xx_HAL_Driver/Src/stm32f4xx_hal_rcc_ex.c ****   if(((PeriphClkInit->PeriphClockSelection) & RCC_PERIPHCLK_RTC) == (RCC_PERIPHCLK_RTC))
 260:../Drivers/STM32F4xx_HAL_Driver/Src/stm32f4xx_hal_rcc_ex.c ****   {
 261:../Drivers/STM32F4xx_HAL_Driver/Src/stm32f4xx_hal_rcc_ex.c ****     /* Enable Power Clock*/
 262:../Drivers/STM32F4xx_HAL_Driver/Src/stm32f4xx_hal_rcc_ex.c ****     __PWR_CLK_ENABLE();
 263:../Drivers/STM32F4xx_HAL_Driver/Src/stm32f4xx_hal_rcc_ex.c ****     
 264:../Drivers/STM32F4xx_HAL_Driver/Src/stm32f4xx_hal_rcc_ex.c ****     /* Enable write access to Backup domain */
 265:../Drivers/STM32F4xx_HAL_Driver/Src/stm32f4xx_hal_rcc_ex.c ****     PWR->CR |= PWR_CR_DBP;
 266:../Drivers/STM32F4xx_HAL_Driver/Src/stm32f4xx_hal_rcc_ex.c ****     
 267:../Drivers/STM32F4xx_HAL_Driver/Src/stm32f4xx_hal_rcc_ex.c ****     /* Get tick */
 268:../Drivers/STM32F4xx_HAL_Driver/Src/stm32f4xx_hal_rcc_ex.c ****     tickstart = HAL_GetTick();
 269:../Drivers/STM32F4xx_HAL_Driver/Src/stm32f4xx_hal_rcc_ex.c ****     
 270:../Drivers/STM32F4xx_HAL_Driver/Src/stm32f4xx_hal_rcc_ex.c ****     while((PWR->CR & PWR_CR_DBP) == RESET)
 271:../Drivers/STM32F4xx_HAL_Driver/Src/stm32f4xx_hal_rcc_ex.c ****     {
 272:../Drivers/STM32F4xx_HAL_Driver/Src/stm32f4xx_hal_rcc_ex.c ****       if((HAL_GetTick() - tickstart ) > DBP_TIMEOUT_VALUE)
 273:../Drivers/STM32F4xx_HAL_Driver/Src/stm32f4xx_hal_rcc_ex.c ****       {
 274:../Drivers/STM32F4xx_HAL_Driver/Src/stm32f4xx_hal_rcc_ex.c ****         return HAL_TIMEOUT;
 275:../Drivers/STM32F4xx_HAL_Driver/Src/stm32f4xx_hal_rcc_ex.c ****       }      
 276:../Drivers/STM32F4xx_HAL_Driver/Src/stm32f4xx_hal_rcc_ex.c ****     }
 277:../Drivers/STM32F4xx_HAL_Driver/Src/stm32f4xx_hal_rcc_ex.c ****     
 278:../Drivers/STM32F4xx_HAL_Driver/Src/stm32f4xx_hal_rcc_ex.c ****     /* Reset the Backup domain only if the RTC Clock source selction is modified */ 
 279:../Drivers/STM32F4xx_HAL_Driver/Src/stm32f4xx_hal_rcc_ex.c ****     if((RCC->BDCR & RCC_BDCR_RTCSEL) != (PeriphClkInit->RTCClockSelection & RCC_BDCR_RTCSEL))
 280:../Drivers/STM32F4xx_HAL_Driver/Src/stm32f4xx_hal_rcc_ex.c ****     {
 281:../Drivers/STM32F4xx_HAL_Driver/Src/stm32f4xx_hal_rcc_ex.c ****       /* Store the content of BDCR register before the reset of Backup Domain */
 282:../Drivers/STM32F4xx_HAL_Driver/Src/stm32f4xx_hal_rcc_ex.c ****       tmpreg = (RCC->BDCR & ~(RCC_BDCR_RTCSEL));
 283:../Drivers/STM32F4xx_HAL_Driver/Src/stm32f4xx_hal_rcc_ex.c ****       /* RTC Clock selection can be changed only if the Backup Domain is reset */
 284:../Drivers/STM32F4xx_HAL_Driver/Src/stm32f4xx_hal_rcc_ex.c ****       __HAL_RCC_BACKUPRESET_FORCE();
 285:../Drivers/STM32F4xx_HAL_Driver/Src/stm32f4xx_hal_rcc_ex.c ****       __HAL_RCC_BACKUPRESET_RELEASE();
 286:../Drivers/STM32F4xx_HAL_Driver/Src/stm32f4xx_hal_rcc_ex.c ****       /* Restore the Content of BDCR register */
 287:../Drivers/STM32F4xx_HAL_Driver/Src/stm32f4xx_hal_rcc_ex.c ****       RCC->BDCR = tmpreg;
 288:../Drivers/STM32F4xx_HAL_Driver/Src/stm32f4xx_hal_rcc_ex.c ****     }
 289:../Drivers/STM32F4xx_HAL_Driver/Src/stm32f4xx_hal_rcc_ex.c ****     
 290:../Drivers/STM32F4xx_HAL_Driver/Src/stm32f4xx_hal_rcc_ex.c ****     /* If LSE is selected as RTC clock source, wait for LSE reactivation */
 291:../Drivers/STM32F4xx_HAL_Driver/Src/stm32f4xx_hal_rcc_ex.c ****     if(PeriphClkInit->RTCClockSelection == RCC_RTCCLKSOURCE_LSE)
 292:../Drivers/STM32F4xx_HAL_Driver/Src/stm32f4xx_hal_rcc_ex.c ****     {
 293:../Drivers/STM32F4xx_HAL_Driver/Src/stm32f4xx_hal_rcc_ex.c ****       /* Get tick */
 294:../Drivers/STM32F4xx_HAL_Driver/Src/stm32f4xx_hal_rcc_ex.c ****       tickstart = HAL_GetTick();
 295:../Drivers/STM32F4xx_HAL_Driver/Src/stm32f4xx_hal_rcc_ex.c ****       
 296:../Drivers/STM32F4xx_HAL_Driver/Src/stm32f4xx_hal_rcc_ex.c ****       /* Wait till LSE is ready */  
 297:../Drivers/STM32F4xx_HAL_Driver/Src/stm32f4xx_hal_rcc_ex.c ****       while(__HAL_RCC_GET_FLAG(RCC_FLAG_LSERDY) == RESET)
 298:../Drivers/STM32F4xx_HAL_Driver/Src/stm32f4xx_hal_rcc_ex.c ****       {
 299:../Drivers/STM32F4xx_HAL_Driver/Src/stm32f4xx_hal_rcc_ex.c ****         if((HAL_GetTick() - tickstart ) > LSE_TIMEOUT_VALUE)
 300:../Drivers/STM32F4xx_HAL_Driver/Src/stm32f4xx_hal_rcc_ex.c ****         {
 301:../Drivers/STM32F4xx_HAL_Driver/Src/stm32f4xx_hal_rcc_ex.c ****           return HAL_TIMEOUT;
 302:../Drivers/STM32F4xx_HAL_Driver/Src/stm32f4xx_hal_rcc_ex.c ****         }      
 303:../Drivers/STM32F4xx_HAL_Driver/Src/stm32f4xx_hal_rcc_ex.c ****       }  
 304:../Drivers/STM32F4xx_HAL_Driver/Src/stm32f4xx_hal_rcc_ex.c ****     }
 305:../Drivers/STM32F4xx_HAL_Driver/Src/stm32f4xx_hal_rcc_ex.c ****     __HAL_RCC_RTC_CONFIG(PeriphClkInit->RTCClockSelection); 
 306:../Drivers/STM32F4xx_HAL_Driver/Src/stm32f4xx_hal_rcc_ex.c ****   }
 307:../Drivers/STM32F4xx_HAL_Driver/Src/stm32f4xx_hal_rcc_ex.c ****   
 308:../Drivers/STM32F4xx_HAL_Driver/Src/stm32f4xx_hal_rcc_ex.c ****   /*---------------------------- TIM configuration ---------------------------*/
 309:../Drivers/STM32F4xx_HAL_Driver/Src/stm32f4xx_hal_rcc_ex.c ****   if(((PeriphClkInit->PeriphClockSelection) & RCC_PERIPHCLK_TIM) == (RCC_PERIPHCLK_TIM))
 310:../Drivers/STM32F4xx_HAL_Driver/Src/stm32f4xx_hal_rcc_ex.c ****   {
 311:../Drivers/STM32F4xx_HAL_Driver/Src/stm32f4xx_hal_rcc_ex.c ****     __HAL_RCC_TIMCLKPRESCALER(PeriphClkInit->TIMPresSelection);
 312:../Drivers/STM32F4xx_HAL_Driver/Src/stm32f4xx_hal_rcc_ex.c ****   }
 313:../Drivers/STM32F4xx_HAL_Driver/Src/stm32f4xx_hal_rcc_ex.c ****   return HAL_OK;
 314:../Drivers/STM32F4xx_HAL_Driver/Src/stm32f4xx_hal_rcc_ex.c **** }
ARM GAS  /tmp/ccSRu46N.s 			page 7


 315:../Drivers/STM32F4xx_HAL_Driver/Src/stm32f4xx_hal_rcc_ex.c **** 
 316:../Drivers/STM32F4xx_HAL_Driver/Src/stm32f4xx_hal_rcc_ex.c **** /**
 317:../Drivers/STM32F4xx_HAL_Driver/Src/stm32f4xx_hal_rcc_ex.c ****   * @brief  Configures the RCC_OscInitStruct according to the internal 
 318:../Drivers/STM32F4xx_HAL_Driver/Src/stm32f4xx_hal_rcc_ex.c ****   * RCC configuration registers.
 319:../Drivers/STM32F4xx_HAL_Driver/Src/stm32f4xx_hal_rcc_ex.c ****   * @param  PeriphClkInit: pointer to an RCC_PeriphCLKInitTypeDef structure that 
 320:../Drivers/STM32F4xx_HAL_Driver/Src/stm32f4xx_hal_rcc_ex.c ****   *         will be configured.
 321:../Drivers/STM32F4xx_HAL_Driver/Src/stm32f4xx_hal_rcc_ex.c ****   * @retval None
 322:../Drivers/STM32F4xx_HAL_Driver/Src/stm32f4xx_hal_rcc_ex.c ****   */
 323:../Drivers/STM32F4xx_HAL_Driver/Src/stm32f4xx_hal_rcc_ex.c **** void HAL_RCCEx_GetPeriphCLKConfig(RCC_PeriphCLKInitTypeDef  *PeriphClkInit)
 324:../Drivers/STM32F4xx_HAL_Driver/Src/stm32f4xx_hal_rcc_ex.c **** {
 325:../Drivers/STM32F4xx_HAL_Driver/Src/stm32f4xx_hal_rcc_ex.c ****   uint32_t tempreg;
 326:../Drivers/STM32F4xx_HAL_Driver/Src/stm32f4xx_hal_rcc_ex.c ****   
 327:../Drivers/STM32F4xx_HAL_Driver/Src/stm32f4xx_hal_rcc_ex.c ****   /* Set all possible values for the extended clock type parameter------------*/
 328:../Drivers/STM32F4xx_HAL_Driver/Src/stm32f4xx_hal_rcc_ex.c ****   PeriphClkInit->PeriphClockSelection = RCC_PERIPHCLK_I2S | RCC_PERIPHCLK_SAI_PLLSAI | RCC_PERIPHCL
 329:../Drivers/STM32F4xx_HAL_Driver/Src/stm32f4xx_hal_rcc_ex.c ****   
 330:../Drivers/STM32F4xx_HAL_Driver/Src/stm32f4xx_hal_rcc_ex.c ****   /* Get the PLLI2S Clock configuration -----------------------------------------------*/
 331:../Drivers/STM32F4xx_HAL_Driver/Src/stm32f4xx_hal_rcc_ex.c ****   PeriphClkInit->PLLI2S.PLLI2SN = (uint32_t)((RCC->PLLI2SCFGR & RCC_PLLI2SCFGR_PLLI2SN) >> POSITION
 332:../Drivers/STM32F4xx_HAL_Driver/Src/stm32f4xx_hal_rcc_ex.c ****   PeriphClkInit->PLLI2S.PLLI2SR = (uint32_t)((RCC->PLLI2SCFGR & RCC_PLLI2SCFGR_PLLI2SR) >> POSITION
 333:../Drivers/STM32F4xx_HAL_Driver/Src/stm32f4xx_hal_rcc_ex.c ****   PeriphClkInit->PLLI2S.PLLI2SQ = (uint32_t)((RCC->PLLI2SCFGR & RCC_PLLI2SCFGR_PLLI2SQ) >> POSITION
 334:../Drivers/STM32F4xx_HAL_Driver/Src/stm32f4xx_hal_rcc_ex.c ****   /* Get the PLLSAI Clock configuration -----------------------------------------------*/
 335:../Drivers/STM32F4xx_HAL_Driver/Src/stm32f4xx_hal_rcc_ex.c ****   PeriphClkInit->PLLSAI.PLLSAIN = (uint32_t)((RCC->PLLSAICFGR & RCC_PLLSAICFGR_PLLSAIN) >> POSITION
 336:../Drivers/STM32F4xx_HAL_Driver/Src/stm32f4xx_hal_rcc_ex.c ****   PeriphClkInit->PLLSAI.PLLSAIR = (uint32_t)((RCC->PLLSAICFGR & RCC_PLLSAICFGR_PLLSAIR) >> POSITION
 337:../Drivers/STM32F4xx_HAL_Driver/Src/stm32f4xx_hal_rcc_ex.c ****   PeriphClkInit->PLLSAI.PLLSAIQ = (uint32_t)((RCC->PLLSAICFGR & RCC_PLLSAICFGR_PLLSAIQ) >> POSITION
 338:../Drivers/STM32F4xx_HAL_Driver/Src/stm32f4xx_hal_rcc_ex.c ****   /* Get the PLLSAI/PLLI2S division factors -----------------------------------------------*/
 339:../Drivers/STM32F4xx_HAL_Driver/Src/stm32f4xx_hal_rcc_ex.c ****   PeriphClkInit->PLLI2SDivQ = (uint32_t)((RCC->DCKCFGR & RCC_DCKCFGR_PLLI2SDIVQ) >> POSITION_VAL(RC
 340:../Drivers/STM32F4xx_HAL_Driver/Src/stm32f4xx_hal_rcc_ex.c ****   PeriphClkInit->PLLSAIDivQ = (uint32_t)((RCC->DCKCFGR & RCC_DCKCFGR_PLLSAIDIVQ) >> POSITION_VAL(RC
 341:../Drivers/STM32F4xx_HAL_Driver/Src/stm32f4xx_hal_rcc_ex.c ****   PeriphClkInit->PLLSAIDivR = (uint32_t)(RCC->DCKCFGR & RCC_DCKCFGR_PLLSAIDIVR);
 342:../Drivers/STM32F4xx_HAL_Driver/Src/stm32f4xx_hal_rcc_ex.c ****   /* Get the RTC Clock configuration -----------------------------------------------*/
 343:../Drivers/STM32F4xx_HAL_Driver/Src/stm32f4xx_hal_rcc_ex.c ****   tempreg = (RCC->CFGR & RCC_CFGR_RTCPRE);
 344:../Drivers/STM32F4xx_HAL_Driver/Src/stm32f4xx_hal_rcc_ex.c ****   PeriphClkInit->RTCClockSelection = (uint32_t)((tempreg) | (RCC->BDCR & RCC_BDCR_RTCSEL));
 345:../Drivers/STM32F4xx_HAL_Driver/Src/stm32f4xx_hal_rcc_ex.c ****   
 346:../Drivers/STM32F4xx_HAL_Driver/Src/stm32f4xx_hal_rcc_ex.c ****   if ((RCC->DCKCFGR & RCC_DCKCFGR_TIMPRE) == RESET)
 347:../Drivers/STM32F4xx_HAL_Driver/Src/stm32f4xx_hal_rcc_ex.c ****   {
 348:../Drivers/STM32F4xx_HAL_Driver/Src/stm32f4xx_hal_rcc_ex.c ****     PeriphClkInit->TIMPresSelection = RCC_TIMPRES_DESACTIVATED;
 349:../Drivers/STM32F4xx_HAL_Driver/Src/stm32f4xx_hal_rcc_ex.c ****   }
 350:../Drivers/STM32F4xx_HAL_Driver/Src/stm32f4xx_hal_rcc_ex.c ****   else
 351:../Drivers/STM32F4xx_HAL_Driver/Src/stm32f4xx_hal_rcc_ex.c ****   {
 352:../Drivers/STM32F4xx_HAL_Driver/Src/stm32f4xx_hal_rcc_ex.c ****     PeriphClkInit->TIMPresSelection = RCC_TIMPRES_ACTIVATED;
 353:../Drivers/STM32F4xx_HAL_Driver/Src/stm32f4xx_hal_rcc_ex.c ****   }
 354:../Drivers/STM32F4xx_HAL_Driver/Src/stm32f4xx_hal_rcc_ex.c **** }
 355:../Drivers/STM32F4xx_HAL_Driver/Src/stm32f4xx_hal_rcc_ex.c **** #endif /* STM32F427xx || STM32F437xx || STM32F429xx || STM32F439xx */
 356:../Drivers/STM32F4xx_HAL_Driver/Src/stm32f4xx_hal_rcc_ex.c **** 
 357:../Drivers/STM32F4xx_HAL_Driver/Src/stm32f4xx_hal_rcc_ex.c **** #if defined(STM32F405xx) || defined(STM32F415xx) || defined(STM32F407xx)|| defined(STM32F417xx) ||\
 358:../Drivers/STM32F4xx_HAL_Driver/Src/stm32f4xx_hal_rcc_ex.c ****     defined(STM32F401xC) || defined(STM32F401xE) || defined(STM32F411xE)
 359:../Drivers/STM32F4xx_HAL_Driver/Src/stm32f4xx_hal_rcc_ex.c **** /**
 360:../Drivers/STM32F4xx_HAL_Driver/Src/stm32f4xx_hal_rcc_ex.c ****   * @brief  Initializes the RCC extended peripherals clocks according to the specified parameters i
 361:../Drivers/STM32F4xx_HAL_Driver/Src/stm32f4xx_hal_rcc_ex.c ****   *         RCC_PeriphCLKInitTypeDef.
 362:../Drivers/STM32F4xx_HAL_Driver/Src/stm32f4xx_hal_rcc_ex.c ****   * @param  PeriphClkInit: pointer to an RCC_PeriphCLKInitTypeDef structure that
 363:../Drivers/STM32F4xx_HAL_Driver/Src/stm32f4xx_hal_rcc_ex.c ****   *         contains the configuration information for the Extended Peripherals clocks(I2S and RTC 
 364:../Drivers/STM32F4xx_HAL_Driver/Src/stm32f4xx_hal_rcc_ex.c ****   *         
 365:../Drivers/STM32F4xx_HAL_Driver/Src/stm32f4xx_hal_rcc_ex.c ****   * @note   A caution to be taken when HAL_RCCEx_PeriphCLKConfig() is used to select RTC clock sele
 366:../Drivers/STM32F4xx_HAL_Driver/Src/stm32f4xx_hal_rcc_ex.c ****   *         the Reset of Backup domain will be applied in order to modify the RTC Clock source as c
 367:../Drivers/STM32F4xx_HAL_Driver/Src/stm32f4xx_hal_rcc_ex.c ****   *        domain (RTC and RCC_BDCR register expect BKPSRAM) will be reset
 368:../Drivers/STM32F4xx_HAL_Driver/Src/stm32f4xx_hal_rcc_ex.c ****   *              
 369:../Drivers/STM32F4xx_HAL_Driver/Src/stm32f4xx_hal_rcc_ex.c ****   * @retval HAL status
 370:../Drivers/STM32F4xx_HAL_Driver/Src/stm32f4xx_hal_rcc_ex.c ****   */
 371:../Drivers/STM32F4xx_HAL_Driver/Src/stm32f4xx_hal_rcc_ex.c **** HAL_StatusTypeDef HAL_RCCEx_PeriphCLKConfig(RCC_PeriphCLKInitTypeDef  *PeriphClkInit)
ARM GAS  /tmp/ccSRu46N.s 			page 8


 372:../Drivers/STM32F4xx_HAL_Driver/Src/stm32f4xx_hal_rcc_ex.c **** {
  30              		.loc 1 372 0
  31              		.cfi_startproc
  32              		@ args = 0, pretend = 0, frame = 0
  33              		@ frame_needed = 0, uses_anonymous_args = 0
  34              	.LVL0:
  35 0000 38B5     		push	{r3, r4, r5, lr}
  36              	.LCFI0:
  37              		.cfi_def_cfa_offset 16
  38              		.cfi_offset 3, -16
  39              		.cfi_offset 4, -12
  40              		.cfi_offset 5, -8
  41              		.cfi_offset 14, -4
  42 0002 0446     		mov	r4, r0
  43              	.LVL1:
 373:../Drivers/STM32F4xx_HAL_Driver/Src/stm32f4xx_hal_rcc_ex.c ****   uint32_t tickstart = 0;
 374:../Drivers/STM32F4xx_HAL_Driver/Src/stm32f4xx_hal_rcc_ex.c ****   uint32_t tmpreg = 0;
 375:../Drivers/STM32F4xx_HAL_Driver/Src/stm32f4xx_hal_rcc_ex.c ****     
 376:../Drivers/STM32F4xx_HAL_Driver/Src/stm32f4xx_hal_rcc_ex.c ****   /* Check the parameters */
 377:../Drivers/STM32F4xx_HAL_Driver/Src/stm32f4xx_hal_rcc_ex.c ****   assert_param(IS_RCC_PERIPHCLOCK(PeriphClkInit->PeriphClockSelection));
 378:../Drivers/STM32F4xx_HAL_Driver/Src/stm32f4xx_hal_rcc_ex.c ****   
 379:../Drivers/STM32F4xx_HAL_Driver/Src/stm32f4xx_hal_rcc_ex.c ****   /*---------------------------- I2S configuration ---------------------------*/
 380:../Drivers/STM32F4xx_HAL_Driver/Src/stm32f4xx_hal_rcc_ex.c ****   if(((PeriphClkInit->PeriphClockSelection) & RCC_PERIPHCLK_I2S) == (RCC_PERIPHCLK_I2S))
  44              		.loc 1 380 0
  45 0004 0368     		ldr	r3, [r0]
  46 0006 13F0010F 		tst	r3, #1
  47 000a 3AD0     		beq	.L2
 381:../Drivers/STM32F4xx_HAL_Driver/Src/stm32f4xx_hal_rcc_ex.c ****   {
 382:../Drivers/STM32F4xx_HAL_Driver/Src/stm32f4xx_hal_rcc_ex.c ****     /* check for Parameters */
 383:../Drivers/STM32F4xx_HAL_Driver/Src/stm32f4xx_hal_rcc_ex.c ****     assert_param(IS_RCC_PLLI2SR_VALUE(PeriphClkInit->PLLI2S.PLLI2SR));
 384:../Drivers/STM32F4xx_HAL_Driver/Src/stm32f4xx_hal_rcc_ex.c ****     assert_param(IS_RCC_PLLI2SN_VALUE(PeriphClkInit->PLLI2S.PLLI2SN));
 385:../Drivers/STM32F4xx_HAL_Driver/Src/stm32f4xx_hal_rcc_ex.c **** #if defined(STM32F411xE)    
 386:../Drivers/STM32F4xx_HAL_Driver/Src/stm32f4xx_hal_rcc_ex.c ****     assert_param(IS_RCC_PLLI2SM_VALUE(PeriphClkInit->PLLI2S.PLLI2SM));
 387:../Drivers/STM32F4xx_HAL_Driver/Src/stm32f4xx_hal_rcc_ex.c **** #endif /* STM32F411xE */
 388:../Drivers/STM32F4xx_HAL_Driver/Src/stm32f4xx_hal_rcc_ex.c ****     /* Disable the PLLI2S */
 389:../Drivers/STM32F4xx_HAL_Driver/Src/stm32f4xx_hal_rcc_ex.c ****     __HAL_RCC_PLLI2S_DISABLE();
  48              		.loc 1 389 0
  49 000c 0022     		movs	r2, #0
  50 000e 524B     		ldr	r3, .L22
  51 0010 1A60     		str	r2, [r3]
 390:../Drivers/STM32F4xx_HAL_Driver/Src/stm32f4xx_hal_rcc_ex.c ****     /* Get tick */
 391:../Drivers/STM32F4xx_HAL_Driver/Src/stm32f4xx_hal_rcc_ex.c ****     tickstart = HAL_GetTick();
  52              		.loc 1 391 0
  53 0012 FFF7FEFF 		bl	HAL_GetTick
  54              	.LVL2:
  55 0016 0546     		mov	r5, r0
  56              	.LVL3:
 392:../Drivers/STM32F4xx_HAL_Driver/Src/stm32f4xx_hal_rcc_ex.c ****     /* Wait till PLLI2S is disabled */
 393:../Drivers/STM32F4xx_HAL_Driver/Src/stm32f4xx_hal_rcc_ex.c ****     while(__HAL_RCC_GET_FLAG(RCC_FLAG_PLLI2SRDY)  != RESET)
  57              		.loc 1 393 0
  58 0018 05E0     		b	.L3
  59              	.LVL4:
  60              	.L5:
 394:../Drivers/STM32F4xx_HAL_Driver/Src/stm32f4xx_hal_rcc_ex.c ****     {
 395:../Drivers/STM32F4xx_HAL_Driver/Src/stm32f4xx_hal_rcc_ex.c ****       if((HAL_GetTick() - tickstart ) > PLLI2S_TIMEOUT_VALUE)
  61              		.loc 1 395 0
  62 001a FFF7FEFF 		bl	HAL_GetTick
ARM GAS  /tmp/ccSRu46N.s 			page 9


  63              	.LVL5:
  64 001e 401B     		subs	r0, r0, r5
  65 0020 6428     		cmp	r0, #100
  66 0022 00F28F80 		bhi	.L16
  67              	.L3:
 393:../Drivers/STM32F4xx_HAL_Driver/Src/stm32f4xx_hal_rcc_ex.c ****     {
  68              		.loc 1 393 0
  69 0026 4D4B     		ldr	r3, .L22+4
  70 0028 1B68     		ldr	r3, [r3]
  71 002a 13F0006F 		tst	r3, #134217728
  72 002e F4D1     		bne	.L5
 396:../Drivers/STM32F4xx_HAL_Driver/Src/stm32f4xx_hal_rcc_ex.c ****       {
 397:../Drivers/STM32F4xx_HAL_Driver/Src/stm32f4xx_hal_rcc_ex.c ****         /* return in case of Timeout detected */
 398:../Drivers/STM32F4xx_HAL_Driver/Src/stm32f4xx_hal_rcc_ex.c ****         return HAL_TIMEOUT;
 399:../Drivers/STM32F4xx_HAL_Driver/Src/stm32f4xx_hal_rcc_ex.c ****       } 
 400:../Drivers/STM32F4xx_HAL_Driver/Src/stm32f4xx_hal_rcc_ex.c ****     }
 401:../Drivers/STM32F4xx_HAL_Driver/Src/stm32f4xx_hal_rcc_ex.c **** 
 402:../Drivers/STM32F4xx_HAL_Driver/Src/stm32f4xx_hal_rcc_ex.c **** #if defined(STM32F411xE)
 403:../Drivers/STM32F4xx_HAL_Driver/Src/stm32f4xx_hal_rcc_ex.c ****     /* Configure the PLLI2S division factors */
 404:../Drivers/STM32F4xx_HAL_Driver/Src/stm32f4xx_hal_rcc_ex.c ****     /* PLLI2S_VCO = f(VCO clock) = f(PLLI2S clock input) × (PLLI2SN/PLLI2SM) */
 405:../Drivers/STM32F4xx_HAL_Driver/Src/stm32f4xx_hal_rcc_ex.c ****     /* I2SCLK = f(PLLI2S clock output) = f(VCO clock) / PLLI2SR */    
 406:../Drivers/STM32F4xx_HAL_Driver/Src/stm32f4xx_hal_rcc_ex.c ****     __HAL_RCC_PLLI2S_I2SCLK_CONFIG(PeriphClkInit->PLLI2S.PLLI2SM, PeriphClkInit->PLLI2S.PLLI2SN, Pe
 407:../Drivers/STM32F4xx_HAL_Driver/Src/stm32f4xx_hal_rcc_ex.c **** #else
 408:../Drivers/STM32F4xx_HAL_Driver/Src/stm32f4xx_hal_rcc_ex.c ****     /* Configure the PLLI2S division factors */
 409:../Drivers/STM32F4xx_HAL_Driver/Src/stm32f4xx_hal_rcc_ex.c ****     /* PLLI2S_VCO = f(VCO clock) = f(PLLI2S clock input) × (PLLI2SN/PLLM) */
 410:../Drivers/STM32F4xx_HAL_Driver/Src/stm32f4xx_hal_rcc_ex.c ****     /* I2SCLK = f(PLLI2S clock output) = f(VCO clock) / PLLI2SR */
 411:../Drivers/STM32F4xx_HAL_Driver/Src/stm32f4xx_hal_rcc_ex.c ****     __HAL_RCC_PLLI2S_CONFIG(PeriphClkInit->PLLI2S.PLLI2SN , PeriphClkInit->PLLI2S.PLLI2SR);
  73              		.loc 1 411 0
  74 0030 6268     		ldr	r2, [r4, #4]
  75              	.LVL6:
  76              	.LBB18:
  77              	.LBB19:
  78              		.file 2 "../Drivers/CMSIS/Include/core_cmInstr.h"
   1:../Drivers/CMSIS/Include/core_cmInstr.h **** /**************************************************************************//**
   2:../Drivers/CMSIS/Include/core_cmInstr.h ****  * @file     core_cmInstr.h
   3:../Drivers/CMSIS/Include/core_cmInstr.h ****  * @brief    CMSIS Cortex-M Core Instruction Access Header File
   4:../Drivers/CMSIS/Include/core_cmInstr.h ****  * @version  V3.20
   5:../Drivers/CMSIS/Include/core_cmInstr.h ****  * @date     05. March 2013
   6:../Drivers/CMSIS/Include/core_cmInstr.h ****  *
   7:../Drivers/CMSIS/Include/core_cmInstr.h ****  * @note
   8:../Drivers/CMSIS/Include/core_cmInstr.h ****  *
   9:../Drivers/CMSIS/Include/core_cmInstr.h ****  ******************************************************************************/
  10:../Drivers/CMSIS/Include/core_cmInstr.h **** /* Copyright (c) 2009 - 2013 ARM LIMITED
  11:../Drivers/CMSIS/Include/core_cmInstr.h **** 
  12:../Drivers/CMSIS/Include/core_cmInstr.h ****    All rights reserved.
  13:../Drivers/CMSIS/Include/core_cmInstr.h ****    Redistribution and use in source and binary forms, with or without
  14:../Drivers/CMSIS/Include/core_cmInstr.h ****    modification, are permitted provided that the following conditions are met:
  15:../Drivers/CMSIS/Include/core_cmInstr.h ****    - Redistributions of source code must retain the above copyright
  16:../Drivers/CMSIS/Include/core_cmInstr.h ****      notice, this list of conditions and the following disclaimer.
  17:../Drivers/CMSIS/Include/core_cmInstr.h ****    - Redistributions in binary form must reproduce the above copyright
  18:../Drivers/CMSIS/Include/core_cmInstr.h ****      notice, this list of conditions and the following disclaimer in the
  19:../Drivers/CMSIS/Include/core_cmInstr.h ****      documentation and/or other materials provided with the distribution.
  20:../Drivers/CMSIS/Include/core_cmInstr.h ****    - Neither the name of ARM nor the names of its contributors may be used
  21:../Drivers/CMSIS/Include/core_cmInstr.h ****      to endorse or promote products derived from this software without
  22:../Drivers/CMSIS/Include/core_cmInstr.h ****      specific prior written permission.
  23:../Drivers/CMSIS/Include/core_cmInstr.h ****    *
  24:../Drivers/CMSIS/Include/core_cmInstr.h ****    THIS SOFTWARE IS PROVIDED BY THE COPYRIGHT HOLDERS AND CONTRIBUTORS "AS IS"
ARM GAS  /tmp/ccSRu46N.s 			page 10


  25:../Drivers/CMSIS/Include/core_cmInstr.h ****    AND ANY EXPRESS OR IMPLIED WARRANTIES, INCLUDING, BUT NOT LIMITED TO, THE
  26:../Drivers/CMSIS/Include/core_cmInstr.h ****    IMPLIED WARRANTIES OF MERCHANTABILITY AND FITNESS FOR A PARTICULAR PURPOSE
  27:../Drivers/CMSIS/Include/core_cmInstr.h ****    ARE DISCLAIMED. IN NO EVENT SHALL COPYRIGHT HOLDERS AND CONTRIBUTORS BE
  28:../Drivers/CMSIS/Include/core_cmInstr.h ****    LIABLE FOR ANY DIRECT, INDIRECT, INCIDENTAL, SPECIAL, EXEMPLARY, OR
  29:../Drivers/CMSIS/Include/core_cmInstr.h ****    CONSEQUENTIAL DAMAGES (INCLUDING, BUT NOT LIMITED TO, PROCUREMENT OF
  30:../Drivers/CMSIS/Include/core_cmInstr.h ****    SUBSTITUTE GOODS OR SERVICES; LOSS OF USE, DATA, OR PROFITS; OR BUSINESS
  31:../Drivers/CMSIS/Include/core_cmInstr.h ****    INTERRUPTION) HOWEVER CAUSED AND ON ANY THEORY OF LIABILITY, WHETHER IN
  32:../Drivers/CMSIS/Include/core_cmInstr.h ****    CONTRACT, STRICT LIABILITY, OR TORT (INCLUDING NEGLIGENCE OR OTHERWISE)
  33:../Drivers/CMSIS/Include/core_cmInstr.h ****    ARISING IN ANY WAY OUT OF THE USE OF THIS SOFTWARE, EVEN IF ADVISED OF THE
  34:../Drivers/CMSIS/Include/core_cmInstr.h ****    POSSIBILITY OF SUCH DAMAGE.
  35:../Drivers/CMSIS/Include/core_cmInstr.h ****    ---------------------------------------------------------------------------*/
  36:../Drivers/CMSIS/Include/core_cmInstr.h **** 
  37:../Drivers/CMSIS/Include/core_cmInstr.h **** 
  38:../Drivers/CMSIS/Include/core_cmInstr.h **** #ifndef __CORE_CMINSTR_H
  39:../Drivers/CMSIS/Include/core_cmInstr.h **** #define __CORE_CMINSTR_H
  40:../Drivers/CMSIS/Include/core_cmInstr.h **** 
  41:../Drivers/CMSIS/Include/core_cmInstr.h **** 
  42:../Drivers/CMSIS/Include/core_cmInstr.h **** /* ##########################  Core Instruction Access  ######################### */
  43:../Drivers/CMSIS/Include/core_cmInstr.h **** /** \defgroup CMSIS_Core_InstructionInterface CMSIS Core Instruction Interface
  44:../Drivers/CMSIS/Include/core_cmInstr.h ****   Access to dedicated instructions
  45:../Drivers/CMSIS/Include/core_cmInstr.h ****   @{
  46:../Drivers/CMSIS/Include/core_cmInstr.h **** */
  47:../Drivers/CMSIS/Include/core_cmInstr.h **** 
  48:../Drivers/CMSIS/Include/core_cmInstr.h **** #if   defined ( __CC_ARM ) /*------------------RealView Compiler -----------------*/
  49:../Drivers/CMSIS/Include/core_cmInstr.h **** /* ARM armcc specific functions */
  50:../Drivers/CMSIS/Include/core_cmInstr.h **** 
  51:../Drivers/CMSIS/Include/core_cmInstr.h **** #if (__ARMCC_VERSION < 400677)
  52:../Drivers/CMSIS/Include/core_cmInstr.h ****   #error "Please use ARM Compiler Toolchain V4.0.677 or later!"
  53:../Drivers/CMSIS/Include/core_cmInstr.h **** #endif
  54:../Drivers/CMSIS/Include/core_cmInstr.h **** 
  55:../Drivers/CMSIS/Include/core_cmInstr.h **** 
  56:../Drivers/CMSIS/Include/core_cmInstr.h **** /** \brief  No Operation
  57:../Drivers/CMSIS/Include/core_cmInstr.h **** 
  58:../Drivers/CMSIS/Include/core_cmInstr.h ****     No Operation does nothing. This instruction can be used for code alignment purposes.
  59:../Drivers/CMSIS/Include/core_cmInstr.h ****  */
  60:../Drivers/CMSIS/Include/core_cmInstr.h **** #define __NOP                             __nop
  61:../Drivers/CMSIS/Include/core_cmInstr.h **** 
  62:../Drivers/CMSIS/Include/core_cmInstr.h **** 
  63:../Drivers/CMSIS/Include/core_cmInstr.h **** /** \brief  Wait For Interrupt
  64:../Drivers/CMSIS/Include/core_cmInstr.h **** 
  65:../Drivers/CMSIS/Include/core_cmInstr.h ****     Wait For Interrupt is a hint instruction that suspends execution
  66:../Drivers/CMSIS/Include/core_cmInstr.h ****     until one of a number of events occurs.
  67:../Drivers/CMSIS/Include/core_cmInstr.h ****  */
  68:../Drivers/CMSIS/Include/core_cmInstr.h **** #define __WFI                             __wfi
  69:../Drivers/CMSIS/Include/core_cmInstr.h **** 
  70:../Drivers/CMSIS/Include/core_cmInstr.h **** 
  71:../Drivers/CMSIS/Include/core_cmInstr.h **** /** \brief  Wait For Event
  72:../Drivers/CMSIS/Include/core_cmInstr.h **** 
  73:../Drivers/CMSIS/Include/core_cmInstr.h ****     Wait For Event is a hint instruction that permits the processor to enter
  74:../Drivers/CMSIS/Include/core_cmInstr.h ****     a low-power state until one of a number of events occurs.
  75:../Drivers/CMSIS/Include/core_cmInstr.h ****  */
  76:../Drivers/CMSIS/Include/core_cmInstr.h **** #define __WFE                             __wfe
  77:../Drivers/CMSIS/Include/core_cmInstr.h **** 
  78:../Drivers/CMSIS/Include/core_cmInstr.h **** 
  79:../Drivers/CMSIS/Include/core_cmInstr.h **** /** \brief  Send Event
  80:../Drivers/CMSIS/Include/core_cmInstr.h **** 
  81:../Drivers/CMSIS/Include/core_cmInstr.h ****     Send Event is a hint instruction. It causes an event to be signaled to the CPU.
ARM GAS  /tmp/ccSRu46N.s 			page 11


  82:../Drivers/CMSIS/Include/core_cmInstr.h ****  */
  83:../Drivers/CMSIS/Include/core_cmInstr.h **** #define __SEV                             __sev
  84:../Drivers/CMSIS/Include/core_cmInstr.h **** 
  85:../Drivers/CMSIS/Include/core_cmInstr.h **** 
  86:../Drivers/CMSIS/Include/core_cmInstr.h **** /** \brief  Instruction Synchronization Barrier
  87:../Drivers/CMSIS/Include/core_cmInstr.h **** 
  88:../Drivers/CMSIS/Include/core_cmInstr.h ****     Instruction Synchronization Barrier flushes the pipeline in the processor,
  89:../Drivers/CMSIS/Include/core_cmInstr.h ****     so that all instructions following the ISB are fetched from cache or
  90:../Drivers/CMSIS/Include/core_cmInstr.h ****     memory, after the instruction has been completed.
  91:../Drivers/CMSIS/Include/core_cmInstr.h ****  */
  92:../Drivers/CMSIS/Include/core_cmInstr.h **** #define __ISB()                           __isb(0xF)
  93:../Drivers/CMSIS/Include/core_cmInstr.h **** 
  94:../Drivers/CMSIS/Include/core_cmInstr.h **** 
  95:../Drivers/CMSIS/Include/core_cmInstr.h **** /** \brief  Data Synchronization Barrier
  96:../Drivers/CMSIS/Include/core_cmInstr.h **** 
  97:../Drivers/CMSIS/Include/core_cmInstr.h ****     This function acts as a special kind of Data Memory Barrier.
  98:../Drivers/CMSIS/Include/core_cmInstr.h ****     It completes when all explicit memory accesses before this instruction complete.
  99:../Drivers/CMSIS/Include/core_cmInstr.h ****  */
 100:../Drivers/CMSIS/Include/core_cmInstr.h **** #define __DSB()                           __dsb(0xF)
 101:../Drivers/CMSIS/Include/core_cmInstr.h **** 
 102:../Drivers/CMSIS/Include/core_cmInstr.h **** 
 103:../Drivers/CMSIS/Include/core_cmInstr.h **** /** \brief  Data Memory Barrier
 104:../Drivers/CMSIS/Include/core_cmInstr.h **** 
 105:../Drivers/CMSIS/Include/core_cmInstr.h ****     This function ensures the apparent order of the explicit memory operations before
 106:../Drivers/CMSIS/Include/core_cmInstr.h ****     and after the instruction, without ensuring their completion.
 107:../Drivers/CMSIS/Include/core_cmInstr.h ****  */
 108:../Drivers/CMSIS/Include/core_cmInstr.h **** #define __DMB()                           __dmb(0xF)
 109:../Drivers/CMSIS/Include/core_cmInstr.h **** 
 110:../Drivers/CMSIS/Include/core_cmInstr.h **** 
 111:../Drivers/CMSIS/Include/core_cmInstr.h **** /** \brief  Reverse byte order (32 bit)
 112:../Drivers/CMSIS/Include/core_cmInstr.h **** 
 113:../Drivers/CMSIS/Include/core_cmInstr.h ****     This function reverses the byte order in integer value.
 114:../Drivers/CMSIS/Include/core_cmInstr.h **** 
 115:../Drivers/CMSIS/Include/core_cmInstr.h ****     \param [in]    value  Value to reverse
 116:../Drivers/CMSIS/Include/core_cmInstr.h ****     \return               Reversed value
 117:../Drivers/CMSIS/Include/core_cmInstr.h ****  */
 118:../Drivers/CMSIS/Include/core_cmInstr.h **** #define __REV                             __rev
 119:../Drivers/CMSIS/Include/core_cmInstr.h **** 
 120:../Drivers/CMSIS/Include/core_cmInstr.h **** 
 121:../Drivers/CMSIS/Include/core_cmInstr.h **** /** \brief  Reverse byte order (16 bit)
 122:../Drivers/CMSIS/Include/core_cmInstr.h **** 
 123:../Drivers/CMSIS/Include/core_cmInstr.h ****     This function reverses the byte order in two unsigned short values.
 124:../Drivers/CMSIS/Include/core_cmInstr.h **** 
 125:../Drivers/CMSIS/Include/core_cmInstr.h ****     \param [in]    value  Value to reverse
 126:../Drivers/CMSIS/Include/core_cmInstr.h ****     \return               Reversed value
 127:../Drivers/CMSIS/Include/core_cmInstr.h ****  */
 128:../Drivers/CMSIS/Include/core_cmInstr.h **** #ifndef __NO_EMBEDDED_ASM
 129:../Drivers/CMSIS/Include/core_cmInstr.h **** __attribute__((section(".rev16_text"))) __STATIC_INLINE __ASM uint32_t __REV16(uint32_t value)
 130:../Drivers/CMSIS/Include/core_cmInstr.h **** {
 131:../Drivers/CMSIS/Include/core_cmInstr.h ****   rev16 r0, r0
 132:../Drivers/CMSIS/Include/core_cmInstr.h ****   bx lr
 133:../Drivers/CMSIS/Include/core_cmInstr.h **** }
 134:../Drivers/CMSIS/Include/core_cmInstr.h **** #endif
 135:../Drivers/CMSIS/Include/core_cmInstr.h **** 
 136:../Drivers/CMSIS/Include/core_cmInstr.h **** /** \brief  Reverse byte order in signed short value
 137:../Drivers/CMSIS/Include/core_cmInstr.h **** 
 138:../Drivers/CMSIS/Include/core_cmInstr.h ****     This function reverses the byte order in a signed short value with sign extension to integer.
ARM GAS  /tmp/ccSRu46N.s 			page 12


 139:../Drivers/CMSIS/Include/core_cmInstr.h **** 
 140:../Drivers/CMSIS/Include/core_cmInstr.h ****     \param [in]    value  Value to reverse
 141:../Drivers/CMSIS/Include/core_cmInstr.h ****     \return               Reversed value
 142:../Drivers/CMSIS/Include/core_cmInstr.h ****  */
 143:../Drivers/CMSIS/Include/core_cmInstr.h **** #ifndef __NO_EMBEDDED_ASM
 144:../Drivers/CMSIS/Include/core_cmInstr.h **** __attribute__((section(".revsh_text"))) __STATIC_INLINE __ASM int32_t __REVSH(int32_t value)
 145:../Drivers/CMSIS/Include/core_cmInstr.h **** {
 146:../Drivers/CMSIS/Include/core_cmInstr.h ****   revsh r0, r0
 147:../Drivers/CMSIS/Include/core_cmInstr.h ****   bx lr
 148:../Drivers/CMSIS/Include/core_cmInstr.h **** }
 149:../Drivers/CMSIS/Include/core_cmInstr.h **** #endif
 150:../Drivers/CMSIS/Include/core_cmInstr.h **** 
 151:../Drivers/CMSIS/Include/core_cmInstr.h **** 
 152:../Drivers/CMSIS/Include/core_cmInstr.h **** /** \brief  Rotate Right in unsigned value (32 bit)
 153:../Drivers/CMSIS/Include/core_cmInstr.h **** 
 154:../Drivers/CMSIS/Include/core_cmInstr.h ****     This function Rotate Right (immediate) provides the value of the contents of a register rotated
 155:../Drivers/CMSIS/Include/core_cmInstr.h **** 
 156:../Drivers/CMSIS/Include/core_cmInstr.h ****     \param [in]    value  Value to rotate
 157:../Drivers/CMSIS/Include/core_cmInstr.h ****     \param [in]    value  Number of Bits to rotate
 158:../Drivers/CMSIS/Include/core_cmInstr.h ****     \return               Rotated value
 159:../Drivers/CMSIS/Include/core_cmInstr.h ****  */
 160:../Drivers/CMSIS/Include/core_cmInstr.h **** #define __ROR                             __ror
 161:../Drivers/CMSIS/Include/core_cmInstr.h **** 
 162:../Drivers/CMSIS/Include/core_cmInstr.h **** 
 163:../Drivers/CMSIS/Include/core_cmInstr.h **** /** \brief  Breakpoint
 164:../Drivers/CMSIS/Include/core_cmInstr.h **** 
 165:../Drivers/CMSIS/Include/core_cmInstr.h ****     This function causes the processor to enter Debug state.
 166:../Drivers/CMSIS/Include/core_cmInstr.h ****     Debug tools can use this to investigate system state when the instruction at a particular addre
 167:../Drivers/CMSIS/Include/core_cmInstr.h **** 
 168:../Drivers/CMSIS/Include/core_cmInstr.h ****     \param [in]    value  is ignored by the processor.
 169:../Drivers/CMSIS/Include/core_cmInstr.h ****                    If required, a debugger can use it to store additional information about the bre
 170:../Drivers/CMSIS/Include/core_cmInstr.h ****  */
 171:../Drivers/CMSIS/Include/core_cmInstr.h **** #define __BKPT(value)                       __breakpoint(value)
 172:../Drivers/CMSIS/Include/core_cmInstr.h **** 
 173:../Drivers/CMSIS/Include/core_cmInstr.h **** 
 174:../Drivers/CMSIS/Include/core_cmInstr.h **** #if       (__CORTEX_M >= 0x03)
 175:../Drivers/CMSIS/Include/core_cmInstr.h **** 
 176:../Drivers/CMSIS/Include/core_cmInstr.h **** /** \brief  Reverse bit order of value
 177:../Drivers/CMSIS/Include/core_cmInstr.h **** 
 178:../Drivers/CMSIS/Include/core_cmInstr.h ****     This function reverses the bit order of the given value.
 179:../Drivers/CMSIS/Include/core_cmInstr.h **** 
 180:../Drivers/CMSIS/Include/core_cmInstr.h ****     \param [in]    value  Value to reverse
 181:../Drivers/CMSIS/Include/core_cmInstr.h ****     \return               Reversed value
 182:../Drivers/CMSIS/Include/core_cmInstr.h ****  */
 183:../Drivers/CMSIS/Include/core_cmInstr.h **** #define __RBIT                            __rbit
 184:../Drivers/CMSIS/Include/core_cmInstr.h **** 
 185:../Drivers/CMSIS/Include/core_cmInstr.h **** 
 186:../Drivers/CMSIS/Include/core_cmInstr.h **** /** \brief  LDR Exclusive (8 bit)
 187:../Drivers/CMSIS/Include/core_cmInstr.h **** 
 188:../Drivers/CMSIS/Include/core_cmInstr.h ****     This function performs a exclusive LDR command for 8 bit value.
 189:../Drivers/CMSIS/Include/core_cmInstr.h **** 
 190:../Drivers/CMSIS/Include/core_cmInstr.h ****     \param [in]    ptr  Pointer to data
 191:../Drivers/CMSIS/Include/core_cmInstr.h ****     \return             value of type uint8_t at (*ptr)
 192:../Drivers/CMSIS/Include/core_cmInstr.h ****  */
 193:../Drivers/CMSIS/Include/core_cmInstr.h **** #define __LDREXB(ptr)                     ((uint8_t ) __ldrex(ptr))
 194:../Drivers/CMSIS/Include/core_cmInstr.h **** 
 195:../Drivers/CMSIS/Include/core_cmInstr.h **** 
ARM GAS  /tmp/ccSRu46N.s 			page 13


 196:../Drivers/CMSIS/Include/core_cmInstr.h **** /** \brief  LDR Exclusive (16 bit)
 197:../Drivers/CMSIS/Include/core_cmInstr.h **** 
 198:../Drivers/CMSIS/Include/core_cmInstr.h ****     This function performs a exclusive LDR command for 16 bit values.
 199:../Drivers/CMSIS/Include/core_cmInstr.h **** 
 200:../Drivers/CMSIS/Include/core_cmInstr.h ****     \param [in]    ptr  Pointer to data
 201:../Drivers/CMSIS/Include/core_cmInstr.h ****     \return        value of type uint16_t at (*ptr)
 202:../Drivers/CMSIS/Include/core_cmInstr.h ****  */
 203:../Drivers/CMSIS/Include/core_cmInstr.h **** #define __LDREXH(ptr)                     ((uint16_t) __ldrex(ptr))
 204:../Drivers/CMSIS/Include/core_cmInstr.h **** 
 205:../Drivers/CMSIS/Include/core_cmInstr.h **** 
 206:../Drivers/CMSIS/Include/core_cmInstr.h **** /** \brief  LDR Exclusive (32 bit)
 207:../Drivers/CMSIS/Include/core_cmInstr.h **** 
 208:../Drivers/CMSIS/Include/core_cmInstr.h ****     This function performs a exclusive LDR command for 32 bit values.
 209:../Drivers/CMSIS/Include/core_cmInstr.h **** 
 210:../Drivers/CMSIS/Include/core_cmInstr.h ****     \param [in]    ptr  Pointer to data
 211:../Drivers/CMSIS/Include/core_cmInstr.h ****     \return        value of type uint32_t at (*ptr)
 212:../Drivers/CMSIS/Include/core_cmInstr.h ****  */
 213:../Drivers/CMSIS/Include/core_cmInstr.h **** #define __LDREXW(ptr)                     ((uint32_t ) __ldrex(ptr))
 214:../Drivers/CMSIS/Include/core_cmInstr.h **** 
 215:../Drivers/CMSIS/Include/core_cmInstr.h **** 
 216:../Drivers/CMSIS/Include/core_cmInstr.h **** /** \brief  STR Exclusive (8 bit)
 217:../Drivers/CMSIS/Include/core_cmInstr.h **** 
 218:../Drivers/CMSIS/Include/core_cmInstr.h ****     This function performs a exclusive STR command for 8 bit values.
 219:../Drivers/CMSIS/Include/core_cmInstr.h **** 
 220:../Drivers/CMSIS/Include/core_cmInstr.h ****     \param [in]  value  Value to store
 221:../Drivers/CMSIS/Include/core_cmInstr.h ****     \param [in]    ptr  Pointer to location
 222:../Drivers/CMSIS/Include/core_cmInstr.h ****     \return          0  Function succeeded
 223:../Drivers/CMSIS/Include/core_cmInstr.h ****     \return          1  Function failed
 224:../Drivers/CMSIS/Include/core_cmInstr.h ****  */
 225:../Drivers/CMSIS/Include/core_cmInstr.h **** #define __STREXB(value, ptr)              __strex(value, ptr)
 226:../Drivers/CMSIS/Include/core_cmInstr.h **** 
 227:../Drivers/CMSIS/Include/core_cmInstr.h **** 
 228:../Drivers/CMSIS/Include/core_cmInstr.h **** /** \brief  STR Exclusive (16 bit)
 229:../Drivers/CMSIS/Include/core_cmInstr.h **** 
 230:../Drivers/CMSIS/Include/core_cmInstr.h ****     This function performs a exclusive STR command for 16 bit values.
 231:../Drivers/CMSIS/Include/core_cmInstr.h **** 
 232:../Drivers/CMSIS/Include/core_cmInstr.h ****     \param [in]  value  Value to store
 233:../Drivers/CMSIS/Include/core_cmInstr.h ****     \param [in]    ptr  Pointer to location
 234:../Drivers/CMSIS/Include/core_cmInstr.h ****     \return          0  Function succeeded
 235:../Drivers/CMSIS/Include/core_cmInstr.h ****     \return          1  Function failed
 236:../Drivers/CMSIS/Include/core_cmInstr.h ****  */
 237:../Drivers/CMSIS/Include/core_cmInstr.h **** #define __STREXH(value, ptr)              __strex(value, ptr)
 238:../Drivers/CMSIS/Include/core_cmInstr.h **** 
 239:../Drivers/CMSIS/Include/core_cmInstr.h **** 
 240:../Drivers/CMSIS/Include/core_cmInstr.h **** /** \brief  STR Exclusive (32 bit)
 241:../Drivers/CMSIS/Include/core_cmInstr.h **** 
 242:../Drivers/CMSIS/Include/core_cmInstr.h ****     This function performs a exclusive STR command for 32 bit values.
 243:../Drivers/CMSIS/Include/core_cmInstr.h **** 
 244:../Drivers/CMSIS/Include/core_cmInstr.h ****     \param [in]  value  Value to store
 245:../Drivers/CMSIS/Include/core_cmInstr.h ****     \param [in]    ptr  Pointer to location
 246:../Drivers/CMSIS/Include/core_cmInstr.h ****     \return          0  Function succeeded
 247:../Drivers/CMSIS/Include/core_cmInstr.h ****     \return          1  Function failed
 248:../Drivers/CMSIS/Include/core_cmInstr.h ****  */
 249:../Drivers/CMSIS/Include/core_cmInstr.h **** #define __STREXW(value, ptr)              __strex(value, ptr)
 250:../Drivers/CMSIS/Include/core_cmInstr.h **** 
 251:../Drivers/CMSIS/Include/core_cmInstr.h **** 
 252:../Drivers/CMSIS/Include/core_cmInstr.h **** /** \brief  Remove the exclusive lock
ARM GAS  /tmp/ccSRu46N.s 			page 14


 253:../Drivers/CMSIS/Include/core_cmInstr.h **** 
 254:../Drivers/CMSIS/Include/core_cmInstr.h ****     This function removes the exclusive lock which is created by LDREX.
 255:../Drivers/CMSIS/Include/core_cmInstr.h **** 
 256:../Drivers/CMSIS/Include/core_cmInstr.h ****  */
 257:../Drivers/CMSIS/Include/core_cmInstr.h **** #define __CLREX                           __clrex
 258:../Drivers/CMSIS/Include/core_cmInstr.h **** 
 259:../Drivers/CMSIS/Include/core_cmInstr.h **** 
 260:../Drivers/CMSIS/Include/core_cmInstr.h **** /** \brief  Signed Saturate
 261:../Drivers/CMSIS/Include/core_cmInstr.h **** 
 262:../Drivers/CMSIS/Include/core_cmInstr.h ****     This function saturates a signed value.
 263:../Drivers/CMSIS/Include/core_cmInstr.h **** 
 264:../Drivers/CMSIS/Include/core_cmInstr.h ****     \param [in]  value  Value to be saturated
 265:../Drivers/CMSIS/Include/core_cmInstr.h ****     \param [in]    sat  Bit position to saturate to (1..32)
 266:../Drivers/CMSIS/Include/core_cmInstr.h ****     \return             Saturated value
 267:../Drivers/CMSIS/Include/core_cmInstr.h ****  */
 268:../Drivers/CMSIS/Include/core_cmInstr.h **** #define __SSAT                            __ssat
 269:../Drivers/CMSIS/Include/core_cmInstr.h **** 
 270:../Drivers/CMSIS/Include/core_cmInstr.h **** 
 271:../Drivers/CMSIS/Include/core_cmInstr.h **** /** \brief  Unsigned Saturate
 272:../Drivers/CMSIS/Include/core_cmInstr.h **** 
 273:../Drivers/CMSIS/Include/core_cmInstr.h ****     This function saturates an unsigned value.
 274:../Drivers/CMSIS/Include/core_cmInstr.h **** 
 275:../Drivers/CMSIS/Include/core_cmInstr.h ****     \param [in]  value  Value to be saturated
 276:../Drivers/CMSIS/Include/core_cmInstr.h ****     \param [in]    sat  Bit position to saturate to (0..31)
 277:../Drivers/CMSIS/Include/core_cmInstr.h ****     \return             Saturated value
 278:../Drivers/CMSIS/Include/core_cmInstr.h ****  */
 279:../Drivers/CMSIS/Include/core_cmInstr.h **** #define __USAT                            __usat
 280:../Drivers/CMSIS/Include/core_cmInstr.h **** 
 281:../Drivers/CMSIS/Include/core_cmInstr.h **** 
 282:../Drivers/CMSIS/Include/core_cmInstr.h **** /** \brief  Count leading zeros
 283:../Drivers/CMSIS/Include/core_cmInstr.h **** 
 284:../Drivers/CMSIS/Include/core_cmInstr.h ****     This function counts the number of leading zeros of a data value.
 285:../Drivers/CMSIS/Include/core_cmInstr.h **** 
 286:../Drivers/CMSIS/Include/core_cmInstr.h ****     \param [in]  value  Value to count the leading zeros
 287:../Drivers/CMSIS/Include/core_cmInstr.h ****     \return             number of leading zeros in value
 288:../Drivers/CMSIS/Include/core_cmInstr.h ****  */
 289:../Drivers/CMSIS/Include/core_cmInstr.h **** #define __CLZ                             __clz
 290:../Drivers/CMSIS/Include/core_cmInstr.h **** 
 291:../Drivers/CMSIS/Include/core_cmInstr.h **** #endif /* (__CORTEX_M >= 0x03) */
 292:../Drivers/CMSIS/Include/core_cmInstr.h **** 
 293:../Drivers/CMSIS/Include/core_cmInstr.h **** 
 294:../Drivers/CMSIS/Include/core_cmInstr.h **** 
 295:../Drivers/CMSIS/Include/core_cmInstr.h **** #elif defined ( __ICCARM__ ) /*------------------ ICC Compiler -------------------*/
 296:../Drivers/CMSIS/Include/core_cmInstr.h **** /* IAR iccarm specific functions */
 297:../Drivers/CMSIS/Include/core_cmInstr.h **** 
 298:../Drivers/CMSIS/Include/core_cmInstr.h **** #include <cmsis_iar.h>
 299:../Drivers/CMSIS/Include/core_cmInstr.h **** 
 300:../Drivers/CMSIS/Include/core_cmInstr.h **** 
 301:../Drivers/CMSIS/Include/core_cmInstr.h **** #elif defined ( __TMS470__ ) /*---------------- TI CCS Compiler ------------------*/
 302:../Drivers/CMSIS/Include/core_cmInstr.h **** /* TI CCS specific functions */
 303:../Drivers/CMSIS/Include/core_cmInstr.h **** 
 304:../Drivers/CMSIS/Include/core_cmInstr.h **** #include <cmsis_ccs.h>
 305:../Drivers/CMSIS/Include/core_cmInstr.h **** 
 306:../Drivers/CMSIS/Include/core_cmInstr.h **** 
 307:../Drivers/CMSIS/Include/core_cmInstr.h **** #elif defined ( __GNUC__ ) /*------------------ GNU Compiler ---------------------*/
 308:../Drivers/CMSIS/Include/core_cmInstr.h **** /* GNU gcc specific functions */
 309:../Drivers/CMSIS/Include/core_cmInstr.h **** 
ARM GAS  /tmp/ccSRu46N.s 			page 15


 310:../Drivers/CMSIS/Include/core_cmInstr.h **** /* Define macros for porting to both thumb1 and thumb2.
 311:../Drivers/CMSIS/Include/core_cmInstr.h ****  * For thumb1, use low register (r0-r7), specified by constrant "l"
 312:../Drivers/CMSIS/Include/core_cmInstr.h ****  * Otherwise, use general registers, specified by constrant "r" */
 313:../Drivers/CMSIS/Include/core_cmInstr.h **** #if defined (__thumb__) && !defined (__thumb2__)
 314:../Drivers/CMSIS/Include/core_cmInstr.h **** #define __CMSIS_GCC_OUT_REG(r) "=l" (r)
 315:../Drivers/CMSIS/Include/core_cmInstr.h **** #define __CMSIS_GCC_USE_REG(r) "l" (r)
 316:../Drivers/CMSIS/Include/core_cmInstr.h **** #else
 317:../Drivers/CMSIS/Include/core_cmInstr.h **** #define __CMSIS_GCC_OUT_REG(r) "=r" (r)
 318:../Drivers/CMSIS/Include/core_cmInstr.h **** #define __CMSIS_GCC_USE_REG(r) "r" (r)
 319:../Drivers/CMSIS/Include/core_cmInstr.h **** #endif
 320:../Drivers/CMSIS/Include/core_cmInstr.h **** 
 321:../Drivers/CMSIS/Include/core_cmInstr.h **** /** \brief  No Operation
 322:../Drivers/CMSIS/Include/core_cmInstr.h **** 
 323:../Drivers/CMSIS/Include/core_cmInstr.h ****     No Operation does nothing. This instruction can be used for code alignment purposes.
 324:../Drivers/CMSIS/Include/core_cmInstr.h ****  */
 325:../Drivers/CMSIS/Include/core_cmInstr.h **** __attribute__( ( always_inline ) ) __STATIC_INLINE void __NOP(void)
 326:../Drivers/CMSIS/Include/core_cmInstr.h **** {
 327:../Drivers/CMSIS/Include/core_cmInstr.h ****   __ASM volatile ("nop");
 328:../Drivers/CMSIS/Include/core_cmInstr.h **** }
 329:../Drivers/CMSIS/Include/core_cmInstr.h **** 
 330:../Drivers/CMSIS/Include/core_cmInstr.h **** 
 331:../Drivers/CMSIS/Include/core_cmInstr.h **** /** \brief  Wait For Interrupt
 332:../Drivers/CMSIS/Include/core_cmInstr.h **** 
 333:../Drivers/CMSIS/Include/core_cmInstr.h ****     Wait For Interrupt is a hint instruction that suspends execution
 334:../Drivers/CMSIS/Include/core_cmInstr.h ****     until one of a number of events occurs.
 335:../Drivers/CMSIS/Include/core_cmInstr.h ****  */
 336:../Drivers/CMSIS/Include/core_cmInstr.h **** __attribute__( ( always_inline ) ) __STATIC_INLINE void __WFI(void)
 337:../Drivers/CMSIS/Include/core_cmInstr.h **** {
 338:../Drivers/CMSIS/Include/core_cmInstr.h ****   __ASM volatile ("wfi");
 339:../Drivers/CMSIS/Include/core_cmInstr.h **** }
 340:../Drivers/CMSIS/Include/core_cmInstr.h **** 
 341:../Drivers/CMSIS/Include/core_cmInstr.h **** 
 342:../Drivers/CMSIS/Include/core_cmInstr.h **** /** \brief  Wait For Event
 343:../Drivers/CMSIS/Include/core_cmInstr.h **** 
 344:../Drivers/CMSIS/Include/core_cmInstr.h ****     Wait For Event is a hint instruction that permits the processor to enter
 345:../Drivers/CMSIS/Include/core_cmInstr.h ****     a low-power state until one of a number of events occurs.
 346:../Drivers/CMSIS/Include/core_cmInstr.h ****  */
 347:../Drivers/CMSIS/Include/core_cmInstr.h **** __attribute__( ( always_inline ) ) __STATIC_INLINE void __WFE(void)
 348:../Drivers/CMSIS/Include/core_cmInstr.h **** {
 349:../Drivers/CMSIS/Include/core_cmInstr.h ****   __ASM volatile ("wfe");
 350:../Drivers/CMSIS/Include/core_cmInstr.h **** }
 351:../Drivers/CMSIS/Include/core_cmInstr.h **** 
 352:../Drivers/CMSIS/Include/core_cmInstr.h **** 
 353:../Drivers/CMSIS/Include/core_cmInstr.h **** /** \brief  Send Event
 354:../Drivers/CMSIS/Include/core_cmInstr.h **** 
 355:../Drivers/CMSIS/Include/core_cmInstr.h ****     Send Event is a hint instruction. It causes an event to be signaled to the CPU.
 356:../Drivers/CMSIS/Include/core_cmInstr.h ****  */
 357:../Drivers/CMSIS/Include/core_cmInstr.h **** __attribute__( ( always_inline ) ) __STATIC_INLINE void __SEV(void)
 358:../Drivers/CMSIS/Include/core_cmInstr.h **** {
 359:../Drivers/CMSIS/Include/core_cmInstr.h ****   __ASM volatile ("sev");
 360:../Drivers/CMSIS/Include/core_cmInstr.h **** }
 361:../Drivers/CMSIS/Include/core_cmInstr.h **** 
 362:../Drivers/CMSIS/Include/core_cmInstr.h **** 
 363:../Drivers/CMSIS/Include/core_cmInstr.h **** /** \brief  Instruction Synchronization Barrier
 364:../Drivers/CMSIS/Include/core_cmInstr.h **** 
 365:../Drivers/CMSIS/Include/core_cmInstr.h ****     Instruction Synchronization Barrier flushes the pipeline in the processor,
 366:../Drivers/CMSIS/Include/core_cmInstr.h ****     so that all instructions following the ISB are fetched from cache or
ARM GAS  /tmp/ccSRu46N.s 			page 16


 367:../Drivers/CMSIS/Include/core_cmInstr.h ****     memory, after the instruction has been completed.
 368:../Drivers/CMSIS/Include/core_cmInstr.h ****  */
 369:../Drivers/CMSIS/Include/core_cmInstr.h **** __attribute__( ( always_inline ) ) __STATIC_INLINE void __ISB(void)
 370:../Drivers/CMSIS/Include/core_cmInstr.h **** {
 371:../Drivers/CMSIS/Include/core_cmInstr.h ****   __ASM volatile ("isb");
 372:../Drivers/CMSIS/Include/core_cmInstr.h **** }
 373:../Drivers/CMSIS/Include/core_cmInstr.h **** 
 374:../Drivers/CMSIS/Include/core_cmInstr.h **** 
 375:../Drivers/CMSIS/Include/core_cmInstr.h **** /** \brief  Data Synchronization Barrier
 376:../Drivers/CMSIS/Include/core_cmInstr.h **** 
 377:../Drivers/CMSIS/Include/core_cmInstr.h ****     This function acts as a special kind of Data Memory Barrier.
 378:../Drivers/CMSIS/Include/core_cmInstr.h ****     It completes when all explicit memory accesses before this instruction complete.
 379:../Drivers/CMSIS/Include/core_cmInstr.h ****  */
 380:../Drivers/CMSIS/Include/core_cmInstr.h **** __attribute__( ( always_inline ) ) __STATIC_INLINE void __DSB(void)
 381:../Drivers/CMSIS/Include/core_cmInstr.h **** {
 382:../Drivers/CMSIS/Include/core_cmInstr.h ****   __ASM volatile ("dsb");
 383:../Drivers/CMSIS/Include/core_cmInstr.h **** }
 384:../Drivers/CMSIS/Include/core_cmInstr.h **** 
 385:../Drivers/CMSIS/Include/core_cmInstr.h **** 
 386:../Drivers/CMSIS/Include/core_cmInstr.h **** /** \brief  Data Memory Barrier
 387:../Drivers/CMSIS/Include/core_cmInstr.h **** 
 388:../Drivers/CMSIS/Include/core_cmInstr.h ****     This function ensures the apparent order of the explicit memory operations before
 389:../Drivers/CMSIS/Include/core_cmInstr.h ****     and after the instruction, without ensuring their completion.
 390:../Drivers/CMSIS/Include/core_cmInstr.h ****  */
 391:../Drivers/CMSIS/Include/core_cmInstr.h **** __attribute__( ( always_inline ) ) __STATIC_INLINE void __DMB(void)
 392:../Drivers/CMSIS/Include/core_cmInstr.h **** {
 393:../Drivers/CMSIS/Include/core_cmInstr.h ****   __ASM volatile ("dmb");
 394:../Drivers/CMSIS/Include/core_cmInstr.h **** }
 395:../Drivers/CMSIS/Include/core_cmInstr.h **** 
 396:../Drivers/CMSIS/Include/core_cmInstr.h **** 
 397:../Drivers/CMSIS/Include/core_cmInstr.h **** /** \brief  Reverse byte order (32 bit)
 398:../Drivers/CMSIS/Include/core_cmInstr.h **** 
 399:../Drivers/CMSIS/Include/core_cmInstr.h ****     This function reverses the byte order in integer value.
 400:../Drivers/CMSIS/Include/core_cmInstr.h **** 
 401:../Drivers/CMSIS/Include/core_cmInstr.h ****     \param [in]    value  Value to reverse
 402:../Drivers/CMSIS/Include/core_cmInstr.h ****     \return               Reversed value
 403:../Drivers/CMSIS/Include/core_cmInstr.h ****  */
 404:../Drivers/CMSIS/Include/core_cmInstr.h **** __attribute__( ( always_inline ) ) __STATIC_INLINE uint32_t __REV(uint32_t value)
 405:../Drivers/CMSIS/Include/core_cmInstr.h **** {
 406:../Drivers/CMSIS/Include/core_cmInstr.h **** #if (__GNUC__ > 4) || (__GNUC__ == 4 && __GNUC_MINOR__ >= 5)
 407:../Drivers/CMSIS/Include/core_cmInstr.h ****   return __builtin_bswap32(value);
 408:../Drivers/CMSIS/Include/core_cmInstr.h **** #else
 409:../Drivers/CMSIS/Include/core_cmInstr.h ****   uint32_t result;
 410:../Drivers/CMSIS/Include/core_cmInstr.h **** 
 411:../Drivers/CMSIS/Include/core_cmInstr.h ****   __ASM volatile ("rev %0, %1" : __CMSIS_GCC_OUT_REG (result) : __CMSIS_GCC_USE_REG (value) );
 412:../Drivers/CMSIS/Include/core_cmInstr.h ****   return(result);
 413:../Drivers/CMSIS/Include/core_cmInstr.h **** #endif
 414:../Drivers/CMSIS/Include/core_cmInstr.h **** }
 415:../Drivers/CMSIS/Include/core_cmInstr.h **** 
 416:../Drivers/CMSIS/Include/core_cmInstr.h **** 
 417:../Drivers/CMSIS/Include/core_cmInstr.h **** /** \brief  Reverse byte order (16 bit)
 418:../Drivers/CMSIS/Include/core_cmInstr.h **** 
 419:../Drivers/CMSIS/Include/core_cmInstr.h ****     This function reverses the byte order in two unsigned short values.
 420:../Drivers/CMSIS/Include/core_cmInstr.h **** 
 421:../Drivers/CMSIS/Include/core_cmInstr.h ****     \param [in]    value  Value to reverse
 422:../Drivers/CMSIS/Include/core_cmInstr.h ****     \return               Reversed value
 423:../Drivers/CMSIS/Include/core_cmInstr.h ****  */
ARM GAS  /tmp/ccSRu46N.s 			page 17


 424:../Drivers/CMSIS/Include/core_cmInstr.h **** __attribute__( ( always_inline ) ) __STATIC_INLINE uint32_t __REV16(uint32_t value)
 425:../Drivers/CMSIS/Include/core_cmInstr.h **** {
 426:../Drivers/CMSIS/Include/core_cmInstr.h ****   uint32_t result;
 427:../Drivers/CMSIS/Include/core_cmInstr.h **** 
 428:../Drivers/CMSIS/Include/core_cmInstr.h ****   __ASM volatile ("rev16 %0, %1" : __CMSIS_GCC_OUT_REG (result) : __CMSIS_GCC_USE_REG (value) );
 429:../Drivers/CMSIS/Include/core_cmInstr.h ****   return(result);
 430:../Drivers/CMSIS/Include/core_cmInstr.h **** }
 431:../Drivers/CMSIS/Include/core_cmInstr.h **** 
 432:../Drivers/CMSIS/Include/core_cmInstr.h **** 
 433:../Drivers/CMSIS/Include/core_cmInstr.h **** /** \brief  Reverse byte order in signed short value
 434:../Drivers/CMSIS/Include/core_cmInstr.h **** 
 435:../Drivers/CMSIS/Include/core_cmInstr.h ****     This function reverses the byte order in a signed short value with sign extension to integer.
 436:../Drivers/CMSIS/Include/core_cmInstr.h **** 
 437:../Drivers/CMSIS/Include/core_cmInstr.h ****     \param [in]    value  Value to reverse
 438:../Drivers/CMSIS/Include/core_cmInstr.h ****     \return               Reversed value
 439:../Drivers/CMSIS/Include/core_cmInstr.h ****  */
 440:../Drivers/CMSIS/Include/core_cmInstr.h **** __attribute__( ( always_inline ) ) __STATIC_INLINE int32_t __REVSH(int32_t value)
 441:../Drivers/CMSIS/Include/core_cmInstr.h **** {
 442:../Drivers/CMSIS/Include/core_cmInstr.h **** #if (__GNUC__ > 4) || (__GNUC__ == 4 && __GNUC_MINOR__ >= 8)
 443:../Drivers/CMSIS/Include/core_cmInstr.h ****   return (short)__builtin_bswap16(value);
 444:../Drivers/CMSIS/Include/core_cmInstr.h **** #else
 445:../Drivers/CMSIS/Include/core_cmInstr.h ****   uint32_t result;
 446:../Drivers/CMSIS/Include/core_cmInstr.h **** 
 447:../Drivers/CMSIS/Include/core_cmInstr.h ****   __ASM volatile ("revsh %0, %1" : __CMSIS_GCC_OUT_REG (result) : __CMSIS_GCC_USE_REG (value) );
 448:../Drivers/CMSIS/Include/core_cmInstr.h ****   return(result);
 449:../Drivers/CMSIS/Include/core_cmInstr.h **** #endif
 450:../Drivers/CMSIS/Include/core_cmInstr.h **** }
 451:../Drivers/CMSIS/Include/core_cmInstr.h **** 
 452:../Drivers/CMSIS/Include/core_cmInstr.h **** 
 453:../Drivers/CMSIS/Include/core_cmInstr.h **** /** \brief  Rotate Right in unsigned value (32 bit)
 454:../Drivers/CMSIS/Include/core_cmInstr.h **** 
 455:../Drivers/CMSIS/Include/core_cmInstr.h ****     This function Rotate Right (immediate) provides the value of the contents of a register rotated
 456:../Drivers/CMSIS/Include/core_cmInstr.h **** 
 457:../Drivers/CMSIS/Include/core_cmInstr.h ****     \param [in]    value  Value to rotate
 458:../Drivers/CMSIS/Include/core_cmInstr.h ****     \param [in]    value  Number of Bits to rotate
 459:../Drivers/CMSIS/Include/core_cmInstr.h ****     \return               Rotated value
 460:../Drivers/CMSIS/Include/core_cmInstr.h ****  */
 461:../Drivers/CMSIS/Include/core_cmInstr.h **** __attribute__( ( always_inline ) ) __STATIC_INLINE uint32_t __ROR(uint32_t op1, uint32_t op2)
 462:../Drivers/CMSIS/Include/core_cmInstr.h **** {
 463:../Drivers/CMSIS/Include/core_cmInstr.h ****   return (op1 >> op2) | (op1 << (32 - op2)); 
 464:../Drivers/CMSIS/Include/core_cmInstr.h **** }
 465:../Drivers/CMSIS/Include/core_cmInstr.h **** 
 466:../Drivers/CMSIS/Include/core_cmInstr.h **** 
 467:../Drivers/CMSIS/Include/core_cmInstr.h **** /** \brief  Breakpoint
 468:../Drivers/CMSIS/Include/core_cmInstr.h **** 
 469:../Drivers/CMSIS/Include/core_cmInstr.h ****     This function causes the processor to enter Debug state.
 470:../Drivers/CMSIS/Include/core_cmInstr.h ****     Debug tools can use this to investigate system state when the instruction at a particular addre
 471:../Drivers/CMSIS/Include/core_cmInstr.h **** 
 472:../Drivers/CMSIS/Include/core_cmInstr.h ****     \param [in]    value  is ignored by the processor.
 473:../Drivers/CMSIS/Include/core_cmInstr.h ****                    If required, a debugger can use it to store additional information about the bre
 474:../Drivers/CMSIS/Include/core_cmInstr.h ****  */
 475:../Drivers/CMSIS/Include/core_cmInstr.h **** #define __BKPT(value)                       __ASM volatile ("bkpt "#value)
 476:../Drivers/CMSIS/Include/core_cmInstr.h **** 
 477:../Drivers/CMSIS/Include/core_cmInstr.h **** 
 478:../Drivers/CMSIS/Include/core_cmInstr.h **** #if       (__CORTEX_M >= 0x03)
 479:../Drivers/CMSIS/Include/core_cmInstr.h **** 
 480:../Drivers/CMSIS/Include/core_cmInstr.h **** /** \brief  Reverse bit order of value
ARM GAS  /tmp/ccSRu46N.s 			page 18


 481:../Drivers/CMSIS/Include/core_cmInstr.h **** 
 482:../Drivers/CMSIS/Include/core_cmInstr.h ****     This function reverses the bit order of the given value.
 483:../Drivers/CMSIS/Include/core_cmInstr.h **** 
 484:../Drivers/CMSIS/Include/core_cmInstr.h ****     \param [in]    value  Value to reverse
 485:../Drivers/CMSIS/Include/core_cmInstr.h ****     \return               Reversed value
 486:../Drivers/CMSIS/Include/core_cmInstr.h ****  */
 487:../Drivers/CMSIS/Include/core_cmInstr.h **** __attribute__( ( always_inline ) ) __STATIC_INLINE uint32_t __RBIT(uint32_t value)
 488:../Drivers/CMSIS/Include/core_cmInstr.h **** {
 489:../Drivers/CMSIS/Include/core_cmInstr.h ****   uint32_t result;
 490:../Drivers/CMSIS/Include/core_cmInstr.h **** 
 491:../Drivers/CMSIS/Include/core_cmInstr.h ****    __ASM volatile ("rbit %0, %1" : "=r" (result) : "r" (value) );
  79              		.loc 2 491 0
  80 0032 47F6C073 		movw	r3, #32704
  81              		.syntax unified
  82              	@ 491 "../Drivers/CMSIS/Include/core_cmInstr.h" 1
  83 0036 93FAA3F3 		rbit r3, r3
  84              	@ 0 "" 2
  85              	.LVL7:
  86              		.thumb
  87              		.syntax unified
  88              	.LBE19:
  89              	.LBE18:
  90              	.LBB20:
  91              	.LBB21:
 492:../Drivers/CMSIS/Include/core_cmInstr.h ****    return(result);
 493:../Drivers/CMSIS/Include/core_cmInstr.h **** }
 494:../Drivers/CMSIS/Include/core_cmInstr.h **** 
 495:../Drivers/CMSIS/Include/core_cmInstr.h **** 
 496:../Drivers/CMSIS/Include/core_cmInstr.h **** /** \brief  LDR Exclusive (8 bit)
 497:../Drivers/CMSIS/Include/core_cmInstr.h **** 
 498:../Drivers/CMSIS/Include/core_cmInstr.h ****     This function performs a exclusive LDR command for 8 bit value.
 499:../Drivers/CMSIS/Include/core_cmInstr.h **** 
 500:../Drivers/CMSIS/Include/core_cmInstr.h ****     \param [in]    ptr  Pointer to data
 501:../Drivers/CMSIS/Include/core_cmInstr.h ****     \return             value of type uint8_t at (*ptr)
 502:../Drivers/CMSIS/Include/core_cmInstr.h ****  */
 503:../Drivers/CMSIS/Include/core_cmInstr.h **** __attribute__( ( always_inline ) ) __STATIC_INLINE uint8_t __LDREXB(volatile uint8_t *addr)
 504:../Drivers/CMSIS/Include/core_cmInstr.h **** {
 505:../Drivers/CMSIS/Include/core_cmInstr.h ****     uint32_t result;
 506:../Drivers/CMSIS/Include/core_cmInstr.h **** 
 507:../Drivers/CMSIS/Include/core_cmInstr.h **** #if (__GNUC__ > 4) || (__GNUC__ == 4 && __GNUC_MINOR__ >= 8)
 508:../Drivers/CMSIS/Include/core_cmInstr.h ****    __ASM volatile ("ldrexb %0, %1" : "=r" (result) : "Q" (*addr) );
 509:../Drivers/CMSIS/Include/core_cmInstr.h **** #else
 510:../Drivers/CMSIS/Include/core_cmInstr.h ****     /* Prior to GCC 4.8, "Q" will be expanded to [rx, #0] which is not
 511:../Drivers/CMSIS/Include/core_cmInstr.h ****        accepted by assembler. So has to use following less efficient pattern.
 512:../Drivers/CMSIS/Include/core_cmInstr.h ****     */
 513:../Drivers/CMSIS/Include/core_cmInstr.h ****    __ASM volatile ("ldrexb %0, [%1]" : "=r" (result) : "r" (addr) : "memory" );
 514:../Drivers/CMSIS/Include/core_cmInstr.h **** #endif
 515:../Drivers/CMSIS/Include/core_cmInstr.h ****    return(result);
 516:../Drivers/CMSIS/Include/core_cmInstr.h **** }
 517:../Drivers/CMSIS/Include/core_cmInstr.h **** 
 518:../Drivers/CMSIS/Include/core_cmInstr.h **** 
 519:../Drivers/CMSIS/Include/core_cmInstr.h **** /** \brief  LDR Exclusive (16 bit)
 520:../Drivers/CMSIS/Include/core_cmInstr.h **** 
 521:../Drivers/CMSIS/Include/core_cmInstr.h ****     This function performs a exclusive LDR command for 16 bit values.
 522:../Drivers/CMSIS/Include/core_cmInstr.h **** 
 523:../Drivers/CMSIS/Include/core_cmInstr.h ****     \param [in]    ptr  Pointer to data
 524:../Drivers/CMSIS/Include/core_cmInstr.h ****     \return        value of type uint16_t at (*ptr)
ARM GAS  /tmp/ccSRu46N.s 			page 19


 525:../Drivers/CMSIS/Include/core_cmInstr.h ****  */
 526:../Drivers/CMSIS/Include/core_cmInstr.h **** __attribute__( ( always_inline ) ) __STATIC_INLINE uint16_t __LDREXH(volatile uint16_t *addr)
 527:../Drivers/CMSIS/Include/core_cmInstr.h **** {
 528:../Drivers/CMSIS/Include/core_cmInstr.h ****     uint32_t result;
 529:../Drivers/CMSIS/Include/core_cmInstr.h **** 
 530:../Drivers/CMSIS/Include/core_cmInstr.h **** #if (__GNUC__ > 4) || (__GNUC__ == 4 && __GNUC_MINOR__ >= 8)
 531:../Drivers/CMSIS/Include/core_cmInstr.h ****    __ASM volatile ("ldrexh %0, %1" : "=r" (result) : "Q" (*addr) );
 532:../Drivers/CMSIS/Include/core_cmInstr.h **** #else
 533:../Drivers/CMSIS/Include/core_cmInstr.h ****     /* Prior to GCC 4.8, "Q" will be expanded to [rx, #0] which is not
 534:../Drivers/CMSIS/Include/core_cmInstr.h ****        accepted by assembler. So has to use following less efficient pattern.
 535:../Drivers/CMSIS/Include/core_cmInstr.h ****     */
 536:../Drivers/CMSIS/Include/core_cmInstr.h ****    __ASM volatile ("ldrexh %0, [%1]" : "=r" (result) : "r" (addr) : "memory" );
 537:../Drivers/CMSIS/Include/core_cmInstr.h **** #endif
 538:../Drivers/CMSIS/Include/core_cmInstr.h ****    return(result);
 539:../Drivers/CMSIS/Include/core_cmInstr.h **** }
 540:../Drivers/CMSIS/Include/core_cmInstr.h **** 
 541:../Drivers/CMSIS/Include/core_cmInstr.h **** 
 542:../Drivers/CMSIS/Include/core_cmInstr.h **** /** \brief  LDR Exclusive (32 bit)
 543:../Drivers/CMSIS/Include/core_cmInstr.h **** 
 544:../Drivers/CMSIS/Include/core_cmInstr.h ****     This function performs a exclusive LDR command for 32 bit values.
 545:../Drivers/CMSIS/Include/core_cmInstr.h **** 
 546:../Drivers/CMSIS/Include/core_cmInstr.h ****     \param [in]    ptr  Pointer to data
 547:../Drivers/CMSIS/Include/core_cmInstr.h ****     \return        value of type uint32_t at (*ptr)
 548:../Drivers/CMSIS/Include/core_cmInstr.h ****  */
 549:../Drivers/CMSIS/Include/core_cmInstr.h **** __attribute__( ( always_inline ) ) __STATIC_INLINE uint32_t __LDREXW(volatile uint32_t *addr)
 550:../Drivers/CMSIS/Include/core_cmInstr.h **** {
 551:../Drivers/CMSIS/Include/core_cmInstr.h ****     uint32_t result;
 552:../Drivers/CMSIS/Include/core_cmInstr.h **** 
 553:../Drivers/CMSIS/Include/core_cmInstr.h ****    __ASM volatile ("ldrex %0, %1" : "=r" (result) : "Q" (*addr) );
 554:../Drivers/CMSIS/Include/core_cmInstr.h ****    return(result);
 555:../Drivers/CMSIS/Include/core_cmInstr.h **** }
 556:../Drivers/CMSIS/Include/core_cmInstr.h **** 
 557:../Drivers/CMSIS/Include/core_cmInstr.h **** 
 558:../Drivers/CMSIS/Include/core_cmInstr.h **** /** \brief  STR Exclusive (8 bit)
 559:../Drivers/CMSIS/Include/core_cmInstr.h **** 
 560:../Drivers/CMSIS/Include/core_cmInstr.h ****     This function performs a exclusive STR command for 8 bit values.
 561:../Drivers/CMSIS/Include/core_cmInstr.h **** 
 562:../Drivers/CMSIS/Include/core_cmInstr.h ****     \param [in]  value  Value to store
 563:../Drivers/CMSIS/Include/core_cmInstr.h ****     \param [in]    ptr  Pointer to location
 564:../Drivers/CMSIS/Include/core_cmInstr.h ****     \return          0  Function succeeded
 565:../Drivers/CMSIS/Include/core_cmInstr.h ****     \return          1  Function failed
 566:../Drivers/CMSIS/Include/core_cmInstr.h ****  */
 567:../Drivers/CMSIS/Include/core_cmInstr.h **** __attribute__( ( always_inline ) ) __STATIC_INLINE uint32_t __STREXB(uint8_t value, volatile uint8_
 568:../Drivers/CMSIS/Include/core_cmInstr.h **** {
 569:../Drivers/CMSIS/Include/core_cmInstr.h ****    uint32_t result;
 570:../Drivers/CMSIS/Include/core_cmInstr.h **** 
 571:../Drivers/CMSIS/Include/core_cmInstr.h ****    __ASM volatile ("strexb %0, %2, %1" : "=&r" (result), "=Q" (*addr) : "r" (value) );
 572:../Drivers/CMSIS/Include/core_cmInstr.h ****    return(result);
 573:../Drivers/CMSIS/Include/core_cmInstr.h **** }
 574:../Drivers/CMSIS/Include/core_cmInstr.h **** 
 575:../Drivers/CMSIS/Include/core_cmInstr.h **** 
 576:../Drivers/CMSIS/Include/core_cmInstr.h **** /** \brief  STR Exclusive (16 bit)
 577:../Drivers/CMSIS/Include/core_cmInstr.h **** 
 578:../Drivers/CMSIS/Include/core_cmInstr.h ****     This function performs a exclusive STR command for 16 bit values.
 579:../Drivers/CMSIS/Include/core_cmInstr.h **** 
 580:../Drivers/CMSIS/Include/core_cmInstr.h ****     \param [in]  value  Value to store
 581:../Drivers/CMSIS/Include/core_cmInstr.h ****     \param [in]    ptr  Pointer to location
ARM GAS  /tmp/ccSRu46N.s 			page 20


 582:../Drivers/CMSIS/Include/core_cmInstr.h ****     \return          0  Function succeeded
 583:../Drivers/CMSIS/Include/core_cmInstr.h ****     \return          1  Function failed
 584:../Drivers/CMSIS/Include/core_cmInstr.h ****  */
 585:../Drivers/CMSIS/Include/core_cmInstr.h **** __attribute__( ( always_inline ) ) __STATIC_INLINE uint32_t __STREXH(uint16_t value, volatile uint1
 586:../Drivers/CMSIS/Include/core_cmInstr.h **** {
 587:../Drivers/CMSIS/Include/core_cmInstr.h ****    uint32_t result;
 588:../Drivers/CMSIS/Include/core_cmInstr.h **** 
 589:../Drivers/CMSIS/Include/core_cmInstr.h ****    __ASM volatile ("strexh %0, %2, %1" : "=&r" (result), "=Q" (*addr) : "r" (value) );
 590:../Drivers/CMSIS/Include/core_cmInstr.h ****    return(result);
 591:../Drivers/CMSIS/Include/core_cmInstr.h **** }
 592:../Drivers/CMSIS/Include/core_cmInstr.h **** 
 593:../Drivers/CMSIS/Include/core_cmInstr.h **** 
 594:../Drivers/CMSIS/Include/core_cmInstr.h **** /** \brief  STR Exclusive (32 bit)
 595:../Drivers/CMSIS/Include/core_cmInstr.h **** 
 596:../Drivers/CMSIS/Include/core_cmInstr.h ****     This function performs a exclusive STR command for 32 bit values.
 597:../Drivers/CMSIS/Include/core_cmInstr.h **** 
 598:../Drivers/CMSIS/Include/core_cmInstr.h ****     \param [in]  value  Value to store
 599:../Drivers/CMSIS/Include/core_cmInstr.h ****     \param [in]    ptr  Pointer to location
 600:../Drivers/CMSIS/Include/core_cmInstr.h ****     \return          0  Function succeeded
 601:../Drivers/CMSIS/Include/core_cmInstr.h ****     \return          1  Function failed
 602:../Drivers/CMSIS/Include/core_cmInstr.h ****  */
 603:../Drivers/CMSIS/Include/core_cmInstr.h **** __attribute__( ( always_inline ) ) __STATIC_INLINE uint32_t __STREXW(uint32_t value, volatile uint3
 604:../Drivers/CMSIS/Include/core_cmInstr.h **** {
 605:../Drivers/CMSIS/Include/core_cmInstr.h ****    uint32_t result;
 606:../Drivers/CMSIS/Include/core_cmInstr.h **** 
 607:../Drivers/CMSIS/Include/core_cmInstr.h ****    __ASM volatile ("strex %0, %2, %1" : "=&r" (result), "=Q" (*addr) : "r" (value) );
 608:../Drivers/CMSIS/Include/core_cmInstr.h ****    return(result);
 609:../Drivers/CMSIS/Include/core_cmInstr.h **** }
 610:../Drivers/CMSIS/Include/core_cmInstr.h **** 
 611:../Drivers/CMSIS/Include/core_cmInstr.h **** 
 612:../Drivers/CMSIS/Include/core_cmInstr.h **** /** \brief  Remove the exclusive lock
 613:../Drivers/CMSIS/Include/core_cmInstr.h **** 
 614:../Drivers/CMSIS/Include/core_cmInstr.h ****     This function removes the exclusive lock which is created by LDREX.
 615:../Drivers/CMSIS/Include/core_cmInstr.h **** 
 616:../Drivers/CMSIS/Include/core_cmInstr.h ****  */
 617:../Drivers/CMSIS/Include/core_cmInstr.h **** __attribute__( ( always_inline ) ) __STATIC_INLINE void __CLREX(void)
 618:../Drivers/CMSIS/Include/core_cmInstr.h **** {
 619:../Drivers/CMSIS/Include/core_cmInstr.h ****   __ASM volatile ("clrex" ::: "memory");
 620:../Drivers/CMSIS/Include/core_cmInstr.h **** }
 621:../Drivers/CMSIS/Include/core_cmInstr.h **** 
 622:../Drivers/CMSIS/Include/core_cmInstr.h **** 
 623:../Drivers/CMSIS/Include/core_cmInstr.h **** /** \brief  Signed Saturate
 624:../Drivers/CMSIS/Include/core_cmInstr.h **** 
 625:../Drivers/CMSIS/Include/core_cmInstr.h ****     This function saturates a signed value.
 626:../Drivers/CMSIS/Include/core_cmInstr.h **** 
 627:../Drivers/CMSIS/Include/core_cmInstr.h ****     \param [in]  value  Value to be saturated
 628:../Drivers/CMSIS/Include/core_cmInstr.h ****     \param [in]    sat  Bit position to saturate to (1..32)
 629:../Drivers/CMSIS/Include/core_cmInstr.h ****     \return             Saturated value
 630:../Drivers/CMSIS/Include/core_cmInstr.h ****  */
 631:../Drivers/CMSIS/Include/core_cmInstr.h **** #define __SSAT(ARG1,ARG2) \
 632:../Drivers/CMSIS/Include/core_cmInstr.h **** ({                          \
 633:../Drivers/CMSIS/Include/core_cmInstr.h ****   uint32_t __RES, __ARG1 = (ARG1); \
 634:../Drivers/CMSIS/Include/core_cmInstr.h ****   __ASM ("ssat %0, %1, %2" : "=r" (__RES) :  "I" (ARG2), "r" (__ARG1) ); \
 635:../Drivers/CMSIS/Include/core_cmInstr.h ****   __RES; \
 636:../Drivers/CMSIS/Include/core_cmInstr.h ****  })
 637:../Drivers/CMSIS/Include/core_cmInstr.h **** 
 638:../Drivers/CMSIS/Include/core_cmInstr.h **** 
ARM GAS  /tmp/ccSRu46N.s 			page 21


 639:../Drivers/CMSIS/Include/core_cmInstr.h **** /** \brief  Unsigned Saturate
 640:../Drivers/CMSIS/Include/core_cmInstr.h **** 
 641:../Drivers/CMSIS/Include/core_cmInstr.h ****     This function saturates an unsigned value.
 642:../Drivers/CMSIS/Include/core_cmInstr.h **** 
 643:../Drivers/CMSIS/Include/core_cmInstr.h ****     \param [in]  value  Value to be saturated
 644:../Drivers/CMSIS/Include/core_cmInstr.h ****     \param [in]    sat  Bit position to saturate to (0..31)
 645:../Drivers/CMSIS/Include/core_cmInstr.h ****     \return             Saturated value
 646:../Drivers/CMSIS/Include/core_cmInstr.h ****  */
 647:../Drivers/CMSIS/Include/core_cmInstr.h **** #define __USAT(ARG1,ARG2) \
 648:../Drivers/CMSIS/Include/core_cmInstr.h **** ({                          \
 649:../Drivers/CMSIS/Include/core_cmInstr.h ****   uint32_t __RES, __ARG1 = (ARG1); \
 650:../Drivers/CMSIS/Include/core_cmInstr.h ****   __ASM ("usat %0, %1, %2" : "=r" (__RES) :  "I" (ARG2), "r" (__ARG1) ); \
 651:../Drivers/CMSIS/Include/core_cmInstr.h ****   __RES; \
 652:../Drivers/CMSIS/Include/core_cmInstr.h ****  })
 653:../Drivers/CMSIS/Include/core_cmInstr.h **** 
 654:../Drivers/CMSIS/Include/core_cmInstr.h **** 
 655:../Drivers/CMSIS/Include/core_cmInstr.h **** /** \brief  Count leading zeros
 656:../Drivers/CMSIS/Include/core_cmInstr.h **** 
 657:../Drivers/CMSIS/Include/core_cmInstr.h ****     This function counts the number of leading zeros of a data value.
 658:../Drivers/CMSIS/Include/core_cmInstr.h **** 
 659:../Drivers/CMSIS/Include/core_cmInstr.h ****     \param [in]  value  Value to count the leading zeros
 660:../Drivers/CMSIS/Include/core_cmInstr.h ****     \return             number of leading zeros in value
 661:../Drivers/CMSIS/Include/core_cmInstr.h ****  */
 662:../Drivers/CMSIS/Include/core_cmInstr.h **** __attribute__( ( always_inline ) ) __STATIC_INLINE uint8_t __CLZ(uint32_t value)
 663:../Drivers/CMSIS/Include/core_cmInstr.h **** {
 664:../Drivers/CMSIS/Include/core_cmInstr.h ****    uint32_t result;
 665:../Drivers/CMSIS/Include/core_cmInstr.h **** 
 666:../Drivers/CMSIS/Include/core_cmInstr.h ****   __ASM volatile ("clz %0, %1" : "=r" (result) : "r" (value) );
  92              		.loc 2 666 0
  93              		.syntax unified
  94              	@ 666 "../Drivers/CMSIS/Include/core_cmInstr.h" 1
  95 003a B3FA83F3 		clz r3, r3
  96              	@ 0 "" 2
  97              		.thumb
  98              		.syntax unified
  99              	.LBE21:
 100              	.LBE20:
 101              		.loc 1 411 0
 102 003e DBB2     		uxtb	r3, r3
 103 0040 02FA03F1 		lsl	r1, r2, r3
 104 0044 A268     		ldr	r2, [r4, #8]
 105              	.LVL8:
 106              	.LBB22:
 107              	.LBB23:
 491:../Drivers/CMSIS/Include/core_cmInstr.h ****    return(result);
 108              		.loc 2 491 0
 109 0046 4FF0E043 		mov	r3, #1879048192
 110              		.syntax unified
 111              	@ 491 "../Drivers/CMSIS/Include/core_cmInstr.h" 1
 112 004a 93FAA3F3 		rbit r3, r3
 113              	@ 0 "" 2
 114              	.LVL9:
 115              		.thumb
 116              		.syntax unified
 117              	.LBE23:
 118              	.LBE22:
 119              	.LBB24:
ARM GAS  /tmp/ccSRu46N.s 			page 22


 120              	.LBB25:
 121              		.loc 2 666 0
 122              		.syntax unified
 123              	@ 666 "../Drivers/CMSIS/Include/core_cmInstr.h" 1
 124 004e B3FA83F3 		clz r3, r3
 125              	@ 0 "" 2
 126              		.thumb
 127              		.syntax unified
 128              	.LBE25:
 129              	.LBE24:
 130              		.loc 1 411 0
 131 0052 DBB2     		uxtb	r3, r3
 132 0054 9A40     		lsls	r2, r2, r3
 133 0056 41EA0203 		orr	r3, r1, r2
 134 005a 404A     		ldr	r2, .L22+4
 135 005c C2F88430 		str	r3, [r2, #132]
 412:../Drivers/STM32F4xx_HAL_Driver/Src/stm32f4xx_hal_rcc_ex.c **** #endif /* STM32F411xE */
 413:../Drivers/STM32F4xx_HAL_Driver/Src/stm32f4xx_hal_rcc_ex.c ****     
 414:../Drivers/STM32F4xx_HAL_Driver/Src/stm32f4xx_hal_rcc_ex.c ****     /* Enable the PLLI2S */
 415:../Drivers/STM32F4xx_HAL_Driver/Src/stm32f4xx_hal_rcc_ex.c ****     __HAL_RCC_PLLI2S_ENABLE();
 136              		.loc 1 415 0
 137 0060 0122     		movs	r2, #1
 138 0062 3D4B     		ldr	r3, .L22
 139 0064 1A60     		str	r2, [r3]
 416:../Drivers/STM32F4xx_HAL_Driver/Src/stm32f4xx_hal_rcc_ex.c ****     /* Get tick */
 417:../Drivers/STM32F4xx_HAL_Driver/Src/stm32f4xx_hal_rcc_ex.c ****     tickstart = HAL_GetTick();
 140              		.loc 1 417 0
 141 0066 FFF7FEFF 		bl	HAL_GetTick
 142              	.LVL10:
 143 006a 0546     		mov	r5, r0
 144              	.LVL11:
 418:../Drivers/STM32F4xx_HAL_Driver/Src/stm32f4xx_hal_rcc_ex.c ****     /* Wait till PLLI2S is ready */
 419:../Drivers/STM32F4xx_HAL_Driver/Src/stm32f4xx_hal_rcc_ex.c ****     while(__HAL_RCC_GET_FLAG(RCC_FLAG_PLLI2SRDY)  == RESET)
 145              		.loc 1 419 0
 146 006c 04E0     		b	.L6
 147              	.LVL12:
 148              	.L7:
 420:../Drivers/STM32F4xx_HAL_Driver/Src/stm32f4xx_hal_rcc_ex.c ****     {
 421:../Drivers/STM32F4xx_HAL_Driver/Src/stm32f4xx_hal_rcc_ex.c ****       if((HAL_GetTick() - tickstart ) > PLLI2S_TIMEOUT_VALUE)
 149              		.loc 1 421 0
 150 006e FFF7FEFF 		bl	HAL_GetTick
 151              	.LVL13:
 152 0072 401B     		subs	r0, r0, r5
 153 0074 6428     		cmp	r0, #100
 154 0076 67D8     		bhi	.L17
 155              	.L6:
 419:../Drivers/STM32F4xx_HAL_Driver/Src/stm32f4xx_hal_rcc_ex.c ****     {
 156              		.loc 1 419 0
 157 0078 384B     		ldr	r3, .L22+4
 158 007a 1B68     		ldr	r3, [r3]
 159 007c 13F0006F 		tst	r3, #134217728
 160 0080 F5D0     		beq	.L7
 161              	.LVL14:
 162              	.L2:
 422:../Drivers/STM32F4xx_HAL_Driver/Src/stm32f4xx_hal_rcc_ex.c ****       {
 423:../Drivers/STM32F4xx_HAL_Driver/Src/stm32f4xx_hal_rcc_ex.c ****         /* return in case of Timeout detected */
 424:../Drivers/STM32F4xx_HAL_Driver/Src/stm32f4xx_hal_rcc_ex.c ****         return HAL_TIMEOUT;
ARM GAS  /tmp/ccSRu46N.s 			page 23


 425:../Drivers/STM32F4xx_HAL_Driver/Src/stm32f4xx_hal_rcc_ex.c ****       }
 426:../Drivers/STM32F4xx_HAL_Driver/Src/stm32f4xx_hal_rcc_ex.c ****     }
 427:../Drivers/STM32F4xx_HAL_Driver/Src/stm32f4xx_hal_rcc_ex.c ****   }
 428:../Drivers/STM32F4xx_HAL_Driver/Src/stm32f4xx_hal_rcc_ex.c ****   
 429:../Drivers/STM32F4xx_HAL_Driver/Src/stm32f4xx_hal_rcc_ex.c ****   /*---------------------------- RTC configuration ---------------------------*/
 430:../Drivers/STM32F4xx_HAL_Driver/Src/stm32f4xx_hal_rcc_ex.c ****   if(((PeriphClkInit->PeriphClockSelection) & RCC_PERIPHCLK_RTC) == (RCC_PERIPHCLK_RTC))
 163              		.loc 1 430 0
 164 0082 2368     		ldr	r3, [r4]
 165 0084 13F0020F 		tst	r3, #2
 166 0088 60D0     		beq	.L18
 431:../Drivers/STM32F4xx_HAL_Driver/Src/stm32f4xx_hal_rcc_ex.c ****   {
 432:../Drivers/STM32F4xx_HAL_Driver/Src/stm32f4xx_hal_rcc_ex.c ****     /* Enable Power Clock*/
 433:../Drivers/STM32F4xx_HAL_Driver/Src/stm32f4xx_hal_rcc_ex.c ****     __PWR_CLK_ENABLE();
 167              		.loc 1 433 0
 168 008a 344A     		ldr	r2, .L22+4
 169 008c 136C     		ldr	r3, [r2, #64]
 170 008e 43F08053 		orr	r3, r3, #268435456
 171 0092 1364     		str	r3, [r2, #64]
 434:../Drivers/STM32F4xx_HAL_Driver/Src/stm32f4xx_hal_rcc_ex.c ****     
 435:../Drivers/STM32F4xx_HAL_Driver/Src/stm32f4xx_hal_rcc_ex.c ****     /* Enable write access to Backup domain */
 436:../Drivers/STM32F4xx_HAL_Driver/Src/stm32f4xx_hal_rcc_ex.c ****     PWR->CR |= PWR_CR_DBP;
 172              		.loc 1 436 0
 173 0094 A2F5E432 		sub	r2, r2, #116736
 174 0098 1368     		ldr	r3, [r2]
 175 009a 43F48073 		orr	r3, r3, #256
 176 009e 1360     		str	r3, [r2]
 437:../Drivers/STM32F4xx_HAL_Driver/Src/stm32f4xx_hal_rcc_ex.c **** 
 438:../Drivers/STM32F4xx_HAL_Driver/Src/stm32f4xx_hal_rcc_ex.c ****     /* Get tick */
 439:../Drivers/STM32F4xx_HAL_Driver/Src/stm32f4xx_hal_rcc_ex.c ****     tickstart = HAL_GetTick();
 177              		.loc 1 439 0
 178 00a0 FFF7FEFF 		bl	HAL_GetTick
 179              	.LVL15:
 180 00a4 0546     		mov	r5, r0
 181              	.LVL16:
 440:../Drivers/STM32F4xx_HAL_Driver/Src/stm32f4xx_hal_rcc_ex.c **** 
 441:../Drivers/STM32F4xx_HAL_Driver/Src/stm32f4xx_hal_rcc_ex.c ****     while((PWR->CR & PWR_CR_DBP) == RESET)
 182              		.loc 1 441 0
 183 00a6 04E0     		b	.L8
 184              	.LVL17:
 185              	.L9:
 442:../Drivers/STM32F4xx_HAL_Driver/Src/stm32f4xx_hal_rcc_ex.c ****     {
 443:../Drivers/STM32F4xx_HAL_Driver/Src/stm32f4xx_hal_rcc_ex.c ****       if((HAL_GetTick() - tickstart ) > DBP_TIMEOUT_VALUE)
 186              		.loc 1 443 0
 187 00a8 FFF7FEFF 		bl	HAL_GetTick
 188              	.LVL18:
 189 00ac 401B     		subs	r0, r0, r5
 190 00ae 6428     		cmp	r0, #100
 191 00b0 4ED8     		bhi	.L19
 192              	.L8:
 441:../Drivers/STM32F4xx_HAL_Driver/Src/stm32f4xx_hal_rcc_ex.c ****     {
 193              		.loc 1 441 0
 194 00b2 2B4B     		ldr	r3, .L22+8
 195 00b4 1B68     		ldr	r3, [r3]
 196 00b6 13F4807F 		tst	r3, #256
 197 00ba F5D0     		beq	.L9
 444:../Drivers/STM32F4xx_HAL_Driver/Src/stm32f4xx_hal_rcc_ex.c ****       {
 445:../Drivers/STM32F4xx_HAL_Driver/Src/stm32f4xx_hal_rcc_ex.c ****         return HAL_TIMEOUT;
ARM GAS  /tmp/ccSRu46N.s 			page 24


 446:../Drivers/STM32F4xx_HAL_Driver/Src/stm32f4xx_hal_rcc_ex.c ****       }      
 447:../Drivers/STM32F4xx_HAL_Driver/Src/stm32f4xx_hal_rcc_ex.c ****     }
 448:../Drivers/STM32F4xx_HAL_Driver/Src/stm32f4xx_hal_rcc_ex.c ****         
 449:../Drivers/STM32F4xx_HAL_Driver/Src/stm32f4xx_hal_rcc_ex.c ****     /* Reset the Backup domain only if the RTC Clock source selction is modified */ 
 450:../Drivers/STM32F4xx_HAL_Driver/Src/stm32f4xx_hal_rcc_ex.c ****     if((RCC->BDCR & RCC_BDCR_RTCSEL) != (PeriphClkInit->RTCClockSelection & RCC_BDCR_RTCSEL))
 198              		.loc 1 450 0
 199 00bc 274B     		ldr	r3, .L22+4
 200 00be 1A6F     		ldr	r2, [r3, #112]
 201 00c0 E368     		ldr	r3, [r4, #12]
 202 00c2 5340     		eors	r3, r3, r2
 203 00c4 13F4407F 		tst	r3, #768
 204 00c8 09D0     		beq	.L10
 451:../Drivers/STM32F4xx_HAL_Driver/Src/stm32f4xx_hal_rcc_ex.c ****     {
 452:../Drivers/STM32F4xx_HAL_Driver/Src/stm32f4xx_hal_rcc_ex.c ****       /* Store the content of BDCR register before the reset of Backup Domain */
 453:../Drivers/STM32F4xx_HAL_Driver/Src/stm32f4xx_hal_rcc_ex.c ****       tmpreg = (RCC->BDCR & ~(RCC_BDCR_RTCSEL));
 205              		.loc 1 453 0
 206 00ca 244A     		ldr	r2, .L22+4
 207 00cc 136F     		ldr	r3, [r2, #112]
 208 00ce 23F44073 		bic	r3, r3, #768
 209              	.LVL19:
 454:../Drivers/STM32F4xx_HAL_Driver/Src/stm32f4xx_hal_rcc_ex.c ****       /* RTC Clock selection can be changed only if the Backup Domain is reset */
 455:../Drivers/STM32F4xx_HAL_Driver/Src/stm32f4xx_hal_rcc_ex.c ****       __HAL_RCC_BACKUPRESET_FORCE();
 210              		.loc 1 455 0
 211 00d2 2449     		ldr	r1, .L22+12
 212 00d4 0120     		movs	r0, #1
 213 00d6 0860     		str	r0, [r1]
 456:../Drivers/STM32F4xx_HAL_Driver/Src/stm32f4xx_hal_rcc_ex.c ****       __HAL_RCC_BACKUPRESET_RELEASE();
 214              		.loc 1 456 0
 215 00d8 0020     		movs	r0, #0
 216 00da 0860     		str	r0, [r1]
 457:../Drivers/STM32F4xx_HAL_Driver/Src/stm32f4xx_hal_rcc_ex.c ****       /* Restore the Content of BDCR register */
 458:../Drivers/STM32F4xx_HAL_Driver/Src/stm32f4xx_hal_rcc_ex.c ****       RCC->BDCR = tmpreg;
 217              		.loc 1 458 0
 218 00dc 1367     		str	r3, [r2, #112]
 219              	.LVL20:
 220              	.L10:
 459:../Drivers/STM32F4xx_HAL_Driver/Src/stm32f4xx_hal_rcc_ex.c ****     }
 460:../Drivers/STM32F4xx_HAL_Driver/Src/stm32f4xx_hal_rcc_ex.c ****       
 461:../Drivers/STM32F4xx_HAL_Driver/Src/stm32f4xx_hal_rcc_ex.c ****     /* If LSE is selected as RTC clock source, wait for LSE reactivation */
 462:../Drivers/STM32F4xx_HAL_Driver/Src/stm32f4xx_hal_rcc_ex.c ****     if(PeriphClkInit->RTCClockSelection == RCC_RTCCLKSOURCE_LSE)
 221              		.loc 1 462 0
 222 00de E368     		ldr	r3, [r4, #12]
 223 00e0 B3F5807F 		cmp	r3, #256
 224 00e4 0FD1     		bne	.L11
 463:../Drivers/STM32F4xx_HAL_Driver/Src/stm32f4xx_hal_rcc_ex.c ****     {
 464:../Drivers/STM32F4xx_HAL_Driver/Src/stm32f4xx_hal_rcc_ex.c ****       /* Get tick */
 465:../Drivers/STM32F4xx_HAL_Driver/Src/stm32f4xx_hal_rcc_ex.c ****       tickstart = HAL_GetTick();
 225              		.loc 1 465 0
 226 00e6 FFF7FEFF 		bl	HAL_GetTick
 227              	.LVL21:
 228 00ea 0546     		mov	r5, r0
 229              	.LVL22:
 466:../Drivers/STM32F4xx_HAL_Driver/Src/stm32f4xx_hal_rcc_ex.c **** 
 467:../Drivers/STM32F4xx_HAL_Driver/Src/stm32f4xx_hal_rcc_ex.c ****       /* Wait till LSE is ready */  
 468:../Drivers/STM32F4xx_HAL_Driver/Src/stm32f4xx_hal_rcc_ex.c ****       while(__HAL_RCC_GET_FLAG(RCC_FLAG_LSERDY) == RESET)
 230              		.loc 1 468 0
 231 00ec 06E0     		b	.L12
ARM GAS  /tmp/ccSRu46N.s 			page 25


 232              	.LVL23:
 233              	.L13:
 469:../Drivers/STM32F4xx_HAL_Driver/Src/stm32f4xx_hal_rcc_ex.c ****       {
 470:../Drivers/STM32F4xx_HAL_Driver/Src/stm32f4xx_hal_rcc_ex.c ****         if((HAL_GetTick() - tickstart ) > LSE_TIMEOUT_VALUE)
 234              		.loc 1 470 0
 235 00ee FFF7FEFF 		bl	HAL_GetTick
 236              	.LVL24:
 237 00f2 401B     		subs	r0, r0, r5
 238 00f4 41F28833 		movw	r3, #5000
 239 00f8 9842     		cmp	r0, r3
 240 00fa 2BD8     		bhi	.L20
 241              	.L12:
 468:../Drivers/STM32F4xx_HAL_Driver/Src/stm32f4xx_hal_rcc_ex.c ****       {
 242              		.loc 1 468 0
 243 00fc 174B     		ldr	r3, .L22+4
 244 00fe 1B6F     		ldr	r3, [r3, #112]
 245 0100 13F0020F 		tst	r3, #2
 246 0104 F3D0     		beq	.L13
 247              	.L11:
 471:../Drivers/STM32F4xx_HAL_Driver/Src/stm32f4xx_hal_rcc_ex.c ****         {
 472:../Drivers/STM32F4xx_HAL_Driver/Src/stm32f4xx_hal_rcc_ex.c ****           return HAL_TIMEOUT;
 473:../Drivers/STM32F4xx_HAL_Driver/Src/stm32f4xx_hal_rcc_ex.c ****         }
 474:../Drivers/STM32F4xx_HAL_Driver/Src/stm32f4xx_hal_rcc_ex.c ****       }  
 475:../Drivers/STM32F4xx_HAL_Driver/Src/stm32f4xx_hal_rcc_ex.c ****     }
 476:../Drivers/STM32F4xx_HAL_Driver/Src/stm32f4xx_hal_rcc_ex.c ****     __HAL_RCC_RTC_CONFIG(PeriphClkInit->RTCClockSelection); 
 248              		.loc 1 476 0
 249 0106 E368     		ldr	r3, [r4, #12]
 250 0108 03F44072 		and	r2, r3, #768
 251 010c B2F5407F 		cmp	r2, #768
 252 0110 0AD1     		bne	.L14
 253              		.loc 1 476 0 is_stmt 0 discriminator 1
 254 0112 1249     		ldr	r1, .L22+4
 255 0114 8A68     		ldr	r2, [r1, #8]
 256 0116 22F4F812 		bic	r2, r2, #2031616
 257 011a 23F07043 		bic	r3, r3, #-268435456
 258 011e 23F44073 		bic	r3, r3, #768
 259 0122 1343     		orrs	r3, r3, r2
 260 0124 8B60     		str	r3, [r1, #8]
 261 0126 04E0     		b	.L15
 262              	.L14:
 263              		.loc 1 476 0 discriminator 2
 264 0128 0C4A     		ldr	r2, .L22+4
 265 012a 9368     		ldr	r3, [r2, #8]
 266 012c 23F4F813 		bic	r3, r3, #2031616
 267 0130 9360     		str	r3, [r2, #8]
 268              	.L15:
 269              		.loc 1 476 0 discriminator 4
 270 0132 0A4A     		ldr	r2, .L22+4
 271 0134 116F     		ldr	r1, [r2, #112]
 272 0136 E368     		ldr	r3, [r4, #12]
 273 0138 C3F30B03 		ubfx	r3, r3, #0, #12
 274 013c 0B43     		orrs	r3, r3, r1
 275 013e 1367     		str	r3, [r2, #112]
 477:../Drivers/STM32F4xx_HAL_Driver/Src/stm32f4xx_hal_rcc_ex.c ****   }
 478:../Drivers/STM32F4xx_HAL_Driver/Src/stm32f4xx_hal_rcc_ex.c ****   
 479:../Drivers/STM32F4xx_HAL_Driver/Src/stm32f4xx_hal_rcc_ex.c ****   return HAL_OK;
 276              		.loc 1 479 0 is_stmt 1 discriminator 4
ARM GAS  /tmp/ccSRu46N.s 			page 26


 277 0140 0020     		movs	r0, #0
 278 0142 38BD     		pop	{r3, r4, r5, pc}
 279              	.LVL25:
 280              	.L16:
 398:../Drivers/STM32F4xx_HAL_Driver/Src/stm32f4xx_hal_rcc_ex.c ****       } 
 281              		.loc 1 398 0
 282 0144 0320     		movs	r0, #3
 283 0146 38BD     		pop	{r3, r4, r5, pc}
 284              	.LVL26:
 285              	.L17:
 424:../Drivers/STM32F4xx_HAL_Driver/Src/stm32f4xx_hal_rcc_ex.c ****       }
 286              		.loc 1 424 0
 287 0148 0320     		movs	r0, #3
 288 014a 38BD     		pop	{r3, r4, r5, pc}
 289              	.LVL27:
 290              	.L18:
 291              		.loc 1 479 0
 292 014c 0020     		movs	r0, #0
 293 014e 38BD     		pop	{r3, r4, r5, pc}
 294              	.LVL28:
 295              	.L19:
 445:../Drivers/STM32F4xx_HAL_Driver/Src/stm32f4xx_hal_rcc_ex.c ****       }      
 296              		.loc 1 445 0
 297 0150 0320     		movs	r0, #3
 298 0152 38BD     		pop	{r3, r4, r5, pc}
 299              	.LVL29:
 300              	.L20:
 472:../Drivers/STM32F4xx_HAL_Driver/Src/stm32f4xx_hal_rcc_ex.c ****         }
 301              		.loc 1 472 0
 302 0154 0320     		movs	r0, #3
 480:../Drivers/STM32F4xx_HAL_Driver/Src/stm32f4xx_hal_rcc_ex.c **** }
 303              		.loc 1 480 0
 304 0156 38BD     		pop	{r3, r4, r5, pc}
 305              	.LVL30:
 306              	.L23:
 307              		.align	2
 308              	.L22:
 309 0158 68004742 		.word	1111949416
 310 015c 00380240 		.word	1073887232
 311 0160 00700040 		.word	1073770496
 312 0164 400E4742 		.word	1111952960
 313              		.cfi_endproc
 314              	.LFE112:
 316              		.section	.text.HAL_RCCEx_GetPeriphCLKConfig,"ax",%progbits
 317              		.align	2
 318              		.global	HAL_RCCEx_GetPeriphCLKConfig
 319              		.thumb
 320              		.thumb_func
 322              	HAL_RCCEx_GetPeriphCLKConfig:
 323              	.LFB113:
 481:../Drivers/STM32F4xx_HAL_Driver/Src/stm32f4xx_hal_rcc_ex.c **** 
 482:../Drivers/STM32F4xx_HAL_Driver/Src/stm32f4xx_hal_rcc_ex.c **** /**
 483:../Drivers/STM32F4xx_HAL_Driver/Src/stm32f4xx_hal_rcc_ex.c ****   * @brief  Configures the RCC_OscInitStruct according to the internal 
 484:../Drivers/STM32F4xx_HAL_Driver/Src/stm32f4xx_hal_rcc_ex.c ****   * RCC configuration registers.
 485:../Drivers/STM32F4xx_HAL_Driver/Src/stm32f4xx_hal_rcc_ex.c ****   * @param  PeriphClkInit: pointer to an RCC_PeriphCLKInitTypeDef structure that 
 486:../Drivers/STM32F4xx_HAL_Driver/Src/stm32f4xx_hal_rcc_ex.c ****   * will be configured.
 487:../Drivers/STM32F4xx_HAL_Driver/Src/stm32f4xx_hal_rcc_ex.c ****   * @retval None
ARM GAS  /tmp/ccSRu46N.s 			page 27


 488:../Drivers/STM32F4xx_HAL_Driver/Src/stm32f4xx_hal_rcc_ex.c ****   */
 489:../Drivers/STM32F4xx_HAL_Driver/Src/stm32f4xx_hal_rcc_ex.c **** void HAL_RCCEx_GetPeriphCLKConfig(RCC_PeriphCLKInitTypeDef  *PeriphClkInit)
 490:../Drivers/STM32F4xx_HAL_Driver/Src/stm32f4xx_hal_rcc_ex.c **** {
 324              		.loc 1 490 0
 325              		.cfi_startproc
 326              		@ args = 0, pretend = 0, frame = 0
 327              		@ frame_needed = 0, uses_anonymous_args = 0
 328              		@ link register save eliminated.
 329              	.LVL31:
 491:../Drivers/STM32F4xx_HAL_Driver/Src/stm32f4xx_hal_rcc_ex.c ****   uint32_t tempreg;
 492:../Drivers/STM32F4xx_HAL_Driver/Src/stm32f4xx_hal_rcc_ex.c ****   
 493:../Drivers/STM32F4xx_HAL_Driver/Src/stm32f4xx_hal_rcc_ex.c ****   /* Set all possible values for the extended clock type parameter------------*/
 494:../Drivers/STM32F4xx_HAL_Driver/Src/stm32f4xx_hal_rcc_ex.c ****   PeriphClkInit->PeriphClockSelection = RCC_PERIPHCLK_I2S | RCC_PERIPHCLK_RTC;
 330              		.loc 1 494 0
 331 0000 0323     		movs	r3, #3
 332 0002 0360     		str	r3, [r0]
 495:../Drivers/STM32F4xx_HAL_Driver/Src/stm32f4xx_hal_rcc_ex.c ****   
 496:../Drivers/STM32F4xx_HAL_Driver/Src/stm32f4xx_hal_rcc_ex.c ****   /* Get the PLLI2S Clock configuration -----------------------------------------------*/
 497:../Drivers/STM32F4xx_HAL_Driver/Src/stm32f4xx_hal_rcc_ex.c ****   PeriphClkInit->PLLI2S.PLLI2SN = (uint32_t)((RCC->PLLI2SCFGR & RCC_PLLI2SCFGR_PLLI2SN) >> POSITION
 333              		.loc 1 497 0
 334 0004 1249     		ldr	r1, .L25
 335 0006 D1F88420 		ldr	r2, [r1, #132]
 336 000a 47F6C073 		movw	r3, #32704
 337 000e 1A40     		ands	r2, r2, r3
 338              	.LVL32:
 339              	.LBB26:
 340              	.LBB27:
 491:../Drivers/CMSIS/Include/core_cmInstr.h ****    return(result);
 341              		.loc 2 491 0
 342              		.syntax unified
 343              	@ 491 "../Drivers/CMSIS/Include/core_cmInstr.h" 1
 344 0010 93FAA3F3 		rbit r3, r3
 345              	@ 0 "" 2
 346              	.LVL33:
 347              		.thumb
 348              		.syntax unified
 349              	.LBE27:
 350              	.LBE26:
 351              	.LBB28:
 352              	.LBB29:
 353              		.loc 2 666 0
 354              		.syntax unified
 355              	@ 666 "../Drivers/CMSIS/Include/core_cmInstr.h" 1
 356 0014 B3FA83F3 		clz r3, r3
 357              	@ 0 "" 2
 358              		.thumb
 359              		.syntax unified
 360              	.LBE29:
 361              	.LBE28:
 362              		.loc 1 497 0
 363 0018 DBB2     		uxtb	r3, r3
 364 001a 22FA03F3 		lsr	r3, r2, r3
 365 001e 4360     		str	r3, [r0, #4]
 498:../Drivers/STM32F4xx_HAL_Driver/Src/stm32f4xx_hal_rcc_ex.c ****   PeriphClkInit->PLLI2S.PLLI2SR = (uint32_t)((RCC->PLLI2SCFGR & RCC_PLLI2SCFGR_PLLI2SR) >> POSITION
 366              		.loc 1 498 0
 367 0020 D1F88430 		ldr	r3, [r1, #132]
 368 0024 03F0E042 		and	r2, r3, #1879048192
ARM GAS  /tmp/ccSRu46N.s 			page 28


 369              	.LVL34:
 370              	.LBB30:
 371              	.LBB31:
 491:../Drivers/CMSIS/Include/core_cmInstr.h ****    return(result);
 372              		.loc 2 491 0
 373 0028 4FF0E043 		mov	r3, #1879048192
 374              		.syntax unified
 375              	@ 491 "../Drivers/CMSIS/Include/core_cmInstr.h" 1
 376 002c 93FAA3F3 		rbit r3, r3
 377              	@ 0 "" 2
 378              	.LVL35:
 379              		.thumb
 380              		.syntax unified
 381              	.LBE31:
 382              	.LBE30:
 383              	.LBB32:
 384              	.LBB33:
 385              		.loc 2 666 0
 386              		.syntax unified
 387              	@ 666 "../Drivers/CMSIS/Include/core_cmInstr.h" 1
 388 0030 B3FA83F3 		clz r3, r3
 389              	@ 0 "" 2
 390              		.thumb
 391              		.syntax unified
 392              	.LBE33:
 393              	.LBE32:
 394              		.loc 1 498 0
 395 0034 DBB2     		uxtb	r3, r3
 396 0036 22FA03F3 		lsr	r3, r2, r3
 397 003a 8360     		str	r3, [r0, #8]
 499:../Drivers/STM32F4xx_HAL_Driver/Src/stm32f4xx_hal_rcc_ex.c **** #if defined(STM32F411xE)
 500:../Drivers/STM32F4xx_HAL_Driver/Src/stm32f4xx_hal_rcc_ex.c ****   PeriphClkInit->PLLI2S.PLLI2SM = (uint32_t)(RCC->PLLI2SCFGR & RCC_PLLI2SCFGR_PLLI2SM);
 501:../Drivers/STM32F4xx_HAL_Driver/Src/stm32f4xx_hal_rcc_ex.c **** #endif /* STM32F411xE */  
 502:../Drivers/STM32F4xx_HAL_Driver/Src/stm32f4xx_hal_rcc_ex.c ****   /* Get the RTC Clock configuration -----------------------------------------------*/
 503:../Drivers/STM32F4xx_HAL_Driver/Src/stm32f4xx_hal_rcc_ex.c ****   tempreg = (RCC->CFGR & RCC_CFGR_RTCPRE);
 398              		.loc 1 503 0
 399 003c 8B68     		ldr	r3, [r1, #8]
 400 003e 03F4F812 		and	r2, r3, #2031616
 401              	.LVL36:
 504:../Drivers/STM32F4xx_HAL_Driver/Src/stm32f4xx_hal_rcc_ex.c ****   PeriphClkInit->RTCClockSelection = (uint32_t)((tempreg) | (RCC->BDCR & RCC_BDCR_RTCSEL));
 402              		.loc 1 504 0
 403 0042 0B6F     		ldr	r3, [r1, #112]
 404 0044 03F44073 		and	r3, r3, #768
 405 0048 1343     		orrs	r3, r3, r2
 406 004a C360     		str	r3, [r0, #12]
 407 004c 7047     		bx	lr
 408              	.L26:
 409 004e 00BF     		.align	2
 410              	.L25:
 411 0050 00380240 		.word	1073887232
 412              		.cfi_endproc
 413              	.LFE113:
 415              		.text
 416              	.Letext0:
 417              		.file 3 "/usr/include/newlib/machine/_default_types.h"
 418              		.file 4 "/usr/include/newlib/sys/_stdint.h"
 419              		.file 5 "../Drivers/CMSIS/Device/ST/STM32F4xx/Include/stm32f401xe.h"
ARM GAS  /tmp/ccSRu46N.s 			page 29


 420              		.file 6 "../Drivers/CMSIS/Device/ST/STM32F4xx/Include/stm32f4xx.h"
 421              		.file 7 "../Drivers/STM32F4xx_HAL_Driver/Inc/stm32f4xx_hal_def.h"
 422              		.file 8 "../Drivers/STM32F4xx_HAL_Driver/Inc/stm32f4xx_hal_rcc_ex.h"
 423              		.file 9 "../Drivers/CMSIS/Include/core_cm4.h"
 424              		.file 10 "../Drivers/STM32F4xx_HAL_Driver/Inc/stm32f4xx_hal.h"
ARM GAS  /tmp/ccSRu46N.s 			page 30

