ARM GAS  /tmp/ccIvKYQX.s 			page 1


   1              		.syntax unified
   2              		.cpu cortex-m4
   3              		.eabi_attribute 27, 1
   4              		.eabi_attribute 28, 1
   5              		.fpu fpv4-sp-d16
   6              		.eabi_attribute 20, 1
   7              		.eabi_attribute 21, 1
   8              		.eabi_attribute 23, 3
   9              		.eabi_attribute 24, 1
  10              		.eabi_attribute 25, 1
  11              		.eabi_attribute 26, 1
  12              		.eabi_attribute 30, 1
  13              		.eabi_attribute 34, 1
  14              		.eabi_attribute 18, 4
  15              		.thumb
  16              		.syntax unified
  17              		.file	"stm32f4xx_hal_dma.c"
  18              		.text
  19              	.Ltext0:
  20              		.cfi_sections	.debug_frame
  21              		.section	.text.DMA_SetConfig,"ax",%progbits
  22              		.align	2
  23              		.thumb
  24              		.thumb_func
  26              	DMA_SetConfig:
  27              	.LFB121:
  28              		.file 1 "../Drivers/STM32F4xx_HAL_Driver/Src/stm32f4xx_hal_dma.c"
   1:../Drivers/STM32F4xx_HAL_Driver/Src/stm32f4xx_hal_dma.c **** /**
   2:../Drivers/STM32F4xx_HAL_Driver/Src/stm32f4xx_hal_dma.c ****   ******************************************************************************
   3:../Drivers/STM32F4xx_HAL_Driver/Src/stm32f4xx_hal_dma.c ****   * @file    stm32f4xx_hal_dma.c
   4:../Drivers/STM32F4xx_HAL_Driver/Src/stm32f4xx_hal_dma.c ****   * @author  MCD Application Team
   5:../Drivers/STM32F4xx_HAL_Driver/Src/stm32f4xx_hal_dma.c ****   * @version V1.1.0
   6:../Drivers/STM32F4xx_HAL_Driver/Src/stm32f4xx_hal_dma.c ****   * @date    19-June-2014
   7:../Drivers/STM32F4xx_HAL_Driver/Src/stm32f4xx_hal_dma.c ****   * @brief   DMA HAL module driver.
   8:../Drivers/STM32F4xx_HAL_Driver/Src/stm32f4xx_hal_dma.c ****   *    
   9:../Drivers/STM32F4xx_HAL_Driver/Src/stm32f4xx_hal_dma.c ****   *          This file provides firmware functions to manage the following 
  10:../Drivers/STM32F4xx_HAL_Driver/Src/stm32f4xx_hal_dma.c ****   *          functionalities of the Direct Memory Access (DMA) peripheral:
  11:../Drivers/STM32F4xx_HAL_Driver/Src/stm32f4xx_hal_dma.c ****   *           + Initialization and de-initialization functions
  12:../Drivers/STM32F4xx_HAL_Driver/Src/stm32f4xx_hal_dma.c ****   *           + IO operation functions
  13:../Drivers/STM32F4xx_HAL_Driver/Src/stm32f4xx_hal_dma.c ****   *           + Peripheral State and errors functions
  14:../Drivers/STM32F4xx_HAL_Driver/Src/stm32f4xx_hal_dma.c ****   @verbatim     
  15:../Drivers/STM32F4xx_HAL_Driver/Src/stm32f4xx_hal_dma.c ****   ==============================================================================      
  16:../Drivers/STM32F4xx_HAL_Driver/Src/stm32f4xx_hal_dma.c ****                         ##### How to use this driver #####
  17:../Drivers/STM32F4xx_HAL_Driver/Src/stm32f4xx_hal_dma.c ****   ============================================================================== 
  18:../Drivers/STM32F4xx_HAL_Driver/Src/stm32f4xx_hal_dma.c ****   [..]
  19:../Drivers/STM32F4xx_HAL_Driver/Src/stm32f4xx_hal_dma.c ****    (#) Enable and configure the peripheral to be connected to the DMA Stream
  20:../Drivers/STM32F4xx_HAL_Driver/Src/stm32f4xx_hal_dma.c ****        (except for internal SRAM/FLASH memories: no initialization is 
  21:../Drivers/STM32F4xx_HAL_Driver/Src/stm32f4xx_hal_dma.c ****        necessary) please refer to Reference manual for connection between peripherals
  22:../Drivers/STM32F4xx_HAL_Driver/Src/stm32f4xx_hal_dma.c ****        and DMA requests . 
  23:../Drivers/STM32F4xx_HAL_Driver/Src/stm32f4xx_hal_dma.c ****           
  24:../Drivers/STM32F4xx_HAL_Driver/Src/stm32f4xx_hal_dma.c ****    (#) For a given Stream, program the required configuration through the following parameters:   
  25:../Drivers/STM32F4xx_HAL_Driver/Src/stm32f4xx_hal_dma.c ****        Transfer Direction, Source and Destination data formats, 
  26:../Drivers/STM32F4xx_HAL_Driver/Src/stm32f4xx_hal_dma.c ****        Circular, Normal or peripheral flow control mode, Stream Priority level, 
  27:../Drivers/STM32F4xx_HAL_Driver/Src/stm32f4xx_hal_dma.c ****        Source and Destination Increment mode, FIFO mode and its Threshold (if needed), 
  28:../Drivers/STM32F4xx_HAL_Driver/Src/stm32f4xx_hal_dma.c ****        Burst mode for Source and/or Destination (if needed) using HAL_DMA_Init() function.
  29:../Drivers/STM32F4xx_HAL_Driver/Src/stm32f4xx_hal_dma.c ****                      
  30:../Drivers/STM32F4xx_HAL_Driver/Src/stm32f4xx_hal_dma.c ****      *** Polling mode IO operation ***
ARM GAS  /tmp/ccIvKYQX.s 			page 2


  31:../Drivers/STM32F4xx_HAL_Driver/Src/stm32f4xx_hal_dma.c ****      =================================   
  32:../Drivers/STM32F4xx_HAL_Driver/Src/stm32f4xx_hal_dma.c ****     [..] 
  33:../Drivers/STM32F4xx_HAL_Driver/Src/stm32f4xx_hal_dma.c ****           (+) Use HAL_DMA_Start() to start DMA transfer after the configuration of Source 
  34:../Drivers/STM32F4xx_HAL_Driver/Src/stm32f4xx_hal_dma.c ****               address and destination address and the Length of data to be transferred
  35:../Drivers/STM32F4xx_HAL_Driver/Src/stm32f4xx_hal_dma.c ****           (+) Use HAL_DMA_PollForTransfer() to poll for the end of current transfer, in this  
  36:../Drivers/STM32F4xx_HAL_Driver/Src/stm32f4xx_hal_dma.c ****               case a fixed Timeout can be configured by User depending from his application.
  37:../Drivers/STM32F4xx_HAL_Driver/Src/stm32f4xx_hal_dma.c ****                
  38:../Drivers/STM32F4xx_HAL_Driver/Src/stm32f4xx_hal_dma.c ****      *** Interrupt mode IO operation ***    
  39:../Drivers/STM32F4xx_HAL_Driver/Src/stm32f4xx_hal_dma.c ****      =================================== 
  40:../Drivers/STM32F4xx_HAL_Driver/Src/stm32f4xx_hal_dma.c ****     [..]     
  41:../Drivers/STM32F4xx_HAL_Driver/Src/stm32f4xx_hal_dma.c ****           (+) Configure the DMA interrupt priority using HAL_NVIC_SetPriority()
  42:../Drivers/STM32F4xx_HAL_Driver/Src/stm32f4xx_hal_dma.c ****           (+) Enable the DMA IRQ handler using HAL_NVIC_EnableIRQ() 
  43:../Drivers/STM32F4xx_HAL_Driver/Src/stm32f4xx_hal_dma.c ****           (+) Use HAL_DMA_Start_IT() to start DMA transfer after the configuration of  
  44:../Drivers/STM32F4xx_HAL_Driver/Src/stm32f4xx_hal_dma.c ****               Source address and destination address and the Length of data to be transferred. In t
  45:../Drivers/STM32F4xx_HAL_Driver/Src/stm32f4xx_hal_dma.c ****               case the DMA interrupt is configured 
  46:../Drivers/STM32F4xx_HAL_Driver/Src/stm32f4xx_hal_dma.c ****           (+) Use HAL_DMA_IRQHandler() called under DMA_IRQHandler() Interrupt subroutine
  47:../Drivers/STM32F4xx_HAL_Driver/Src/stm32f4xx_hal_dma.c ****           (+) At the end of data transfer HAL_DMA_IRQHandler() function is executed and user can 
  48:../Drivers/STM32F4xx_HAL_Driver/Src/stm32f4xx_hal_dma.c ****               add his own function by customization of function pointer XferCpltCallback and 
  49:../Drivers/STM32F4xx_HAL_Driver/Src/stm32f4xx_hal_dma.c ****               XferErrorCallback (i.e a member of DMA handle structure). 
  50:../Drivers/STM32F4xx_HAL_Driver/Src/stm32f4xx_hal_dma.c ****     [..]                
  51:../Drivers/STM32F4xx_HAL_Driver/Src/stm32f4xx_hal_dma.c ****      (#) Use HAL_DMA_GetState() function to return the DMA state and HAL_DMA_GetError() in case of 
  52:../Drivers/STM32F4xx_HAL_Driver/Src/stm32f4xx_hal_dma.c ****          detection.
  53:../Drivers/STM32F4xx_HAL_Driver/Src/stm32f4xx_hal_dma.c ****          
  54:../Drivers/STM32F4xx_HAL_Driver/Src/stm32f4xx_hal_dma.c ****      (#) Use HAL_DMA_Abort() function to abort the current transfer
  55:../Drivers/STM32F4xx_HAL_Driver/Src/stm32f4xx_hal_dma.c ****      
  56:../Drivers/STM32F4xx_HAL_Driver/Src/stm32f4xx_hal_dma.c ****      -@-   In Memory-to-Memory transfer mode, Circular mode is not allowed.
  57:../Drivers/STM32F4xx_HAL_Driver/Src/stm32f4xx_hal_dma.c ****     
  58:../Drivers/STM32F4xx_HAL_Driver/Src/stm32f4xx_hal_dma.c ****      -@-   The FIFO is used mainly to reduce bus usage and to allow data packing/unpacking: it is
  59:../Drivers/STM32F4xx_HAL_Driver/Src/stm32f4xx_hal_dma.c ****            possible to set different Data Sizes for the Peripheral and the Memory (ie. you can set
  60:../Drivers/STM32F4xx_HAL_Driver/Src/stm32f4xx_hal_dma.c ****            Half-Word data size for the peripheral to access its data register and set Word data siz
  61:../Drivers/STM32F4xx_HAL_Driver/Src/stm32f4xx_hal_dma.c ****            for the Memory to gain in access time. Each two half words will be packed and written in
  62:../Drivers/STM32F4xx_HAL_Driver/Src/stm32f4xx_hal_dma.c ****            a single access to a Word in the Memory).
  63:../Drivers/STM32F4xx_HAL_Driver/Src/stm32f4xx_hal_dma.c ****       
  64:../Drivers/STM32F4xx_HAL_Driver/Src/stm32f4xx_hal_dma.c ****      -@-   When FIFO is disabled, it is not allowed to configure different Data Sizes for Source
  65:../Drivers/STM32F4xx_HAL_Driver/Src/stm32f4xx_hal_dma.c ****            and Destination. In this case the Peripheral Data Size will be applied to both Source
  66:../Drivers/STM32F4xx_HAL_Driver/Src/stm32f4xx_hal_dma.c ****            and Destination.               
  67:../Drivers/STM32F4xx_HAL_Driver/Src/stm32f4xx_hal_dma.c ****   
  68:../Drivers/STM32F4xx_HAL_Driver/Src/stm32f4xx_hal_dma.c ****      *** DMA HAL driver macros list ***
  69:../Drivers/STM32F4xx_HAL_Driver/Src/stm32f4xx_hal_dma.c ****      ============================================= 
  70:../Drivers/STM32F4xx_HAL_Driver/Src/stm32f4xx_hal_dma.c ****      [..]
  71:../Drivers/STM32F4xx_HAL_Driver/Src/stm32f4xx_hal_dma.c ****        Below the list of most used macros in DMA HAL driver.
  72:../Drivers/STM32F4xx_HAL_Driver/Src/stm32f4xx_hal_dma.c ****        
  73:../Drivers/STM32F4xx_HAL_Driver/Src/stm32f4xx_hal_dma.c ****       (+) __HAL_DMA_ENABLE: Enable the specified DMA Stream.
  74:../Drivers/STM32F4xx_HAL_Driver/Src/stm32f4xx_hal_dma.c ****       (+) __HAL_DMA_DISABLE: Disable the specified DMA Stream.
  75:../Drivers/STM32F4xx_HAL_Driver/Src/stm32f4xx_hal_dma.c ****       (+) __HAL_DMA_GET_FS: Return the current DMA Stream FIFO filled level.
  76:../Drivers/STM32F4xx_HAL_Driver/Src/stm32f4xx_hal_dma.c ****       (+) __HAL_DMA_GET_FLAG: Get the DMA Stream pending flags.
  77:../Drivers/STM32F4xx_HAL_Driver/Src/stm32f4xx_hal_dma.c ****       (+) __HAL_DMA_CLEAR_FLAG: Clear the DMA Stream pending flags.
  78:../Drivers/STM32F4xx_HAL_Driver/Src/stm32f4xx_hal_dma.c ****       (+) __HAL_DMA_ENABLE_IT: Enable the specified DMA Stream interrupts.
  79:../Drivers/STM32F4xx_HAL_Driver/Src/stm32f4xx_hal_dma.c ****       (+) __HAL_DMA_DISABLE_IT: Disable the specified DMA Stream interrupts.
  80:../Drivers/STM32F4xx_HAL_Driver/Src/stm32f4xx_hal_dma.c ****       (+) __HAL_DMA_GET_IT_SOURCE: Check whether the specified DMA Stream interrupt has occurred or
  81:../Drivers/STM32F4xx_HAL_Driver/Src/stm32f4xx_hal_dma.c ****      
  82:../Drivers/STM32F4xx_HAL_Driver/Src/stm32f4xx_hal_dma.c ****      [..] 
  83:../Drivers/STM32F4xx_HAL_Driver/Src/stm32f4xx_hal_dma.c ****       (@) You can refer to the DMA HAL driver header file for more useful macros  
  84:../Drivers/STM32F4xx_HAL_Driver/Src/stm32f4xx_hal_dma.c ****   
  85:../Drivers/STM32F4xx_HAL_Driver/Src/stm32f4xx_hal_dma.c ****   @endverbatim
  86:../Drivers/STM32F4xx_HAL_Driver/Src/stm32f4xx_hal_dma.c ****   ******************************************************************************
  87:../Drivers/STM32F4xx_HAL_Driver/Src/stm32f4xx_hal_dma.c ****   * @attention
ARM GAS  /tmp/ccIvKYQX.s 			page 3


  88:../Drivers/STM32F4xx_HAL_Driver/Src/stm32f4xx_hal_dma.c ****   *
  89:../Drivers/STM32F4xx_HAL_Driver/Src/stm32f4xx_hal_dma.c ****   * <h2><center>&copy; COPYRIGHT(c) 2014 STMicroelectronics</center></h2>
  90:../Drivers/STM32F4xx_HAL_Driver/Src/stm32f4xx_hal_dma.c ****   *
  91:../Drivers/STM32F4xx_HAL_Driver/Src/stm32f4xx_hal_dma.c ****   * Redistribution and use in source and binary forms, with or without modification,
  92:../Drivers/STM32F4xx_HAL_Driver/Src/stm32f4xx_hal_dma.c ****   * are permitted provided that the following conditions are met:
  93:../Drivers/STM32F4xx_HAL_Driver/Src/stm32f4xx_hal_dma.c ****   *   1. Redistributions of source code must retain the above copyright notice,
  94:../Drivers/STM32F4xx_HAL_Driver/Src/stm32f4xx_hal_dma.c ****   *      this list of conditions and the following disclaimer.
  95:../Drivers/STM32F4xx_HAL_Driver/Src/stm32f4xx_hal_dma.c ****   *   2. Redistributions in binary form must reproduce the above copyright notice,
  96:../Drivers/STM32F4xx_HAL_Driver/Src/stm32f4xx_hal_dma.c ****   *      this list of conditions and the following disclaimer in the documentation
  97:../Drivers/STM32F4xx_HAL_Driver/Src/stm32f4xx_hal_dma.c ****   *      and/or other materials provided with the distribution.
  98:../Drivers/STM32F4xx_HAL_Driver/Src/stm32f4xx_hal_dma.c ****   *   3. Neither the name of STMicroelectronics nor the names of its contributors
  99:../Drivers/STM32F4xx_HAL_Driver/Src/stm32f4xx_hal_dma.c ****   *      may be used to endorse or promote products derived from this software
 100:../Drivers/STM32F4xx_HAL_Driver/Src/stm32f4xx_hal_dma.c ****   *      without specific prior written permission.
 101:../Drivers/STM32F4xx_HAL_Driver/Src/stm32f4xx_hal_dma.c ****   *
 102:../Drivers/STM32F4xx_HAL_Driver/Src/stm32f4xx_hal_dma.c ****   * THIS SOFTWARE IS PROVIDED BY THE COPYRIGHT HOLDERS AND CONTRIBUTORS "AS IS"
 103:../Drivers/STM32F4xx_HAL_Driver/Src/stm32f4xx_hal_dma.c ****   * AND ANY EXPRESS OR IMPLIED WARRANTIES, INCLUDING, BUT NOT LIMITED TO, THE
 104:../Drivers/STM32F4xx_HAL_Driver/Src/stm32f4xx_hal_dma.c ****   * IMPLIED WARRANTIES OF MERCHANTABILITY AND FITNESS FOR A PARTICULAR PURPOSE ARE
 105:../Drivers/STM32F4xx_HAL_Driver/Src/stm32f4xx_hal_dma.c ****   * DISCLAIMED. IN NO EVENT SHALL THE COPYRIGHT HOLDER OR CONTRIBUTORS BE LIABLE
 106:../Drivers/STM32F4xx_HAL_Driver/Src/stm32f4xx_hal_dma.c ****   * FOR ANY DIRECT, INDIRECT, INCIDENTAL, SPECIAL, EXEMPLARY, OR CONSEQUENTIAL
 107:../Drivers/STM32F4xx_HAL_Driver/Src/stm32f4xx_hal_dma.c ****   * DAMAGES (INCLUDING, BUT NOT LIMITED TO, PROCUREMENT OF SUBSTITUTE GOODS OR
 108:../Drivers/STM32F4xx_HAL_Driver/Src/stm32f4xx_hal_dma.c ****   * SERVICES; LOSS OF USE, DATA, OR PROFITS; OR BUSINESS INTERRUPTION) HOWEVER
 109:../Drivers/STM32F4xx_HAL_Driver/Src/stm32f4xx_hal_dma.c ****   * CAUSED AND ON ANY THEORY OF LIABILITY, WHETHER IN CONTRACT, STRICT LIABILITY,
 110:../Drivers/STM32F4xx_HAL_Driver/Src/stm32f4xx_hal_dma.c ****   * OR TORT (INCLUDING NEGLIGENCE OR OTHERWISE) ARISING IN ANY WAY OUT OF THE USE
 111:../Drivers/STM32F4xx_HAL_Driver/Src/stm32f4xx_hal_dma.c ****   * OF THIS SOFTWARE, EVEN IF ADVISED OF THE POSSIBILITY OF SUCH DAMAGE.
 112:../Drivers/STM32F4xx_HAL_Driver/Src/stm32f4xx_hal_dma.c ****   *
 113:../Drivers/STM32F4xx_HAL_Driver/Src/stm32f4xx_hal_dma.c ****   ******************************************************************************
 114:../Drivers/STM32F4xx_HAL_Driver/Src/stm32f4xx_hal_dma.c ****   */ 
 115:../Drivers/STM32F4xx_HAL_Driver/Src/stm32f4xx_hal_dma.c **** 
 116:../Drivers/STM32F4xx_HAL_Driver/Src/stm32f4xx_hal_dma.c **** /* Includes ------------------------------------------------------------------*/
 117:../Drivers/STM32F4xx_HAL_Driver/Src/stm32f4xx_hal_dma.c **** #include "stm32f4xx_hal.h"
 118:../Drivers/STM32F4xx_HAL_Driver/Src/stm32f4xx_hal_dma.c **** 
 119:../Drivers/STM32F4xx_HAL_Driver/Src/stm32f4xx_hal_dma.c **** /** @addtogroup STM32F4xx_HAL_Driver
 120:../Drivers/STM32F4xx_HAL_Driver/Src/stm32f4xx_hal_dma.c ****   * @{
 121:../Drivers/STM32F4xx_HAL_Driver/Src/stm32f4xx_hal_dma.c ****   */
 122:../Drivers/STM32F4xx_HAL_Driver/Src/stm32f4xx_hal_dma.c **** 
 123:../Drivers/STM32F4xx_HAL_Driver/Src/stm32f4xx_hal_dma.c **** /** @defgroup DMA 
 124:../Drivers/STM32F4xx_HAL_Driver/Src/stm32f4xx_hal_dma.c ****   * @brief DMA HAL module driver
 125:../Drivers/STM32F4xx_HAL_Driver/Src/stm32f4xx_hal_dma.c ****   * @{
 126:../Drivers/STM32F4xx_HAL_Driver/Src/stm32f4xx_hal_dma.c ****   */
 127:../Drivers/STM32F4xx_HAL_Driver/Src/stm32f4xx_hal_dma.c **** 
 128:../Drivers/STM32F4xx_HAL_Driver/Src/stm32f4xx_hal_dma.c **** #ifdef HAL_DMA_MODULE_ENABLED
 129:../Drivers/STM32F4xx_HAL_Driver/Src/stm32f4xx_hal_dma.c **** 
 130:../Drivers/STM32F4xx_HAL_Driver/Src/stm32f4xx_hal_dma.c **** /* Private typedef -----------------------------------------------------------*/
 131:../Drivers/STM32F4xx_HAL_Driver/Src/stm32f4xx_hal_dma.c **** /* Private define ------------------------------------------------------------*/
 132:../Drivers/STM32F4xx_HAL_Driver/Src/stm32f4xx_hal_dma.c **** #define HAL_TIMEOUT_DMA_ABORT    ((uint32_t)1000)  /* 1s  */
 133:../Drivers/STM32F4xx_HAL_Driver/Src/stm32f4xx_hal_dma.c **** /* Private macro -------------------------------------------------------------*/
 134:../Drivers/STM32F4xx_HAL_Driver/Src/stm32f4xx_hal_dma.c **** /* Private variables ---------------------------------------------------------*/
 135:../Drivers/STM32F4xx_HAL_Driver/Src/stm32f4xx_hal_dma.c **** /* Private function prototypes -----------------------------------------------*/
 136:../Drivers/STM32F4xx_HAL_Driver/Src/stm32f4xx_hal_dma.c **** static void DMA_SetConfig(DMA_HandleTypeDef *hdma, uint32_t SrcAddress, uint32_t DstAddress, uint32
 137:../Drivers/STM32F4xx_HAL_Driver/Src/stm32f4xx_hal_dma.c **** 
 138:../Drivers/STM32F4xx_HAL_Driver/Src/stm32f4xx_hal_dma.c **** /* Private functions ---------------------------------------------------------*/
 139:../Drivers/STM32F4xx_HAL_Driver/Src/stm32f4xx_hal_dma.c **** 
 140:../Drivers/STM32F4xx_HAL_Driver/Src/stm32f4xx_hal_dma.c **** /** @defgroup DMA_Private_Functions
 141:../Drivers/STM32F4xx_HAL_Driver/Src/stm32f4xx_hal_dma.c ****   * @{
 142:../Drivers/STM32F4xx_HAL_Driver/Src/stm32f4xx_hal_dma.c ****   */
 143:../Drivers/STM32F4xx_HAL_Driver/Src/stm32f4xx_hal_dma.c **** 
 144:../Drivers/STM32F4xx_HAL_Driver/Src/stm32f4xx_hal_dma.c **** /** @defgroup DMA_Group1 Initialization and de-initialization functions 
ARM GAS  /tmp/ccIvKYQX.s 			page 4


 145:../Drivers/STM32F4xx_HAL_Driver/Src/stm32f4xx_hal_dma.c ****  *  @brief   Initialization and de-initialization functions 
 146:../Drivers/STM32F4xx_HAL_Driver/Src/stm32f4xx_hal_dma.c ****  *
 147:../Drivers/STM32F4xx_HAL_Driver/Src/stm32f4xx_hal_dma.c **** @verbatim   
 148:../Drivers/STM32F4xx_HAL_Driver/Src/stm32f4xx_hal_dma.c ****  ===============================================================================
 149:../Drivers/STM32F4xx_HAL_Driver/Src/stm32f4xx_hal_dma.c ****              ##### Initialization and de-initialization functions  #####
 150:../Drivers/STM32F4xx_HAL_Driver/Src/stm32f4xx_hal_dma.c ****  ===============================================================================  
 151:../Drivers/STM32F4xx_HAL_Driver/Src/stm32f4xx_hal_dma.c ****     [..]
 152:../Drivers/STM32F4xx_HAL_Driver/Src/stm32f4xx_hal_dma.c ****     This section provides functions allowing to initialize the DMA Stream source
 153:../Drivers/STM32F4xx_HAL_Driver/Src/stm32f4xx_hal_dma.c ****     and destination addresses, incrementation and data sizes, transfer direction, 
 154:../Drivers/STM32F4xx_HAL_Driver/Src/stm32f4xx_hal_dma.c ****     circular/normal mode selection, memory-to-memory mode selection and Stream priority value.
 155:../Drivers/STM32F4xx_HAL_Driver/Src/stm32f4xx_hal_dma.c ****     [..]
 156:../Drivers/STM32F4xx_HAL_Driver/Src/stm32f4xx_hal_dma.c ****     The HAL_DMA_Init() function follows the DMA configuration procedures as described in
 157:../Drivers/STM32F4xx_HAL_Driver/Src/stm32f4xx_hal_dma.c ****     reference manual.  
 158:../Drivers/STM32F4xx_HAL_Driver/Src/stm32f4xx_hal_dma.c **** 
 159:../Drivers/STM32F4xx_HAL_Driver/Src/stm32f4xx_hal_dma.c **** @endverbatim
 160:../Drivers/STM32F4xx_HAL_Driver/Src/stm32f4xx_hal_dma.c ****   * @{
 161:../Drivers/STM32F4xx_HAL_Driver/Src/stm32f4xx_hal_dma.c ****   */
 162:../Drivers/STM32F4xx_HAL_Driver/Src/stm32f4xx_hal_dma.c ****   
 163:../Drivers/STM32F4xx_HAL_Driver/Src/stm32f4xx_hal_dma.c **** /**
 164:../Drivers/STM32F4xx_HAL_Driver/Src/stm32f4xx_hal_dma.c ****   * @brief  Initializes the DMA according to the specified
 165:../Drivers/STM32F4xx_HAL_Driver/Src/stm32f4xx_hal_dma.c ****   *         parameters in the DMA_InitTypeDef and create the associated handle.
 166:../Drivers/STM32F4xx_HAL_Driver/Src/stm32f4xx_hal_dma.c ****   * @param  hdma: Pointer to a DMA_HandleTypeDef structure that contains
 167:../Drivers/STM32F4xx_HAL_Driver/Src/stm32f4xx_hal_dma.c ****   *               the configuration information for the specified DMA Stream.  
 168:../Drivers/STM32F4xx_HAL_Driver/Src/stm32f4xx_hal_dma.c ****   * @retval HAL status
 169:../Drivers/STM32F4xx_HAL_Driver/Src/stm32f4xx_hal_dma.c ****   */
 170:../Drivers/STM32F4xx_HAL_Driver/Src/stm32f4xx_hal_dma.c **** HAL_StatusTypeDef HAL_DMA_Init(DMA_HandleTypeDef *hdma)
 171:../Drivers/STM32F4xx_HAL_Driver/Src/stm32f4xx_hal_dma.c **** { 
 172:../Drivers/STM32F4xx_HAL_Driver/Src/stm32f4xx_hal_dma.c ****   uint32_t tmp = 0;
 173:../Drivers/STM32F4xx_HAL_Driver/Src/stm32f4xx_hal_dma.c ****   
 174:../Drivers/STM32F4xx_HAL_Driver/Src/stm32f4xx_hal_dma.c ****   /* Check the DMA peripheral state */
 175:../Drivers/STM32F4xx_HAL_Driver/Src/stm32f4xx_hal_dma.c ****   if(hdma == NULL)
 176:../Drivers/STM32F4xx_HAL_Driver/Src/stm32f4xx_hal_dma.c ****   {
 177:../Drivers/STM32F4xx_HAL_Driver/Src/stm32f4xx_hal_dma.c ****     return HAL_ERROR;
 178:../Drivers/STM32F4xx_HAL_Driver/Src/stm32f4xx_hal_dma.c ****   }
 179:../Drivers/STM32F4xx_HAL_Driver/Src/stm32f4xx_hal_dma.c **** 
 180:../Drivers/STM32F4xx_HAL_Driver/Src/stm32f4xx_hal_dma.c ****   /* Check the parameters */
 181:../Drivers/STM32F4xx_HAL_Driver/Src/stm32f4xx_hal_dma.c ****   assert_param(IS_DMA_STREAM_ALL_INSTANCE(hdma->Instance));
 182:../Drivers/STM32F4xx_HAL_Driver/Src/stm32f4xx_hal_dma.c ****   assert_param(IS_DMA_CHANNEL(hdma->Init.Channel));
 183:../Drivers/STM32F4xx_HAL_Driver/Src/stm32f4xx_hal_dma.c ****   assert_param(IS_DMA_DIRECTION(hdma->Init.Direction));
 184:../Drivers/STM32F4xx_HAL_Driver/Src/stm32f4xx_hal_dma.c ****   assert_param(IS_DMA_PERIPHERAL_INC_STATE(hdma->Init.PeriphInc));
 185:../Drivers/STM32F4xx_HAL_Driver/Src/stm32f4xx_hal_dma.c ****   assert_param(IS_DMA_MEMORY_INC_STATE(hdma->Init.MemInc));
 186:../Drivers/STM32F4xx_HAL_Driver/Src/stm32f4xx_hal_dma.c ****   assert_param(IS_DMA_PERIPHERAL_DATA_SIZE(hdma->Init.PeriphDataAlignment));
 187:../Drivers/STM32F4xx_HAL_Driver/Src/stm32f4xx_hal_dma.c ****   assert_param(IS_DMA_MEMORY_DATA_SIZE(hdma->Init.MemDataAlignment));
 188:../Drivers/STM32F4xx_HAL_Driver/Src/stm32f4xx_hal_dma.c ****   assert_param(IS_DMA_MODE(hdma->Init.Mode));
 189:../Drivers/STM32F4xx_HAL_Driver/Src/stm32f4xx_hal_dma.c ****   assert_param(IS_DMA_PRIORITY(hdma->Init.Priority));
 190:../Drivers/STM32F4xx_HAL_Driver/Src/stm32f4xx_hal_dma.c ****   assert_param(IS_DMA_FIFO_MODE_STATE(hdma->Init.FIFOMode));
 191:../Drivers/STM32F4xx_HAL_Driver/Src/stm32f4xx_hal_dma.c ****   /* Check the memory burst, peripheral burst and FIFO threshold parameters only
 192:../Drivers/STM32F4xx_HAL_Driver/Src/stm32f4xx_hal_dma.c ****      when FIFO mode is enabled */
 193:../Drivers/STM32F4xx_HAL_Driver/Src/stm32f4xx_hal_dma.c ****   if(hdma->Init.FIFOMode != DMA_FIFOMODE_DISABLE)
 194:../Drivers/STM32F4xx_HAL_Driver/Src/stm32f4xx_hal_dma.c ****   {
 195:../Drivers/STM32F4xx_HAL_Driver/Src/stm32f4xx_hal_dma.c ****     assert_param(IS_DMA_FIFO_THRESHOLD(hdma->Init.FIFOThreshold));
 196:../Drivers/STM32F4xx_HAL_Driver/Src/stm32f4xx_hal_dma.c ****     assert_param(IS_DMA_MEMORY_BURST(hdma->Init.MemBurst));
 197:../Drivers/STM32F4xx_HAL_Driver/Src/stm32f4xx_hal_dma.c ****     assert_param(IS_DMA_PERIPHERAL_BURST(hdma->Init.PeriphBurst));
 198:../Drivers/STM32F4xx_HAL_Driver/Src/stm32f4xx_hal_dma.c ****   }
 199:../Drivers/STM32F4xx_HAL_Driver/Src/stm32f4xx_hal_dma.c **** 
 200:../Drivers/STM32F4xx_HAL_Driver/Src/stm32f4xx_hal_dma.c ****   /* Change DMA peripheral state */
 201:../Drivers/STM32F4xx_HAL_Driver/Src/stm32f4xx_hal_dma.c ****   hdma->State = HAL_DMA_STATE_BUSY;
ARM GAS  /tmp/ccIvKYQX.s 			page 5


 202:../Drivers/STM32F4xx_HAL_Driver/Src/stm32f4xx_hal_dma.c **** 
 203:../Drivers/STM32F4xx_HAL_Driver/Src/stm32f4xx_hal_dma.c ****   /* Get the CR register value */
 204:../Drivers/STM32F4xx_HAL_Driver/Src/stm32f4xx_hal_dma.c ****   tmp = hdma->Instance->CR;
 205:../Drivers/STM32F4xx_HAL_Driver/Src/stm32f4xx_hal_dma.c **** 
 206:../Drivers/STM32F4xx_HAL_Driver/Src/stm32f4xx_hal_dma.c ****   /* Clear CHSEL, MBURST, PBURST, PL, MSIZE, PSIZE, MINC, PINC, CIRC, DIR and CT bits */
 207:../Drivers/STM32F4xx_HAL_Driver/Src/stm32f4xx_hal_dma.c ****   tmp &= ((uint32_t)~(DMA_SxCR_CHSEL | DMA_SxCR_MBURST | DMA_SxCR_PBURST | \
 208:../Drivers/STM32F4xx_HAL_Driver/Src/stm32f4xx_hal_dma.c ****                       DMA_SxCR_PL    | DMA_SxCR_MSIZE  | DMA_SxCR_PSIZE  | \
 209:../Drivers/STM32F4xx_HAL_Driver/Src/stm32f4xx_hal_dma.c ****                       DMA_SxCR_MINC  | DMA_SxCR_PINC   | DMA_SxCR_CIRC   | \
 210:../Drivers/STM32F4xx_HAL_Driver/Src/stm32f4xx_hal_dma.c ****                       DMA_SxCR_DIR   | DMA_SxCR_CT  ));
 211:../Drivers/STM32F4xx_HAL_Driver/Src/stm32f4xx_hal_dma.c **** 
 212:../Drivers/STM32F4xx_HAL_Driver/Src/stm32f4xx_hal_dma.c ****   /* Prepare the DMA Stream configuration */
 213:../Drivers/STM32F4xx_HAL_Driver/Src/stm32f4xx_hal_dma.c ****   tmp |=  hdma->Init.Channel             | hdma->Init.Direction        |
 214:../Drivers/STM32F4xx_HAL_Driver/Src/stm32f4xx_hal_dma.c ****           hdma->Init.PeriphInc           | hdma->Init.MemInc           |
 215:../Drivers/STM32F4xx_HAL_Driver/Src/stm32f4xx_hal_dma.c ****           hdma->Init.PeriphDataAlignment | hdma->Init.MemDataAlignment |
 216:../Drivers/STM32F4xx_HAL_Driver/Src/stm32f4xx_hal_dma.c ****           hdma->Init.Mode                | hdma->Init.Priority;
 217:../Drivers/STM32F4xx_HAL_Driver/Src/stm32f4xx_hal_dma.c **** 
 218:../Drivers/STM32F4xx_HAL_Driver/Src/stm32f4xx_hal_dma.c ****   /* the Memory burst and peripheral burst are not used when the FIFO is disabled */
 219:../Drivers/STM32F4xx_HAL_Driver/Src/stm32f4xx_hal_dma.c ****   if(hdma->Init.FIFOMode == DMA_FIFOMODE_ENABLE)
 220:../Drivers/STM32F4xx_HAL_Driver/Src/stm32f4xx_hal_dma.c ****   {
 221:../Drivers/STM32F4xx_HAL_Driver/Src/stm32f4xx_hal_dma.c ****     /* Get memory burst and peripheral burst */
 222:../Drivers/STM32F4xx_HAL_Driver/Src/stm32f4xx_hal_dma.c ****     tmp |=  hdma->Init.MemBurst | hdma->Init.PeriphBurst;
 223:../Drivers/STM32F4xx_HAL_Driver/Src/stm32f4xx_hal_dma.c ****   }
 224:../Drivers/STM32F4xx_HAL_Driver/Src/stm32f4xx_hal_dma.c ****   
 225:../Drivers/STM32F4xx_HAL_Driver/Src/stm32f4xx_hal_dma.c ****   /* Write to DMA Stream CR register */
 226:../Drivers/STM32F4xx_HAL_Driver/Src/stm32f4xx_hal_dma.c ****   hdma->Instance->CR = tmp;  
 227:../Drivers/STM32F4xx_HAL_Driver/Src/stm32f4xx_hal_dma.c **** 
 228:../Drivers/STM32F4xx_HAL_Driver/Src/stm32f4xx_hal_dma.c ****   /* Get the FCR register value */
 229:../Drivers/STM32F4xx_HAL_Driver/Src/stm32f4xx_hal_dma.c ****   tmp = hdma->Instance->FCR;
 230:../Drivers/STM32F4xx_HAL_Driver/Src/stm32f4xx_hal_dma.c **** 
 231:../Drivers/STM32F4xx_HAL_Driver/Src/stm32f4xx_hal_dma.c ****   /* Clear Direct mode and FIFO threshold bits */
 232:../Drivers/STM32F4xx_HAL_Driver/Src/stm32f4xx_hal_dma.c ****   tmp &= (uint32_t)~(DMA_SxFCR_DMDIS | DMA_SxFCR_FTH);
 233:../Drivers/STM32F4xx_HAL_Driver/Src/stm32f4xx_hal_dma.c **** 
 234:../Drivers/STM32F4xx_HAL_Driver/Src/stm32f4xx_hal_dma.c ****   /* Prepare the DMA Stream FIFO configuration */
 235:../Drivers/STM32F4xx_HAL_Driver/Src/stm32f4xx_hal_dma.c ****   tmp |= hdma->Init.FIFOMode;
 236:../Drivers/STM32F4xx_HAL_Driver/Src/stm32f4xx_hal_dma.c **** 
 237:../Drivers/STM32F4xx_HAL_Driver/Src/stm32f4xx_hal_dma.c ****   /* the FIFO threshold is not used when the FIFO mode is disabled */
 238:../Drivers/STM32F4xx_HAL_Driver/Src/stm32f4xx_hal_dma.c ****   if(hdma->Init.FIFOMode == DMA_FIFOMODE_ENABLE)
 239:../Drivers/STM32F4xx_HAL_Driver/Src/stm32f4xx_hal_dma.c ****   {
 240:../Drivers/STM32F4xx_HAL_Driver/Src/stm32f4xx_hal_dma.c ****     /* Get the FIFO threshold */
 241:../Drivers/STM32F4xx_HAL_Driver/Src/stm32f4xx_hal_dma.c ****     tmp |= hdma->Init.FIFOThreshold;
 242:../Drivers/STM32F4xx_HAL_Driver/Src/stm32f4xx_hal_dma.c ****   }
 243:../Drivers/STM32F4xx_HAL_Driver/Src/stm32f4xx_hal_dma.c ****   
 244:../Drivers/STM32F4xx_HAL_Driver/Src/stm32f4xx_hal_dma.c ****   /* Write to DMA Stream FCR */
 245:../Drivers/STM32F4xx_HAL_Driver/Src/stm32f4xx_hal_dma.c ****   hdma->Instance->FCR = tmp;
 246:../Drivers/STM32F4xx_HAL_Driver/Src/stm32f4xx_hal_dma.c **** 
 247:../Drivers/STM32F4xx_HAL_Driver/Src/stm32f4xx_hal_dma.c ****   /* Initialise the error code */
 248:../Drivers/STM32F4xx_HAL_Driver/Src/stm32f4xx_hal_dma.c ****   hdma->ErrorCode = HAL_DMA_ERROR_NONE;
 249:../Drivers/STM32F4xx_HAL_Driver/Src/stm32f4xx_hal_dma.c **** 
 250:../Drivers/STM32F4xx_HAL_Driver/Src/stm32f4xx_hal_dma.c ****   /* Initialize the DMA state */
 251:../Drivers/STM32F4xx_HAL_Driver/Src/stm32f4xx_hal_dma.c ****   hdma->State = HAL_DMA_STATE_READY;
 252:../Drivers/STM32F4xx_HAL_Driver/Src/stm32f4xx_hal_dma.c **** 
 253:../Drivers/STM32F4xx_HAL_Driver/Src/stm32f4xx_hal_dma.c ****   return HAL_OK;
 254:../Drivers/STM32F4xx_HAL_Driver/Src/stm32f4xx_hal_dma.c **** }
 255:../Drivers/STM32F4xx_HAL_Driver/Src/stm32f4xx_hal_dma.c **** 
 256:../Drivers/STM32F4xx_HAL_Driver/Src/stm32f4xx_hal_dma.c **** /**
 257:../Drivers/STM32F4xx_HAL_Driver/Src/stm32f4xx_hal_dma.c ****   * @brief  DeInitializes the DMA peripheral 
 258:../Drivers/STM32F4xx_HAL_Driver/Src/stm32f4xx_hal_dma.c ****   * @param  hdma: pointer to a DMA_HandleTypeDef structure that contains
ARM GAS  /tmp/ccIvKYQX.s 			page 6


 259:../Drivers/STM32F4xx_HAL_Driver/Src/stm32f4xx_hal_dma.c ****   *               the configuration information for the specified DMA Stream.  
 260:../Drivers/STM32F4xx_HAL_Driver/Src/stm32f4xx_hal_dma.c ****   * @retval HAL status
 261:../Drivers/STM32F4xx_HAL_Driver/Src/stm32f4xx_hal_dma.c ****   */
 262:../Drivers/STM32F4xx_HAL_Driver/Src/stm32f4xx_hal_dma.c **** HAL_StatusTypeDef HAL_DMA_DeInit(DMA_HandleTypeDef *hdma)
 263:../Drivers/STM32F4xx_HAL_Driver/Src/stm32f4xx_hal_dma.c **** {
 264:../Drivers/STM32F4xx_HAL_Driver/Src/stm32f4xx_hal_dma.c ****   /* Check the DMA peripheral state */
 265:../Drivers/STM32F4xx_HAL_Driver/Src/stm32f4xx_hal_dma.c ****   if(hdma == NULL)
 266:../Drivers/STM32F4xx_HAL_Driver/Src/stm32f4xx_hal_dma.c ****   {
 267:../Drivers/STM32F4xx_HAL_Driver/Src/stm32f4xx_hal_dma.c ****     return HAL_ERROR;
 268:../Drivers/STM32F4xx_HAL_Driver/Src/stm32f4xx_hal_dma.c ****   }
 269:../Drivers/STM32F4xx_HAL_Driver/Src/stm32f4xx_hal_dma.c ****   
 270:../Drivers/STM32F4xx_HAL_Driver/Src/stm32f4xx_hal_dma.c ****   /* Check the DMA peripheral state */
 271:../Drivers/STM32F4xx_HAL_Driver/Src/stm32f4xx_hal_dma.c ****   if(hdma->State == HAL_DMA_STATE_BUSY)
 272:../Drivers/STM32F4xx_HAL_Driver/Src/stm32f4xx_hal_dma.c ****   {
 273:../Drivers/STM32F4xx_HAL_Driver/Src/stm32f4xx_hal_dma.c ****      return HAL_ERROR;
 274:../Drivers/STM32F4xx_HAL_Driver/Src/stm32f4xx_hal_dma.c ****   }
 275:../Drivers/STM32F4xx_HAL_Driver/Src/stm32f4xx_hal_dma.c **** 
 276:../Drivers/STM32F4xx_HAL_Driver/Src/stm32f4xx_hal_dma.c ****   /* Disable the selected DMA Streamx */
 277:../Drivers/STM32F4xx_HAL_Driver/Src/stm32f4xx_hal_dma.c ****   __HAL_DMA_DISABLE(hdma);
 278:../Drivers/STM32F4xx_HAL_Driver/Src/stm32f4xx_hal_dma.c **** 
 279:../Drivers/STM32F4xx_HAL_Driver/Src/stm32f4xx_hal_dma.c ****   /* Reset DMA Streamx control register */
 280:../Drivers/STM32F4xx_HAL_Driver/Src/stm32f4xx_hal_dma.c ****   hdma->Instance->CR   = 0;
 281:../Drivers/STM32F4xx_HAL_Driver/Src/stm32f4xx_hal_dma.c **** 
 282:../Drivers/STM32F4xx_HAL_Driver/Src/stm32f4xx_hal_dma.c ****   /* Reset DMA Streamx number of data to transfer register */
 283:../Drivers/STM32F4xx_HAL_Driver/Src/stm32f4xx_hal_dma.c ****   hdma->Instance->NDTR = 0;
 284:../Drivers/STM32F4xx_HAL_Driver/Src/stm32f4xx_hal_dma.c **** 
 285:../Drivers/STM32F4xx_HAL_Driver/Src/stm32f4xx_hal_dma.c ****   /* Reset DMA Streamx peripheral address register */
 286:../Drivers/STM32F4xx_HAL_Driver/Src/stm32f4xx_hal_dma.c ****   hdma->Instance->PAR  = 0;
 287:../Drivers/STM32F4xx_HAL_Driver/Src/stm32f4xx_hal_dma.c **** 
 288:../Drivers/STM32F4xx_HAL_Driver/Src/stm32f4xx_hal_dma.c ****   /* Reset DMA Streamx memory 0 address register */
 289:../Drivers/STM32F4xx_HAL_Driver/Src/stm32f4xx_hal_dma.c ****   hdma->Instance->M0AR = 0;
 290:../Drivers/STM32F4xx_HAL_Driver/Src/stm32f4xx_hal_dma.c **** 
 291:../Drivers/STM32F4xx_HAL_Driver/Src/stm32f4xx_hal_dma.c ****   /* Reset DMA Streamx memory 1 address register */
 292:../Drivers/STM32F4xx_HAL_Driver/Src/stm32f4xx_hal_dma.c ****   hdma->Instance->M1AR = 0;
 293:../Drivers/STM32F4xx_HAL_Driver/Src/stm32f4xx_hal_dma.c **** 
 294:../Drivers/STM32F4xx_HAL_Driver/Src/stm32f4xx_hal_dma.c ****   /* Reset DMA Streamx FIFO control register */
 295:../Drivers/STM32F4xx_HAL_Driver/Src/stm32f4xx_hal_dma.c ****   hdma->Instance->FCR  = (uint32_t)0x00000021;
 296:../Drivers/STM32F4xx_HAL_Driver/Src/stm32f4xx_hal_dma.c **** 
 297:../Drivers/STM32F4xx_HAL_Driver/Src/stm32f4xx_hal_dma.c ****   /* Clear all flags */
 298:../Drivers/STM32F4xx_HAL_Driver/Src/stm32f4xx_hal_dma.c ****   __HAL_DMA_CLEAR_FLAG(hdma, __HAL_DMA_GET_DME_FLAG_INDEX(hdma));
 299:../Drivers/STM32F4xx_HAL_Driver/Src/stm32f4xx_hal_dma.c ****   __HAL_DMA_CLEAR_FLAG(hdma, __HAL_DMA_GET_TC_FLAG_INDEX(hdma));
 300:../Drivers/STM32F4xx_HAL_Driver/Src/stm32f4xx_hal_dma.c ****   __HAL_DMA_CLEAR_FLAG(hdma, __HAL_DMA_GET_TE_FLAG_INDEX(hdma));
 301:../Drivers/STM32F4xx_HAL_Driver/Src/stm32f4xx_hal_dma.c ****   __HAL_DMA_CLEAR_FLAG(hdma, __HAL_DMA_GET_FE_FLAG_INDEX(hdma));
 302:../Drivers/STM32F4xx_HAL_Driver/Src/stm32f4xx_hal_dma.c ****   __HAL_DMA_CLEAR_FLAG(hdma, __HAL_DMA_GET_HT_FLAG_INDEX(hdma));
 303:../Drivers/STM32F4xx_HAL_Driver/Src/stm32f4xx_hal_dma.c **** 
 304:../Drivers/STM32F4xx_HAL_Driver/Src/stm32f4xx_hal_dma.c ****   /* Initialise the error code */
 305:../Drivers/STM32F4xx_HAL_Driver/Src/stm32f4xx_hal_dma.c ****   hdma->ErrorCode = HAL_DMA_ERROR_NONE;
 306:../Drivers/STM32F4xx_HAL_Driver/Src/stm32f4xx_hal_dma.c **** 
 307:../Drivers/STM32F4xx_HAL_Driver/Src/stm32f4xx_hal_dma.c ****   /* Initialize the DMA state */
 308:../Drivers/STM32F4xx_HAL_Driver/Src/stm32f4xx_hal_dma.c ****   hdma->State = HAL_DMA_STATE_RESET;
 309:../Drivers/STM32F4xx_HAL_Driver/Src/stm32f4xx_hal_dma.c **** 
 310:../Drivers/STM32F4xx_HAL_Driver/Src/stm32f4xx_hal_dma.c ****   /* Release Lock */
 311:../Drivers/STM32F4xx_HAL_Driver/Src/stm32f4xx_hal_dma.c ****   __HAL_UNLOCK(hdma);
 312:../Drivers/STM32F4xx_HAL_Driver/Src/stm32f4xx_hal_dma.c **** 
 313:../Drivers/STM32F4xx_HAL_Driver/Src/stm32f4xx_hal_dma.c ****   return HAL_OK;
 314:../Drivers/STM32F4xx_HAL_Driver/Src/stm32f4xx_hal_dma.c **** }
 315:../Drivers/STM32F4xx_HAL_Driver/Src/stm32f4xx_hal_dma.c **** 
ARM GAS  /tmp/ccIvKYQX.s 			page 7


 316:../Drivers/STM32F4xx_HAL_Driver/Src/stm32f4xx_hal_dma.c **** /**
 317:../Drivers/STM32F4xx_HAL_Driver/Src/stm32f4xx_hal_dma.c ****   * @}
 318:../Drivers/STM32F4xx_HAL_Driver/Src/stm32f4xx_hal_dma.c ****   */
 319:../Drivers/STM32F4xx_HAL_Driver/Src/stm32f4xx_hal_dma.c **** 
 320:../Drivers/STM32F4xx_HAL_Driver/Src/stm32f4xx_hal_dma.c **** /** @defgroup DMA_Group2 I/O operation functions 
 321:../Drivers/STM32F4xx_HAL_Driver/Src/stm32f4xx_hal_dma.c ****  *  @brief   I/O operation functions  
 322:../Drivers/STM32F4xx_HAL_Driver/Src/stm32f4xx_hal_dma.c ****  *
 323:../Drivers/STM32F4xx_HAL_Driver/Src/stm32f4xx_hal_dma.c **** @verbatim   
 324:../Drivers/STM32F4xx_HAL_Driver/Src/stm32f4xx_hal_dma.c ****  ===============================================================================
 325:../Drivers/STM32F4xx_HAL_Driver/Src/stm32f4xx_hal_dma.c ****                       #####  IO operation functions  #####
 326:../Drivers/STM32F4xx_HAL_Driver/Src/stm32f4xx_hal_dma.c ****  ===============================================================================  
 327:../Drivers/STM32F4xx_HAL_Driver/Src/stm32f4xx_hal_dma.c ****     [..]  This section provides functions allowing to:
 328:../Drivers/STM32F4xx_HAL_Driver/Src/stm32f4xx_hal_dma.c ****       (+) Configure the source, destination address and data length and Start DMA transfer
 329:../Drivers/STM32F4xx_HAL_Driver/Src/stm32f4xx_hal_dma.c ****       (+) Configure the source, destination address and data length and 
 330:../Drivers/STM32F4xx_HAL_Driver/Src/stm32f4xx_hal_dma.c ****           Start DMA transfer with interrupt
 331:../Drivers/STM32F4xx_HAL_Driver/Src/stm32f4xx_hal_dma.c ****       (+) Abort DMA transfer
 332:../Drivers/STM32F4xx_HAL_Driver/Src/stm32f4xx_hal_dma.c ****       (+) Poll for transfer complete
 333:../Drivers/STM32F4xx_HAL_Driver/Src/stm32f4xx_hal_dma.c ****       (+) Handle DMA interrupt request  
 334:../Drivers/STM32F4xx_HAL_Driver/Src/stm32f4xx_hal_dma.c **** 
 335:../Drivers/STM32F4xx_HAL_Driver/Src/stm32f4xx_hal_dma.c **** @endverbatim
 336:../Drivers/STM32F4xx_HAL_Driver/Src/stm32f4xx_hal_dma.c ****   * @{
 337:../Drivers/STM32F4xx_HAL_Driver/Src/stm32f4xx_hal_dma.c ****   */
 338:../Drivers/STM32F4xx_HAL_Driver/Src/stm32f4xx_hal_dma.c **** 
 339:../Drivers/STM32F4xx_HAL_Driver/Src/stm32f4xx_hal_dma.c **** /**
 340:../Drivers/STM32F4xx_HAL_Driver/Src/stm32f4xx_hal_dma.c ****   * @brief  Starts the DMA Transfer.
 341:../Drivers/STM32F4xx_HAL_Driver/Src/stm32f4xx_hal_dma.c ****   * @param  hdma      : pointer to a DMA_HandleTypeDef structure that contains
 342:../Drivers/STM32F4xx_HAL_Driver/Src/stm32f4xx_hal_dma.c ****   *                     the configuration information for the specified DMA Stream.  
 343:../Drivers/STM32F4xx_HAL_Driver/Src/stm32f4xx_hal_dma.c ****   * @param  SrcAddress: The source memory Buffer address
 344:../Drivers/STM32F4xx_HAL_Driver/Src/stm32f4xx_hal_dma.c ****   * @param  DstAddress: The destination memory Buffer address
 345:../Drivers/STM32F4xx_HAL_Driver/Src/stm32f4xx_hal_dma.c ****   * @param  DataLength: The length of data to be transferred from source to destination
 346:../Drivers/STM32F4xx_HAL_Driver/Src/stm32f4xx_hal_dma.c ****   * @retval HAL status
 347:../Drivers/STM32F4xx_HAL_Driver/Src/stm32f4xx_hal_dma.c ****   */
 348:../Drivers/STM32F4xx_HAL_Driver/Src/stm32f4xx_hal_dma.c **** HAL_StatusTypeDef HAL_DMA_Start(DMA_HandleTypeDef *hdma, uint32_t SrcAddress, uint32_t DstAddress, 
 349:../Drivers/STM32F4xx_HAL_Driver/Src/stm32f4xx_hal_dma.c **** {
 350:../Drivers/STM32F4xx_HAL_Driver/Src/stm32f4xx_hal_dma.c ****   /* Process locked */
 351:../Drivers/STM32F4xx_HAL_Driver/Src/stm32f4xx_hal_dma.c ****   __HAL_LOCK(hdma);
 352:../Drivers/STM32F4xx_HAL_Driver/Src/stm32f4xx_hal_dma.c **** 
 353:../Drivers/STM32F4xx_HAL_Driver/Src/stm32f4xx_hal_dma.c ****   /* Change DMA peripheral state */
 354:../Drivers/STM32F4xx_HAL_Driver/Src/stm32f4xx_hal_dma.c ****   hdma->State = HAL_DMA_STATE_BUSY;
 355:../Drivers/STM32F4xx_HAL_Driver/Src/stm32f4xx_hal_dma.c **** 
 356:../Drivers/STM32F4xx_HAL_Driver/Src/stm32f4xx_hal_dma.c ****    /* Check the parameters */
 357:../Drivers/STM32F4xx_HAL_Driver/Src/stm32f4xx_hal_dma.c ****   assert_param(IS_DMA_BUFFER_SIZE(DataLength));
 358:../Drivers/STM32F4xx_HAL_Driver/Src/stm32f4xx_hal_dma.c **** 
 359:../Drivers/STM32F4xx_HAL_Driver/Src/stm32f4xx_hal_dma.c ****   /* Disable the peripheral */
 360:../Drivers/STM32F4xx_HAL_Driver/Src/stm32f4xx_hal_dma.c ****   __HAL_DMA_DISABLE(hdma);
 361:../Drivers/STM32F4xx_HAL_Driver/Src/stm32f4xx_hal_dma.c **** 
 362:../Drivers/STM32F4xx_HAL_Driver/Src/stm32f4xx_hal_dma.c ****   /* Configure the source, destination address and the data length */
 363:../Drivers/STM32F4xx_HAL_Driver/Src/stm32f4xx_hal_dma.c ****   DMA_SetConfig(hdma, SrcAddress, DstAddress, DataLength);
 364:../Drivers/STM32F4xx_HAL_Driver/Src/stm32f4xx_hal_dma.c **** 
 365:../Drivers/STM32F4xx_HAL_Driver/Src/stm32f4xx_hal_dma.c ****   /* Enable the Peripheral */
 366:../Drivers/STM32F4xx_HAL_Driver/Src/stm32f4xx_hal_dma.c ****   __HAL_DMA_ENABLE(hdma);
 367:../Drivers/STM32F4xx_HAL_Driver/Src/stm32f4xx_hal_dma.c **** 
 368:../Drivers/STM32F4xx_HAL_Driver/Src/stm32f4xx_hal_dma.c ****   return HAL_OK; 
 369:../Drivers/STM32F4xx_HAL_Driver/Src/stm32f4xx_hal_dma.c **** }
 370:../Drivers/STM32F4xx_HAL_Driver/Src/stm32f4xx_hal_dma.c **** 
 371:../Drivers/STM32F4xx_HAL_Driver/Src/stm32f4xx_hal_dma.c **** /**
 372:../Drivers/STM32F4xx_HAL_Driver/Src/stm32f4xx_hal_dma.c ****   * @brief  Start the DMA Transfer with interrupt enabled.
ARM GAS  /tmp/ccIvKYQX.s 			page 8


 373:../Drivers/STM32F4xx_HAL_Driver/Src/stm32f4xx_hal_dma.c ****   * @param  hdma:       pointer to a DMA_HandleTypeDef structure that contains
 374:../Drivers/STM32F4xx_HAL_Driver/Src/stm32f4xx_hal_dma.c ****   *                     the configuration information for the specified DMA Stream.  
 375:../Drivers/STM32F4xx_HAL_Driver/Src/stm32f4xx_hal_dma.c ****   * @param  SrcAddress: The source memory Buffer address
 376:../Drivers/STM32F4xx_HAL_Driver/Src/stm32f4xx_hal_dma.c ****   * @param  DstAddress: The destination memory Buffer address
 377:../Drivers/STM32F4xx_HAL_Driver/Src/stm32f4xx_hal_dma.c ****   * @param  DataLength: The length of data to be transferred from source to destination
 378:../Drivers/STM32F4xx_HAL_Driver/Src/stm32f4xx_hal_dma.c ****   * @retval HAL status
 379:../Drivers/STM32F4xx_HAL_Driver/Src/stm32f4xx_hal_dma.c ****   */
 380:../Drivers/STM32F4xx_HAL_Driver/Src/stm32f4xx_hal_dma.c **** HAL_StatusTypeDef HAL_DMA_Start_IT(DMA_HandleTypeDef *hdma, uint32_t SrcAddress, uint32_t DstAddres
 381:../Drivers/STM32F4xx_HAL_Driver/Src/stm32f4xx_hal_dma.c **** {
 382:../Drivers/STM32F4xx_HAL_Driver/Src/stm32f4xx_hal_dma.c ****   /* Process locked */
 383:../Drivers/STM32F4xx_HAL_Driver/Src/stm32f4xx_hal_dma.c ****   __HAL_LOCK(hdma);
 384:../Drivers/STM32F4xx_HAL_Driver/Src/stm32f4xx_hal_dma.c **** 
 385:../Drivers/STM32F4xx_HAL_Driver/Src/stm32f4xx_hal_dma.c ****   /* Change DMA peripheral state */
 386:../Drivers/STM32F4xx_HAL_Driver/Src/stm32f4xx_hal_dma.c ****   hdma->State = HAL_DMA_STATE_BUSY;
 387:../Drivers/STM32F4xx_HAL_Driver/Src/stm32f4xx_hal_dma.c **** 
 388:../Drivers/STM32F4xx_HAL_Driver/Src/stm32f4xx_hal_dma.c ****    /* Check the parameters */
 389:../Drivers/STM32F4xx_HAL_Driver/Src/stm32f4xx_hal_dma.c ****   assert_param(IS_DMA_BUFFER_SIZE(DataLength));
 390:../Drivers/STM32F4xx_HAL_Driver/Src/stm32f4xx_hal_dma.c **** 
 391:../Drivers/STM32F4xx_HAL_Driver/Src/stm32f4xx_hal_dma.c ****   /* Disable the peripheral */
 392:../Drivers/STM32F4xx_HAL_Driver/Src/stm32f4xx_hal_dma.c ****   __HAL_DMA_DISABLE(hdma);
 393:../Drivers/STM32F4xx_HAL_Driver/Src/stm32f4xx_hal_dma.c **** 
 394:../Drivers/STM32F4xx_HAL_Driver/Src/stm32f4xx_hal_dma.c ****   /* Configure the source, destination address and the data length */
 395:../Drivers/STM32F4xx_HAL_Driver/Src/stm32f4xx_hal_dma.c ****   DMA_SetConfig(hdma, SrcAddress, DstAddress, DataLength);
 396:../Drivers/STM32F4xx_HAL_Driver/Src/stm32f4xx_hal_dma.c **** 
 397:../Drivers/STM32F4xx_HAL_Driver/Src/stm32f4xx_hal_dma.c ****   /* Enable the transfer complete interrupt */
 398:../Drivers/STM32F4xx_HAL_Driver/Src/stm32f4xx_hal_dma.c ****   __HAL_DMA_ENABLE_IT(hdma, DMA_IT_TC);
 399:../Drivers/STM32F4xx_HAL_Driver/Src/stm32f4xx_hal_dma.c **** 
 400:../Drivers/STM32F4xx_HAL_Driver/Src/stm32f4xx_hal_dma.c ****   /* Enable the Half transfer complete interrupt */
 401:../Drivers/STM32F4xx_HAL_Driver/Src/stm32f4xx_hal_dma.c ****   __HAL_DMA_ENABLE_IT(hdma, DMA_IT_HT);  
 402:../Drivers/STM32F4xx_HAL_Driver/Src/stm32f4xx_hal_dma.c **** 
 403:../Drivers/STM32F4xx_HAL_Driver/Src/stm32f4xx_hal_dma.c ****   /* Enable the transfer Error interrupt */
 404:../Drivers/STM32F4xx_HAL_Driver/Src/stm32f4xx_hal_dma.c ****   __HAL_DMA_ENABLE_IT(hdma, DMA_IT_TE);
 405:../Drivers/STM32F4xx_HAL_Driver/Src/stm32f4xx_hal_dma.c **** 
 406:../Drivers/STM32F4xx_HAL_Driver/Src/stm32f4xx_hal_dma.c ****   /* Enable the FIFO Error interrupt */
 407:../Drivers/STM32F4xx_HAL_Driver/Src/stm32f4xx_hal_dma.c ****   __HAL_DMA_ENABLE_IT(hdma, DMA_IT_FE);
 408:../Drivers/STM32F4xx_HAL_Driver/Src/stm32f4xx_hal_dma.c **** 
 409:../Drivers/STM32F4xx_HAL_Driver/Src/stm32f4xx_hal_dma.c ****   /* Enable the direct mode Error interrupt */
 410:../Drivers/STM32F4xx_HAL_Driver/Src/stm32f4xx_hal_dma.c ****   __HAL_DMA_ENABLE_IT(hdma, DMA_IT_DME);
 411:../Drivers/STM32F4xx_HAL_Driver/Src/stm32f4xx_hal_dma.c **** 
 412:../Drivers/STM32F4xx_HAL_Driver/Src/stm32f4xx_hal_dma.c ****    /* Enable the Peripheral */
 413:../Drivers/STM32F4xx_HAL_Driver/Src/stm32f4xx_hal_dma.c ****   __HAL_DMA_ENABLE(hdma);
 414:../Drivers/STM32F4xx_HAL_Driver/Src/stm32f4xx_hal_dma.c **** 
 415:../Drivers/STM32F4xx_HAL_Driver/Src/stm32f4xx_hal_dma.c ****   return HAL_OK;
 416:../Drivers/STM32F4xx_HAL_Driver/Src/stm32f4xx_hal_dma.c **** } 
 417:../Drivers/STM32F4xx_HAL_Driver/Src/stm32f4xx_hal_dma.c **** 
 418:../Drivers/STM32F4xx_HAL_Driver/Src/stm32f4xx_hal_dma.c **** /**
 419:../Drivers/STM32F4xx_HAL_Driver/Src/stm32f4xx_hal_dma.c ****   * @brief  Aborts the DMA Transfer.
 420:../Drivers/STM32F4xx_HAL_Driver/Src/stm32f4xx_hal_dma.c ****   * @param  hdma  : pointer to a DMA_HandleTypeDef structure that contains
 421:../Drivers/STM32F4xx_HAL_Driver/Src/stm32f4xx_hal_dma.c ****   *                 the configuration information for the specified DMA Stream.
 422:../Drivers/STM32F4xx_HAL_Driver/Src/stm32f4xx_hal_dma.c ****   *                   
 423:../Drivers/STM32F4xx_HAL_Driver/Src/stm32f4xx_hal_dma.c ****   * @note  After disabling a DMA Stream, a check for wait until the DMA Stream is 
 424:../Drivers/STM32F4xx_HAL_Driver/Src/stm32f4xx_hal_dma.c ****   *        effectively disabled is added. If a Stream is disabled 
 425:../Drivers/STM32F4xx_HAL_Driver/Src/stm32f4xx_hal_dma.c ****   *        while a data transfer is ongoing, the current data will be transferred
 426:../Drivers/STM32F4xx_HAL_Driver/Src/stm32f4xx_hal_dma.c ****   *        and the Stream will be effectively disabled only after the transfer of
 427:../Drivers/STM32F4xx_HAL_Driver/Src/stm32f4xx_hal_dma.c ****   *        this single data is finished.  
 428:../Drivers/STM32F4xx_HAL_Driver/Src/stm32f4xx_hal_dma.c ****   * @retval HAL status
 429:../Drivers/STM32F4xx_HAL_Driver/Src/stm32f4xx_hal_dma.c ****   */
ARM GAS  /tmp/ccIvKYQX.s 			page 9


 430:../Drivers/STM32F4xx_HAL_Driver/Src/stm32f4xx_hal_dma.c **** HAL_StatusTypeDef HAL_DMA_Abort(DMA_HandleTypeDef *hdma)
 431:../Drivers/STM32F4xx_HAL_Driver/Src/stm32f4xx_hal_dma.c **** {
 432:../Drivers/STM32F4xx_HAL_Driver/Src/stm32f4xx_hal_dma.c ****   uint32_t tickstart = 0;
 433:../Drivers/STM32F4xx_HAL_Driver/Src/stm32f4xx_hal_dma.c **** 
 434:../Drivers/STM32F4xx_HAL_Driver/Src/stm32f4xx_hal_dma.c ****   /* Disable the stream */
 435:../Drivers/STM32F4xx_HAL_Driver/Src/stm32f4xx_hal_dma.c ****   __HAL_DMA_DISABLE(hdma);
 436:../Drivers/STM32F4xx_HAL_Driver/Src/stm32f4xx_hal_dma.c **** 
 437:../Drivers/STM32F4xx_HAL_Driver/Src/stm32f4xx_hal_dma.c ****   /* Get tick */
 438:../Drivers/STM32F4xx_HAL_Driver/Src/stm32f4xx_hal_dma.c ****   tickstart = HAL_GetTick();
 439:../Drivers/STM32F4xx_HAL_Driver/Src/stm32f4xx_hal_dma.c **** 
 440:../Drivers/STM32F4xx_HAL_Driver/Src/stm32f4xx_hal_dma.c ****   /* Check if the DMA Stream is effectively disabled */
 441:../Drivers/STM32F4xx_HAL_Driver/Src/stm32f4xx_hal_dma.c ****   while((hdma->Instance->CR & DMA_SxCR_EN) != 0)
 442:../Drivers/STM32F4xx_HAL_Driver/Src/stm32f4xx_hal_dma.c ****   {
 443:../Drivers/STM32F4xx_HAL_Driver/Src/stm32f4xx_hal_dma.c ****     /* Check for the Timeout */
 444:../Drivers/STM32F4xx_HAL_Driver/Src/stm32f4xx_hal_dma.c ****     if((HAL_GetTick() - tickstart ) > HAL_TIMEOUT_DMA_ABORT)
 445:../Drivers/STM32F4xx_HAL_Driver/Src/stm32f4xx_hal_dma.c ****     {
 446:../Drivers/STM32F4xx_HAL_Driver/Src/stm32f4xx_hal_dma.c ****       /* Update error code */
 447:../Drivers/STM32F4xx_HAL_Driver/Src/stm32f4xx_hal_dma.c ****       hdma->ErrorCode |= HAL_DMA_ERROR_TIMEOUT;
 448:../Drivers/STM32F4xx_HAL_Driver/Src/stm32f4xx_hal_dma.c ****       
 449:../Drivers/STM32F4xx_HAL_Driver/Src/stm32f4xx_hal_dma.c ****       /* Process Unlocked */
 450:../Drivers/STM32F4xx_HAL_Driver/Src/stm32f4xx_hal_dma.c ****       __HAL_UNLOCK(hdma);
 451:../Drivers/STM32F4xx_HAL_Driver/Src/stm32f4xx_hal_dma.c ****       
 452:../Drivers/STM32F4xx_HAL_Driver/Src/stm32f4xx_hal_dma.c ****       /* Change the DMA state */
 453:../Drivers/STM32F4xx_HAL_Driver/Src/stm32f4xx_hal_dma.c ****       hdma->State = HAL_DMA_STATE_TIMEOUT;
 454:../Drivers/STM32F4xx_HAL_Driver/Src/stm32f4xx_hal_dma.c ****       
 455:../Drivers/STM32F4xx_HAL_Driver/Src/stm32f4xx_hal_dma.c ****       return HAL_TIMEOUT;
 456:../Drivers/STM32F4xx_HAL_Driver/Src/stm32f4xx_hal_dma.c ****     }
 457:../Drivers/STM32F4xx_HAL_Driver/Src/stm32f4xx_hal_dma.c ****   }
 458:../Drivers/STM32F4xx_HAL_Driver/Src/stm32f4xx_hal_dma.c ****   /* Process Unlocked */
 459:../Drivers/STM32F4xx_HAL_Driver/Src/stm32f4xx_hal_dma.c ****   __HAL_UNLOCK(hdma);
 460:../Drivers/STM32F4xx_HAL_Driver/Src/stm32f4xx_hal_dma.c **** 
 461:../Drivers/STM32F4xx_HAL_Driver/Src/stm32f4xx_hal_dma.c ****   /* Change the DMA state*/
 462:../Drivers/STM32F4xx_HAL_Driver/Src/stm32f4xx_hal_dma.c ****   hdma->State = HAL_DMA_STATE_READY;
 463:../Drivers/STM32F4xx_HAL_Driver/Src/stm32f4xx_hal_dma.c **** 
 464:../Drivers/STM32F4xx_HAL_Driver/Src/stm32f4xx_hal_dma.c ****   return HAL_OK;
 465:../Drivers/STM32F4xx_HAL_Driver/Src/stm32f4xx_hal_dma.c **** }
 466:../Drivers/STM32F4xx_HAL_Driver/Src/stm32f4xx_hal_dma.c **** 
 467:../Drivers/STM32F4xx_HAL_Driver/Src/stm32f4xx_hal_dma.c **** /**
 468:../Drivers/STM32F4xx_HAL_Driver/Src/stm32f4xx_hal_dma.c ****   * @brief  Polling for transfer complete.
 469:../Drivers/STM32F4xx_HAL_Driver/Src/stm32f4xx_hal_dma.c ****   * @param  hdma:          pointer to a DMA_HandleTypeDef structure that contains
 470:../Drivers/STM32F4xx_HAL_Driver/Src/stm32f4xx_hal_dma.c ****   *                        the configuration information for the specified DMA Stream.
 471:../Drivers/STM32F4xx_HAL_Driver/Src/stm32f4xx_hal_dma.c ****   * @param  CompleteLevel: Specifies the DMA level complete.  
 472:../Drivers/STM32F4xx_HAL_Driver/Src/stm32f4xx_hal_dma.c ****   * @param  Timeout:       Timeout duration.
 473:../Drivers/STM32F4xx_HAL_Driver/Src/stm32f4xx_hal_dma.c ****   * @retval HAL status
 474:../Drivers/STM32F4xx_HAL_Driver/Src/stm32f4xx_hal_dma.c ****   */
 475:../Drivers/STM32F4xx_HAL_Driver/Src/stm32f4xx_hal_dma.c **** HAL_StatusTypeDef HAL_DMA_PollForTransfer(DMA_HandleTypeDef *hdma, uint32_t CompleteLevel, uint32_t
 476:../Drivers/STM32F4xx_HAL_Driver/Src/stm32f4xx_hal_dma.c **** {
 477:../Drivers/STM32F4xx_HAL_Driver/Src/stm32f4xx_hal_dma.c ****   uint32_t temp, tmp, tmp1, tmp2;
 478:../Drivers/STM32F4xx_HAL_Driver/Src/stm32f4xx_hal_dma.c ****   uint32_t tickstart = 0; 
 479:../Drivers/STM32F4xx_HAL_Driver/Src/stm32f4xx_hal_dma.c **** 
 480:../Drivers/STM32F4xx_HAL_Driver/Src/stm32f4xx_hal_dma.c ****   /* Get the level transfer complete flag */
 481:../Drivers/STM32F4xx_HAL_Driver/Src/stm32f4xx_hal_dma.c ****   if(CompleteLevel == HAL_DMA_FULL_TRANSFER)
 482:../Drivers/STM32F4xx_HAL_Driver/Src/stm32f4xx_hal_dma.c ****   {
 483:../Drivers/STM32F4xx_HAL_Driver/Src/stm32f4xx_hal_dma.c ****     /* Transfer Complete flag */
 484:../Drivers/STM32F4xx_HAL_Driver/Src/stm32f4xx_hal_dma.c ****     temp = __HAL_DMA_GET_TC_FLAG_INDEX(hdma);
 485:../Drivers/STM32F4xx_HAL_Driver/Src/stm32f4xx_hal_dma.c ****   }
 486:../Drivers/STM32F4xx_HAL_Driver/Src/stm32f4xx_hal_dma.c ****   else
ARM GAS  /tmp/ccIvKYQX.s 			page 10


 487:../Drivers/STM32F4xx_HAL_Driver/Src/stm32f4xx_hal_dma.c ****   {
 488:../Drivers/STM32F4xx_HAL_Driver/Src/stm32f4xx_hal_dma.c ****     /* Half Transfer Complete flag */
 489:../Drivers/STM32F4xx_HAL_Driver/Src/stm32f4xx_hal_dma.c ****     temp = __HAL_DMA_GET_HT_FLAG_INDEX(hdma);
 490:../Drivers/STM32F4xx_HAL_Driver/Src/stm32f4xx_hal_dma.c ****   }
 491:../Drivers/STM32F4xx_HAL_Driver/Src/stm32f4xx_hal_dma.c **** 
 492:../Drivers/STM32F4xx_HAL_Driver/Src/stm32f4xx_hal_dma.c ****   /* Get tick */
 493:../Drivers/STM32F4xx_HAL_Driver/Src/stm32f4xx_hal_dma.c ****   tickstart = HAL_GetTick();
 494:../Drivers/STM32F4xx_HAL_Driver/Src/stm32f4xx_hal_dma.c **** 
 495:../Drivers/STM32F4xx_HAL_Driver/Src/stm32f4xx_hal_dma.c ****   while(__HAL_DMA_GET_FLAG(hdma, temp) == RESET)
 496:../Drivers/STM32F4xx_HAL_Driver/Src/stm32f4xx_hal_dma.c ****   {
 497:../Drivers/STM32F4xx_HAL_Driver/Src/stm32f4xx_hal_dma.c ****     tmp  = __HAL_DMA_GET_FLAG(hdma, __HAL_DMA_GET_TE_FLAG_INDEX(hdma));
 498:../Drivers/STM32F4xx_HAL_Driver/Src/stm32f4xx_hal_dma.c ****     tmp1 = __HAL_DMA_GET_FLAG(hdma, __HAL_DMA_GET_FE_FLAG_INDEX(hdma));
 499:../Drivers/STM32F4xx_HAL_Driver/Src/stm32f4xx_hal_dma.c ****     tmp2 = __HAL_DMA_GET_FLAG(hdma, __HAL_DMA_GET_DME_FLAG_INDEX(hdma));
 500:../Drivers/STM32F4xx_HAL_Driver/Src/stm32f4xx_hal_dma.c ****     if((tmp != RESET) || (tmp1 != RESET) || (tmp2 != RESET))
 501:../Drivers/STM32F4xx_HAL_Driver/Src/stm32f4xx_hal_dma.c ****     {
 502:../Drivers/STM32F4xx_HAL_Driver/Src/stm32f4xx_hal_dma.c ****       if(tmp != RESET)
 503:../Drivers/STM32F4xx_HAL_Driver/Src/stm32f4xx_hal_dma.c ****       {
 504:../Drivers/STM32F4xx_HAL_Driver/Src/stm32f4xx_hal_dma.c ****         /* Update error code */
 505:../Drivers/STM32F4xx_HAL_Driver/Src/stm32f4xx_hal_dma.c ****         hdma->ErrorCode |= HAL_DMA_ERROR_TE;
 506:../Drivers/STM32F4xx_HAL_Driver/Src/stm32f4xx_hal_dma.c **** 
 507:../Drivers/STM32F4xx_HAL_Driver/Src/stm32f4xx_hal_dma.c ****         /* Clear the transfer error flag */
 508:../Drivers/STM32F4xx_HAL_Driver/Src/stm32f4xx_hal_dma.c ****         __HAL_DMA_CLEAR_FLAG(hdma, __HAL_DMA_GET_TE_FLAG_INDEX(hdma));
 509:../Drivers/STM32F4xx_HAL_Driver/Src/stm32f4xx_hal_dma.c ****       }
 510:../Drivers/STM32F4xx_HAL_Driver/Src/stm32f4xx_hal_dma.c ****       if(tmp1 != RESET)
 511:../Drivers/STM32F4xx_HAL_Driver/Src/stm32f4xx_hal_dma.c ****       {
 512:../Drivers/STM32F4xx_HAL_Driver/Src/stm32f4xx_hal_dma.c ****         /* Update error code */
 513:../Drivers/STM32F4xx_HAL_Driver/Src/stm32f4xx_hal_dma.c ****         hdma->ErrorCode |= HAL_DMA_ERROR_FE;
 514:../Drivers/STM32F4xx_HAL_Driver/Src/stm32f4xx_hal_dma.c ****  
 515:../Drivers/STM32F4xx_HAL_Driver/Src/stm32f4xx_hal_dma.c ****         /* Clear the FIFO error flag */
 516:../Drivers/STM32F4xx_HAL_Driver/Src/stm32f4xx_hal_dma.c ****         __HAL_DMA_CLEAR_FLAG(hdma, __HAL_DMA_GET_FE_FLAG_INDEX(hdma));
 517:../Drivers/STM32F4xx_HAL_Driver/Src/stm32f4xx_hal_dma.c ****       }
 518:../Drivers/STM32F4xx_HAL_Driver/Src/stm32f4xx_hal_dma.c ****       if(tmp2 != RESET)
 519:../Drivers/STM32F4xx_HAL_Driver/Src/stm32f4xx_hal_dma.c ****       {
 520:../Drivers/STM32F4xx_HAL_Driver/Src/stm32f4xx_hal_dma.c ****         /* Update error code */
 521:../Drivers/STM32F4xx_HAL_Driver/Src/stm32f4xx_hal_dma.c ****         hdma->ErrorCode |= HAL_DMA_ERROR_DME;
 522:../Drivers/STM32F4xx_HAL_Driver/Src/stm32f4xx_hal_dma.c **** 
 523:../Drivers/STM32F4xx_HAL_Driver/Src/stm32f4xx_hal_dma.c ****         /* Clear the Direct Mode error flag */
 524:../Drivers/STM32F4xx_HAL_Driver/Src/stm32f4xx_hal_dma.c ****         __HAL_DMA_CLEAR_FLAG(hdma, __HAL_DMA_GET_DME_FLAG_INDEX(hdma));
 525:../Drivers/STM32F4xx_HAL_Driver/Src/stm32f4xx_hal_dma.c ****       }
 526:../Drivers/STM32F4xx_HAL_Driver/Src/stm32f4xx_hal_dma.c ****       /* Change the DMA state */
 527:../Drivers/STM32F4xx_HAL_Driver/Src/stm32f4xx_hal_dma.c ****       hdma->State= HAL_DMA_STATE_ERROR;
 528:../Drivers/STM32F4xx_HAL_Driver/Src/stm32f4xx_hal_dma.c ****       
 529:../Drivers/STM32F4xx_HAL_Driver/Src/stm32f4xx_hal_dma.c ****       /* Process Unlocked */
 530:../Drivers/STM32F4xx_HAL_Driver/Src/stm32f4xx_hal_dma.c ****       __HAL_UNLOCK(hdma);
 531:../Drivers/STM32F4xx_HAL_Driver/Src/stm32f4xx_hal_dma.c **** 
 532:../Drivers/STM32F4xx_HAL_Driver/Src/stm32f4xx_hal_dma.c ****       return HAL_ERROR;
 533:../Drivers/STM32F4xx_HAL_Driver/Src/stm32f4xx_hal_dma.c ****     }  
 534:../Drivers/STM32F4xx_HAL_Driver/Src/stm32f4xx_hal_dma.c ****     /* Check for the Timeout */
 535:../Drivers/STM32F4xx_HAL_Driver/Src/stm32f4xx_hal_dma.c ****     if(Timeout != HAL_MAX_DELAY)
 536:../Drivers/STM32F4xx_HAL_Driver/Src/stm32f4xx_hal_dma.c ****     {
 537:../Drivers/STM32F4xx_HAL_Driver/Src/stm32f4xx_hal_dma.c ****       if((Timeout == 0)||((HAL_GetTick() - tickstart ) > Timeout))
 538:../Drivers/STM32F4xx_HAL_Driver/Src/stm32f4xx_hal_dma.c ****       {
 539:../Drivers/STM32F4xx_HAL_Driver/Src/stm32f4xx_hal_dma.c ****         /* Update error code */
 540:../Drivers/STM32F4xx_HAL_Driver/Src/stm32f4xx_hal_dma.c ****         hdma->ErrorCode |= HAL_DMA_ERROR_TIMEOUT;
 541:../Drivers/STM32F4xx_HAL_Driver/Src/stm32f4xx_hal_dma.c **** 
 542:../Drivers/STM32F4xx_HAL_Driver/Src/stm32f4xx_hal_dma.c ****         /* Change the DMA state */
 543:../Drivers/STM32F4xx_HAL_Driver/Src/stm32f4xx_hal_dma.c ****         hdma->State = HAL_DMA_STATE_TIMEOUT;
ARM GAS  /tmp/ccIvKYQX.s 			page 11


 544:../Drivers/STM32F4xx_HAL_Driver/Src/stm32f4xx_hal_dma.c **** 
 545:../Drivers/STM32F4xx_HAL_Driver/Src/stm32f4xx_hal_dma.c ****         /* Process Unlocked */
 546:../Drivers/STM32F4xx_HAL_Driver/Src/stm32f4xx_hal_dma.c ****         __HAL_UNLOCK(hdma);
 547:../Drivers/STM32F4xx_HAL_Driver/Src/stm32f4xx_hal_dma.c ****         
 548:../Drivers/STM32F4xx_HAL_Driver/Src/stm32f4xx_hal_dma.c ****         return HAL_TIMEOUT;
 549:../Drivers/STM32F4xx_HAL_Driver/Src/stm32f4xx_hal_dma.c ****       }
 550:../Drivers/STM32F4xx_HAL_Driver/Src/stm32f4xx_hal_dma.c ****     }
 551:../Drivers/STM32F4xx_HAL_Driver/Src/stm32f4xx_hal_dma.c ****   }
 552:../Drivers/STM32F4xx_HAL_Driver/Src/stm32f4xx_hal_dma.c **** 
 553:../Drivers/STM32F4xx_HAL_Driver/Src/stm32f4xx_hal_dma.c ****   if(CompleteLevel == HAL_DMA_FULL_TRANSFER)
 554:../Drivers/STM32F4xx_HAL_Driver/Src/stm32f4xx_hal_dma.c ****   {
 555:../Drivers/STM32F4xx_HAL_Driver/Src/stm32f4xx_hal_dma.c ****     /* Multi_Buffering mode enabled */
 556:../Drivers/STM32F4xx_HAL_Driver/Src/stm32f4xx_hal_dma.c ****     if(((hdma->Instance->CR) & (uint32_t)(DMA_SxCR_DBM)) != 0)
 557:../Drivers/STM32F4xx_HAL_Driver/Src/stm32f4xx_hal_dma.c ****     {
 558:../Drivers/STM32F4xx_HAL_Driver/Src/stm32f4xx_hal_dma.c ****       /* Clear the half transfer complete flag */
 559:../Drivers/STM32F4xx_HAL_Driver/Src/stm32f4xx_hal_dma.c ****       __HAL_DMA_CLEAR_FLAG(hdma, __HAL_DMA_GET_HT_FLAG_INDEX(hdma));
 560:../Drivers/STM32F4xx_HAL_Driver/Src/stm32f4xx_hal_dma.c ****       /* Clear the transfer complete flag */
 561:../Drivers/STM32F4xx_HAL_Driver/Src/stm32f4xx_hal_dma.c ****       __HAL_DMA_CLEAR_FLAG(hdma, __HAL_DMA_GET_TC_FLAG_INDEX(hdma));
 562:../Drivers/STM32F4xx_HAL_Driver/Src/stm32f4xx_hal_dma.c **** 
 563:../Drivers/STM32F4xx_HAL_Driver/Src/stm32f4xx_hal_dma.c ****       /* Current memory buffer used is Memory 0 */
 564:../Drivers/STM32F4xx_HAL_Driver/Src/stm32f4xx_hal_dma.c ****       if((hdma->Instance->CR & DMA_SxCR_CT) == 0)
 565:../Drivers/STM32F4xx_HAL_Driver/Src/stm32f4xx_hal_dma.c ****       {
 566:../Drivers/STM32F4xx_HAL_Driver/Src/stm32f4xx_hal_dma.c ****         /* Change DMA peripheral state */
 567:../Drivers/STM32F4xx_HAL_Driver/Src/stm32f4xx_hal_dma.c ****         hdma->State = HAL_DMA_STATE_READY_MEM0;
 568:../Drivers/STM32F4xx_HAL_Driver/Src/stm32f4xx_hal_dma.c ****       }
 569:../Drivers/STM32F4xx_HAL_Driver/Src/stm32f4xx_hal_dma.c ****       /* Current memory buffer used is Memory 1 */
 570:../Drivers/STM32F4xx_HAL_Driver/Src/stm32f4xx_hal_dma.c ****       else if((hdma->Instance->CR & DMA_SxCR_CT) != 0)
 571:../Drivers/STM32F4xx_HAL_Driver/Src/stm32f4xx_hal_dma.c ****       {
 572:../Drivers/STM32F4xx_HAL_Driver/Src/stm32f4xx_hal_dma.c ****         /* Change DMA peripheral state */
 573:../Drivers/STM32F4xx_HAL_Driver/Src/stm32f4xx_hal_dma.c ****         hdma->State = HAL_DMA_STATE_READY_MEM1;
 574:../Drivers/STM32F4xx_HAL_Driver/Src/stm32f4xx_hal_dma.c ****       }
 575:../Drivers/STM32F4xx_HAL_Driver/Src/stm32f4xx_hal_dma.c ****     }
 576:../Drivers/STM32F4xx_HAL_Driver/Src/stm32f4xx_hal_dma.c ****     else
 577:../Drivers/STM32F4xx_HAL_Driver/Src/stm32f4xx_hal_dma.c ****     {
 578:../Drivers/STM32F4xx_HAL_Driver/Src/stm32f4xx_hal_dma.c ****       /* Clear the half transfer complete flag */
 579:../Drivers/STM32F4xx_HAL_Driver/Src/stm32f4xx_hal_dma.c ****       __HAL_DMA_CLEAR_FLAG(hdma, __HAL_DMA_GET_HT_FLAG_INDEX(hdma));
 580:../Drivers/STM32F4xx_HAL_Driver/Src/stm32f4xx_hal_dma.c ****       /* Clear the transfer complete flag */
 581:../Drivers/STM32F4xx_HAL_Driver/Src/stm32f4xx_hal_dma.c ****       __HAL_DMA_CLEAR_FLAG(hdma, __HAL_DMA_GET_TC_FLAG_INDEX(hdma)); 
 582:../Drivers/STM32F4xx_HAL_Driver/Src/stm32f4xx_hal_dma.c **** 
 583:../Drivers/STM32F4xx_HAL_Driver/Src/stm32f4xx_hal_dma.c ****       /* The selected Streamx EN bit is cleared (DMA is disabled and all transfers
 584:../Drivers/STM32F4xx_HAL_Driver/Src/stm32f4xx_hal_dma.c ****          are complete) */
 585:../Drivers/STM32F4xx_HAL_Driver/Src/stm32f4xx_hal_dma.c ****       hdma->State = HAL_DMA_STATE_READY_MEM0;
 586:../Drivers/STM32F4xx_HAL_Driver/Src/stm32f4xx_hal_dma.c ****     }
 587:../Drivers/STM32F4xx_HAL_Driver/Src/stm32f4xx_hal_dma.c ****     /* Process Unlocked */
 588:../Drivers/STM32F4xx_HAL_Driver/Src/stm32f4xx_hal_dma.c ****     __HAL_UNLOCK(hdma);
 589:../Drivers/STM32F4xx_HAL_Driver/Src/stm32f4xx_hal_dma.c ****   }
 590:../Drivers/STM32F4xx_HAL_Driver/Src/stm32f4xx_hal_dma.c ****   else
 591:../Drivers/STM32F4xx_HAL_Driver/Src/stm32f4xx_hal_dma.c ****   { 
 592:../Drivers/STM32F4xx_HAL_Driver/Src/stm32f4xx_hal_dma.c ****     /* Multi_Buffering mode enabled */
 593:../Drivers/STM32F4xx_HAL_Driver/Src/stm32f4xx_hal_dma.c ****     if(((hdma->Instance->CR) & (uint32_t)(DMA_SxCR_DBM)) != 0)
 594:../Drivers/STM32F4xx_HAL_Driver/Src/stm32f4xx_hal_dma.c ****     {
 595:../Drivers/STM32F4xx_HAL_Driver/Src/stm32f4xx_hal_dma.c ****       /* Clear the half transfer complete flag */
 596:../Drivers/STM32F4xx_HAL_Driver/Src/stm32f4xx_hal_dma.c ****       __HAL_DMA_CLEAR_FLAG(hdma, __HAL_DMA_GET_HT_FLAG_INDEX(hdma));
 597:../Drivers/STM32F4xx_HAL_Driver/Src/stm32f4xx_hal_dma.c **** 
 598:../Drivers/STM32F4xx_HAL_Driver/Src/stm32f4xx_hal_dma.c ****       /* Current memory buffer used is Memory 0 */
 599:../Drivers/STM32F4xx_HAL_Driver/Src/stm32f4xx_hal_dma.c ****       if((hdma->Instance->CR & DMA_SxCR_CT) == 0)
 600:../Drivers/STM32F4xx_HAL_Driver/Src/stm32f4xx_hal_dma.c ****       {
ARM GAS  /tmp/ccIvKYQX.s 			page 12


 601:../Drivers/STM32F4xx_HAL_Driver/Src/stm32f4xx_hal_dma.c ****         /* Change DMA peripheral state */
 602:../Drivers/STM32F4xx_HAL_Driver/Src/stm32f4xx_hal_dma.c ****         hdma->State = HAL_DMA_STATE_READY_HALF_MEM0;
 603:../Drivers/STM32F4xx_HAL_Driver/Src/stm32f4xx_hal_dma.c ****       }
 604:../Drivers/STM32F4xx_HAL_Driver/Src/stm32f4xx_hal_dma.c ****       /* Current memory buffer used is Memory 1 */
 605:../Drivers/STM32F4xx_HAL_Driver/Src/stm32f4xx_hal_dma.c ****       else if((hdma->Instance->CR & DMA_SxCR_CT) != 0)
 606:../Drivers/STM32F4xx_HAL_Driver/Src/stm32f4xx_hal_dma.c ****       {
 607:../Drivers/STM32F4xx_HAL_Driver/Src/stm32f4xx_hal_dma.c ****         /* Change DMA peripheral state */
 608:../Drivers/STM32F4xx_HAL_Driver/Src/stm32f4xx_hal_dma.c ****         hdma->State = HAL_DMA_STATE_READY_HALF_MEM1;
 609:../Drivers/STM32F4xx_HAL_Driver/Src/stm32f4xx_hal_dma.c ****       }
 610:../Drivers/STM32F4xx_HAL_Driver/Src/stm32f4xx_hal_dma.c ****     }
 611:../Drivers/STM32F4xx_HAL_Driver/Src/stm32f4xx_hal_dma.c ****     else
 612:../Drivers/STM32F4xx_HAL_Driver/Src/stm32f4xx_hal_dma.c ****     {
 613:../Drivers/STM32F4xx_HAL_Driver/Src/stm32f4xx_hal_dma.c ****       /* Clear the half transfer complete flag */
 614:../Drivers/STM32F4xx_HAL_Driver/Src/stm32f4xx_hal_dma.c ****       __HAL_DMA_CLEAR_FLAG(hdma, __HAL_DMA_GET_HT_FLAG_INDEX(hdma));
 615:../Drivers/STM32F4xx_HAL_Driver/Src/stm32f4xx_hal_dma.c **** 
 616:../Drivers/STM32F4xx_HAL_Driver/Src/stm32f4xx_hal_dma.c ****       /* Change DMA peripheral state */
 617:../Drivers/STM32F4xx_HAL_Driver/Src/stm32f4xx_hal_dma.c ****       hdma->State = HAL_DMA_STATE_READY_HALF_MEM0;
 618:../Drivers/STM32F4xx_HAL_Driver/Src/stm32f4xx_hal_dma.c ****     }
 619:../Drivers/STM32F4xx_HAL_Driver/Src/stm32f4xx_hal_dma.c ****   }
 620:../Drivers/STM32F4xx_HAL_Driver/Src/stm32f4xx_hal_dma.c ****   return HAL_OK;
 621:../Drivers/STM32F4xx_HAL_Driver/Src/stm32f4xx_hal_dma.c **** }
 622:../Drivers/STM32F4xx_HAL_Driver/Src/stm32f4xx_hal_dma.c **** 
 623:../Drivers/STM32F4xx_HAL_Driver/Src/stm32f4xx_hal_dma.c **** /**
 624:../Drivers/STM32F4xx_HAL_Driver/Src/stm32f4xx_hal_dma.c ****   * @brief  Handles DMA interrupt request.
 625:../Drivers/STM32F4xx_HAL_Driver/Src/stm32f4xx_hal_dma.c ****   * @param  hdma: pointer to a DMA_HandleTypeDef structure that contains
 626:../Drivers/STM32F4xx_HAL_Driver/Src/stm32f4xx_hal_dma.c ****   *               the configuration information for the specified DMA Stream.  
 627:../Drivers/STM32F4xx_HAL_Driver/Src/stm32f4xx_hal_dma.c ****   * @retval None
 628:../Drivers/STM32F4xx_HAL_Driver/Src/stm32f4xx_hal_dma.c ****   */
 629:../Drivers/STM32F4xx_HAL_Driver/Src/stm32f4xx_hal_dma.c **** void HAL_DMA_IRQHandler(DMA_HandleTypeDef *hdma)
 630:../Drivers/STM32F4xx_HAL_Driver/Src/stm32f4xx_hal_dma.c **** {
 631:../Drivers/STM32F4xx_HAL_Driver/Src/stm32f4xx_hal_dma.c ****   /* Transfer Error Interrupt management ***************************************/
 632:../Drivers/STM32F4xx_HAL_Driver/Src/stm32f4xx_hal_dma.c ****   if(__HAL_DMA_GET_FLAG(hdma, __HAL_DMA_GET_TE_FLAG_INDEX(hdma)) != RESET)
 633:../Drivers/STM32F4xx_HAL_Driver/Src/stm32f4xx_hal_dma.c ****   {
 634:../Drivers/STM32F4xx_HAL_Driver/Src/stm32f4xx_hal_dma.c ****     if(__HAL_DMA_GET_IT_SOURCE(hdma, DMA_IT_TE) != RESET)
 635:../Drivers/STM32F4xx_HAL_Driver/Src/stm32f4xx_hal_dma.c ****     {
 636:../Drivers/STM32F4xx_HAL_Driver/Src/stm32f4xx_hal_dma.c ****       /* Disable the transfer error interrupt */
 637:../Drivers/STM32F4xx_HAL_Driver/Src/stm32f4xx_hal_dma.c ****       __HAL_DMA_DISABLE_IT(hdma, DMA_IT_TE);
 638:../Drivers/STM32F4xx_HAL_Driver/Src/stm32f4xx_hal_dma.c **** 
 639:../Drivers/STM32F4xx_HAL_Driver/Src/stm32f4xx_hal_dma.c ****       /* Clear the transfer error flag */
 640:../Drivers/STM32F4xx_HAL_Driver/Src/stm32f4xx_hal_dma.c ****       __HAL_DMA_CLEAR_FLAG(hdma, __HAL_DMA_GET_TE_FLAG_INDEX(hdma));
 641:../Drivers/STM32F4xx_HAL_Driver/Src/stm32f4xx_hal_dma.c **** 
 642:../Drivers/STM32F4xx_HAL_Driver/Src/stm32f4xx_hal_dma.c ****       /* Update error code */
 643:../Drivers/STM32F4xx_HAL_Driver/Src/stm32f4xx_hal_dma.c ****       hdma->ErrorCode |= HAL_DMA_ERROR_TE;
 644:../Drivers/STM32F4xx_HAL_Driver/Src/stm32f4xx_hal_dma.c **** 
 645:../Drivers/STM32F4xx_HAL_Driver/Src/stm32f4xx_hal_dma.c ****       /* Change the DMA state */
 646:../Drivers/STM32F4xx_HAL_Driver/Src/stm32f4xx_hal_dma.c ****       hdma->State = HAL_DMA_STATE_ERROR;
 647:../Drivers/STM32F4xx_HAL_Driver/Src/stm32f4xx_hal_dma.c **** 
 648:../Drivers/STM32F4xx_HAL_Driver/Src/stm32f4xx_hal_dma.c ****       /* Process Unlocked */
 649:../Drivers/STM32F4xx_HAL_Driver/Src/stm32f4xx_hal_dma.c ****       __HAL_UNLOCK(hdma); 
 650:../Drivers/STM32F4xx_HAL_Driver/Src/stm32f4xx_hal_dma.c **** 
 651:../Drivers/STM32F4xx_HAL_Driver/Src/stm32f4xx_hal_dma.c ****       if(hdma->XferErrorCallback != NULL)
 652:../Drivers/STM32F4xx_HAL_Driver/Src/stm32f4xx_hal_dma.c ****       {
 653:../Drivers/STM32F4xx_HAL_Driver/Src/stm32f4xx_hal_dma.c ****         /* Transfer error callback */
 654:../Drivers/STM32F4xx_HAL_Driver/Src/stm32f4xx_hal_dma.c ****         hdma->XferErrorCallback(hdma);
 655:../Drivers/STM32F4xx_HAL_Driver/Src/stm32f4xx_hal_dma.c ****       }
 656:../Drivers/STM32F4xx_HAL_Driver/Src/stm32f4xx_hal_dma.c ****     }
 657:../Drivers/STM32F4xx_HAL_Driver/Src/stm32f4xx_hal_dma.c ****   }
ARM GAS  /tmp/ccIvKYQX.s 			page 13


 658:../Drivers/STM32F4xx_HAL_Driver/Src/stm32f4xx_hal_dma.c ****   /* FIFO Error Interrupt management ******************************************/
 659:../Drivers/STM32F4xx_HAL_Driver/Src/stm32f4xx_hal_dma.c ****   if(__HAL_DMA_GET_FLAG(hdma, __HAL_DMA_GET_FE_FLAG_INDEX(hdma)) != RESET)
 660:../Drivers/STM32F4xx_HAL_Driver/Src/stm32f4xx_hal_dma.c ****   {
 661:../Drivers/STM32F4xx_HAL_Driver/Src/stm32f4xx_hal_dma.c ****     if(__HAL_DMA_GET_IT_SOURCE(hdma, DMA_IT_FE) != RESET)
 662:../Drivers/STM32F4xx_HAL_Driver/Src/stm32f4xx_hal_dma.c ****     {
 663:../Drivers/STM32F4xx_HAL_Driver/Src/stm32f4xx_hal_dma.c ****       /* Disable the FIFO Error interrupt */
 664:../Drivers/STM32F4xx_HAL_Driver/Src/stm32f4xx_hal_dma.c ****       __HAL_DMA_DISABLE_IT(hdma, DMA_IT_FE);
 665:../Drivers/STM32F4xx_HAL_Driver/Src/stm32f4xx_hal_dma.c **** 
 666:../Drivers/STM32F4xx_HAL_Driver/Src/stm32f4xx_hal_dma.c ****       /* Clear the FIFO error flag */
 667:../Drivers/STM32F4xx_HAL_Driver/Src/stm32f4xx_hal_dma.c ****       __HAL_DMA_CLEAR_FLAG(hdma, __HAL_DMA_GET_FE_FLAG_INDEX(hdma));
 668:../Drivers/STM32F4xx_HAL_Driver/Src/stm32f4xx_hal_dma.c **** 
 669:../Drivers/STM32F4xx_HAL_Driver/Src/stm32f4xx_hal_dma.c ****       /* Update error code */
 670:../Drivers/STM32F4xx_HAL_Driver/Src/stm32f4xx_hal_dma.c ****       hdma->ErrorCode |= HAL_DMA_ERROR_FE;
 671:../Drivers/STM32F4xx_HAL_Driver/Src/stm32f4xx_hal_dma.c **** 
 672:../Drivers/STM32F4xx_HAL_Driver/Src/stm32f4xx_hal_dma.c ****       /* Change the DMA state */
 673:../Drivers/STM32F4xx_HAL_Driver/Src/stm32f4xx_hal_dma.c ****       hdma->State = HAL_DMA_STATE_ERROR;
 674:../Drivers/STM32F4xx_HAL_Driver/Src/stm32f4xx_hal_dma.c **** 
 675:../Drivers/STM32F4xx_HAL_Driver/Src/stm32f4xx_hal_dma.c ****       /* Process Unlocked */
 676:../Drivers/STM32F4xx_HAL_Driver/Src/stm32f4xx_hal_dma.c ****       __HAL_UNLOCK(hdma);
 677:../Drivers/STM32F4xx_HAL_Driver/Src/stm32f4xx_hal_dma.c **** 
 678:../Drivers/STM32F4xx_HAL_Driver/Src/stm32f4xx_hal_dma.c ****       if(hdma->XferErrorCallback != NULL)
 679:../Drivers/STM32F4xx_HAL_Driver/Src/stm32f4xx_hal_dma.c ****       {
 680:../Drivers/STM32F4xx_HAL_Driver/Src/stm32f4xx_hal_dma.c ****         /* Transfer error callback */
 681:../Drivers/STM32F4xx_HAL_Driver/Src/stm32f4xx_hal_dma.c ****         hdma->XferErrorCallback(hdma);
 682:../Drivers/STM32F4xx_HAL_Driver/Src/stm32f4xx_hal_dma.c ****       }
 683:../Drivers/STM32F4xx_HAL_Driver/Src/stm32f4xx_hal_dma.c ****     }
 684:../Drivers/STM32F4xx_HAL_Driver/Src/stm32f4xx_hal_dma.c ****   }
 685:../Drivers/STM32F4xx_HAL_Driver/Src/stm32f4xx_hal_dma.c ****   /* Direct Mode Error Interrupt management ***********************************/
 686:../Drivers/STM32F4xx_HAL_Driver/Src/stm32f4xx_hal_dma.c ****   if(__HAL_DMA_GET_FLAG(hdma, __HAL_DMA_GET_DME_FLAG_INDEX(hdma)) != RESET)
 687:../Drivers/STM32F4xx_HAL_Driver/Src/stm32f4xx_hal_dma.c ****   {
 688:../Drivers/STM32F4xx_HAL_Driver/Src/stm32f4xx_hal_dma.c ****     if(__HAL_DMA_GET_IT_SOURCE(hdma, DMA_IT_DME) != RESET)
 689:../Drivers/STM32F4xx_HAL_Driver/Src/stm32f4xx_hal_dma.c ****     {
 690:../Drivers/STM32F4xx_HAL_Driver/Src/stm32f4xx_hal_dma.c ****       /* Disable the direct mode Error interrupt */
 691:../Drivers/STM32F4xx_HAL_Driver/Src/stm32f4xx_hal_dma.c ****       __HAL_DMA_DISABLE_IT(hdma, DMA_IT_DME);
 692:../Drivers/STM32F4xx_HAL_Driver/Src/stm32f4xx_hal_dma.c **** 
 693:../Drivers/STM32F4xx_HAL_Driver/Src/stm32f4xx_hal_dma.c ****       /* Clear the direct mode error flag */
 694:../Drivers/STM32F4xx_HAL_Driver/Src/stm32f4xx_hal_dma.c ****       __HAL_DMA_CLEAR_FLAG(hdma, __HAL_DMA_GET_DME_FLAG_INDEX(hdma));
 695:../Drivers/STM32F4xx_HAL_Driver/Src/stm32f4xx_hal_dma.c **** 
 696:../Drivers/STM32F4xx_HAL_Driver/Src/stm32f4xx_hal_dma.c ****       /* Update error code */
 697:../Drivers/STM32F4xx_HAL_Driver/Src/stm32f4xx_hal_dma.c ****       hdma->ErrorCode |= HAL_DMA_ERROR_DME;
 698:../Drivers/STM32F4xx_HAL_Driver/Src/stm32f4xx_hal_dma.c **** 
 699:../Drivers/STM32F4xx_HAL_Driver/Src/stm32f4xx_hal_dma.c ****       /* Change the DMA state */
 700:../Drivers/STM32F4xx_HAL_Driver/Src/stm32f4xx_hal_dma.c ****       hdma->State = HAL_DMA_STATE_ERROR;
 701:../Drivers/STM32F4xx_HAL_Driver/Src/stm32f4xx_hal_dma.c **** 
 702:../Drivers/STM32F4xx_HAL_Driver/Src/stm32f4xx_hal_dma.c ****       /* Process Unlocked */
 703:../Drivers/STM32F4xx_HAL_Driver/Src/stm32f4xx_hal_dma.c ****       __HAL_UNLOCK(hdma);
 704:../Drivers/STM32F4xx_HAL_Driver/Src/stm32f4xx_hal_dma.c **** 
 705:../Drivers/STM32F4xx_HAL_Driver/Src/stm32f4xx_hal_dma.c ****       if(hdma->XferErrorCallback != NULL)
 706:../Drivers/STM32F4xx_HAL_Driver/Src/stm32f4xx_hal_dma.c ****       {
 707:../Drivers/STM32F4xx_HAL_Driver/Src/stm32f4xx_hal_dma.c ****         /* Transfer error callback */
 708:../Drivers/STM32F4xx_HAL_Driver/Src/stm32f4xx_hal_dma.c ****         hdma->XferErrorCallback(hdma);
 709:../Drivers/STM32F4xx_HAL_Driver/Src/stm32f4xx_hal_dma.c ****       }
 710:../Drivers/STM32F4xx_HAL_Driver/Src/stm32f4xx_hal_dma.c ****     }
 711:../Drivers/STM32F4xx_HAL_Driver/Src/stm32f4xx_hal_dma.c ****   }
 712:../Drivers/STM32F4xx_HAL_Driver/Src/stm32f4xx_hal_dma.c ****   /* Half Transfer Complete Interrupt management ******************************/
 713:../Drivers/STM32F4xx_HAL_Driver/Src/stm32f4xx_hal_dma.c ****   if(__HAL_DMA_GET_FLAG(hdma, __HAL_DMA_GET_HT_FLAG_INDEX(hdma)) != RESET)
 714:../Drivers/STM32F4xx_HAL_Driver/Src/stm32f4xx_hal_dma.c ****   {
ARM GAS  /tmp/ccIvKYQX.s 			page 14


 715:../Drivers/STM32F4xx_HAL_Driver/Src/stm32f4xx_hal_dma.c ****     if(__HAL_DMA_GET_IT_SOURCE(hdma, DMA_IT_HT) != RESET)
 716:../Drivers/STM32F4xx_HAL_Driver/Src/stm32f4xx_hal_dma.c ****     { 
 717:../Drivers/STM32F4xx_HAL_Driver/Src/stm32f4xx_hal_dma.c ****       /* Multi_Buffering mode enabled */
 718:../Drivers/STM32F4xx_HAL_Driver/Src/stm32f4xx_hal_dma.c ****       if(((hdma->Instance->CR) & (uint32_t)(DMA_SxCR_DBM)) != 0)
 719:../Drivers/STM32F4xx_HAL_Driver/Src/stm32f4xx_hal_dma.c ****       {
 720:../Drivers/STM32F4xx_HAL_Driver/Src/stm32f4xx_hal_dma.c ****         /* Clear the half transfer complete flag */
 721:../Drivers/STM32F4xx_HAL_Driver/Src/stm32f4xx_hal_dma.c ****         __HAL_DMA_CLEAR_FLAG(hdma, __HAL_DMA_GET_HT_FLAG_INDEX(hdma));
 722:../Drivers/STM32F4xx_HAL_Driver/Src/stm32f4xx_hal_dma.c **** 
 723:../Drivers/STM32F4xx_HAL_Driver/Src/stm32f4xx_hal_dma.c ****         /* Current memory buffer used is Memory 0 */
 724:../Drivers/STM32F4xx_HAL_Driver/Src/stm32f4xx_hal_dma.c ****         if((hdma->Instance->CR & DMA_SxCR_CT) == 0)
 725:../Drivers/STM32F4xx_HAL_Driver/Src/stm32f4xx_hal_dma.c ****         {
 726:../Drivers/STM32F4xx_HAL_Driver/Src/stm32f4xx_hal_dma.c ****           /* Change DMA peripheral state */
 727:../Drivers/STM32F4xx_HAL_Driver/Src/stm32f4xx_hal_dma.c ****           hdma->State = HAL_DMA_STATE_READY_HALF_MEM0;
 728:../Drivers/STM32F4xx_HAL_Driver/Src/stm32f4xx_hal_dma.c ****         }
 729:../Drivers/STM32F4xx_HAL_Driver/Src/stm32f4xx_hal_dma.c ****         /* Current memory buffer used is Memory 1 */
 730:../Drivers/STM32F4xx_HAL_Driver/Src/stm32f4xx_hal_dma.c ****         else if((hdma->Instance->CR & DMA_SxCR_CT) != 0)
 731:../Drivers/STM32F4xx_HAL_Driver/Src/stm32f4xx_hal_dma.c ****         {
 732:../Drivers/STM32F4xx_HAL_Driver/Src/stm32f4xx_hal_dma.c ****           /* Change DMA peripheral state */
 733:../Drivers/STM32F4xx_HAL_Driver/Src/stm32f4xx_hal_dma.c ****           hdma->State = HAL_DMA_STATE_READY_HALF_MEM1;
 734:../Drivers/STM32F4xx_HAL_Driver/Src/stm32f4xx_hal_dma.c ****         }
 735:../Drivers/STM32F4xx_HAL_Driver/Src/stm32f4xx_hal_dma.c ****       }
 736:../Drivers/STM32F4xx_HAL_Driver/Src/stm32f4xx_hal_dma.c ****       else
 737:../Drivers/STM32F4xx_HAL_Driver/Src/stm32f4xx_hal_dma.c ****       {
 738:../Drivers/STM32F4xx_HAL_Driver/Src/stm32f4xx_hal_dma.c ****         /* Disable the half transfer interrupt if the DMA mode is not CIRCULAR */
 739:../Drivers/STM32F4xx_HAL_Driver/Src/stm32f4xx_hal_dma.c ****         if((hdma->Instance->CR & DMA_SxCR_CIRC) == 0)
 740:../Drivers/STM32F4xx_HAL_Driver/Src/stm32f4xx_hal_dma.c ****         {
 741:../Drivers/STM32F4xx_HAL_Driver/Src/stm32f4xx_hal_dma.c ****           /* Disable the half transfer interrupt */
 742:../Drivers/STM32F4xx_HAL_Driver/Src/stm32f4xx_hal_dma.c ****           __HAL_DMA_DISABLE_IT(hdma, DMA_IT_HT);
 743:../Drivers/STM32F4xx_HAL_Driver/Src/stm32f4xx_hal_dma.c ****         }
 744:../Drivers/STM32F4xx_HAL_Driver/Src/stm32f4xx_hal_dma.c ****         /* Clear the half transfer complete flag */
 745:../Drivers/STM32F4xx_HAL_Driver/Src/stm32f4xx_hal_dma.c ****         __HAL_DMA_CLEAR_FLAG(hdma, __HAL_DMA_GET_HT_FLAG_INDEX(hdma));
 746:../Drivers/STM32F4xx_HAL_Driver/Src/stm32f4xx_hal_dma.c **** 
 747:../Drivers/STM32F4xx_HAL_Driver/Src/stm32f4xx_hal_dma.c ****         /* Change DMA peripheral state */
 748:../Drivers/STM32F4xx_HAL_Driver/Src/stm32f4xx_hal_dma.c ****         hdma->State = HAL_DMA_STATE_READY_HALF_MEM0;
 749:../Drivers/STM32F4xx_HAL_Driver/Src/stm32f4xx_hal_dma.c ****       }
 750:../Drivers/STM32F4xx_HAL_Driver/Src/stm32f4xx_hal_dma.c **** 
 751:../Drivers/STM32F4xx_HAL_Driver/Src/stm32f4xx_hal_dma.c ****       if(hdma->XferHalfCpltCallback != NULL)
 752:../Drivers/STM32F4xx_HAL_Driver/Src/stm32f4xx_hal_dma.c ****       {
 753:../Drivers/STM32F4xx_HAL_Driver/Src/stm32f4xx_hal_dma.c ****         /* Half transfer callback */
 754:../Drivers/STM32F4xx_HAL_Driver/Src/stm32f4xx_hal_dma.c ****         hdma->XferHalfCpltCallback(hdma);
 755:../Drivers/STM32F4xx_HAL_Driver/Src/stm32f4xx_hal_dma.c ****       }
 756:../Drivers/STM32F4xx_HAL_Driver/Src/stm32f4xx_hal_dma.c ****     }
 757:../Drivers/STM32F4xx_HAL_Driver/Src/stm32f4xx_hal_dma.c ****   }
 758:../Drivers/STM32F4xx_HAL_Driver/Src/stm32f4xx_hal_dma.c ****   /* Transfer Complete Interrupt management ***********************************/
 759:../Drivers/STM32F4xx_HAL_Driver/Src/stm32f4xx_hal_dma.c ****   if(__HAL_DMA_GET_FLAG(hdma, __HAL_DMA_GET_TC_FLAG_INDEX(hdma)) != RESET)
 760:../Drivers/STM32F4xx_HAL_Driver/Src/stm32f4xx_hal_dma.c ****   {
 761:../Drivers/STM32F4xx_HAL_Driver/Src/stm32f4xx_hal_dma.c ****     if(__HAL_DMA_GET_IT_SOURCE(hdma, DMA_IT_TC) != RESET)
 762:../Drivers/STM32F4xx_HAL_Driver/Src/stm32f4xx_hal_dma.c ****     {
 763:../Drivers/STM32F4xx_HAL_Driver/Src/stm32f4xx_hal_dma.c ****       if(((hdma->Instance->CR) & (uint32_t)(DMA_SxCR_DBM)) != 0)
 764:../Drivers/STM32F4xx_HAL_Driver/Src/stm32f4xx_hal_dma.c ****       {
 765:../Drivers/STM32F4xx_HAL_Driver/Src/stm32f4xx_hal_dma.c ****         /* Clear the transfer complete flag */
 766:../Drivers/STM32F4xx_HAL_Driver/Src/stm32f4xx_hal_dma.c ****         __HAL_DMA_CLEAR_FLAG(hdma, __HAL_DMA_GET_TC_FLAG_INDEX(hdma));
 767:../Drivers/STM32F4xx_HAL_Driver/Src/stm32f4xx_hal_dma.c **** 
 768:../Drivers/STM32F4xx_HAL_Driver/Src/stm32f4xx_hal_dma.c ****         /* Current memory buffer used is Memory 1 */
 769:../Drivers/STM32F4xx_HAL_Driver/Src/stm32f4xx_hal_dma.c ****         if((hdma->Instance->CR & DMA_SxCR_CT) == 0)
 770:../Drivers/STM32F4xx_HAL_Driver/Src/stm32f4xx_hal_dma.c ****         {
 771:../Drivers/STM32F4xx_HAL_Driver/Src/stm32f4xx_hal_dma.c ****           if(hdma->XferM1CpltCallback != NULL)
ARM GAS  /tmp/ccIvKYQX.s 			page 15


 772:../Drivers/STM32F4xx_HAL_Driver/Src/stm32f4xx_hal_dma.c ****           {
 773:../Drivers/STM32F4xx_HAL_Driver/Src/stm32f4xx_hal_dma.c ****             /* Transfer complete Callback for memory1 */
 774:../Drivers/STM32F4xx_HAL_Driver/Src/stm32f4xx_hal_dma.c ****             hdma->XferM1CpltCallback(hdma);
 775:../Drivers/STM32F4xx_HAL_Driver/Src/stm32f4xx_hal_dma.c ****           }
 776:../Drivers/STM32F4xx_HAL_Driver/Src/stm32f4xx_hal_dma.c ****         }
 777:../Drivers/STM32F4xx_HAL_Driver/Src/stm32f4xx_hal_dma.c ****         /* Current memory buffer used is Memory 0 */
 778:../Drivers/STM32F4xx_HAL_Driver/Src/stm32f4xx_hal_dma.c ****         else if((hdma->Instance->CR & DMA_SxCR_CT) != 0) 
 779:../Drivers/STM32F4xx_HAL_Driver/Src/stm32f4xx_hal_dma.c ****         {
 780:../Drivers/STM32F4xx_HAL_Driver/Src/stm32f4xx_hal_dma.c ****           if(hdma->XferCpltCallback != NULL)
 781:../Drivers/STM32F4xx_HAL_Driver/Src/stm32f4xx_hal_dma.c ****           {
 782:../Drivers/STM32F4xx_HAL_Driver/Src/stm32f4xx_hal_dma.c ****             /* Transfer complete Callback for memory0 */
 783:../Drivers/STM32F4xx_HAL_Driver/Src/stm32f4xx_hal_dma.c ****             hdma->XferCpltCallback(hdma);
 784:../Drivers/STM32F4xx_HAL_Driver/Src/stm32f4xx_hal_dma.c ****           }
 785:../Drivers/STM32F4xx_HAL_Driver/Src/stm32f4xx_hal_dma.c ****         }
 786:../Drivers/STM32F4xx_HAL_Driver/Src/stm32f4xx_hal_dma.c ****       }
 787:../Drivers/STM32F4xx_HAL_Driver/Src/stm32f4xx_hal_dma.c ****       /* Disable the transfer complete interrupt if the DMA mode is not CIRCULAR */
 788:../Drivers/STM32F4xx_HAL_Driver/Src/stm32f4xx_hal_dma.c ****       else
 789:../Drivers/STM32F4xx_HAL_Driver/Src/stm32f4xx_hal_dma.c ****       {
 790:../Drivers/STM32F4xx_HAL_Driver/Src/stm32f4xx_hal_dma.c ****         if((hdma->Instance->CR & DMA_SxCR_CIRC) == 0)
 791:../Drivers/STM32F4xx_HAL_Driver/Src/stm32f4xx_hal_dma.c ****         {
 792:../Drivers/STM32F4xx_HAL_Driver/Src/stm32f4xx_hal_dma.c ****           /* Disable the transfer complete interrupt */
 793:../Drivers/STM32F4xx_HAL_Driver/Src/stm32f4xx_hal_dma.c ****           __HAL_DMA_DISABLE_IT(hdma, DMA_IT_TC);
 794:../Drivers/STM32F4xx_HAL_Driver/Src/stm32f4xx_hal_dma.c ****         }
 795:../Drivers/STM32F4xx_HAL_Driver/Src/stm32f4xx_hal_dma.c ****         /* Clear the transfer complete flag */
 796:../Drivers/STM32F4xx_HAL_Driver/Src/stm32f4xx_hal_dma.c ****         __HAL_DMA_CLEAR_FLAG(hdma, __HAL_DMA_GET_TC_FLAG_INDEX(hdma));
 797:../Drivers/STM32F4xx_HAL_Driver/Src/stm32f4xx_hal_dma.c **** 
 798:../Drivers/STM32F4xx_HAL_Driver/Src/stm32f4xx_hal_dma.c ****         /* Update error code */
 799:../Drivers/STM32F4xx_HAL_Driver/Src/stm32f4xx_hal_dma.c ****         hdma->ErrorCode |= HAL_DMA_ERROR_NONE;
 800:../Drivers/STM32F4xx_HAL_Driver/Src/stm32f4xx_hal_dma.c **** 
 801:../Drivers/STM32F4xx_HAL_Driver/Src/stm32f4xx_hal_dma.c ****         /* Change the DMA state */
 802:../Drivers/STM32F4xx_HAL_Driver/Src/stm32f4xx_hal_dma.c ****         hdma->State = HAL_DMA_STATE_READY_MEM0;
 803:../Drivers/STM32F4xx_HAL_Driver/Src/stm32f4xx_hal_dma.c **** 
 804:../Drivers/STM32F4xx_HAL_Driver/Src/stm32f4xx_hal_dma.c ****         /* Process Unlocked */
 805:../Drivers/STM32F4xx_HAL_Driver/Src/stm32f4xx_hal_dma.c ****         __HAL_UNLOCK(hdma);      
 806:../Drivers/STM32F4xx_HAL_Driver/Src/stm32f4xx_hal_dma.c **** 
 807:../Drivers/STM32F4xx_HAL_Driver/Src/stm32f4xx_hal_dma.c ****         if(hdma->XferCpltCallback != NULL)
 808:../Drivers/STM32F4xx_HAL_Driver/Src/stm32f4xx_hal_dma.c ****         {
 809:../Drivers/STM32F4xx_HAL_Driver/Src/stm32f4xx_hal_dma.c ****           /* Transfer complete callback */
 810:../Drivers/STM32F4xx_HAL_Driver/Src/stm32f4xx_hal_dma.c ****           hdma->XferCpltCallback(hdma);
 811:../Drivers/STM32F4xx_HAL_Driver/Src/stm32f4xx_hal_dma.c ****         }
 812:../Drivers/STM32F4xx_HAL_Driver/Src/stm32f4xx_hal_dma.c ****       }
 813:../Drivers/STM32F4xx_HAL_Driver/Src/stm32f4xx_hal_dma.c ****     }
 814:../Drivers/STM32F4xx_HAL_Driver/Src/stm32f4xx_hal_dma.c ****   }
 815:../Drivers/STM32F4xx_HAL_Driver/Src/stm32f4xx_hal_dma.c **** }
 816:../Drivers/STM32F4xx_HAL_Driver/Src/stm32f4xx_hal_dma.c **** 
 817:../Drivers/STM32F4xx_HAL_Driver/Src/stm32f4xx_hal_dma.c **** /**
 818:../Drivers/STM32F4xx_HAL_Driver/Src/stm32f4xx_hal_dma.c ****   * @}
 819:../Drivers/STM32F4xx_HAL_Driver/Src/stm32f4xx_hal_dma.c ****   */
 820:../Drivers/STM32F4xx_HAL_Driver/Src/stm32f4xx_hal_dma.c **** 
 821:../Drivers/STM32F4xx_HAL_Driver/Src/stm32f4xx_hal_dma.c **** /** @defgroup DMA_Group3 Peripheral State functions
 822:../Drivers/STM32F4xx_HAL_Driver/Src/stm32f4xx_hal_dma.c ****  *  @brief    Peripheral State functions 
 823:../Drivers/STM32F4xx_HAL_Driver/Src/stm32f4xx_hal_dma.c ****  *
 824:../Drivers/STM32F4xx_HAL_Driver/Src/stm32f4xx_hal_dma.c **** @verbatim
 825:../Drivers/STM32F4xx_HAL_Driver/Src/stm32f4xx_hal_dma.c ****  ===============================================================================
 826:../Drivers/STM32F4xx_HAL_Driver/Src/stm32f4xx_hal_dma.c ****                     ##### State and Errors functions #####
 827:../Drivers/STM32F4xx_HAL_Driver/Src/stm32f4xx_hal_dma.c ****  ===============================================================================
 828:../Drivers/STM32F4xx_HAL_Driver/Src/stm32f4xx_hal_dma.c ****     [..]
ARM GAS  /tmp/ccIvKYQX.s 			page 16


 829:../Drivers/STM32F4xx_HAL_Driver/Src/stm32f4xx_hal_dma.c ****     This subsection provides functions allowing to
 830:../Drivers/STM32F4xx_HAL_Driver/Src/stm32f4xx_hal_dma.c ****       (+) Check the DMA state
 831:../Drivers/STM32F4xx_HAL_Driver/Src/stm32f4xx_hal_dma.c ****       (+) Get error code
 832:../Drivers/STM32F4xx_HAL_Driver/Src/stm32f4xx_hal_dma.c **** 
 833:../Drivers/STM32F4xx_HAL_Driver/Src/stm32f4xx_hal_dma.c **** @endverbatim
 834:../Drivers/STM32F4xx_HAL_Driver/Src/stm32f4xx_hal_dma.c ****   * @{
 835:../Drivers/STM32F4xx_HAL_Driver/Src/stm32f4xx_hal_dma.c ****   */
 836:../Drivers/STM32F4xx_HAL_Driver/Src/stm32f4xx_hal_dma.c **** 
 837:../Drivers/STM32F4xx_HAL_Driver/Src/stm32f4xx_hal_dma.c **** /**
 838:../Drivers/STM32F4xx_HAL_Driver/Src/stm32f4xx_hal_dma.c ****   * @brief  Returns the DMA state.
 839:../Drivers/STM32F4xx_HAL_Driver/Src/stm32f4xx_hal_dma.c ****   * @param  hdma: pointer to a DMA_HandleTypeDef structure that contains
 840:../Drivers/STM32F4xx_HAL_Driver/Src/stm32f4xx_hal_dma.c ****   *               the configuration information for the specified DMA Stream.
 841:../Drivers/STM32F4xx_HAL_Driver/Src/stm32f4xx_hal_dma.c ****   * @retval HAL state
 842:../Drivers/STM32F4xx_HAL_Driver/Src/stm32f4xx_hal_dma.c ****   */
 843:../Drivers/STM32F4xx_HAL_Driver/Src/stm32f4xx_hal_dma.c **** HAL_DMA_StateTypeDef HAL_DMA_GetState(DMA_HandleTypeDef *hdma)
 844:../Drivers/STM32F4xx_HAL_Driver/Src/stm32f4xx_hal_dma.c **** {
 845:../Drivers/STM32F4xx_HAL_Driver/Src/stm32f4xx_hal_dma.c ****   return hdma->State;
 846:../Drivers/STM32F4xx_HAL_Driver/Src/stm32f4xx_hal_dma.c **** }
 847:../Drivers/STM32F4xx_HAL_Driver/Src/stm32f4xx_hal_dma.c **** 
 848:../Drivers/STM32F4xx_HAL_Driver/Src/stm32f4xx_hal_dma.c **** /**
 849:../Drivers/STM32F4xx_HAL_Driver/Src/stm32f4xx_hal_dma.c ****   * @brief  Return the DMA error code
 850:../Drivers/STM32F4xx_HAL_Driver/Src/stm32f4xx_hal_dma.c ****   * @param  hdma : pointer to a DMA_HandleTypeDef structure that contains
 851:../Drivers/STM32F4xx_HAL_Driver/Src/stm32f4xx_hal_dma.c ****   *              the configuration information for the specified DMA Stream.
 852:../Drivers/STM32F4xx_HAL_Driver/Src/stm32f4xx_hal_dma.c ****   * @retval DMA Error Code
 853:../Drivers/STM32F4xx_HAL_Driver/Src/stm32f4xx_hal_dma.c ****   */
 854:../Drivers/STM32F4xx_HAL_Driver/Src/stm32f4xx_hal_dma.c **** uint32_t HAL_DMA_GetError(DMA_HandleTypeDef *hdma)
 855:../Drivers/STM32F4xx_HAL_Driver/Src/stm32f4xx_hal_dma.c **** {
 856:../Drivers/STM32F4xx_HAL_Driver/Src/stm32f4xx_hal_dma.c ****   return hdma->ErrorCode;
 857:../Drivers/STM32F4xx_HAL_Driver/Src/stm32f4xx_hal_dma.c **** }
 858:../Drivers/STM32F4xx_HAL_Driver/Src/stm32f4xx_hal_dma.c **** 
 859:../Drivers/STM32F4xx_HAL_Driver/Src/stm32f4xx_hal_dma.c **** /**
 860:../Drivers/STM32F4xx_HAL_Driver/Src/stm32f4xx_hal_dma.c ****   * @}
 861:../Drivers/STM32F4xx_HAL_Driver/Src/stm32f4xx_hal_dma.c ****   */
 862:../Drivers/STM32F4xx_HAL_Driver/Src/stm32f4xx_hal_dma.c **** 
 863:../Drivers/STM32F4xx_HAL_Driver/Src/stm32f4xx_hal_dma.c **** /**
 864:../Drivers/STM32F4xx_HAL_Driver/Src/stm32f4xx_hal_dma.c ****   * @brief  Sets the DMA Transfer parameter.
 865:../Drivers/STM32F4xx_HAL_Driver/Src/stm32f4xx_hal_dma.c ****   * @param  hdma:       pointer to a DMA_HandleTypeDef structure that contains
 866:../Drivers/STM32F4xx_HAL_Driver/Src/stm32f4xx_hal_dma.c ****   *                     the configuration information for the specified DMA Stream.
 867:../Drivers/STM32F4xx_HAL_Driver/Src/stm32f4xx_hal_dma.c ****   * @param  SrcAddress: The source memory Buffer address
 868:../Drivers/STM32F4xx_HAL_Driver/Src/stm32f4xx_hal_dma.c ****   * @param  DstAddress: The destination memory Buffer address
 869:../Drivers/STM32F4xx_HAL_Driver/Src/stm32f4xx_hal_dma.c ****   * @param  DataLength: The length of data to be transferred from source to destination
 870:../Drivers/STM32F4xx_HAL_Driver/Src/stm32f4xx_hal_dma.c ****   * @retval HAL status
 871:../Drivers/STM32F4xx_HAL_Driver/Src/stm32f4xx_hal_dma.c ****   */
 872:../Drivers/STM32F4xx_HAL_Driver/Src/stm32f4xx_hal_dma.c **** static void DMA_SetConfig(DMA_HandleTypeDef *hdma, uint32_t SrcAddress, uint32_t DstAddress, uint32
 873:../Drivers/STM32F4xx_HAL_Driver/Src/stm32f4xx_hal_dma.c **** {
  29              		.loc 1 873 0
  30              		.cfi_startproc
  31              		@ args = 0, pretend = 0, frame = 0
  32              		@ frame_needed = 0, uses_anonymous_args = 0
  33              		@ link register save eliminated.
  34              	.LVL0:
  35 0000 10B4     		push	{r4}
  36              	.LCFI0:
  37              		.cfi_def_cfa_offset 4
  38              		.cfi_offset 4, -4
 874:../Drivers/STM32F4xx_HAL_Driver/Src/stm32f4xx_hal_dma.c ****   /* Configure DMA Stream data length */
 875:../Drivers/STM32F4xx_HAL_Driver/Src/stm32f4xx_hal_dma.c ****   hdma->Instance->NDTR = DataLength;
ARM GAS  /tmp/ccIvKYQX.s 			page 17


  39              		.loc 1 875 0
  40 0002 0468     		ldr	r4, [r0]
  41 0004 6360     		str	r3, [r4, #4]
 876:../Drivers/STM32F4xx_HAL_Driver/Src/stm32f4xx_hal_dma.c **** 
 877:../Drivers/STM32F4xx_HAL_Driver/Src/stm32f4xx_hal_dma.c ****   /* Peripheral to Memory */
 878:../Drivers/STM32F4xx_HAL_Driver/Src/stm32f4xx_hal_dma.c ****   if((hdma->Init.Direction) == DMA_MEMORY_TO_PERIPH)
  42              		.loc 1 878 0
  43 0006 8368     		ldr	r3, [r0, #8]
  44              	.LVL1:
  45 0008 402B     		cmp	r3, #64
  46 000a 04D1     		bne	.L2
 879:../Drivers/STM32F4xx_HAL_Driver/Src/stm32f4xx_hal_dma.c ****   {
 880:../Drivers/STM32F4xx_HAL_Driver/Src/stm32f4xx_hal_dma.c ****     /* Configure DMA Stream destination address */
 881:../Drivers/STM32F4xx_HAL_Driver/Src/stm32f4xx_hal_dma.c ****     hdma->Instance->PAR = DstAddress;
  47              		.loc 1 881 0
  48 000c 0368     		ldr	r3, [r0]
  49 000e 9A60     		str	r2, [r3, #8]
  50              	.LVL2:
 882:../Drivers/STM32F4xx_HAL_Driver/Src/stm32f4xx_hal_dma.c **** 
 883:../Drivers/STM32F4xx_HAL_Driver/Src/stm32f4xx_hal_dma.c ****     /* Configure DMA Stream source address */
 884:../Drivers/STM32F4xx_HAL_Driver/Src/stm32f4xx_hal_dma.c ****     hdma->Instance->M0AR = SrcAddress;
  51              		.loc 1 884 0
  52 0010 0368     		ldr	r3, [r0]
  53 0012 D960     		str	r1, [r3, #12]
  54 0014 03E0     		b	.L1
  55              	.LVL3:
  56              	.L2:
 885:../Drivers/STM32F4xx_HAL_Driver/Src/stm32f4xx_hal_dma.c ****   }
 886:../Drivers/STM32F4xx_HAL_Driver/Src/stm32f4xx_hal_dma.c ****   /* Memory to Peripheral */
 887:../Drivers/STM32F4xx_HAL_Driver/Src/stm32f4xx_hal_dma.c ****   else
 888:../Drivers/STM32F4xx_HAL_Driver/Src/stm32f4xx_hal_dma.c ****   {
 889:../Drivers/STM32F4xx_HAL_Driver/Src/stm32f4xx_hal_dma.c ****     /* Configure DMA Stream source address */
 890:../Drivers/STM32F4xx_HAL_Driver/Src/stm32f4xx_hal_dma.c ****     hdma->Instance->PAR = SrcAddress;
  57              		.loc 1 890 0
  58 0016 0368     		ldr	r3, [r0]
  59 0018 9960     		str	r1, [r3, #8]
  60              	.LVL4:
 891:../Drivers/STM32F4xx_HAL_Driver/Src/stm32f4xx_hal_dma.c ****     
 892:../Drivers/STM32F4xx_HAL_Driver/Src/stm32f4xx_hal_dma.c ****     /* Configure DMA Stream destination address */
 893:../Drivers/STM32F4xx_HAL_Driver/Src/stm32f4xx_hal_dma.c ****     hdma->Instance->M0AR = DstAddress;
  61              		.loc 1 893 0
  62 001a 0368     		ldr	r3, [r0]
  63 001c DA60     		str	r2, [r3, #12]
  64              	.L1:
 894:../Drivers/STM32F4xx_HAL_Driver/Src/stm32f4xx_hal_dma.c ****   }
 895:../Drivers/STM32F4xx_HAL_Driver/Src/stm32f4xx_hal_dma.c **** }
  65              		.loc 1 895 0
  66 001e 5DF8044B 		ldr	r4, [sp], #4
  67              	.LCFI1:
  68              		.cfi_restore 4
  69              		.cfi_def_cfa_offset 0
  70 0022 7047     		bx	lr
  71              		.cfi_endproc
  72              	.LFE121:
  74              		.section	.text.HAL_DMA_Init,"ax",%progbits
  75              		.align	2
  76              		.global	HAL_DMA_Init
ARM GAS  /tmp/ccIvKYQX.s 			page 18


  77              		.thumb
  78              		.thumb_func
  80              	HAL_DMA_Init:
  81              	.LFB112:
 171:../Drivers/STM32F4xx_HAL_Driver/Src/stm32f4xx_hal_dma.c ****   uint32_t tmp = 0;
  82              		.loc 1 171 0
  83              		.cfi_startproc
  84              		@ args = 0, pretend = 0, frame = 0
  85              		@ frame_needed = 0, uses_anonymous_args = 0
  86              		@ link register save eliminated.
  87              	.LVL5:
 175:../Drivers/STM32F4xx_HAL_Driver/Src/stm32f4xx_hal_dma.c ****   {
  88              		.loc 1 175 0
  89 0000 0028     		cmp	r0, #0
  90 0002 32D0     		beq	.L9
 171:../Drivers/STM32F4xx_HAL_Driver/Src/stm32f4xx_hal_dma.c ****   uint32_t tmp = 0;
  91              		.loc 1 171 0
  92 0004 10B4     		push	{r4}
  93              	.LCFI2:
  94              		.cfi_def_cfa_offset 4
  95              		.cfi_offset 4, -4
  96 0006 0346     		mov	r3, r0
 201:../Drivers/STM32F4xx_HAL_Driver/Src/stm32f4xx_hal_dma.c **** 
  97              		.loc 1 201 0
  98 0008 0222     		movs	r2, #2
  99 000a 80F83520 		strb	r2, [r0, #53]
 204:../Drivers/STM32F4xx_HAL_Driver/Src/stm32f4xx_hal_dma.c **** 
 100              		.loc 1 204 0
 101 000e 0468     		ldr	r4, [r0]
 102 0010 2268     		ldr	r2, [r4]
 103              	.LVL6:
 207:../Drivers/STM32F4xx_HAL_Driver/Src/stm32f4xx_hal_dma.c ****                       DMA_SxCR_PL    | DMA_SxCR_MSIZE  | DMA_SxCR_PSIZE  | \
 104              		.loc 1 207 0
 105 0012 1848     		ldr	r0, .L12
 106              	.LVL7:
 107 0014 1040     		ands	r0, r0, r2
 108              	.LVL8:
 213:../Drivers/STM32F4xx_HAL_Driver/Src/stm32f4xx_hal_dma.c ****           hdma->Init.PeriphInc           | hdma->Init.MemInc           |
 109              		.loc 1 213 0
 110 0016 5968     		ldr	r1, [r3, #4]
 111 0018 9A68     		ldr	r2, [r3, #8]
 112 001a 1143     		orrs	r1, r1, r2
 214:../Drivers/STM32F4xx_HAL_Driver/Src/stm32f4xx_hal_dma.c ****           hdma->Init.PeriphDataAlignment | hdma->Init.MemDataAlignment |
 113              		.loc 1 214 0
 114 001c DA68     		ldr	r2, [r3, #12]
 213:../Drivers/STM32F4xx_HAL_Driver/Src/stm32f4xx_hal_dma.c ****           hdma->Init.PeriphInc           | hdma->Init.MemInc           |
 115              		.loc 1 213 0
 116 001e 1143     		orrs	r1, r1, r2
 214:../Drivers/STM32F4xx_HAL_Driver/Src/stm32f4xx_hal_dma.c ****           hdma->Init.PeriphDataAlignment | hdma->Init.MemDataAlignment |
 117              		.loc 1 214 0
 118 0020 1A69     		ldr	r2, [r3, #16]
 119 0022 1143     		orrs	r1, r1, r2
 215:../Drivers/STM32F4xx_HAL_Driver/Src/stm32f4xx_hal_dma.c ****           hdma->Init.Mode                | hdma->Init.Priority;
 120              		.loc 1 215 0
 121 0024 5A69     		ldr	r2, [r3, #20]
 214:../Drivers/STM32F4xx_HAL_Driver/Src/stm32f4xx_hal_dma.c ****           hdma->Init.PeriphDataAlignment | hdma->Init.MemDataAlignment |
 122              		.loc 1 214 0
ARM GAS  /tmp/ccIvKYQX.s 			page 19


 123 0026 1143     		orrs	r1, r1, r2
 215:../Drivers/STM32F4xx_HAL_Driver/Src/stm32f4xx_hal_dma.c ****           hdma->Init.Mode                | hdma->Init.Priority;
 124              		.loc 1 215 0
 125 0028 9A69     		ldr	r2, [r3, #24]
 126 002a 1143     		orrs	r1, r1, r2
 216:../Drivers/STM32F4xx_HAL_Driver/Src/stm32f4xx_hal_dma.c **** 
 127              		.loc 1 216 0
 128 002c DA69     		ldr	r2, [r3, #28]
 215:../Drivers/STM32F4xx_HAL_Driver/Src/stm32f4xx_hal_dma.c ****           hdma->Init.Mode                | hdma->Init.Priority;
 129              		.loc 1 215 0
 130 002e 0A43     		orrs	r2, r2, r1
 216:../Drivers/STM32F4xx_HAL_Driver/Src/stm32f4xx_hal_dma.c **** 
 131              		.loc 1 216 0
 132 0030 196A     		ldr	r1, [r3, #32]
 133 0032 1143     		orrs	r1, r1, r2
 213:../Drivers/STM32F4xx_HAL_Driver/Src/stm32f4xx_hal_dma.c ****           hdma->Init.PeriphInc           | hdma->Init.MemInc           |
 134              		.loc 1 213 0
 135 0034 40EA0102 		orr	r2, r0, r1
 136              	.LVL9:
 219:../Drivers/STM32F4xx_HAL_Driver/Src/stm32f4xx_hal_dma.c ****   {
 137              		.loc 1 219 0
 138 0038 596A     		ldr	r1, [r3, #36]
 139 003a 0429     		cmp	r1, #4
 140 003c 03D1     		bne	.L7
 222:../Drivers/STM32F4xx_HAL_Driver/Src/stm32f4xx_hal_dma.c ****   }
 141              		.loc 1 222 0
 142 003e D86A     		ldr	r0, [r3, #44]
 143 0040 196B     		ldr	r1, [r3, #48]
 144 0042 0143     		orrs	r1, r1, r0
 145 0044 0A43     		orrs	r2, r2, r1
 146              	.LVL10:
 147              	.L7:
 226:../Drivers/STM32F4xx_HAL_Driver/Src/stm32f4xx_hal_dma.c **** 
 148              		.loc 1 226 0
 149 0046 2260     		str	r2, [r4]
 229:../Drivers/STM32F4xx_HAL_Driver/Src/stm32f4xx_hal_dma.c **** 
 150              		.loc 1 229 0
 151 0048 1968     		ldr	r1, [r3]
 152 004a 4A69     		ldr	r2, [r1, #20]
 153              	.LVL11:
 232:../Drivers/STM32F4xx_HAL_Driver/Src/stm32f4xx_hal_dma.c **** 
 154              		.loc 1 232 0
 155 004c 22F00702 		bic	r2, r2, #7
 156              	.LVL12:
 235:../Drivers/STM32F4xx_HAL_Driver/Src/stm32f4xx_hal_dma.c **** 
 157              		.loc 1 235 0
 158 0050 586A     		ldr	r0, [r3, #36]
 159 0052 0243     		orrs	r2, r2, r0
 160              	.LVL13:
 238:../Drivers/STM32F4xx_HAL_Driver/Src/stm32f4xx_hal_dma.c ****   {
 161              		.loc 1 238 0
 162 0054 0428     		cmp	r0, #4
 163 0056 01D1     		bne	.L8
 241:../Drivers/STM32F4xx_HAL_Driver/Src/stm32f4xx_hal_dma.c ****   }
 164              		.loc 1 241 0
 165 0058 986A     		ldr	r0, [r3, #40]
 166 005a 0243     		orrs	r2, r2, r0
ARM GAS  /tmp/ccIvKYQX.s 			page 20


 167              	.LVL14:
 168              	.L8:
 245:../Drivers/STM32F4xx_HAL_Driver/Src/stm32f4xx_hal_dma.c **** 
 169              		.loc 1 245 0
 170 005c 4A61     		str	r2, [r1, #20]
 248:../Drivers/STM32F4xx_HAL_Driver/Src/stm32f4xx_hal_dma.c **** 
 171              		.loc 1 248 0
 172 005e 0020     		movs	r0, #0
 173 0060 D864     		str	r0, [r3, #76]
 251:../Drivers/STM32F4xx_HAL_Driver/Src/stm32f4xx_hal_dma.c **** 
 174              		.loc 1 251 0
 175 0062 0122     		movs	r2, #1
 176              	.LVL15:
 177 0064 83F83520 		strb	r2, [r3, #53]
 253:../Drivers/STM32F4xx_HAL_Driver/Src/stm32f4xx_hal_dma.c **** }
 178              		.loc 1 253 0
 179 0068 01E0     		b	.L6
 180              	.LVL16:
 181              	.L9:
 182              	.LCFI3:
 183              		.cfi_def_cfa_offset 0
 184              		.cfi_restore 4
 177:../Drivers/STM32F4xx_HAL_Driver/Src/stm32f4xx_hal_dma.c ****   }
 185              		.loc 1 177 0
 186 006a 0120     		movs	r0, #1
 187              	.LVL17:
 188 006c 7047     		bx	lr
 189              	.LVL18:
 190              	.L6:
 191              	.LCFI4:
 192              		.cfi_def_cfa_offset 4
 193              		.cfi_offset 4, -4
 254:../Drivers/STM32F4xx_HAL_Driver/Src/stm32f4xx_hal_dma.c **** 
 194              		.loc 1 254 0
 195 006e 5DF8044B 		ldr	r4, [sp], #4
 196              	.LCFI5:
 197              		.cfi_restore 4
 198              		.cfi_def_cfa_offset 0
 199 0072 7047     		bx	lr
 200              	.L13:
 201              		.align	2
 202              	.L12:
 203 0074 3F8014F0 		.word	-267091905
 204              		.cfi_endproc
 205              	.LFE112:
 207              		.section	.text.HAL_DMA_DeInit,"ax",%progbits
 208              		.align	2
 209              		.global	HAL_DMA_DeInit
 210              		.thumb
 211              		.thumb_func
 213              	HAL_DMA_DeInit:
 214              	.LFB113:
 263:../Drivers/STM32F4xx_HAL_Driver/Src/stm32f4xx_hal_dma.c ****   /* Check the DMA peripheral state */
 215              		.loc 1 263 0
 216              		.cfi_startproc
 217              		@ args = 0, pretend = 0, frame = 0
 218              		@ frame_needed = 0, uses_anonymous_args = 0
ARM GAS  /tmp/ccIvKYQX.s 			page 21


 219              		@ link register save eliminated.
 220              	.LVL19:
 265:../Drivers/STM32F4xx_HAL_Driver/Src/stm32f4xx_hal_dma.c ****   {
 221              		.loc 1 265 0
 222 0000 0346     		mov	r3, r0
 223 0002 0028     		cmp	r0, #0
 224 0004 00F00787 		beq	.L61
 271:../Drivers/STM32F4xx_HAL_Driver/Src/stm32f4xx_hal_dma.c ****   {
 225              		.loc 1 271 0
 226 0008 90F83520 		ldrb	r2, [r0, #53]	@ zero_extendqisi2
 227 000c D2B2     		uxtb	r2, r2
 228 000e 022A     		cmp	r2, #2
 229 0010 00F00387 		beq	.L62
 277:../Drivers/STM32F4xx_HAL_Driver/Src/stm32f4xx_hal_dma.c **** 
 230              		.loc 1 277 0
 231 0014 0168     		ldr	r1, [r0]
 232 0016 0A68     		ldr	r2, [r1]
 233 0018 22F00102 		bic	r2, r2, #1
 234 001c 0A60     		str	r2, [r1]
 280:../Drivers/STM32F4xx_HAL_Driver/Src/stm32f4xx_hal_dma.c **** 
 235              		.loc 1 280 0
 236 001e 0168     		ldr	r1, [r0]
 237 0020 0022     		movs	r2, #0
 238 0022 0A60     		str	r2, [r1]
 283:../Drivers/STM32F4xx_HAL_Driver/Src/stm32f4xx_hal_dma.c **** 
 239              		.loc 1 283 0
 240 0024 0168     		ldr	r1, [r0]
 241 0026 4A60     		str	r2, [r1, #4]
 286:../Drivers/STM32F4xx_HAL_Driver/Src/stm32f4xx_hal_dma.c **** 
 242              		.loc 1 286 0
 243 0028 0168     		ldr	r1, [r0]
 244 002a 8A60     		str	r2, [r1, #8]
 289:../Drivers/STM32F4xx_HAL_Driver/Src/stm32f4xx_hal_dma.c **** 
 245              		.loc 1 289 0
 246 002c 0168     		ldr	r1, [r0]
 247 002e CA60     		str	r2, [r1, #12]
 292:../Drivers/STM32F4xx_HAL_Driver/Src/stm32f4xx_hal_dma.c **** 
 248              		.loc 1 292 0
 249 0030 0168     		ldr	r1, [r0]
 250 0032 0A61     		str	r2, [r1, #16]
 295:../Drivers/STM32F4xx_HAL_Driver/Src/stm32f4xx_hal_dma.c **** 
 251              		.loc 1 295 0
 252 0034 0268     		ldr	r2, [r0]
 253 0036 2121     		movs	r1, #33
 254 0038 5161     		str	r1, [r2, #20]
 298:../Drivers/STM32F4xx_HAL_Driver/Src/stm32f4xx_hal_dma.c ****   __HAL_DMA_CLEAR_FLAG(hdma, __HAL_DMA_GET_TC_FLAG_INDEX(hdma));
 255              		.loc 1 298 0
 256 003a 0268     		ldr	r2, [r0]
 257 003c AA49     		ldr	r1, .L303
 258 003e 8A42     		cmp	r2, r1
 259 0040 54D9     		bls	.L16
 298:../Drivers/STM32F4xx_HAL_Driver/Src/stm32f4xx_hal_dma.c ****   __HAL_DMA_CLEAR_FLAG(hdma, __HAL_DMA_GET_TC_FLAG_INDEX(hdma));
 260              		.loc 1 298 0 is_stmt 0 discriminator 1
 261 0042 A1F58961 		sub	r1, r1, #1096
 262 0046 8A42     		cmp	r2, r1
 263 0048 2ED0     		beq	.L63
 298:../Drivers/STM32F4xx_HAL_Driver/Src/stm32f4xx_hal_dma.c ****   __HAL_DMA_CLEAR_FLAG(hdma, __HAL_DMA_GET_TC_FLAG_INDEX(hdma));
ARM GAS  /tmp/ccIvKYQX.s 			page 22


 264              		.loc 1 298 0 discriminator 3
 265 004a 01F58061 		add	r1, r1, #1024
 266 004e 8A42     		cmp	r2, r1
 267 0050 2CD0     		beq	.L64
 298:../Drivers/STM32F4xx_HAL_Driver/Src/stm32f4xx_hal_dma.c ****   __HAL_DMA_CLEAR_FLAG(hdma, __HAL_DMA_GET_TC_FLAG_INDEX(hdma));
 268              		.loc 1 298 0 discriminator 5
 269 0052 A1F56871 		sub	r1, r1, #928
 270 0056 8A42     		cmp	r2, r1
 271 0058 2AD0     		beq	.L65
 298:../Drivers/STM32F4xx_HAL_Driver/Src/stm32f4xx_hal_dma.c ****   __HAL_DMA_CLEAR_FLAG(hdma, __HAL_DMA_GET_TC_FLAG_INDEX(hdma));
 272              		.loc 1 298 0 discriminator 7
 273 005a 01F58061 		add	r1, r1, #1024
 274 005e 8A42     		cmp	r2, r1
 275 0060 28D0     		beq	.L66
 298:../Drivers/STM32F4xx_HAL_Driver/Src/stm32f4xx_hal_dma.c ****   __HAL_DMA_CLEAR_FLAG(hdma, __HAL_DMA_GET_TC_FLAG_INDEX(hdma));
 276              		.loc 1 298 0 discriminator 9
 277 0062 A1F58961 		sub	r1, r1, #1096
 278 0066 8A42     		cmp	r2, r1
 279 0068 26D0     		beq	.L67
 298:../Drivers/STM32F4xx_HAL_Driver/Src/stm32f4xx_hal_dma.c ****   __HAL_DMA_CLEAR_FLAG(hdma, __HAL_DMA_GET_TC_FLAG_INDEX(hdma));
 280              		.loc 1 298 0 discriminator 11
 281 006a 01F58061 		add	r1, r1, #1024
 282 006e 8A42     		cmp	r2, r1
 283 0070 25D0     		beq	.L68
 298:../Drivers/STM32F4xx_HAL_Driver/Src/stm32f4xx_hal_dma.c ****   __HAL_DMA_CLEAR_FLAG(hdma, __HAL_DMA_GET_TC_FLAG_INDEX(hdma));
 284              		.loc 1 298 0 discriminator 13
 285 0072 A1F56871 		sub	r1, r1, #928
 286 0076 8A42     		cmp	r2, r1
 287 0078 24D0     		beq	.L69
 298:../Drivers/STM32F4xx_HAL_Driver/Src/stm32f4xx_hal_dma.c ****   __HAL_DMA_CLEAR_FLAG(hdma, __HAL_DMA_GET_TC_FLAG_INDEX(hdma));
 288              		.loc 1 298 0 discriminator 15
 289 007a 01F58061 		add	r1, r1, #1024
 290 007e 8A42     		cmp	r2, r1
 291 0080 23D0     		beq	.L70
 298:../Drivers/STM32F4xx_HAL_Driver/Src/stm32f4xx_hal_dma.c ****   __HAL_DMA_CLEAR_FLAG(hdma, __HAL_DMA_GET_TC_FLAG_INDEX(hdma));
 292              		.loc 1 298 0 discriminator 17
 293 0082 A1F58961 		sub	r1, r1, #1096
 294 0086 8A42     		cmp	r2, r1
 295 0088 22D0     		beq	.L71
 298:../Drivers/STM32F4xx_HAL_Driver/Src/stm32f4xx_hal_dma.c ****   __HAL_DMA_CLEAR_FLAG(hdma, __HAL_DMA_GET_TC_FLAG_INDEX(hdma));
 296              		.loc 1 298 0 discriminator 19
 297 008a 01F58061 		add	r1, r1, #1024
 298 008e 8A42     		cmp	r2, r1
 299 0090 21D0     		beq	.L72
 298:../Drivers/STM32F4xx_HAL_Driver/Src/stm32f4xx_hal_dma.c ****   __HAL_DMA_CLEAR_FLAG(hdma, __HAL_DMA_GET_TC_FLAG_INDEX(hdma));
 300              		.loc 1 298 0 discriminator 21
 301 0092 A1F56871 		sub	r1, r1, #928
 302 0096 8A42     		cmp	r2, r1
 303 0098 20D0     		beq	.L73
 298:../Drivers/STM32F4xx_HAL_Driver/Src/stm32f4xx_hal_dma.c ****   __HAL_DMA_CLEAR_FLAG(hdma, __HAL_DMA_GET_TC_FLAG_INDEX(hdma));
 304              		.loc 1 298 0 discriminator 23
 305 009a 01F58061 		add	r1, r1, #1024
 306 009e 8A42     		cmp	r2, r1
 307 00a0 1FD1     		bne	.L74
 298:../Drivers/STM32F4xx_HAL_Driver/Src/stm32f4xx_hal_dma.c ****   __HAL_DMA_CLEAR_FLAG(hdma, __HAL_DMA_GET_TC_FLAG_INDEX(hdma));
 308              		.loc 1 298 0
 309 00a2 4FF48021 		mov	r1, #262144
ARM GAS  /tmp/ccIvKYQX.s 			page 23


 310 00a6 1EE0     		b	.L17
 311              	.L63:
 312 00a8 9049     		ldr	r1, .L303+4
 313 00aa 1CE0     		b	.L17
 314              	.L64:
 315 00ac 8F49     		ldr	r1, .L303+4
 316 00ae 1AE0     		b	.L17
 317              	.L65:
 318 00b0 8E49     		ldr	r1, .L303+4
 319 00b2 18E0     		b	.L17
 320              	.L66:
 321 00b4 8D49     		ldr	r1, .L303+4
 322 00b6 16E0     		b	.L17
 323              	.L67:
 324 00b8 4FF48071 		mov	r1, #256
 325 00bc 13E0     		b	.L17
 326              	.L68:
 327 00be 4FF48071 		mov	r1, #256
 328 00c2 10E0     		b	.L17
 329              	.L69:
 330 00c4 4FF48071 		mov	r1, #256
 331 00c8 0DE0     		b	.L17
 332              	.L70:
 333 00ca 4FF48071 		mov	r1, #256
 334 00ce 0AE0     		b	.L17
 335              	.L71:
 336 00d0 4FF48021 		mov	r1, #262144
 337 00d4 07E0     		b	.L17
 338              	.L72:
 339 00d6 4FF48021 		mov	r1, #262144
 340 00da 04E0     		b	.L17
 341              	.L73:
 342 00dc 4FF48021 		mov	r1, #262144
 343 00e0 01E0     		b	.L17
 344              	.L74:
 345 00e2 4FF08071 		mov	r1, #16777216
 346              	.L17:
 298:../Drivers/STM32F4xx_HAL_Driver/Src/stm32f4xx_hal_dma.c ****   __HAL_DMA_CLEAR_FLAG(hdma, __HAL_DMA_GET_TC_FLAG_INDEX(hdma));
 347              		.loc 1 298 0 discriminator 50
 348 00e6 824A     		ldr	r2, .L303+8
 349 00e8 D160     		str	r1, [r2, #12]
 350 00ea 0FE1     		b	.L18
 351              	.L16:
 298:../Drivers/STM32F4xx_HAL_Driver/Src/stm32f4xx_hal_dma.c ****   __HAL_DMA_CLEAR_FLAG(hdma, __HAL_DMA_GET_TC_FLAG_INDEX(hdma));
 352              		.loc 1 298 0 discriminator 2
 353 00ec 8149     		ldr	r1, .L303+12
 354 00ee 8A42     		cmp	r2, r1
 355 00f0 53D9     		bls	.L19
 298:../Drivers/STM32F4xx_HAL_Driver/Src/stm32f4xx_hal_dma.c ****   __HAL_DMA_CLEAR_FLAG(hdma, __HAL_DMA_GET_TC_FLAG_INDEX(hdma));
 356              		.loc 1 298 0 discriminator 51
 357 00f2 A839     		subs	r1, r1, #168
 358 00f4 8A42     		cmp	r2, r1
 359 00f6 2ED0     		beq	.L75
 298:../Drivers/STM32F4xx_HAL_Driver/Src/stm32f4xx_hal_dma.c ****   __HAL_DMA_CLEAR_FLAG(hdma, __HAL_DMA_GET_TC_FLAG_INDEX(hdma));
 360              		.loc 1 298 0 discriminator 53
 361 00f8 01F58061 		add	r1, r1, #1024
 362 00fc 8A42     		cmp	r2, r1
ARM GAS  /tmp/ccIvKYQX.s 			page 24


 363 00fe 2CD0     		beq	.L76
 298:../Drivers/STM32F4xx_HAL_Driver/Src/stm32f4xx_hal_dma.c ****   __HAL_DMA_CLEAR_FLAG(hdma, __HAL_DMA_GET_TC_FLAG_INDEX(hdma));
 364              		.loc 1 298 0 discriminator 55
 365 0100 A1F56871 		sub	r1, r1, #928
 366 0104 8A42     		cmp	r2, r1
 367 0106 2AD0     		beq	.L77
 298:../Drivers/STM32F4xx_HAL_Driver/Src/stm32f4xx_hal_dma.c ****   __HAL_DMA_CLEAR_FLAG(hdma, __HAL_DMA_GET_TC_FLAG_INDEX(hdma));
 368              		.loc 1 298 0 discriminator 57
 369 0108 01F58061 		add	r1, r1, #1024
 370 010c 8A42     		cmp	r2, r1
 371 010e 28D0     		beq	.L78
 298:../Drivers/STM32F4xx_HAL_Driver/Src/stm32f4xx_hal_dma.c ****   __HAL_DMA_CLEAR_FLAG(hdma, __HAL_DMA_GET_TC_FLAG_INDEX(hdma));
 372              		.loc 1 298 0 discriminator 59
 373 0110 A1F58961 		sub	r1, r1, #1096
 374 0114 8A42     		cmp	r2, r1
 375 0116 26D0     		beq	.L79
 298:../Drivers/STM32F4xx_HAL_Driver/Src/stm32f4xx_hal_dma.c ****   __HAL_DMA_CLEAR_FLAG(hdma, __HAL_DMA_GET_TC_FLAG_INDEX(hdma));
 376              		.loc 1 298 0 discriminator 61
 377 0118 01F58061 		add	r1, r1, #1024
 378 011c 8A42     		cmp	r2, r1
 379 011e 25D0     		beq	.L80
 298:../Drivers/STM32F4xx_HAL_Driver/Src/stm32f4xx_hal_dma.c ****   __HAL_DMA_CLEAR_FLAG(hdma, __HAL_DMA_GET_TC_FLAG_INDEX(hdma));
 380              		.loc 1 298 0 discriminator 63
 381 0120 A1F56871 		sub	r1, r1, #928
 382 0124 8A42     		cmp	r2, r1
 383 0126 24D0     		beq	.L81
 298:../Drivers/STM32F4xx_HAL_Driver/Src/stm32f4xx_hal_dma.c ****   __HAL_DMA_CLEAR_FLAG(hdma, __HAL_DMA_GET_TC_FLAG_INDEX(hdma));
 384              		.loc 1 298 0 discriminator 65
 385 0128 01F58061 		add	r1, r1, #1024
 386 012c 8A42     		cmp	r2, r1
 387 012e 23D0     		beq	.L82
 298:../Drivers/STM32F4xx_HAL_Driver/Src/stm32f4xx_hal_dma.c ****   __HAL_DMA_CLEAR_FLAG(hdma, __HAL_DMA_GET_TC_FLAG_INDEX(hdma));
 388              		.loc 1 298 0 discriminator 67
 389 0130 A1F58961 		sub	r1, r1, #1096
 390 0134 8A42     		cmp	r2, r1
 391 0136 22D0     		beq	.L83
 298:../Drivers/STM32F4xx_HAL_Driver/Src/stm32f4xx_hal_dma.c ****   __HAL_DMA_CLEAR_FLAG(hdma, __HAL_DMA_GET_TC_FLAG_INDEX(hdma));
 392              		.loc 1 298 0 discriminator 69
 393 0138 01F58061 		add	r1, r1, #1024
 394 013c 8A42     		cmp	r2, r1
 395 013e 21D0     		beq	.L84
 298:../Drivers/STM32F4xx_HAL_Driver/Src/stm32f4xx_hal_dma.c ****   __HAL_DMA_CLEAR_FLAG(hdma, __HAL_DMA_GET_TC_FLAG_INDEX(hdma));
 396              		.loc 1 298 0 discriminator 71
 397 0140 A1F56871 		sub	r1, r1, #928
 398 0144 8A42     		cmp	r2, r1
 399 0146 20D0     		beq	.L85
 298:../Drivers/STM32F4xx_HAL_Driver/Src/stm32f4xx_hal_dma.c ****   __HAL_DMA_CLEAR_FLAG(hdma, __HAL_DMA_GET_TC_FLAG_INDEX(hdma));
 400              		.loc 1 298 0 discriminator 73
 401 0148 01F58061 		add	r1, r1, #1024
 402 014c 8A42     		cmp	r2, r1
 403 014e 1FD1     		bne	.L86
 298:../Drivers/STM32F4xx_HAL_Driver/Src/stm32f4xx_hal_dma.c ****   __HAL_DMA_CLEAR_FLAG(hdma, __HAL_DMA_GET_TC_FLAG_INDEX(hdma));
 404              		.loc 1 298 0
 405 0150 4FF48021 		mov	r1, #262144
 406 0154 1EE0     		b	.L20
 407              	.L75:
 408 0156 6549     		ldr	r1, .L303+4
ARM GAS  /tmp/ccIvKYQX.s 			page 25


 409 0158 1CE0     		b	.L20
 410              	.L76:
 411 015a 6449     		ldr	r1, .L303+4
 412 015c 1AE0     		b	.L20
 413              	.L77:
 414 015e 6349     		ldr	r1, .L303+4
 415 0160 18E0     		b	.L20
 416              	.L78:
 417 0162 6249     		ldr	r1, .L303+4
 418 0164 16E0     		b	.L20
 419              	.L79:
 420 0166 4FF48071 		mov	r1, #256
 421 016a 13E0     		b	.L20
 422              	.L80:
 423 016c 4FF48071 		mov	r1, #256
 424 0170 10E0     		b	.L20
 425              	.L81:
 426 0172 4FF48071 		mov	r1, #256
 427 0176 0DE0     		b	.L20
 428              	.L82:
 429 0178 4FF48071 		mov	r1, #256
 430 017c 0AE0     		b	.L20
 431              	.L83:
 432 017e 4FF48021 		mov	r1, #262144
 433 0182 07E0     		b	.L20
 434              	.L84:
 435 0184 4FF48021 		mov	r1, #262144
 436 0188 04E0     		b	.L20
 437              	.L85:
 438 018a 4FF48021 		mov	r1, #262144
 439 018e 01E0     		b	.L20
 440              	.L86:
 441 0190 4FF08071 		mov	r1, #16777216
 442              	.L20:
 298:../Drivers/STM32F4xx_HAL_Driver/Src/stm32f4xx_hal_dma.c ****   __HAL_DMA_CLEAR_FLAG(hdma, __HAL_DMA_GET_TC_FLAG_INDEX(hdma));
 443              		.loc 1 298 0 discriminator 100
 444 0194 564A     		ldr	r2, .L303+8
 445 0196 9160     		str	r1, [r2, #8]
 446 0198 B8E0     		b	.L18
 447              	.L19:
 298:../Drivers/STM32F4xx_HAL_Driver/Src/stm32f4xx_hal_dma.c ****   __HAL_DMA_CLEAR_FLAG(hdma, __HAL_DMA_GET_TC_FLAG_INDEX(hdma));
 448              		.loc 1 298 0 discriminator 52
 449 019a 5749     		ldr	r1, .L303+16
 450 019c 8A42     		cmp	r2, r1
 451 019e 53D9     		bls	.L22
 298:../Drivers/STM32F4xx_HAL_Driver/Src/stm32f4xx_hal_dma.c ****   __HAL_DMA_CLEAR_FLAG(hdma, __HAL_DMA_GET_TC_FLAG_INDEX(hdma));
 452              		.loc 1 298 0 discriminator 102
 453 01a0 4839     		subs	r1, r1, #72
 454 01a2 8A42     		cmp	r2, r1
 455 01a4 2ED0     		beq	.L87
 298:../Drivers/STM32F4xx_HAL_Driver/Src/stm32f4xx_hal_dma.c ****   __HAL_DMA_CLEAR_FLAG(hdma, __HAL_DMA_GET_TC_FLAG_INDEX(hdma));
 456              		.loc 1 298 0 discriminator 104
 457 01a6 01F58061 		add	r1, r1, #1024
 458 01aa 8A42     		cmp	r2, r1
 459 01ac 2CD0     		beq	.L88
 298:../Drivers/STM32F4xx_HAL_Driver/Src/stm32f4xx_hal_dma.c ****   __HAL_DMA_CLEAR_FLAG(hdma, __HAL_DMA_GET_TC_FLAG_INDEX(hdma));
 460              		.loc 1 298 0 discriminator 106
ARM GAS  /tmp/ccIvKYQX.s 			page 26


 461 01ae A1F56871 		sub	r1, r1, #928
 462 01b2 8A42     		cmp	r2, r1
 463 01b4 2AD0     		beq	.L89
 298:../Drivers/STM32F4xx_HAL_Driver/Src/stm32f4xx_hal_dma.c ****   __HAL_DMA_CLEAR_FLAG(hdma, __HAL_DMA_GET_TC_FLAG_INDEX(hdma));
 464              		.loc 1 298 0 discriminator 108
 465 01b6 01F58061 		add	r1, r1, #1024
 466 01ba 8A42     		cmp	r2, r1
 467 01bc 28D0     		beq	.L90
 298:../Drivers/STM32F4xx_HAL_Driver/Src/stm32f4xx_hal_dma.c ****   __HAL_DMA_CLEAR_FLAG(hdma, __HAL_DMA_GET_TC_FLAG_INDEX(hdma));
 468              		.loc 1 298 0 discriminator 110
 469 01be A1F58961 		sub	r1, r1, #1096
 470 01c2 8A42     		cmp	r2, r1
 471 01c4 26D0     		beq	.L91
 298:../Drivers/STM32F4xx_HAL_Driver/Src/stm32f4xx_hal_dma.c ****   __HAL_DMA_CLEAR_FLAG(hdma, __HAL_DMA_GET_TC_FLAG_INDEX(hdma));
 472              		.loc 1 298 0 discriminator 112
 473 01c6 01F58061 		add	r1, r1, #1024
 474 01ca 8A42     		cmp	r2, r1
 475 01cc 25D0     		beq	.L92
 298:../Drivers/STM32F4xx_HAL_Driver/Src/stm32f4xx_hal_dma.c ****   __HAL_DMA_CLEAR_FLAG(hdma, __HAL_DMA_GET_TC_FLAG_INDEX(hdma));
 476              		.loc 1 298 0 discriminator 114
 477 01ce A1F56871 		sub	r1, r1, #928
 478 01d2 8A42     		cmp	r2, r1
 479 01d4 24D0     		beq	.L93
 298:../Drivers/STM32F4xx_HAL_Driver/Src/stm32f4xx_hal_dma.c ****   __HAL_DMA_CLEAR_FLAG(hdma, __HAL_DMA_GET_TC_FLAG_INDEX(hdma));
 480              		.loc 1 298 0 discriminator 116
 481 01d6 01F58061 		add	r1, r1, #1024
 482 01da 8A42     		cmp	r2, r1
 483 01dc 23D0     		beq	.L94
 298:../Drivers/STM32F4xx_HAL_Driver/Src/stm32f4xx_hal_dma.c ****   __HAL_DMA_CLEAR_FLAG(hdma, __HAL_DMA_GET_TC_FLAG_INDEX(hdma));
 484              		.loc 1 298 0 discriminator 118
 485 01de A1F58961 		sub	r1, r1, #1096
 486 01e2 8A42     		cmp	r2, r1
 487 01e4 22D0     		beq	.L95
 298:../Drivers/STM32F4xx_HAL_Driver/Src/stm32f4xx_hal_dma.c ****   __HAL_DMA_CLEAR_FLAG(hdma, __HAL_DMA_GET_TC_FLAG_INDEX(hdma));
 488              		.loc 1 298 0 discriminator 120
 489 01e6 01F58061 		add	r1, r1, #1024
 490 01ea 8A42     		cmp	r2, r1
 491 01ec 21D0     		beq	.L96
 298:../Drivers/STM32F4xx_HAL_Driver/Src/stm32f4xx_hal_dma.c ****   __HAL_DMA_CLEAR_FLAG(hdma, __HAL_DMA_GET_TC_FLAG_INDEX(hdma));
 492              		.loc 1 298 0 discriminator 122
 493 01ee A1F56871 		sub	r1, r1, #928
 494 01f2 8A42     		cmp	r2, r1
 495 01f4 20D0     		beq	.L97
 298:../Drivers/STM32F4xx_HAL_Driver/Src/stm32f4xx_hal_dma.c ****   __HAL_DMA_CLEAR_FLAG(hdma, __HAL_DMA_GET_TC_FLAG_INDEX(hdma));
 496              		.loc 1 298 0 discriminator 124
 497 01f6 01F58061 		add	r1, r1, #1024
 498 01fa 8A42     		cmp	r2, r1
 499 01fc 1FD1     		bne	.L98
 298:../Drivers/STM32F4xx_HAL_Driver/Src/stm32f4xx_hal_dma.c ****   __HAL_DMA_CLEAR_FLAG(hdma, __HAL_DMA_GET_TC_FLAG_INDEX(hdma));
 500              		.loc 1 298 0
 501 01fe 4FF48021 		mov	r1, #262144
 502 0202 1EE0     		b	.L23
 503              	.L87:
 504 0204 3949     		ldr	r1, .L303+4
 505 0206 1CE0     		b	.L23
 506              	.L88:
 507 0208 3849     		ldr	r1, .L303+4
ARM GAS  /tmp/ccIvKYQX.s 			page 27


 508 020a 1AE0     		b	.L23
 509              	.L89:
 510 020c 3749     		ldr	r1, .L303+4
 511 020e 18E0     		b	.L23
 512              	.L90:
 513 0210 3649     		ldr	r1, .L303+4
 514 0212 16E0     		b	.L23
 515              	.L91:
 516 0214 4FF48071 		mov	r1, #256
 517 0218 13E0     		b	.L23
 518              	.L92:
 519 021a 4FF48071 		mov	r1, #256
 520 021e 10E0     		b	.L23
 521              	.L93:
 522 0220 4FF48071 		mov	r1, #256
 523 0224 0DE0     		b	.L23
 524              	.L94:
 525 0226 4FF48071 		mov	r1, #256
 526 022a 0AE0     		b	.L23
 527              	.L95:
 528 022c 4FF48021 		mov	r1, #262144
 529 0230 07E0     		b	.L23
 530              	.L96:
 531 0232 4FF48021 		mov	r1, #262144
 532 0236 04E0     		b	.L23
 533              	.L97:
 534 0238 4FF48021 		mov	r1, #262144
 535 023c 01E0     		b	.L23
 536              	.L98:
 537 023e 4FF08071 		mov	r1, #16777216
 538              	.L23:
 298:../Drivers/STM32F4xx_HAL_Driver/Src/stm32f4xx_hal_dma.c ****   __HAL_DMA_CLEAR_FLAG(hdma, __HAL_DMA_GET_TC_FLAG_INDEX(hdma));
 539              		.loc 1 298 0 discriminator 151
 540 0242 2E4A     		ldr	r2, .L303+20
 541 0244 D160     		str	r1, [r2, #12]
 542 0246 61E0     		b	.L18
 543              	.L22:
 298:../Drivers/STM32F4xx_HAL_Driver/Src/stm32f4xx_hal_dma.c ****   __HAL_DMA_CLEAR_FLAG(hdma, __HAL_DMA_GET_TC_FLAG_INDEX(hdma));
 544              		.loc 1 298 0 discriminator 103
 545 0248 2D49     		ldr	r1, .L303+24
 546 024a 8A42     		cmp	r2, r1
 547 024c 2ED0     		beq	.L99
 298:../Drivers/STM32F4xx_HAL_Driver/Src/stm32f4xx_hal_dma.c ****   __HAL_DMA_CLEAR_FLAG(hdma, __HAL_DMA_GET_TC_FLAG_INDEX(hdma));
 548              		.loc 1 298 0 discriminator 153
 549 024e 01F58061 		add	r1, r1, #1024
 550 0252 8A42     		cmp	r2, r1
 551 0254 2CD0     		beq	.L100
 298:../Drivers/STM32F4xx_HAL_Driver/Src/stm32f4xx_hal_dma.c ****   __HAL_DMA_CLEAR_FLAG(hdma, __HAL_DMA_GET_TC_FLAG_INDEX(hdma));
 552              		.loc 1 298 0 discriminator 155
 553 0256 A1F56871 		sub	r1, r1, #928
 554 025a 8A42     		cmp	r2, r1
 555 025c 2AD0     		beq	.L101
 298:../Drivers/STM32F4xx_HAL_Driver/Src/stm32f4xx_hal_dma.c ****   __HAL_DMA_CLEAR_FLAG(hdma, __HAL_DMA_GET_TC_FLAG_INDEX(hdma));
 556              		.loc 1 298 0 discriminator 157
 557 025e 01F58061 		add	r1, r1, #1024
 558 0262 8A42     		cmp	r2, r1
 559 0264 28D0     		beq	.L102
ARM GAS  /tmp/ccIvKYQX.s 			page 28


 298:../Drivers/STM32F4xx_HAL_Driver/Src/stm32f4xx_hal_dma.c ****   __HAL_DMA_CLEAR_FLAG(hdma, __HAL_DMA_GET_TC_FLAG_INDEX(hdma));
 560              		.loc 1 298 0 discriminator 159
 561 0266 A1F58961 		sub	r1, r1, #1096
 562 026a 8A42     		cmp	r2, r1
 563 026c 26D0     		beq	.L103
 298:../Drivers/STM32F4xx_HAL_Driver/Src/stm32f4xx_hal_dma.c ****   __HAL_DMA_CLEAR_FLAG(hdma, __HAL_DMA_GET_TC_FLAG_INDEX(hdma));
 564              		.loc 1 298 0 discriminator 161
 565 026e 01F58061 		add	r1, r1, #1024
 566 0272 8A42     		cmp	r2, r1
 567 0274 25D0     		beq	.L104
 298:../Drivers/STM32F4xx_HAL_Driver/Src/stm32f4xx_hal_dma.c ****   __HAL_DMA_CLEAR_FLAG(hdma, __HAL_DMA_GET_TC_FLAG_INDEX(hdma));
 568              		.loc 1 298 0 discriminator 163
 569 0276 A1F56871 		sub	r1, r1, #928
 570 027a 8A42     		cmp	r2, r1
 571 027c 24D0     		beq	.L105
 298:../Drivers/STM32F4xx_HAL_Driver/Src/stm32f4xx_hal_dma.c ****   __HAL_DMA_CLEAR_FLAG(hdma, __HAL_DMA_GET_TC_FLAG_INDEX(hdma));
 572              		.loc 1 298 0 discriminator 165
 573 027e 01F58061 		add	r1, r1, #1024
 574 0282 8A42     		cmp	r2, r1
 575 0284 23D0     		beq	.L106
 298:../Drivers/STM32F4xx_HAL_Driver/Src/stm32f4xx_hal_dma.c ****   __HAL_DMA_CLEAR_FLAG(hdma, __HAL_DMA_GET_TC_FLAG_INDEX(hdma));
 576              		.loc 1 298 0 discriminator 167
 577 0286 A1F58961 		sub	r1, r1, #1096
 578 028a 8A42     		cmp	r2, r1
 579 028c 22D0     		beq	.L107
 298:../Drivers/STM32F4xx_HAL_Driver/Src/stm32f4xx_hal_dma.c ****   __HAL_DMA_CLEAR_FLAG(hdma, __HAL_DMA_GET_TC_FLAG_INDEX(hdma));
 580              		.loc 1 298 0 discriminator 169
 581 028e 01F58061 		add	r1, r1, #1024
 582 0292 8A42     		cmp	r2, r1
 583 0294 21D0     		beq	.L108
 298:../Drivers/STM32F4xx_HAL_Driver/Src/stm32f4xx_hal_dma.c ****   __HAL_DMA_CLEAR_FLAG(hdma, __HAL_DMA_GET_TC_FLAG_INDEX(hdma));
 584              		.loc 1 298 0 discriminator 171
 585 0296 A1F56871 		sub	r1, r1, #928
 586 029a 8A42     		cmp	r2, r1
 587 029c 20D0     		beq	.L109
 298:../Drivers/STM32F4xx_HAL_Driver/Src/stm32f4xx_hal_dma.c ****   __HAL_DMA_CLEAR_FLAG(hdma, __HAL_DMA_GET_TC_FLAG_INDEX(hdma));
 588              		.loc 1 298 0 discriminator 173
 589 029e 01F58061 		add	r1, r1, #1024
 590 02a2 8A42     		cmp	r2, r1
 591 02a4 2ED1     		bne	.L110
 298:../Drivers/STM32F4xx_HAL_Driver/Src/stm32f4xx_hal_dma.c ****   __HAL_DMA_CLEAR_FLAG(hdma, __HAL_DMA_GET_TC_FLAG_INDEX(hdma));
 592              		.loc 1 298 0
 593 02a6 4FF48021 		mov	r1, #262144
 594 02aa 2DE0     		b	.L24
 595              	.L99:
 596 02ac 0F49     		ldr	r1, .L303+4
 597 02ae 2BE0     		b	.L24
 598              	.L100:
 599 02b0 0E49     		ldr	r1, .L303+4
 600 02b2 29E0     		b	.L24
 601              	.L101:
 602 02b4 0D49     		ldr	r1, .L303+4
 603 02b6 27E0     		b	.L24
 604              	.L102:
 605 02b8 0C49     		ldr	r1, .L303+4
 606 02ba 25E0     		b	.L24
 607              	.L103:
ARM GAS  /tmp/ccIvKYQX.s 			page 29


 608 02bc 4FF48071 		mov	r1, #256
 609 02c0 22E0     		b	.L24
 610              	.L104:
 611 02c2 4FF48071 		mov	r1, #256
 612 02c6 1FE0     		b	.L24
 613              	.L105:
 614 02c8 4FF48071 		mov	r1, #256
 615 02cc 1CE0     		b	.L24
 616              	.L106:
 617 02ce 4FF48071 		mov	r1, #256
 618 02d2 19E0     		b	.L24
 619              	.L107:
 620 02d4 4FF48021 		mov	r1, #262144
 621 02d8 16E0     		b	.L24
 622              	.L108:
 623 02da 4FF48021 		mov	r1, #262144
 624 02de 13E0     		b	.L24
 625              	.L109:
 626 02e0 4FF48021 		mov	r1, #262144
 627 02e4 10E0     		b	.L24
 628              	.L304:
 629 02e6 00BF     		.align	2
 630              	.L303:
 631 02e8 58640240 		.word	1073898584
 632 02ec 04008000 		.word	8388612
 633 02f0 00640240 		.word	1073898496
 634 02f4 B8600240 		.word	1073897656
 635 02f8 58600240 		.word	1073897560
 636 02fc 00600240 		.word	1073897472
 637 0300 10600240 		.word	1073897488
 638              	.L110:
 639 0304 4FF08071 		mov	r1, #16777216
 640              	.L24:
 298:../Drivers/STM32F4xx_HAL_Driver/Src/stm32f4xx_hal_dma.c ****   __HAL_DMA_CLEAR_FLAG(hdma, __HAL_DMA_GET_TC_FLAG_INDEX(hdma));
 641              		.loc 1 298 0 discriminator 200
 642 0308 AB4A     		ldr	r2, .L305
 643 030a 9160     		str	r1, [r2, #8]
 644              	.L18:
 299:../Drivers/STM32F4xx_HAL_Driver/Src/stm32f4xx_hal_dma.c ****   __HAL_DMA_CLEAR_FLAG(hdma, __HAL_DMA_GET_TE_FLAG_INDEX(hdma));
 645              		.loc 1 299 0 is_stmt 1
 646 030c 1A68     		ldr	r2, [r3]
 647 030e AB49     		ldr	r1, .L305+4
 648 0310 8A42     		cmp	r2, r1
 649 0312 54D9     		bls	.L25
 299:../Drivers/STM32F4xx_HAL_Driver/Src/stm32f4xx_hal_dma.c ****   __HAL_DMA_CLEAR_FLAG(hdma, __HAL_DMA_GET_TE_FLAG_INDEX(hdma));
 650              		.loc 1 299 0 is_stmt 0 discriminator 1
 651 0314 A1F58961 		sub	r1, r1, #1096
 652 0318 8A42     		cmp	r2, r1
 653 031a 2ED0     		beq	.L111
 299:../Drivers/STM32F4xx_HAL_Driver/Src/stm32f4xx_hal_dma.c ****   __HAL_DMA_CLEAR_FLAG(hdma, __HAL_DMA_GET_TE_FLAG_INDEX(hdma));
 654              		.loc 1 299 0 discriminator 3
 655 031c 01F58061 		add	r1, r1, #1024
 656 0320 8A42     		cmp	r2, r1
 657 0322 2CD0     		beq	.L112
 299:../Drivers/STM32F4xx_HAL_Driver/Src/stm32f4xx_hal_dma.c ****   __HAL_DMA_CLEAR_FLAG(hdma, __HAL_DMA_GET_TE_FLAG_INDEX(hdma));
 658              		.loc 1 299 0 discriminator 5
 659 0324 A1F56871 		sub	r1, r1, #928
ARM GAS  /tmp/ccIvKYQX.s 			page 30


 660 0328 8A42     		cmp	r2, r1
 661 032a 2AD0     		beq	.L113
 299:../Drivers/STM32F4xx_HAL_Driver/Src/stm32f4xx_hal_dma.c ****   __HAL_DMA_CLEAR_FLAG(hdma, __HAL_DMA_GET_TE_FLAG_INDEX(hdma));
 662              		.loc 1 299 0 discriminator 7
 663 032c 01F58061 		add	r1, r1, #1024
 664 0330 8A42     		cmp	r2, r1
 665 0332 28D0     		beq	.L114
 299:../Drivers/STM32F4xx_HAL_Driver/Src/stm32f4xx_hal_dma.c ****   __HAL_DMA_CLEAR_FLAG(hdma, __HAL_DMA_GET_TE_FLAG_INDEX(hdma));
 666              		.loc 1 299 0 discriminator 9
 667 0334 A1F58961 		sub	r1, r1, #1096
 668 0338 8A42     		cmp	r2, r1
 669 033a 26D0     		beq	.L115
 299:../Drivers/STM32F4xx_HAL_Driver/Src/stm32f4xx_hal_dma.c ****   __HAL_DMA_CLEAR_FLAG(hdma, __HAL_DMA_GET_TE_FLAG_INDEX(hdma));
 670              		.loc 1 299 0 discriminator 11
 671 033c 01F58061 		add	r1, r1, #1024
 672 0340 8A42     		cmp	r2, r1
 673 0342 25D0     		beq	.L116
 299:../Drivers/STM32F4xx_HAL_Driver/Src/stm32f4xx_hal_dma.c ****   __HAL_DMA_CLEAR_FLAG(hdma, __HAL_DMA_GET_TE_FLAG_INDEX(hdma));
 674              		.loc 1 299 0 discriminator 13
 675 0344 A1F56871 		sub	r1, r1, #928
 676 0348 8A42     		cmp	r2, r1
 677 034a 24D0     		beq	.L117
 299:../Drivers/STM32F4xx_HAL_Driver/Src/stm32f4xx_hal_dma.c ****   __HAL_DMA_CLEAR_FLAG(hdma, __HAL_DMA_GET_TE_FLAG_INDEX(hdma));
 678              		.loc 1 299 0 discriminator 15
 679 034c 01F58061 		add	r1, r1, #1024
 680 0350 8A42     		cmp	r2, r1
 681 0352 23D0     		beq	.L118
 299:../Drivers/STM32F4xx_HAL_Driver/Src/stm32f4xx_hal_dma.c ****   __HAL_DMA_CLEAR_FLAG(hdma, __HAL_DMA_GET_TE_FLAG_INDEX(hdma));
 682              		.loc 1 299 0 discriminator 17
 683 0354 A1F58961 		sub	r1, r1, #1096
 684 0358 8A42     		cmp	r2, r1
 685 035a 22D0     		beq	.L119
 299:../Drivers/STM32F4xx_HAL_Driver/Src/stm32f4xx_hal_dma.c ****   __HAL_DMA_CLEAR_FLAG(hdma, __HAL_DMA_GET_TE_FLAG_INDEX(hdma));
 686              		.loc 1 299 0 discriminator 19
 687 035c 01F58061 		add	r1, r1, #1024
 688 0360 8A42     		cmp	r2, r1
 689 0362 21D0     		beq	.L120
 299:../Drivers/STM32F4xx_HAL_Driver/Src/stm32f4xx_hal_dma.c ****   __HAL_DMA_CLEAR_FLAG(hdma, __HAL_DMA_GET_TE_FLAG_INDEX(hdma));
 690              		.loc 1 299 0 discriminator 21
 691 0364 A1F56871 		sub	r1, r1, #928
 692 0368 8A42     		cmp	r2, r1
 693 036a 20D0     		beq	.L121
 299:../Drivers/STM32F4xx_HAL_Driver/Src/stm32f4xx_hal_dma.c ****   __HAL_DMA_CLEAR_FLAG(hdma, __HAL_DMA_GET_TE_FLAG_INDEX(hdma));
 694              		.loc 1 299 0 discriminator 23
 695 036c 01F58061 		add	r1, r1, #1024
 696 0370 8A42     		cmp	r2, r1
 697 0372 1FD1     		bne	.L122
 299:../Drivers/STM32F4xx_HAL_Driver/Src/stm32f4xx_hal_dma.c ****   __HAL_DMA_CLEAR_FLAG(hdma, __HAL_DMA_GET_TE_FLAG_INDEX(hdma));
 698              		.loc 1 299 0
 699 0374 4FF40011 		mov	r1, #2097152
 700 0378 1EE0     		b	.L26
 701              	.L111:
 702 037a 2021     		movs	r1, #32
 703 037c 1CE0     		b	.L26
 704              	.L112:
 705 037e 2021     		movs	r1, #32
 706 0380 1AE0     		b	.L26
ARM GAS  /tmp/ccIvKYQX.s 			page 31


 707              	.L113:
 708 0382 2021     		movs	r1, #32
 709 0384 18E0     		b	.L26
 710              	.L114:
 711 0386 2021     		movs	r1, #32
 712 0388 16E0     		b	.L26
 713              	.L115:
 714 038a 4FF40061 		mov	r1, #2048
 715 038e 13E0     		b	.L26
 716              	.L116:
 717 0390 4FF40061 		mov	r1, #2048
 718 0394 10E0     		b	.L26
 719              	.L117:
 720 0396 4FF40061 		mov	r1, #2048
 721 039a 0DE0     		b	.L26
 722              	.L118:
 723 039c 4FF40061 		mov	r1, #2048
 724 03a0 0AE0     		b	.L26
 725              	.L119:
 726 03a2 4FF40011 		mov	r1, #2097152
 727 03a6 07E0     		b	.L26
 728              	.L120:
 729 03a8 4FF40011 		mov	r1, #2097152
 730 03ac 04E0     		b	.L26
 731              	.L121:
 732 03ae 4FF40011 		mov	r1, #2097152
 733 03b2 01E0     		b	.L26
 734              	.L122:
 735 03b4 4FF00061 		mov	r1, #134217728
 736              	.L26:
 299:../Drivers/STM32F4xx_HAL_Driver/Src/stm32f4xx_hal_dma.c ****   __HAL_DMA_CLEAR_FLAG(hdma, __HAL_DMA_GET_TE_FLAG_INDEX(hdma));
 737              		.loc 1 299 0 discriminator 50
 738 03b8 814A     		ldr	r2, .L305+8
 739 03ba D160     		str	r1, [r2, #12]
 740 03bc 0CE1     		b	.L27
 741              	.L25:
 299:../Drivers/STM32F4xx_HAL_Driver/Src/stm32f4xx_hal_dma.c ****   __HAL_DMA_CLEAR_FLAG(hdma, __HAL_DMA_GET_TE_FLAG_INDEX(hdma));
 742              		.loc 1 299 0 discriminator 2
 743 03be 8149     		ldr	r1, .L305+12
 744 03c0 8A42     		cmp	r2, r1
 745 03c2 53D9     		bls	.L28
 299:../Drivers/STM32F4xx_HAL_Driver/Src/stm32f4xx_hal_dma.c ****   __HAL_DMA_CLEAR_FLAG(hdma, __HAL_DMA_GET_TE_FLAG_INDEX(hdma));
 746              		.loc 1 299 0 discriminator 51
 747 03c4 A839     		subs	r1, r1, #168
 748 03c6 8A42     		cmp	r2, r1
 749 03c8 2ED0     		beq	.L123
 299:../Drivers/STM32F4xx_HAL_Driver/Src/stm32f4xx_hal_dma.c ****   __HAL_DMA_CLEAR_FLAG(hdma, __HAL_DMA_GET_TE_FLAG_INDEX(hdma));
 750              		.loc 1 299 0 discriminator 53
 751 03ca 01F58061 		add	r1, r1, #1024
 752 03ce 8A42     		cmp	r2, r1
 753 03d0 2CD0     		beq	.L124
 299:../Drivers/STM32F4xx_HAL_Driver/Src/stm32f4xx_hal_dma.c ****   __HAL_DMA_CLEAR_FLAG(hdma, __HAL_DMA_GET_TE_FLAG_INDEX(hdma));
 754              		.loc 1 299 0 discriminator 55
 755 03d2 A1F56871 		sub	r1, r1, #928
 756 03d6 8A42     		cmp	r2, r1
 757 03d8 2AD0     		beq	.L125
 299:../Drivers/STM32F4xx_HAL_Driver/Src/stm32f4xx_hal_dma.c ****   __HAL_DMA_CLEAR_FLAG(hdma, __HAL_DMA_GET_TE_FLAG_INDEX(hdma));
ARM GAS  /tmp/ccIvKYQX.s 			page 32


 758              		.loc 1 299 0 discriminator 57
 759 03da 01F58061 		add	r1, r1, #1024
 760 03de 8A42     		cmp	r2, r1
 761 03e0 28D0     		beq	.L126
 299:../Drivers/STM32F4xx_HAL_Driver/Src/stm32f4xx_hal_dma.c ****   __HAL_DMA_CLEAR_FLAG(hdma, __HAL_DMA_GET_TE_FLAG_INDEX(hdma));
 762              		.loc 1 299 0 discriminator 59
 763 03e2 A1F58961 		sub	r1, r1, #1096
 764 03e6 8A42     		cmp	r2, r1
 765 03e8 26D0     		beq	.L127
 299:../Drivers/STM32F4xx_HAL_Driver/Src/stm32f4xx_hal_dma.c ****   __HAL_DMA_CLEAR_FLAG(hdma, __HAL_DMA_GET_TE_FLAG_INDEX(hdma));
 766              		.loc 1 299 0 discriminator 61
 767 03ea 01F58061 		add	r1, r1, #1024
 768 03ee 8A42     		cmp	r2, r1
 769 03f0 25D0     		beq	.L128
 299:../Drivers/STM32F4xx_HAL_Driver/Src/stm32f4xx_hal_dma.c ****   __HAL_DMA_CLEAR_FLAG(hdma, __HAL_DMA_GET_TE_FLAG_INDEX(hdma));
 770              		.loc 1 299 0 discriminator 63
 771 03f2 A1F56871 		sub	r1, r1, #928
 772 03f6 8A42     		cmp	r2, r1
 773 03f8 24D0     		beq	.L129
 299:../Drivers/STM32F4xx_HAL_Driver/Src/stm32f4xx_hal_dma.c ****   __HAL_DMA_CLEAR_FLAG(hdma, __HAL_DMA_GET_TE_FLAG_INDEX(hdma));
 774              		.loc 1 299 0 discriminator 65
 775 03fa 01F58061 		add	r1, r1, #1024
 776 03fe 8A42     		cmp	r2, r1
 777 0400 23D0     		beq	.L130
 299:../Drivers/STM32F4xx_HAL_Driver/Src/stm32f4xx_hal_dma.c ****   __HAL_DMA_CLEAR_FLAG(hdma, __HAL_DMA_GET_TE_FLAG_INDEX(hdma));
 778              		.loc 1 299 0 discriminator 67
 779 0402 A1F58961 		sub	r1, r1, #1096
 780 0406 8A42     		cmp	r2, r1
 781 0408 22D0     		beq	.L131
 299:../Drivers/STM32F4xx_HAL_Driver/Src/stm32f4xx_hal_dma.c ****   __HAL_DMA_CLEAR_FLAG(hdma, __HAL_DMA_GET_TE_FLAG_INDEX(hdma));
 782              		.loc 1 299 0 discriminator 69
 783 040a 01F58061 		add	r1, r1, #1024
 784 040e 8A42     		cmp	r2, r1
 785 0410 21D0     		beq	.L132
 299:../Drivers/STM32F4xx_HAL_Driver/Src/stm32f4xx_hal_dma.c ****   __HAL_DMA_CLEAR_FLAG(hdma, __HAL_DMA_GET_TE_FLAG_INDEX(hdma));
 786              		.loc 1 299 0 discriminator 71
 787 0412 A1F56871 		sub	r1, r1, #928
 788 0416 8A42     		cmp	r2, r1
 789 0418 20D0     		beq	.L133
 299:../Drivers/STM32F4xx_HAL_Driver/Src/stm32f4xx_hal_dma.c ****   __HAL_DMA_CLEAR_FLAG(hdma, __HAL_DMA_GET_TE_FLAG_INDEX(hdma));
 790              		.loc 1 299 0 discriminator 73
 791 041a 01F58061 		add	r1, r1, #1024
 792 041e 8A42     		cmp	r2, r1
 793 0420 1FD1     		bne	.L134
 299:../Drivers/STM32F4xx_HAL_Driver/Src/stm32f4xx_hal_dma.c ****   __HAL_DMA_CLEAR_FLAG(hdma, __HAL_DMA_GET_TE_FLAG_INDEX(hdma));
 794              		.loc 1 299 0
 795 0422 4FF40011 		mov	r1, #2097152
 796 0426 1EE0     		b	.L29
 797              	.L123:
 798 0428 2021     		movs	r1, #32
 799 042a 1CE0     		b	.L29
 800              	.L124:
 801 042c 2021     		movs	r1, #32
 802 042e 1AE0     		b	.L29
 803              	.L125:
 804 0430 2021     		movs	r1, #32
 805 0432 18E0     		b	.L29
ARM GAS  /tmp/ccIvKYQX.s 			page 33


 806              	.L126:
 807 0434 2021     		movs	r1, #32
 808 0436 16E0     		b	.L29
 809              	.L127:
 810 0438 4FF40061 		mov	r1, #2048
 811 043c 13E0     		b	.L29
 812              	.L128:
 813 043e 4FF40061 		mov	r1, #2048
 814 0442 10E0     		b	.L29
 815              	.L129:
 816 0444 4FF40061 		mov	r1, #2048
 817 0448 0DE0     		b	.L29
 818              	.L130:
 819 044a 4FF40061 		mov	r1, #2048
 820 044e 0AE0     		b	.L29
 821              	.L131:
 822 0450 4FF40011 		mov	r1, #2097152
 823 0454 07E0     		b	.L29
 824              	.L132:
 825 0456 4FF40011 		mov	r1, #2097152
 826 045a 04E0     		b	.L29
 827              	.L133:
 828 045c 4FF40011 		mov	r1, #2097152
 829 0460 01E0     		b	.L29
 830              	.L134:
 831 0462 4FF00061 		mov	r1, #134217728
 832              	.L29:
 299:../Drivers/STM32F4xx_HAL_Driver/Src/stm32f4xx_hal_dma.c ****   __HAL_DMA_CLEAR_FLAG(hdma, __HAL_DMA_GET_TE_FLAG_INDEX(hdma));
 833              		.loc 1 299 0 discriminator 100
 834 0466 564A     		ldr	r2, .L305+8
 835 0468 9160     		str	r1, [r2, #8]
 836 046a B5E0     		b	.L27
 837              	.L28:
 299:../Drivers/STM32F4xx_HAL_Driver/Src/stm32f4xx_hal_dma.c ****   __HAL_DMA_CLEAR_FLAG(hdma, __HAL_DMA_GET_TE_FLAG_INDEX(hdma));
 838              		.loc 1 299 0 discriminator 52
 839 046c 5649     		ldr	r1, .L305+16
 840 046e 8A42     		cmp	r2, r1
 841 0470 53D9     		bls	.L31
 299:../Drivers/STM32F4xx_HAL_Driver/Src/stm32f4xx_hal_dma.c ****   __HAL_DMA_CLEAR_FLAG(hdma, __HAL_DMA_GET_TE_FLAG_INDEX(hdma));
 842              		.loc 1 299 0 discriminator 102
 843 0472 4839     		subs	r1, r1, #72
 844 0474 8A42     		cmp	r2, r1
 845 0476 2ED0     		beq	.L135
 299:../Drivers/STM32F4xx_HAL_Driver/Src/stm32f4xx_hal_dma.c ****   __HAL_DMA_CLEAR_FLAG(hdma, __HAL_DMA_GET_TE_FLAG_INDEX(hdma));
 846              		.loc 1 299 0 discriminator 104
 847 0478 01F58061 		add	r1, r1, #1024
 848 047c 8A42     		cmp	r2, r1
 849 047e 2CD0     		beq	.L136
 299:../Drivers/STM32F4xx_HAL_Driver/Src/stm32f4xx_hal_dma.c ****   __HAL_DMA_CLEAR_FLAG(hdma, __HAL_DMA_GET_TE_FLAG_INDEX(hdma));
 850              		.loc 1 299 0 discriminator 106
 851 0480 A1F56871 		sub	r1, r1, #928
 852 0484 8A42     		cmp	r2, r1
 853 0486 2AD0     		beq	.L137
 299:../Drivers/STM32F4xx_HAL_Driver/Src/stm32f4xx_hal_dma.c ****   __HAL_DMA_CLEAR_FLAG(hdma, __HAL_DMA_GET_TE_FLAG_INDEX(hdma));
 854              		.loc 1 299 0 discriminator 108
 855 0488 01F58061 		add	r1, r1, #1024
 856 048c 8A42     		cmp	r2, r1
ARM GAS  /tmp/ccIvKYQX.s 			page 34


 857 048e 28D0     		beq	.L138
 299:../Drivers/STM32F4xx_HAL_Driver/Src/stm32f4xx_hal_dma.c ****   __HAL_DMA_CLEAR_FLAG(hdma, __HAL_DMA_GET_TE_FLAG_INDEX(hdma));
 858              		.loc 1 299 0 discriminator 110
 859 0490 A1F58961 		sub	r1, r1, #1096
 860 0494 8A42     		cmp	r2, r1
 861 0496 26D0     		beq	.L139
 299:../Drivers/STM32F4xx_HAL_Driver/Src/stm32f4xx_hal_dma.c ****   __HAL_DMA_CLEAR_FLAG(hdma, __HAL_DMA_GET_TE_FLAG_INDEX(hdma));
 862              		.loc 1 299 0 discriminator 112
 863 0498 01F58061 		add	r1, r1, #1024
 864 049c 8A42     		cmp	r2, r1
 865 049e 25D0     		beq	.L140
 299:../Drivers/STM32F4xx_HAL_Driver/Src/stm32f4xx_hal_dma.c ****   __HAL_DMA_CLEAR_FLAG(hdma, __HAL_DMA_GET_TE_FLAG_INDEX(hdma));
 866              		.loc 1 299 0 discriminator 114
 867 04a0 A1F56871 		sub	r1, r1, #928
 868 04a4 8A42     		cmp	r2, r1
 869 04a6 24D0     		beq	.L141
 299:../Drivers/STM32F4xx_HAL_Driver/Src/stm32f4xx_hal_dma.c ****   __HAL_DMA_CLEAR_FLAG(hdma, __HAL_DMA_GET_TE_FLAG_INDEX(hdma));
 870              		.loc 1 299 0 discriminator 116
 871 04a8 01F58061 		add	r1, r1, #1024
 872 04ac 8A42     		cmp	r2, r1
 873 04ae 23D0     		beq	.L142
 299:../Drivers/STM32F4xx_HAL_Driver/Src/stm32f4xx_hal_dma.c ****   __HAL_DMA_CLEAR_FLAG(hdma, __HAL_DMA_GET_TE_FLAG_INDEX(hdma));
 874              		.loc 1 299 0 discriminator 118
 875 04b0 A1F58961 		sub	r1, r1, #1096
 876 04b4 8A42     		cmp	r2, r1
 877 04b6 22D0     		beq	.L143
 299:../Drivers/STM32F4xx_HAL_Driver/Src/stm32f4xx_hal_dma.c ****   __HAL_DMA_CLEAR_FLAG(hdma, __HAL_DMA_GET_TE_FLAG_INDEX(hdma));
 878              		.loc 1 299 0 discriminator 120
 879 04b8 01F58061 		add	r1, r1, #1024
 880 04bc 8A42     		cmp	r2, r1
 881 04be 21D0     		beq	.L144
 299:../Drivers/STM32F4xx_HAL_Driver/Src/stm32f4xx_hal_dma.c ****   __HAL_DMA_CLEAR_FLAG(hdma, __HAL_DMA_GET_TE_FLAG_INDEX(hdma));
 882              		.loc 1 299 0 discriminator 122
 883 04c0 A1F56871 		sub	r1, r1, #928
 884 04c4 8A42     		cmp	r2, r1
 885 04c6 20D0     		beq	.L145
 299:../Drivers/STM32F4xx_HAL_Driver/Src/stm32f4xx_hal_dma.c ****   __HAL_DMA_CLEAR_FLAG(hdma, __HAL_DMA_GET_TE_FLAG_INDEX(hdma));
 886              		.loc 1 299 0 discriminator 124
 887 04c8 01F58061 		add	r1, r1, #1024
 888 04cc 8A42     		cmp	r2, r1
 889 04ce 1FD1     		bne	.L146
 299:../Drivers/STM32F4xx_HAL_Driver/Src/stm32f4xx_hal_dma.c ****   __HAL_DMA_CLEAR_FLAG(hdma, __HAL_DMA_GET_TE_FLAG_INDEX(hdma));
 890              		.loc 1 299 0
 891 04d0 4FF40011 		mov	r1, #2097152
 892 04d4 1EE0     		b	.L32
 893              	.L135:
 894 04d6 2021     		movs	r1, #32
 895 04d8 1CE0     		b	.L32
 896              	.L136:
 897 04da 2021     		movs	r1, #32
 898 04dc 1AE0     		b	.L32
 899              	.L137:
 900 04de 2021     		movs	r1, #32
 901 04e0 18E0     		b	.L32
 902              	.L138:
 903 04e2 2021     		movs	r1, #32
 904 04e4 16E0     		b	.L32
ARM GAS  /tmp/ccIvKYQX.s 			page 35


 905              	.L139:
 906 04e6 4FF40061 		mov	r1, #2048
 907 04ea 13E0     		b	.L32
 908              	.L140:
 909 04ec 4FF40061 		mov	r1, #2048
 910 04f0 10E0     		b	.L32
 911              	.L141:
 912 04f2 4FF40061 		mov	r1, #2048
 913 04f6 0DE0     		b	.L32
 914              	.L142:
 915 04f8 4FF40061 		mov	r1, #2048
 916 04fc 0AE0     		b	.L32
 917              	.L143:
 918 04fe 4FF40011 		mov	r1, #2097152
 919 0502 07E0     		b	.L32
 920              	.L144:
 921 0504 4FF40011 		mov	r1, #2097152
 922 0508 04E0     		b	.L32
 923              	.L145:
 924 050a 4FF40011 		mov	r1, #2097152
 925 050e 01E0     		b	.L32
 926              	.L146:
 927 0510 4FF00061 		mov	r1, #134217728
 928              	.L32:
 299:../Drivers/STM32F4xx_HAL_Driver/Src/stm32f4xx_hal_dma.c ****   __HAL_DMA_CLEAR_FLAG(hdma, __HAL_DMA_GET_TE_FLAG_INDEX(hdma));
 929              		.loc 1 299 0 discriminator 151
 930 0514 284A     		ldr	r2, .L305
 931 0516 D160     		str	r1, [r2, #12]
 932 0518 5EE0     		b	.L27
 933              	.L31:
 299:../Drivers/STM32F4xx_HAL_Driver/Src/stm32f4xx_hal_dma.c ****   __HAL_DMA_CLEAR_FLAG(hdma, __HAL_DMA_GET_TE_FLAG_INDEX(hdma));
 934              		.loc 1 299 0 discriminator 103
 935 051a 2C49     		ldr	r1, .L305+20
 936 051c 8A42     		cmp	r2, r1
 937 051e 2ED0     		beq	.L147
 299:../Drivers/STM32F4xx_HAL_Driver/Src/stm32f4xx_hal_dma.c ****   __HAL_DMA_CLEAR_FLAG(hdma, __HAL_DMA_GET_TE_FLAG_INDEX(hdma));
 938              		.loc 1 299 0 discriminator 153
 939 0520 01F58061 		add	r1, r1, #1024
 940 0524 8A42     		cmp	r2, r1
 941 0526 2CD0     		beq	.L148
 299:../Drivers/STM32F4xx_HAL_Driver/Src/stm32f4xx_hal_dma.c ****   __HAL_DMA_CLEAR_FLAG(hdma, __HAL_DMA_GET_TE_FLAG_INDEX(hdma));
 942              		.loc 1 299 0 discriminator 155
 943 0528 A1F56871 		sub	r1, r1, #928
 944 052c 8A42     		cmp	r2, r1
 945 052e 2AD0     		beq	.L149
 299:../Drivers/STM32F4xx_HAL_Driver/Src/stm32f4xx_hal_dma.c ****   __HAL_DMA_CLEAR_FLAG(hdma, __HAL_DMA_GET_TE_FLAG_INDEX(hdma));
 946              		.loc 1 299 0 discriminator 157
 947 0530 01F58061 		add	r1, r1, #1024
 948 0534 8A42     		cmp	r2, r1
 949 0536 28D0     		beq	.L150
 299:../Drivers/STM32F4xx_HAL_Driver/Src/stm32f4xx_hal_dma.c ****   __HAL_DMA_CLEAR_FLAG(hdma, __HAL_DMA_GET_TE_FLAG_INDEX(hdma));
 950              		.loc 1 299 0 discriminator 159
 951 0538 A1F58961 		sub	r1, r1, #1096
 952 053c 8A42     		cmp	r2, r1
 953 053e 26D0     		beq	.L151
 299:../Drivers/STM32F4xx_HAL_Driver/Src/stm32f4xx_hal_dma.c ****   __HAL_DMA_CLEAR_FLAG(hdma, __HAL_DMA_GET_TE_FLAG_INDEX(hdma));
 954              		.loc 1 299 0 discriminator 161
ARM GAS  /tmp/ccIvKYQX.s 			page 36


 955 0540 01F58061 		add	r1, r1, #1024
 956 0544 8A42     		cmp	r2, r1
 957 0546 25D0     		beq	.L152
 299:../Drivers/STM32F4xx_HAL_Driver/Src/stm32f4xx_hal_dma.c ****   __HAL_DMA_CLEAR_FLAG(hdma, __HAL_DMA_GET_TE_FLAG_INDEX(hdma));
 958              		.loc 1 299 0 discriminator 163
 959 0548 A1F56871 		sub	r1, r1, #928
 960 054c 8A42     		cmp	r2, r1
 961 054e 24D0     		beq	.L153
 299:../Drivers/STM32F4xx_HAL_Driver/Src/stm32f4xx_hal_dma.c ****   __HAL_DMA_CLEAR_FLAG(hdma, __HAL_DMA_GET_TE_FLAG_INDEX(hdma));
 962              		.loc 1 299 0 discriminator 165
 963 0550 01F58061 		add	r1, r1, #1024
 964 0554 8A42     		cmp	r2, r1
 965 0556 23D0     		beq	.L154
 299:../Drivers/STM32F4xx_HAL_Driver/Src/stm32f4xx_hal_dma.c ****   __HAL_DMA_CLEAR_FLAG(hdma, __HAL_DMA_GET_TE_FLAG_INDEX(hdma));
 966              		.loc 1 299 0 discriminator 167
 967 0558 A1F58961 		sub	r1, r1, #1096
 968 055c 8A42     		cmp	r2, r1
 969 055e 22D0     		beq	.L155
 299:../Drivers/STM32F4xx_HAL_Driver/Src/stm32f4xx_hal_dma.c ****   __HAL_DMA_CLEAR_FLAG(hdma, __HAL_DMA_GET_TE_FLAG_INDEX(hdma));
 970              		.loc 1 299 0 discriminator 169
 971 0560 01F58061 		add	r1, r1, #1024
 972 0564 8A42     		cmp	r2, r1
 973 0566 21D0     		beq	.L156
 299:../Drivers/STM32F4xx_HAL_Driver/Src/stm32f4xx_hal_dma.c ****   __HAL_DMA_CLEAR_FLAG(hdma, __HAL_DMA_GET_TE_FLAG_INDEX(hdma));
 974              		.loc 1 299 0 discriminator 171
 975 0568 A1F56871 		sub	r1, r1, #928
 976 056c 8A42     		cmp	r2, r1
 977 056e 20D0     		beq	.L157
 299:../Drivers/STM32F4xx_HAL_Driver/Src/stm32f4xx_hal_dma.c ****   __HAL_DMA_CLEAR_FLAG(hdma, __HAL_DMA_GET_TE_FLAG_INDEX(hdma));
 978              		.loc 1 299 0 discriminator 173
 979 0570 01F58061 		add	r1, r1, #1024
 980 0574 8A42     		cmp	r2, r1
 981 0576 2BD1     		bne	.L158
 299:../Drivers/STM32F4xx_HAL_Driver/Src/stm32f4xx_hal_dma.c ****   __HAL_DMA_CLEAR_FLAG(hdma, __HAL_DMA_GET_TE_FLAG_INDEX(hdma));
 982              		.loc 1 299 0
 983 0578 4FF40011 		mov	r1, #2097152
 984 057c 2AE0     		b	.L33
 985              	.L147:
 986 057e 2021     		movs	r1, #32
 987 0580 28E0     		b	.L33
 988              	.L148:
 989 0582 2021     		movs	r1, #32
 990 0584 26E0     		b	.L33
 991              	.L149:
 992 0586 2021     		movs	r1, #32
 993 0588 24E0     		b	.L33
 994              	.L150:
 995 058a 2021     		movs	r1, #32
 996 058c 22E0     		b	.L33
 997              	.L151:
 998 058e 4FF40061 		mov	r1, #2048
 999 0592 1FE0     		b	.L33
 1000              	.L152:
 1001 0594 4FF40061 		mov	r1, #2048
 1002 0598 1CE0     		b	.L33
 1003              	.L153:
 1004 059a 4FF40061 		mov	r1, #2048
ARM GAS  /tmp/ccIvKYQX.s 			page 37


 1005 059e 19E0     		b	.L33
 1006              	.L154:
 1007 05a0 4FF40061 		mov	r1, #2048
 1008 05a4 16E0     		b	.L33
 1009              	.L155:
 1010 05a6 4FF40011 		mov	r1, #2097152
 1011 05aa 13E0     		b	.L33
 1012              	.L156:
 1013 05ac 4FF40011 		mov	r1, #2097152
 1014 05b0 10E0     		b	.L33
 1015              	.L157:
 1016 05b2 4FF40011 		mov	r1, #2097152
 1017 05b6 0DE0     		b	.L33
 1018              	.L306:
 1019              		.align	2
 1020              	.L305:
 1021 05b8 00600240 		.word	1073897472
 1022 05bc 58640240 		.word	1073898584
 1023 05c0 00640240 		.word	1073898496
 1024 05c4 B8600240 		.word	1073897656
 1025 05c8 58600240 		.word	1073897560
 1026 05cc 10600240 		.word	1073897488
 1027              	.L158:
 1028 05d0 4FF00061 		mov	r1, #134217728
 1029              	.L33:
 299:../Drivers/STM32F4xx_HAL_Driver/Src/stm32f4xx_hal_dma.c ****   __HAL_DMA_CLEAR_FLAG(hdma, __HAL_DMA_GET_TE_FLAG_INDEX(hdma));
 1030              		.loc 1 299 0 discriminator 200
 1031 05d4 AB4A     		ldr	r2, .L307
 1032 05d6 9160     		str	r1, [r2, #8]
 1033              	.L27:
 300:../Drivers/STM32F4xx_HAL_Driver/Src/stm32f4xx_hal_dma.c ****   __HAL_DMA_CLEAR_FLAG(hdma, __HAL_DMA_GET_FE_FLAG_INDEX(hdma));
 1034              		.loc 1 300 0 is_stmt 1
 1035 05d8 1A68     		ldr	r2, [r3]
 1036 05da AB49     		ldr	r1, .L307+4
 1037 05dc 8A42     		cmp	r2, r1
 1038 05de 54D9     		bls	.L34
 300:../Drivers/STM32F4xx_HAL_Driver/Src/stm32f4xx_hal_dma.c ****   __HAL_DMA_CLEAR_FLAG(hdma, __HAL_DMA_GET_FE_FLAG_INDEX(hdma));
 1039              		.loc 1 300 0 is_stmt 0 discriminator 1
 1040 05e0 A1F58961 		sub	r1, r1, #1096
 1041 05e4 8A42     		cmp	r2, r1
 1042 05e6 2ED0     		beq	.L159
 300:../Drivers/STM32F4xx_HAL_Driver/Src/stm32f4xx_hal_dma.c ****   __HAL_DMA_CLEAR_FLAG(hdma, __HAL_DMA_GET_FE_FLAG_INDEX(hdma));
 1043              		.loc 1 300 0 discriminator 3
 1044 05e8 01F58061 		add	r1, r1, #1024
 1045 05ec 8A42     		cmp	r2, r1
 1046 05ee 2CD0     		beq	.L160
 300:../Drivers/STM32F4xx_HAL_Driver/Src/stm32f4xx_hal_dma.c ****   __HAL_DMA_CLEAR_FLAG(hdma, __HAL_DMA_GET_FE_FLAG_INDEX(hdma));
 1047              		.loc 1 300 0 discriminator 5
 1048 05f0 A1F56871 		sub	r1, r1, #928
 1049 05f4 8A42     		cmp	r2, r1
 1050 05f6 2AD0     		beq	.L161
 300:../Drivers/STM32F4xx_HAL_Driver/Src/stm32f4xx_hal_dma.c ****   __HAL_DMA_CLEAR_FLAG(hdma, __HAL_DMA_GET_FE_FLAG_INDEX(hdma));
 1051              		.loc 1 300 0 discriminator 7
 1052 05f8 01F58061 		add	r1, r1, #1024
 1053 05fc 8A42     		cmp	r2, r1
 1054 05fe 28D0     		beq	.L162
 300:../Drivers/STM32F4xx_HAL_Driver/Src/stm32f4xx_hal_dma.c ****   __HAL_DMA_CLEAR_FLAG(hdma, __HAL_DMA_GET_FE_FLAG_INDEX(hdma));
ARM GAS  /tmp/ccIvKYQX.s 			page 38


 1055              		.loc 1 300 0 discriminator 9
 1056 0600 A1F58961 		sub	r1, r1, #1096
 1057 0604 8A42     		cmp	r2, r1
 1058 0606 26D0     		beq	.L163
 300:../Drivers/STM32F4xx_HAL_Driver/Src/stm32f4xx_hal_dma.c ****   __HAL_DMA_CLEAR_FLAG(hdma, __HAL_DMA_GET_FE_FLAG_INDEX(hdma));
 1059              		.loc 1 300 0 discriminator 11
 1060 0608 01F58061 		add	r1, r1, #1024
 1061 060c 8A42     		cmp	r2, r1
 1062 060e 25D0     		beq	.L164
 300:../Drivers/STM32F4xx_HAL_Driver/Src/stm32f4xx_hal_dma.c ****   __HAL_DMA_CLEAR_FLAG(hdma, __HAL_DMA_GET_FE_FLAG_INDEX(hdma));
 1063              		.loc 1 300 0 discriminator 13
 1064 0610 A1F56871 		sub	r1, r1, #928
 1065 0614 8A42     		cmp	r2, r1
 1066 0616 24D0     		beq	.L165
 300:../Drivers/STM32F4xx_HAL_Driver/Src/stm32f4xx_hal_dma.c ****   __HAL_DMA_CLEAR_FLAG(hdma, __HAL_DMA_GET_FE_FLAG_INDEX(hdma));
 1067              		.loc 1 300 0 discriminator 15
 1068 0618 01F58061 		add	r1, r1, #1024
 1069 061c 8A42     		cmp	r2, r1
 1070 061e 23D0     		beq	.L166
 300:../Drivers/STM32F4xx_HAL_Driver/Src/stm32f4xx_hal_dma.c ****   __HAL_DMA_CLEAR_FLAG(hdma, __HAL_DMA_GET_FE_FLAG_INDEX(hdma));
 1071              		.loc 1 300 0 discriminator 17
 1072 0620 A1F58961 		sub	r1, r1, #1096
 1073 0624 8A42     		cmp	r2, r1
 1074 0626 22D0     		beq	.L167
 300:../Drivers/STM32F4xx_HAL_Driver/Src/stm32f4xx_hal_dma.c ****   __HAL_DMA_CLEAR_FLAG(hdma, __HAL_DMA_GET_FE_FLAG_INDEX(hdma));
 1075              		.loc 1 300 0 discriminator 19
 1076 0628 01F58061 		add	r1, r1, #1024
 1077 062c 8A42     		cmp	r2, r1
 1078 062e 21D0     		beq	.L168
 300:../Drivers/STM32F4xx_HAL_Driver/Src/stm32f4xx_hal_dma.c ****   __HAL_DMA_CLEAR_FLAG(hdma, __HAL_DMA_GET_FE_FLAG_INDEX(hdma));
 1079              		.loc 1 300 0 discriminator 21
 1080 0630 A1F56871 		sub	r1, r1, #928
 1081 0634 8A42     		cmp	r2, r1
 1082 0636 20D0     		beq	.L169
 300:../Drivers/STM32F4xx_HAL_Driver/Src/stm32f4xx_hal_dma.c ****   __HAL_DMA_CLEAR_FLAG(hdma, __HAL_DMA_GET_FE_FLAG_INDEX(hdma));
 1083              		.loc 1 300 0 discriminator 23
 1084 0638 01F58061 		add	r1, r1, #1024
 1085 063c 8A42     		cmp	r2, r1
 1086 063e 1FD1     		bne	.L170
 300:../Drivers/STM32F4xx_HAL_Driver/Src/stm32f4xx_hal_dma.c ****   __HAL_DMA_CLEAR_FLAG(hdma, __HAL_DMA_GET_FE_FLAG_INDEX(hdma));
 1087              		.loc 1 300 0
 1088 0640 4FF40021 		mov	r1, #524288
 1089 0644 1EE0     		b	.L35
 1090              	.L159:
 1091 0646 0821     		movs	r1, #8
 1092 0648 1CE0     		b	.L35
 1093              	.L160:
 1094 064a 0821     		movs	r1, #8
 1095 064c 1AE0     		b	.L35
 1096              	.L161:
 1097 064e 0821     		movs	r1, #8
 1098 0650 18E0     		b	.L35
 1099              	.L162:
 1100 0652 0821     		movs	r1, #8
 1101 0654 16E0     		b	.L35
 1102              	.L163:
 1103 0656 4FF40071 		mov	r1, #512
ARM GAS  /tmp/ccIvKYQX.s 			page 39


 1104 065a 13E0     		b	.L35
 1105              	.L164:
 1106 065c 4FF40071 		mov	r1, #512
 1107 0660 10E0     		b	.L35
 1108              	.L165:
 1109 0662 4FF40071 		mov	r1, #512
 1110 0666 0DE0     		b	.L35
 1111              	.L166:
 1112 0668 4FF40071 		mov	r1, #512
 1113 066c 0AE0     		b	.L35
 1114              	.L167:
 1115 066e 4FF40021 		mov	r1, #524288
 1116 0672 07E0     		b	.L35
 1117              	.L168:
 1118 0674 4FF40021 		mov	r1, #524288
 1119 0678 04E0     		b	.L35
 1120              	.L169:
 1121 067a 4FF40021 		mov	r1, #524288
 1122 067e 01E0     		b	.L35
 1123              	.L170:
 1124 0680 4FF00071 		mov	r1, #33554432
 1125              	.L35:
 300:../Drivers/STM32F4xx_HAL_Driver/Src/stm32f4xx_hal_dma.c ****   __HAL_DMA_CLEAR_FLAG(hdma, __HAL_DMA_GET_FE_FLAG_INDEX(hdma));
 1126              		.loc 1 300 0 discriminator 50
 1127 0684 814A     		ldr	r2, .L307+8
 1128 0686 D160     		str	r1, [r2, #12]
 1129 0688 0CE1     		b	.L36
 1130              	.L34:
 300:../Drivers/STM32F4xx_HAL_Driver/Src/stm32f4xx_hal_dma.c ****   __HAL_DMA_CLEAR_FLAG(hdma, __HAL_DMA_GET_FE_FLAG_INDEX(hdma));
 1131              		.loc 1 300 0 discriminator 2
 1132 068a 8149     		ldr	r1, .L307+12
 1133 068c 8A42     		cmp	r2, r1
 1134 068e 53D9     		bls	.L37
 300:../Drivers/STM32F4xx_HAL_Driver/Src/stm32f4xx_hal_dma.c ****   __HAL_DMA_CLEAR_FLAG(hdma, __HAL_DMA_GET_FE_FLAG_INDEX(hdma));
 1135              		.loc 1 300 0 discriminator 51
 1136 0690 A839     		subs	r1, r1, #168
 1137 0692 8A42     		cmp	r2, r1
 1138 0694 2ED0     		beq	.L171
 300:../Drivers/STM32F4xx_HAL_Driver/Src/stm32f4xx_hal_dma.c ****   __HAL_DMA_CLEAR_FLAG(hdma, __HAL_DMA_GET_FE_FLAG_INDEX(hdma));
 1139              		.loc 1 300 0 discriminator 53
 1140 0696 01F58061 		add	r1, r1, #1024
 1141 069a 8A42     		cmp	r2, r1
 1142 069c 2CD0     		beq	.L172
 300:../Drivers/STM32F4xx_HAL_Driver/Src/stm32f4xx_hal_dma.c ****   __HAL_DMA_CLEAR_FLAG(hdma, __HAL_DMA_GET_FE_FLAG_INDEX(hdma));
 1143              		.loc 1 300 0 discriminator 55
 1144 069e A1F56871 		sub	r1, r1, #928
 1145 06a2 8A42     		cmp	r2, r1
 1146 06a4 2AD0     		beq	.L173
 300:../Drivers/STM32F4xx_HAL_Driver/Src/stm32f4xx_hal_dma.c ****   __HAL_DMA_CLEAR_FLAG(hdma, __HAL_DMA_GET_FE_FLAG_INDEX(hdma));
 1147              		.loc 1 300 0 discriminator 57
 1148 06a6 01F58061 		add	r1, r1, #1024
 1149 06aa 8A42     		cmp	r2, r1
 1150 06ac 28D0     		beq	.L174
 300:../Drivers/STM32F4xx_HAL_Driver/Src/stm32f4xx_hal_dma.c ****   __HAL_DMA_CLEAR_FLAG(hdma, __HAL_DMA_GET_FE_FLAG_INDEX(hdma));
 1151              		.loc 1 300 0 discriminator 59
 1152 06ae A1F58961 		sub	r1, r1, #1096
 1153 06b2 8A42     		cmp	r2, r1
ARM GAS  /tmp/ccIvKYQX.s 			page 40


 1154 06b4 26D0     		beq	.L175
 300:../Drivers/STM32F4xx_HAL_Driver/Src/stm32f4xx_hal_dma.c ****   __HAL_DMA_CLEAR_FLAG(hdma, __HAL_DMA_GET_FE_FLAG_INDEX(hdma));
 1155              		.loc 1 300 0 discriminator 61
 1156 06b6 01F58061 		add	r1, r1, #1024
 1157 06ba 8A42     		cmp	r2, r1
 1158 06bc 25D0     		beq	.L176
 300:../Drivers/STM32F4xx_HAL_Driver/Src/stm32f4xx_hal_dma.c ****   __HAL_DMA_CLEAR_FLAG(hdma, __HAL_DMA_GET_FE_FLAG_INDEX(hdma));
 1159              		.loc 1 300 0 discriminator 63
 1160 06be A1F56871 		sub	r1, r1, #928
 1161 06c2 8A42     		cmp	r2, r1
 1162 06c4 24D0     		beq	.L177
 300:../Drivers/STM32F4xx_HAL_Driver/Src/stm32f4xx_hal_dma.c ****   __HAL_DMA_CLEAR_FLAG(hdma, __HAL_DMA_GET_FE_FLAG_INDEX(hdma));
 1163              		.loc 1 300 0 discriminator 65
 1164 06c6 01F58061 		add	r1, r1, #1024
 1165 06ca 8A42     		cmp	r2, r1
 1166 06cc 23D0     		beq	.L178
 300:../Drivers/STM32F4xx_HAL_Driver/Src/stm32f4xx_hal_dma.c ****   __HAL_DMA_CLEAR_FLAG(hdma, __HAL_DMA_GET_FE_FLAG_INDEX(hdma));
 1167              		.loc 1 300 0 discriminator 67
 1168 06ce A1F58961 		sub	r1, r1, #1096
 1169 06d2 8A42     		cmp	r2, r1
 1170 06d4 22D0     		beq	.L179
 300:../Drivers/STM32F4xx_HAL_Driver/Src/stm32f4xx_hal_dma.c ****   __HAL_DMA_CLEAR_FLAG(hdma, __HAL_DMA_GET_FE_FLAG_INDEX(hdma));
 1171              		.loc 1 300 0 discriminator 69
 1172 06d6 01F58061 		add	r1, r1, #1024
 1173 06da 8A42     		cmp	r2, r1
 1174 06dc 21D0     		beq	.L180
 300:../Drivers/STM32F4xx_HAL_Driver/Src/stm32f4xx_hal_dma.c ****   __HAL_DMA_CLEAR_FLAG(hdma, __HAL_DMA_GET_FE_FLAG_INDEX(hdma));
 1175              		.loc 1 300 0 discriminator 71
 1176 06de A1F56871 		sub	r1, r1, #928
 1177 06e2 8A42     		cmp	r2, r1
 1178 06e4 20D0     		beq	.L181
 300:../Drivers/STM32F4xx_HAL_Driver/Src/stm32f4xx_hal_dma.c ****   __HAL_DMA_CLEAR_FLAG(hdma, __HAL_DMA_GET_FE_FLAG_INDEX(hdma));
 1179              		.loc 1 300 0 discriminator 73
 1180 06e6 01F58061 		add	r1, r1, #1024
 1181 06ea 8A42     		cmp	r2, r1
 1182 06ec 1FD1     		bne	.L182
 300:../Drivers/STM32F4xx_HAL_Driver/Src/stm32f4xx_hal_dma.c ****   __HAL_DMA_CLEAR_FLAG(hdma, __HAL_DMA_GET_FE_FLAG_INDEX(hdma));
 1183              		.loc 1 300 0
 1184 06ee 4FF40021 		mov	r1, #524288
 1185 06f2 1EE0     		b	.L38
 1186              	.L171:
 1187 06f4 0821     		movs	r1, #8
 1188 06f6 1CE0     		b	.L38
 1189              	.L172:
 1190 06f8 0821     		movs	r1, #8
 1191 06fa 1AE0     		b	.L38
 1192              	.L173:
 1193 06fc 0821     		movs	r1, #8
 1194 06fe 18E0     		b	.L38
 1195              	.L174:
 1196 0700 0821     		movs	r1, #8
 1197 0702 16E0     		b	.L38
 1198              	.L175:
 1199 0704 4FF40071 		mov	r1, #512
 1200 0708 13E0     		b	.L38
 1201              	.L176:
 1202 070a 4FF40071 		mov	r1, #512
ARM GAS  /tmp/ccIvKYQX.s 			page 41


 1203 070e 10E0     		b	.L38
 1204              	.L177:
 1205 0710 4FF40071 		mov	r1, #512
 1206 0714 0DE0     		b	.L38
 1207              	.L178:
 1208 0716 4FF40071 		mov	r1, #512
 1209 071a 0AE0     		b	.L38
 1210              	.L179:
 1211 071c 4FF40021 		mov	r1, #524288
 1212 0720 07E0     		b	.L38
 1213              	.L180:
 1214 0722 4FF40021 		mov	r1, #524288
 1215 0726 04E0     		b	.L38
 1216              	.L181:
 1217 0728 4FF40021 		mov	r1, #524288
 1218 072c 01E0     		b	.L38
 1219              	.L182:
 1220 072e 4FF00071 		mov	r1, #33554432
 1221              	.L38:
 300:../Drivers/STM32F4xx_HAL_Driver/Src/stm32f4xx_hal_dma.c ****   __HAL_DMA_CLEAR_FLAG(hdma, __HAL_DMA_GET_FE_FLAG_INDEX(hdma));
 1222              		.loc 1 300 0 discriminator 100
 1223 0732 564A     		ldr	r2, .L307+8
 1224 0734 9160     		str	r1, [r2, #8]
 1225 0736 B5E0     		b	.L36
 1226              	.L37:
 300:../Drivers/STM32F4xx_HAL_Driver/Src/stm32f4xx_hal_dma.c ****   __HAL_DMA_CLEAR_FLAG(hdma, __HAL_DMA_GET_FE_FLAG_INDEX(hdma));
 1227              		.loc 1 300 0 discriminator 52
 1228 0738 5649     		ldr	r1, .L307+16
 1229 073a 8A42     		cmp	r2, r1
 1230 073c 53D9     		bls	.L40
 300:../Drivers/STM32F4xx_HAL_Driver/Src/stm32f4xx_hal_dma.c ****   __HAL_DMA_CLEAR_FLAG(hdma, __HAL_DMA_GET_FE_FLAG_INDEX(hdma));
 1231              		.loc 1 300 0 discriminator 102
 1232 073e 4839     		subs	r1, r1, #72
 1233 0740 8A42     		cmp	r2, r1
 1234 0742 2ED0     		beq	.L183
 300:../Drivers/STM32F4xx_HAL_Driver/Src/stm32f4xx_hal_dma.c ****   __HAL_DMA_CLEAR_FLAG(hdma, __HAL_DMA_GET_FE_FLAG_INDEX(hdma));
 1235              		.loc 1 300 0 discriminator 104
 1236 0744 01F58061 		add	r1, r1, #1024
 1237 0748 8A42     		cmp	r2, r1
 1238 074a 2CD0     		beq	.L184
 300:../Drivers/STM32F4xx_HAL_Driver/Src/stm32f4xx_hal_dma.c ****   __HAL_DMA_CLEAR_FLAG(hdma, __HAL_DMA_GET_FE_FLAG_INDEX(hdma));
 1239              		.loc 1 300 0 discriminator 106
 1240 074c A1F56871 		sub	r1, r1, #928
 1241 0750 8A42     		cmp	r2, r1
 1242 0752 2AD0     		beq	.L185
 300:../Drivers/STM32F4xx_HAL_Driver/Src/stm32f4xx_hal_dma.c ****   __HAL_DMA_CLEAR_FLAG(hdma, __HAL_DMA_GET_FE_FLAG_INDEX(hdma));
 1243              		.loc 1 300 0 discriminator 108
 1244 0754 01F58061 		add	r1, r1, #1024
 1245 0758 8A42     		cmp	r2, r1
 1246 075a 28D0     		beq	.L186
 300:../Drivers/STM32F4xx_HAL_Driver/Src/stm32f4xx_hal_dma.c ****   __HAL_DMA_CLEAR_FLAG(hdma, __HAL_DMA_GET_FE_FLAG_INDEX(hdma));
 1247              		.loc 1 300 0 discriminator 110
 1248 075c A1F58961 		sub	r1, r1, #1096
 1249 0760 8A42     		cmp	r2, r1
 1250 0762 26D0     		beq	.L187
 300:../Drivers/STM32F4xx_HAL_Driver/Src/stm32f4xx_hal_dma.c ****   __HAL_DMA_CLEAR_FLAG(hdma, __HAL_DMA_GET_FE_FLAG_INDEX(hdma));
 1251              		.loc 1 300 0 discriminator 112
ARM GAS  /tmp/ccIvKYQX.s 			page 42


 1252 0764 01F58061 		add	r1, r1, #1024
 1253 0768 8A42     		cmp	r2, r1
 1254 076a 25D0     		beq	.L188
 300:../Drivers/STM32F4xx_HAL_Driver/Src/stm32f4xx_hal_dma.c ****   __HAL_DMA_CLEAR_FLAG(hdma, __HAL_DMA_GET_FE_FLAG_INDEX(hdma));
 1255              		.loc 1 300 0 discriminator 114
 1256 076c A1F56871 		sub	r1, r1, #928
 1257 0770 8A42     		cmp	r2, r1
 1258 0772 24D0     		beq	.L189
 300:../Drivers/STM32F4xx_HAL_Driver/Src/stm32f4xx_hal_dma.c ****   __HAL_DMA_CLEAR_FLAG(hdma, __HAL_DMA_GET_FE_FLAG_INDEX(hdma));
 1259              		.loc 1 300 0 discriminator 116
 1260 0774 01F58061 		add	r1, r1, #1024
 1261 0778 8A42     		cmp	r2, r1
 1262 077a 23D0     		beq	.L190
 300:../Drivers/STM32F4xx_HAL_Driver/Src/stm32f4xx_hal_dma.c ****   __HAL_DMA_CLEAR_FLAG(hdma, __HAL_DMA_GET_FE_FLAG_INDEX(hdma));
 1263              		.loc 1 300 0 discriminator 118
 1264 077c A1F58961 		sub	r1, r1, #1096
 1265 0780 8A42     		cmp	r2, r1
 1266 0782 22D0     		beq	.L191
 300:../Drivers/STM32F4xx_HAL_Driver/Src/stm32f4xx_hal_dma.c ****   __HAL_DMA_CLEAR_FLAG(hdma, __HAL_DMA_GET_FE_FLAG_INDEX(hdma));
 1267              		.loc 1 300 0 discriminator 120
 1268 0784 01F58061 		add	r1, r1, #1024
 1269 0788 8A42     		cmp	r2, r1
 1270 078a 21D0     		beq	.L192
 300:../Drivers/STM32F4xx_HAL_Driver/Src/stm32f4xx_hal_dma.c ****   __HAL_DMA_CLEAR_FLAG(hdma, __HAL_DMA_GET_FE_FLAG_INDEX(hdma));
 1271              		.loc 1 300 0 discriminator 122
 1272 078c A1F56871 		sub	r1, r1, #928
 1273 0790 8A42     		cmp	r2, r1
 1274 0792 20D0     		beq	.L193
 300:../Drivers/STM32F4xx_HAL_Driver/Src/stm32f4xx_hal_dma.c ****   __HAL_DMA_CLEAR_FLAG(hdma, __HAL_DMA_GET_FE_FLAG_INDEX(hdma));
 1275              		.loc 1 300 0 discriminator 124
 1276 0794 01F58061 		add	r1, r1, #1024
 1277 0798 8A42     		cmp	r2, r1
 1278 079a 1FD1     		bne	.L194
 300:../Drivers/STM32F4xx_HAL_Driver/Src/stm32f4xx_hal_dma.c ****   __HAL_DMA_CLEAR_FLAG(hdma, __HAL_DMA_GET_FE_FLAG_INDEX(hdma));
 1279              		.loc 1 300 0
 1280 079c 4FF40021 		mov	r1, #524288
 1281 07a0 1EE0     		b	.L41
 1282              	.L183:
 1283 07a2 0821     		movs	r1, #8
 1284 07a4 1CE0     		b	.L41
 1285              	.L184:
 1286 07a6 0821     		movs	r1, #8
 1287 07a8 1AE0     		b	.L41
 1288              	.L185:
 1289 07aa 0821     		movs	r1, #8
 1290 07ac 18E0     		b	.L41
 1291              	.L186:
 1292 07ae 0821     		movs	r1, #8
 1293 07b0 16E0     		b	.L41
 1294              	.L187:
 1295 07b2 4FF40071 		mov	r1, #512
 1296 07b6 13E0     		b	.L41
 1297              	.L188:
 1298 07b8 4FF40071 		mov	r1, #512
 1299 07bc 10E0     		b	.L41
 1300              	.L189:
 1301 07be 4FF40071 		mov	r1, #512
ARM GAS  /tmp/ccIvKYQX.s 			page 43


 1302 07c2 0DE0     		b	.L41
 1303              	.L190:
 1304 07c4 4FF40071 		mov	r1, #512
 1305 07c8 0AE0     		b	.L41
 1306              	.L191:
 1307 07ca 4FF40021 		mov	r1, #524288
 1308 07ce 07E0     		b	.L41
 1309              	.L192:
 1310 07d0 4FF40021 		mov	r1, #524288
 1311 07d4 04E0     		b	.L41
 1312              	.L193:
 1313 07d6 4FF40021 		mov	r1, #524288
 1314 07da 01E0     		b	.L41
 1315              	.L194:
 1316 07dc 4FF00071 		mov	r1, #33554432
 1317              	.L41:
 300:../Drivers/STM32F4xx_HAL_Driver/Src/stm32f4xx_hal_dma.c ****   __HAL_DMA_CLEAR_FLAG(hdma, __HAL_DMA_GET_FE_FLAG_INDEX(hdma));
 1318              		.loc 1 300 0 discriminator 151
 1319 07e0 284A     		ldr	r2, .L307
 1320 07e2 D160     		str	r1, [r2, #12]
 1321 07e4 5EE0     		b	.L36
 1322              	.L40:
 300:../Drivers/STM32F4xx_HAL_Driver/Src/stm32f4xx_hal_dma.c ****   __HAL_DMA_CLEAR_FLAG(hdma, __HAL_DMA_GET_FE_FLAG_INDEX(hdma));
 1323              		.loc 1 300 0 discriminator 103
 1324 07e6 2C49     		ldr	r1, .L307+20
 1325 07e8 8A42     		cmp	r2, r1
 1326 07ea 2ED0     		beq	.L195
 300:../Drivers/STM32F4xx_HAL_Driver/Src/stm32f4xx_hal_dma.c ****   __HAL_DMA_CLEAR_FLAG(hdma, __HAL_DMA_GET_FE_FLAG_INDEX(hdma));
 1327              		.loc 1 300 0 discriminator 153
 1328 07ec 01F58061 		add	r1, r1, #1024
 1329 07f0 8A42     		cmp	r2, r1
 1330 07f2 2CD0     		beq	.L196
 300:../Drivers/STM32F4xx_HAL_Driver/Src/stm32f4xx_hal_dma.c ****   __HAL_DMA_CLEAR_FLAG(hdma, __HAL_DMA_GET_FE_FLAG_INDEX(hdma));
 1331              		.loc 1 300 0 discriminator 155
 1332 07f4 A1F56871 		sub	r1, r1, #928
 1333 07f8 8A42     		cmp	r2, r1
 1334 07fa 2AD0     		beq	.L197
 300:../Drivers/STM32F4xx_HAL_Driver/Src/stm32f4xx_hal_dma.c ****   __HAL_DMA_CLEAR_FLAG(hdma, __HAL_DMA_GET_FE_FLAG_INDEX(hdma));
 1335              		.loc 1 300 0 discriminator 157
 1336 07fc 01F58061 		add	r1, r1, #1024
 1337 0800 8A42     		cmp	r2, r1
 1338 0802 28D0     		beq	.L198
 300:../Drivers/STM32F4xx_HAL_Driver/Src/stm32f4xx_hal_dma.c ****   __HAL_DMA_CLEAR_FLAG(hdma, __HAL_DMA_GET_FE_FLAG_INDEX(hdma));
 1339              		.loc 1 300 0 discriminator 159
 1340 0804 A1F58961 		sub	r1, r1, #1096
 1341 0808 8A42     		cmp	r2, r1
 1342 080a 26D0     		beq	.L199
 300:../Drivers/STM32F4xx_HAL_Driver/Src/stm32f4xx_hal_dma.c ****   __HAL_DMA_CLEAR_FLAG(hdma, __HAL_DMA_GET_FE_FLAG_INDEX(hdma));
 1343              		.loc 1 300 0 discriminator 161
 1344 080c 01F58061 		add	r1, r1, #1024
 1345 0810 8A42     		cmp	r2, r1
 1346 0812 25D0     		beq	.L200
 300:../Drivers/STM32F4xx_HAL_Driver/Src/stm32f4xx_hal_dma.c ****   __HAL_DMA_CLEAR_FLAG(hdma, __HAL_DMA_GET_FE_FLAG_INDEX(hdma));
 1347              		.loc 1 300 0 discriminator 163
 1348 0814 A1F56871 		sub	r1, r1, #928
 1349 0818 8A42     		cmp	r2, r1
 1350 081a 24D0     		beq	.L201
ARM GAS  /tmp/ccIvKYQX.s 			page 44


 300:../Drivers/STM32F4xx_HAL_Driver/Src/stm32f4xx_hal_dma.c ****   __HAL_DMA_CLEAR_FLAG(hdma, __HAL_DMA_GET_FE_FLAG_INDEX(hdma));
 1351              		.loc 1 300 0 discriminator 165
 1352 081c 01F58061 		add	r1, r1, #1024
 1353 0820 8A42     		cmp	r2, r1
 1354 0822 23D0     		beq	.L202
 300:../Drivers/STM32F4xx_HAL_Driver/Src/stm32f4xx_hal_dma.c ****   __HAL_DMA_CLEAR_FLAG(hdma, __HAL_DMA_GET_FE_FLAG_INDEX(hdma));
 1355              		.loc 1 300 0 discriminator 167
 1356 0824 A1F58961 		sub	r1, r1, #1096
 1357 0828 8A42     		cmp	r2, r1
 1358 082a 22D0     		beq	.L203
 300:../Drivers/STM32F4xx_HAL_Driver/Src/stm32f4xx_hal_dma.c ****   __HAL_DMA_CLEAR_FLAG(hdma, __HAL_DMA_GET_FE_FLAG_INDEX(hdma));
 1359              		.loc 1 300 0 discriminator 169
 1360 082c 01F58061 		add	r1, r1, #1024
 1361 0830 8A42     		cmp	r2, r1
 1362 0832 21D0     		beq	.L204
 300:../Drivers/STM32F4xx_HAL_Driver/Src/stm32f4xx_hal_dma.c ****   __HAL_DMA_CLEAR_FLAG(hdma, __HAL_DMA_GET_FE_FLAG_INDEX(hdma));
 1363              		.loc 1 300 0 discriminator 171
 1364 0834 A1F56871 		sub	r1, r1, #928
 1365 0838 8A42     		cmp	r2, r1
 1366 083a 20D0     		beq	.L205
 300:../Drivers/STM32F4xx_HAL_Driver/Src/stm32f4xx_hal_dma.c ****   __HAL_DMA_CLEAR_FLAG(hdma, __HAL_DMA_GET_FE_FLAG_INDEX(hdma));
 1367              		.loc 1 300 0 discriminator 173
 1368 083c 01F58061 		add	r1, r1, #1024
 1369 0840 8A42     		cmp	r2, r1
 1370 0842 2BD1     		bne	.L206
 300:../Drivers/STM32F4xx_HAL_Driver/Src/stm32f4xx_hal_dma.c ****   __HAL_DMA_CLEAR_FLAG(hdma, __HAL_DMA_GET_FE_FLAG_INDEX(hdma));
 1371              		.loc 1 300 0
 1372 0844 4FF40021 		mov	r1, #524288
 1373 0848 2AE0     		b	.L42
 1374              	.L195:
 1375 084a 0821     		movs	r1, #8
 1376 084c 28E0     		b	.L42
 1377              	.L196:
 1378 084e 0821     		movs	r1, #8
 1379 0850 26E0     		b	.L42
 1380              	.L197:
 1381 0852 0821     		movs	r1, #8
 1382 0854 24E0     		b	.L42
 1383              	.L198:
 1384 0856 0821     		movs	r1, #8
 1385 0858 22E0     		b	.L42
 1386              	.L199:
 1387 085a 4FF40071 		mov	r1, #512
 1388 085e 1FE0     		b	.L42
 1389              	.L200:
 1390 0860 4FF40071 		mov	r1, #512
 1391 0864 1CE0     		b	.L42
 1392              	.L201:
 1393 0866 4FF40071 		mov	r1, #512
 1394 086a 19E0     		b	.L42
 1395              	.L202:
 1396 086c 4FF40071 		mov	r1, #512
 1397 0870 16E0     		b	.L42
 1398              	.L203:
 1399 0872 4FF40021 		mov	r1, #524288
 1400 0876 13E0     		b	.L42
 1401              	.L204:
ARM GAS  /tmp/ccIvKYQX.s 			page 45


 1402 0878 4FF40021 		mov	r1, #524288
 1403 087c 10E0     		b	.L42
 1404              	.L205:
 1405 087e 4FF40021 		mov	r1, #524288
 1406 0882 0DE0     		b	.L42
 1407              	.L308:
 1408              		.align	2
 1409              	.L307:
 1410 0884 00600240 		.word	1073897472
 1411 0888 58640240 		.word	1073898584
 1412 088c 00640240 		.word	1073898496
 1413 0890 B8600240 		.word	1073897656
 1414 0894 58600240 		.word	1073897560
 1415 0898 10600240 		.word	1073897488
 1416              	.L206:
 1417 089c 4FF00071 		mov	r1, #33554432
 1418              	.L42:
 300:../Drivers/STM32F4xx_HAL_Driver/Src/stm32f4xx_hal_dma.c ****   __HAL_DMA_CLEAR_FLAG(hdma, __HAL_DMA_GET_FE_FLAG_INDEX(hdma));
 1419              		.loc 1 300 0 discriminator 200
 1420 08a0 A34A     		ldr	r2, .L309
 1421 08a2 9160     		str	r1, [r2, #8]
 1422              	.L36:
 301:../Drivers/STM32F4xx_HAL_Driver/Src/stm32f4xx_hal_dma.c ****   __HAL_DMA_CLEAR_FLAG(hdma, __HAL_DMA_GET_HT_FLAG_INDEX(hdma));
 1423              		.loc 1 301 0 is_stmt 1
 1424 08a4 1A68     		ldr	r2, [r3]
 1425 08a6 A349     		ldr	r1, .L309+4
 1426 08a8 8A42     		cmp	r2, r1
 1427 08aa 50D9     		bls	.L43
 301:../Drivers/STM32F4xx_HAL_Driver/Src/stm32f4xx_hal_dma.c ****   __HAL_DMA_CLEAR_FLAG(hdma, __HAL_DMA_GET_HT_FLAG_INDEX(hdma));
 1428              		.loc 1 301 0 is_stmt 0 discriminator 1
 1429 08ac A1F58961 		sub	r1, r1, #1096
 1430 08b0 8A42     		cmp	r2, r1
 1431 08b2 2ED0     		beq	.L207
 301:../Drivers/STM32F4xx_HAL_Driver/Src/stm32f4xx_hal_dma.c ****   __HAL_DMA_CLEAR_FLAG(hdma, __HAL_DMA_GET_HT_FLAG_INDEX(hdma));
 1432              		.loc 1 301 0 discriminator 3
 1433 08b4 01F58061 		add	r1, r1, #1024
 1434 08b8 8A42     		cmp	r2, r1
 1435 08ba 2CD0     		beq	.L208
 301:../Drivers/STM32F4xx_HAL_Driver/Src/stm32f4xx_hal_dma.c ****   __HAL_DMA_CLEAR_FLAG(hdma, __HAL_DMA_GET_HT_FLAG_INDEX(hdma));
 1436              		.loc 1 301 0 discriminator 5
 1437 08bc A1F56871 		sub	r1, r1, #928
 1438 08c0 8A42     		cmp	r2, r1
 1439 08c2 2AD0     		beq	.L209
 301:../Drivers/STM32F4xx_HAL_Driver/Src/stm32f4xx_hal_dma.c ****   __HAL_DMA_CLEAR_FLAG(hdma, __HAL_DMA_GET_HT_FLAG_INDEX(hdma));
 1440              		.loc 1 301 0 discriminator 7
 1441 08c4 01F58061 		add	r1, r1, #1024
 1442 08c8 8A42     		cmp	r2, r1
 1443 08ca 28D0     		beq	.L210
 301:../Drivers/STM32F4xx_HAL_Driver/Src/stm32f4xx_hal_dma.c ****   __HAL_DMA_CLEAR_FLAG(hdma, __HAL_DMA_GET_HT_FLAG_INDEX(hdma));
 1444              		.loc 1 301 0 discriminator 9
 1445 08cc A1F58961 		sub	r1, r1, #1096
 1446 08d0 8A42     		cmp	r2, r1
 1447 08d2 26D0     		beq	.L211
 301:../Drivers/STM32F4xx_HAL_Driver/Src/stm32f4xx_hal_dma.c ****   __HAL_DMA_CLEAR_FLAG(hdma, __HAL_DMA_GET_HT_FLAG_INDEX(hdma));
 1448              		.loc 1 301 0 discriminator 11
 1449 08d4 01F58061 		add	r1, r1, #1024
 1450 08d8 8A42     		cmp	r2, r1
ARM GAS  /tmp/ccIvKYQX.s 			page 46


 1451 08da 24D0     		beq	.L212
 301:../Drivers/STM32F4xx_HAL_Driver/Src/stm32f4xx_hal_dma.c ****   __HAL_DMA_CLEAR_FLAG(hdma, __HAL_DMA_GET_HT_FLAG_INDEX(hdma));
 1452              		.loc 1 301 0 discriminator 13
 1453 08dc A1F56871 		sub	r1, r1, #928
 1454 08e0 8A42     		cmp	r2, r1
 1455 08e2 22D0     		beq	.L213
 301:../Drivers/STM32F4xx_HAL_Driver/Src/stm32f4xx_hal_dma.c ****   __HAL_DMA_CLEAR_FLAG(hdma, __HAL_DMA_GET_HT_FLAG_INDEX(hdma));
 1456              		.loc 1 301 0 discriminator 15
 1457 08e4 01F58061 		add	r1, r1, #1024
 1458 08e8 8A42     		cmp	r2, r1
 1459 08ea 20D0     		beq	.L214
 301:../Drivers/STM32F4xx_HAL_Driver/Src/stm32f4xx_hal_dma.c ****   __HAL_DMA_CLEAR_FLAG(hdma, __HAL_DMA_GET_HT_FLAG_INDEX(hdma));
 1460              		.loc 1 301 0 discriminator 17
 1461 08ec A1F58961 		sub	r1, r1, #1096
 1462 08f0 8A42     		cmp	r2, r1
 1463 08f2 1ED0     		beq	.L215
 301:../Drivers/STM32F4xx_HAL_Driver/Src/stm32f4xx_hal_dma.c ****   __HAL_DMA_CLEAR_FLAG(hdma, __HAL_DMA_GET_HT_FLAG_INDEX(hdma));
 1464              		.loc 1 301 0 discriminator 19
 1465 08f4 01F58061 		add	r1, r1, #1024
 1466 08f8 8A42     		cmp	r2, r1
 1467 08fa 1DD0     		beq	.L216
 301:../Drivers/STM32F4xx_HAL_Driver/Src/stm32f4xx_hal_dma.c ****   __HAL_DMA_CLEAR_FLAG(hdma, __HAL_DMA_GET_HT_FLAG_INDEX(hdma));
 1468              		.loc 1 301 0 discriminator 21
 1469 08fc A1F56871 		sub	r1, r1, #928
 1470 0900 8A42     		cmp	r2, r1
 1471 0902 1CD0     		beq	.L217
 301:../Drivers/STM32F4xx_HAL_Driver/Src/stm32f4xx_hal_dma.c ****   __HAL_DMA_CLEAR_FLAG(hdma, __HAL_DMA_GET_HT_FLAG_INDEX(hdma));
 1472              		.loc 1 301 0 discriminator 23
 1473 0904 01F58061 		add	r1, r1, #1024
 1474 0908 8A42     		cmp	r2, r1
 1475 090a 1BD1     		bne	.L218
 301:../Drivers/STM32F4xx_HAL_Driver/Src/stm32f4xx_hal_dma.c ****   __HAL_DMA_CLEAR_FLAG(hdma, __HAL_DMA_GET_HT_FLAG_INDEX(hdma));
 1476              		.loc 1 301 0
 1477 090c 4FF48031 		mov	r1, #65536
 1478 0910 1AE0     		b	.L44
 1479              	.L207:
 1480 0912 8949     		ldr	r1, .L309+8
 1481 0914 18E0     		b	.L44
 1482              	.L208:
 1483 0916 8849     		ldr	r1, .L309+8
 1484 0918 16E0     		b	.L44
 1485              	.L209:
 1486 091a 8749     		ldr	r1, .L309+8
 1487 091c 14E0     		b	.L44
 1488              	.L210:
 1489 091e 8649     		ldr	r1, .L309+8
 1490 0920 12E0     		b	.L44
 1491              	.L211:
 1492 0922 4021     		movs	r1, #64
 1493 0924 10E0     		b	.L44
 1494              	.L212:
 1495 0926 4021     		movs	r1, #64
 1496 0928 0EE0     		b	.L44
 1497              	.L213:
 1498 092a 4021     		movs	r1, #64
 1499 092c 0CE0     		b	.L44
 1500              	.L214:
ARM GAS  /tmp/ccIvKYQX.s 			page 47


 1501 092e 4021     		movs	r1, #64
 1502 0930 0AE0     		b	.L44
 1503              	.L215:
 1504 0932 4FF48031 		mov	r1, #65536
 1505 0936 07E0     		b	.L44
 1506              	.L216:
 1507 0938 4FF48031 		mov	r1, #65536
 1508 093c 04E0     		b	.L44
 1509              	.L217:
 1510 093e 4FF48031 		mov	r1, #65536
 1511 0942 01E0     		b	.L44
 1512              	.L218:
 1513 0944 4FF48001 		mov	r1, #4194304
 1514              	.L44:
 301:../Drivers/STM32F4xx_HAL_Driver/Src/stm32f4xx_hal_dma.c ****   __HAL_DMA_CLEAR_FLAG(hdma, __HAL_DMA_GET_HT_FLAG_INDEX(hdma));
 1515              		.loc 1 301 0 discriminator 50
 1516 0948 7C4A     		ldr	r2, .L309+12
 1517 094a D160     		str	r1, [r2, #12]
 1518 094c 02E1     		b	.L45
 1519              	.L43:
 301:../Drivers/STM32F4xx_HAL_Driver/Src/stm32f4xx_hal_dma.c ****   __HAL_DMA_CLEAR_FLAG(hdma, __HAL_DMA_GET_HT_FLAG_INDEX(hdma));
 1520              		.loc 1 301 0 discriminator 2
 1521 094e 7C49     		ldr	r1, .L309+16
 1522 0950 8A42     		cmp	r2, r1
 1523 0952 4FD9     		bls	.L46
 301:../Drivers/STM32F4xx_HAL_Driver/Src/stm32f4xx_hal_dma.c ****   __HAL_DMA_CLEAR_FLAG(hdma, __HAL_DMA_GET_HT_FLAG_INDEX(hdma));
 1524              		.loc 1 301 0 discriminator 51
 1525 0954 A839     		subs	r1, r1, #168
 1526 0956 8A42     		cmp	r2, r1
 1527 0958 2ED0     		beq	.L219
 301:../Drivers/STM32F4xx_HAL_Driver/Src/stm32f4xx_hal_dma.c ****   __HAL_DMA_CLEAR_FLAG(hdma, __HAL_DMA_GET_HT_FLAG_INDEX(hdma));
 1528              		.loc 1 301 0 discriminator 53
 1529 095a 01F58061 		add	r1, r1, #1024
 1530 095e 8A42     		cmp	r2, r1
 1531 0960 2CD0     		beq	.L220
 301:../Drivers/STM32F4xx_HAL_Driver/Src/stm32f4xx_hal_dma.c ****   __HAL_DMA_CLEAR_FLAG(hdma, __HAL_DMA_GET_HT_FLAG_INDEX(hdma));
 1532              		.loc 1 301 0 discriminator 55
 1533 0962 A1F56871 		sub	r1, r1, #928
 1534 0966 8A42     		cmp	r2, r1
 1535 0968 2AD0     		beq	.L221
 301:../Drivers/STM32F4xx_HAL_Driver/Src/stm32f4xx_hal_dma.c ****   __HAL_DMA_CLEAR_FLAG(hdma, __HAL_DMA_GET_HT_FLAG_INDEX(hdma));
 1536              		.loc 1 301 0 discriminator 57
 1537 096a 01F58061 		add	r1, r1, #1024
 1538 096e 8A42     		cmp	r2, r1
 1539 0970 28D0     		beq	.L222
 301:../Drivers/STM32F4xx_HAL_Driver/Src/stm32f4xx_hal_dma.c ****   __HAL_DMA_CLEAR_FLAG(hdma, __HAL_DMA_GET_HT_FLAG_INDEX(hdma));
 1540              		.loc 1 301 0 discriminator 59
 1541 0972 A1F58961 		sub	r1, r1, #1096
 1542 0976 8A42     		cmp	r2, r1
 1543 0978 26D0     		beq	.L223
 301:../Drivers/STM32F4xx_HAL_Driver/Src/stm32f4xx_hal_dma.c ****   __HAL_DMA_CLEAR_FLAG(hdma, __HAL_DMA_GET_HT_FLAG_INDEX(hdma));
 1544              		.loc 1 301 0 discriminator 61
 1545 097a 01F58061 		add	r1, r1, #1024
 1546 097e 8A42     		cmp	r2, r1
 1547 0980 24D0     		beq	.L224
 301:../Drivers/STM32F4xx_HAL_Driver/Src/stm32f4xx_hal_dma.c ****   __HAL_DMA_CLEAR_FLAG(hdma, __HAL_DMA_GET_HT_FLAG_INDEX(hdma));
 1548              		.loc 1 301 0 discriminator 63
ARM GAS  /tmp/ccIvKYQX.s 			page 48


 1549 0982 A1F56871 		sub	r1, r1, #928
 1550 0986 8A42     		cmp	r2, r1
 1551 0988 22D0     		beq	.L225
 301:../Drivers/STM32F4xx_HAL_Driver/Src/stm32f4xx_hal_dma.c ****   __HAL_DMA_CLEAR_FLAG(hdma, __HAL_DMA_GET_HT_FLAG_INDEX(hdma));
 1552              		.loc 1 301 0 discriminator 65
 1553 098a 01F58061 		add	r1, r1, #1024
 1554 098e 8A42     		cmp	r2, r1
 1555 0990 20D0     		beq	.L226
 301:../Drivers/STM32F4xx_HAL_Driver/Src/stm32f4xx_hal_dma.c ****   __HAL_DMA_CLEAR_FLAG(hdma, __HAL_DMA_GET_HT_FLAG_INDEX(hdma));
 1556              		.loc 1 301 0 discriminator 67
 1557 0992 A1F58961 		sub	r1, r1, #1096
 1558 0996 8A42     		cmp	r2, r1
 1559 0998 1ED0     		beq	.L227
 301:../Drivers/STM32F4xx_HAL_Driver/Src/stm32f4xx_hal_dma.c ****   __HAL_DMA_CLEAR_FLAG(hdma, __HAL_DMA_GET_HT_FLAG_INDEX(hdma));
 1560              		.loc 1 301 0 discriminator 69
 1561 099a 01F58061 		add	r1, r1, #1024
 1562 099e 8A42     		cmp	r2, r1
 1563 09a0 1DD0     		beq	.L228
 301:../Drivers/STM32F4xx_HAL_Driver/Src/stm32f4xx_hal_dma.c ****   __HAL_DMA_CLEAR_FLAG(hdma, __HAL_DMA_GET_HT_FLAG_INDEX(hdma));
 1564              		.loc 1 301 0 discriminator 71
 1565 09a2 A1F56871 		sub	r1, r1, #928
 1566 09a6 8A42     		cmp	r2, r1
 1567 09a8 1CD0     		beq	.L229
 301:../Drivers/STM32F4xx_HAL_Driver/Src/stm32f4xx_hal_dma.c ****   __HAL_DMA_CLEAR_FLAG(hdma, __HAL_DMA_GET_HT_FLAG_INDEX(hdma));
 1568              		.loc 1 301 0 discriminator 73
 1569 09aa 01F58061 		add	r1, r1, #1024
 1570 09ae 8A42     		cmp	r2, r1
 1571 09b0 1BD1     		bne	.L230
 301:../Drivers/STM32F4xx_HAL_Driver/Src/stm32f4xx_hal_dma.c ****   __HAL_DMA_CLEAR_FLAG(hdma, __HAL_DMA_GET_HT_FLAG_INDEX(hdma));
 1572              		.loc 1 301 0
 1573 09b2 4FF48031 		mov	r1, #65536
 1574 09b6 1AE0     		b	.L47
 1575              	.L219:
 1576 09b8 5F49     		ldr	r1, .L309+8
 1577 09ba 18E0     		b	.L47
 1578              	.L220:
 1579 09bc 5E49     		ldr	r1, .L309+8
 1580 09be 16E0     		b	.L47
 1581              	.L221:
 1582 09c0 5D49     		ldr	r1, .L309+8
 1583 09c2 14E0     		b	.L47
 1584              	.L222:
 1585 09c4 5C49     		ldr	r1, .L309+8
 1586 09c6 12E0     		b	.L47
 1587              	.L223:
 1588 09c8 4021     		movs	r1, #64
 1589 09ca 10E0     		b	.L47
 1590              	.L224:
 1591 09cc 4021     		movs	r1, #64
 1592 09ce 0EE0     		b	.L47
 1593              	.L225:
 1594 09d0 4021     		movs	r1, #64
 1595 09d2 0CE0     		b	.L47
 1596              	.L226:
 1597 09d4 4021     		movs	r1, #64
 1598 09d6 0AE0     		b	.L47
 1599              	.L227:
ARM GAS  /tmp/ccIvKYQX.s 			page 49


 1600 09d8 4FF48031 		mov	r1, #65536
 1601 09dc 07E0     		b	.L47
 1602              	.L228:
 1603 09de 4FF48031 		mov	r1, #65536
 1604 09e2 04E0     		b	.L47
 1605              	.L229:
 1606 09e4 4FF48031 		mov	r1, #65536
 1607 09e8 01E0     		b	.L47
 1608              	.L230:
 1609 09ea 4FF48001 		mov	r1, #4194304
 1610              	.L47:
 301:../Drivers/STM32F4xx_HAL_Driver/Src/stm32f4xx_hal_dma.c ****   __HAL_DMA_CLEAR_FLAG(hdma, __HAL_DMA_GET_HT_FLAG_INDEX(hdma));
 1611              		.loc 1 301 0 discriminator 100
 1612 09ee 534A     		ldr	r2, .L309+12
 1613 09f0 9160     		str	r1, [r2, #8]
 1614 09f2 AFE0     		b	.L45
 1615              	.L46:
 301:../Drivers/STM32F4xx_HAL_Driver/Src/stm32f4xx_hal_dma.c ****   __HAL_DMA_CLEAR_FLAG(hdma, __HAL_DMA_GET_HT_FLAG_INDEX(hdma));
 1616              		.loc 1 301 0 discriminator 52
 1617 09f4 5349     		ldr	r1, .L309+20
 1618 09f6 8A42     		cmp	r2, r1
 1619 09f8 4FD9     		bls	.L49
 301:../Drivers/STM32F4xx_HAL_Driver/Src/stm32f4xx_hal_dma.c ****   __HAL_DMA_CLEAR_FLAG(hdma, __HAL_DMA_GET_HT_FLAG_INDEX(hdma));
 1620              		.loc 1 301 0 discriminator 102
 1621 09fa 4839     		subs	r1, r1, #72
 1622 09fc 8A42     		cmp	r2, r1
 1623 09fe 2ED0     		beq	.L231
 301:../Drivers/STM32F4xx_HAL_Driver/Src/stm32f4xx_hal_dma.c ****   __HAL_DMA_CLEAR_FLAG(hdma, __HAL_DMA_GET_HT_FLAG_INDEX(hdma));
 1624              		.loc 1 301 0 discriminator 104
 1625 0a00 01F58061 		add	r1, r1, #1024
 1626 0a04 8A42     		cmp	r2, r1
 1627 0a06 2CD0     		beq	.L232
 301:../Drivers/STM32F4xx_HAL_Driver/Src/stm32f4xx_hal_dma.c ****   __HAL_DMA_CLEAR_FLAG(hdma, __HAL_DMA_GET_HT_FLAG_INDEX(hdma));
 1628              		.loc 1 301 0 discriminator 106
 1629 0a08 A1F56871 		sub	r1, r1, #928
 1630 0a0c 8A42     		cmp	r2, r1
 1631 0a0e 2AD0     		beq	.L233
 301:../Drivers/STM32F4xx_HAL_Driver/Src/stm32f4xx_hal_dma.c ****   __HAL_DMA_CLEAR_FLAG(hdma, __HAL_DMA_GET_HT_FLAG_INDEX(hdma));
 1632              		.loc 1 301 0 discriminator 108
 1633 0a10 01F58061 		add	r1, r1, #1024
 1634 0a14 8A42     		cmp	r2, r1
 1635 0a16 28D0     		beq	.L234
 301:../Drivers/STM32F4xx_HAL_Driver/Src/stm32f4xx_hal_dma.c ****   __HAL_DMA_CLEAR_FLAG(hdma, __HAL_DMA_GET_HT_FLAG_INDEX(hdma));
 1636              		.loc 1 301 0 discriminator 110
 1637 0a18 A1F58961 		sub	r1, r1, #1096
 1638 0a1c 8A42     		cmp	r2, r1
 1639 0a1e 26D0     		beq	.L235
 301:../Drivers/STM32F4xx_HAL_Driver/Src/stm32f4xx_hal_dma.c ****   __HAL_DMA_CLEAR_FLAG(hdma, __HAL_DMA_GET_HT_FLAG_INDEX(hdma));
 1640              		.loc 1 301 0 discriminator 112
 1641 0a20 01F58061 		add	r1, r1, #1024
 1642 0a24 8A42     		cmp	r2, r1
 1643 0a26 24D0     		beq	.L236
 301:../Drivers/STM32F4xx_HAL_Driver/Src/stm32f4xx_hal_dma.c ****   __HAL_DMA_CLEAR_FLAG(hdma, __HAL_DMA_GET_HT_FLAG_INDEX(hdma));
 1644              		.loc 1 301 0 discriminator 114
 1645 0a28 A1F56871 		sub	r1, r1, #928
 1646 0a2c 8A42     		cmp	r2, r1
 1647 0a2e 22D0     		beq	.L237
ARM GAS  /tmp/ccIvKYQX.s 			page 50


 301:../Drivers/STM32F4xx_HAL_Driver/Src/stm32f4xx_hal_dma.c ****   __HAL_DMA_CLEAR_FLAG(hdma, __HAL_DMA_GET_HT_FLAG_INDEX(hdma));
 1648              		.loc 1 301 0 discriminator 116
 1649 0a30 01F58061 		add	r1, r1, #1024
 1650 0a34 8A42     		cmp	r2, r1
 1651 0a36 20D0     		beq	.L238
 301:../Drivers/STM32F4xx_HAL_Driver/Src/stm32f4xx_hal_dma.c ****   __HAL_DMA_CLEAR_FLAG(hdma, __HAL_DMA_GET_HT_FLAG_INDEX(hdma));
 1652              		.loc 1 301 0 discriminator 118
 1653 0a38 A1F58961 		sub	r1, r1, #1096
 1654 0a3c 8A42     		cmp	r2, r1
 1655 0a3e 1ED0     		beq	.L239
 301:../Drivers/STM32F4xx_HAL_Driver/Src/stm32f4xx_hal_dma.c ****   __HAL_DMA_CLEAR_FLAG(hdma, __HAL_DMA_GET_HT_FLAG_INDEX(hdma));
 1656              		.loc 1 301 0 discriminator 120
 1657 0a40 01F58061 		add	r1, r1, #1024
 1658 0a44 8A42     		cmp	r2, r1
 1659 0a46 1DD0     		beq	.L240
 301:../Drivers/STM32F4xx_HAL_Driver/Src/stm32f4xx_hal_dma.c ****   __HAL_DMA_CLEAR_FLAG(hdma, __HAL_DMA_GET_HT_FLAG_INDEX(hdma));
 1660              		.loc 1 301 0 discriminator 122
 1661 0a48 A1F56871 		sub	r1, r1, #928
 1662 0a4c 8A42     		cmp	r2, r1
 1663 0a4e 1CD0     		beq	.L241
 301:../Drivers/STM32F4xx_HAL_Driver/Src/stm32f4xx_hal_dma.c ****   __HAL_DMA_CLEAR_FLAG(hdma, __HAL_DMA_GET_HT_FLAG_INDEX(hdma));
 1664              		.loc 1 301 0 discriminator 124
 1665 0a50 01F58061 		add	r1, r1, #1024
 1666 0a54 8A42     		cmp	r2, r1
 1667 0a56 1BD1     		bne	.L242
 301:../Drivers/STM32F4xx_HAL_Driver/Src/stm32f4xx_hal_dma.c ****   __HAL_DMA_CLEAR_FLAG(hdma, __HAL_DMA_GET_HT_FLAG_INDEX(hdma));
 1668              		.loc 1 301 0
 1669 0a58 4FF48031 		mov	r1, #65536
 1670 0a5c 1AE0     		b	.L50
 1671              	.L231:
 1672 0a5e 3649     		ldr	r1, .L309+8
 1673 0a60 18E0     		b	.L50
 1674              	.L232:
 1675 0a62 3549     		ldr	r1, .L309+8
 1676 0a64 16E0     		b	.L50
 1677              	.L233:
 1678 0a66 3449     		ldr	r1, .L309+8
 1679 0a68 14E0     		b	.L50
 1680              	.L234:
 1681 0a6a 3349     		ldr	r1, .L309+8
 1682 0a6c 12E0     		b	.L50
 1683              	.L235:
 1684 0a6e 4021     		movs	r1, #64
 1685 0a70 10E0     		b	.L50
 1686              	.L236:
 1687 0a72 4021     		movs	r1, #64
 1688 0a74 0EE0     		b	.L50
 1689              	.L237:
 1690 0a76 4021     		movs	r1, #64
 1691 0a78 0CE0     		b	.L50
 1692              	.L238:
 1693 0a7a 4021     		movs	r1, #64
 1694 0a7c 0AE0     		b	.L50
 1695              	.L239:
 1696 0a7e 4FF48031 		mov	r1, #65536
 1697 0a82 07E0     		b	.L50
 1698              	.L240:
ARM GAS  /tmp/ccIvKYQX.s 			page 51


 1699 0a84 4FF48031 		mov	r1, #65536
 1700 0a88 04E0     		b	.L50
 1701              	.L241:
 1702 0a8a 4FF48031 		mov	r1, #65536
 1703 0a8e 01E0     		b	.L50
 1704              	.L242:
 1705 0a90 4FF48001 		mov	r1, #4194304
 1706              	.L50:
 301:../Drivers/STM32F4xx_HAL_Driver/Src/stm32f4xx_hal_dma.c ****   __HAL_DMA_CLEAR_FLAG(hdma, __HAL_DMA_GET_HT_FLAG_INDEX(hdma));
 1707              		.loc 1 301 0 discriminator 151
 1708 0a94 264A     		ldr	r2, .L309
 1709 0a96 D160     		str	r1, [r2, #12]
 1710 0a98 5CE0     		b	.L45
 1711              	.L49:
 301:../Drivers/STM32F4xx_HAL_Driver/Src/stm32f4xx_hal_dma.c ****   __HAL_DMA_CLEAR_FLAG(hdma, __HAL_DMA_GET_HT_FLAG_INDEX(hdma));
 1712              		.loc 1 301 0 discriminator 103
 1713 0a9a 2B49     		ldr	r1, .L309+24
 1714 0a9c 8A42     		cmp	r2, r1
 1715 0a9e 2ED0     		beq	.L243
 301:../Drivers/STM32F4xx_HAL_Driver/Src/stm32f4xx_hal_dma.c ****   __HAL_DMA_CLEAR_FLAG(hdma, __HAL_DMA_GET_HT_FLAG_INDEX(hdma));
 1716              		.loc 1 301 0 discriminator 153
 1717 0aa0 01F58061 		add	r1, r1, #1024
 1718 0aa4 8A42     		cmp	r2, r1
 1719 0aa6 2CD0     		beq	.L244
 301:../Drivers/STM32F4xx_HAL_Driver/Src/stm32f4xx_hal_dma.c ****   __HAL_DMA_CLEAR_FLAG(hdma, __HAL_DMA_GET_HT_FLAG_INDEX(hdma));
 1720              		.loc 1 301 0 discriminator 155
 1721 0aa8 A1F56871 		sub	r1, r1, #928
 1722 0aac 8A42     		cmp	r2, r1
 1723 0aae 2AD0     		beq	.L245
 301:../Drivers/STM32F4xx_HAL_Driver/Src/stm32f4xx_hal_dma.c ****   __HAL_DMA_CLEAR_FLAG(hdma, __HAL_DMA_GET_HT_FLAG_INDEX(hdma));
 1724              		.loc 1 301 0 discriminator 157
 1725 0ab0 01F58061 		add	r1, r1, #1024
 1726 0ab4 8A42     		cmp	r2, r1
 1727 0ab6 28D0     		beq	.L246
 301:../Drivers/STM32F4xx_HAL_Driver/Src/stm32f4xx_hal_dma.c ****   __HAL_DMA_CLEAR_FLAG(hdma, __HAL_DMA_GET_HT_FLAG_INDEX(hdma));
 1728              		.loc 1 301 0 discriminator 159
 1729 0ab8 A1F58961 		sub	r1, r1, #1096
 1730 0abc 8A42     		cmp	r2, r1
 1731 0abe 26D0     		beq	.L247
 301:../Drivers/STM32F4xx_HAL_Driver/Src/stm32f4xx_hal_dma.c ****   __HAL_DMA_CLEAR_FLAG(hdma, __HAL_DMA_GET_HT_FLAG_INDEX(hdma));
 1732              		.loc 1 301 0 discriminator 161
 1733 0ac0 01F58061 		add	r1, r1, #1024
 1734 0ac4 8A42     		cmp	r2, r1
 1735 0ac6 24D0     		beq	.L248
 301:../Drivers/STM32F4xx_HAL_Driver/Src/stm32f4xx_hal_dma.c ****   __HAL_DMA_CLEAR_FLAG(hdma, __HAL_DMA_GET_HT_FLAG_INDEX(hdma));
 1736              		.loc 1 301 0 discriminator 163
 1737 0ac8 A1F56871 		sub	r1, r1, #928
 1738 0acc 8A42     		cmp	r2, r1
 1739 0ace 22D0     		beq	.L249
 301:../Drivers/STM32F4xx_HAL_Driver/Src/stm32f4xx_hal_dma.c ****   __HAL_DMA_CLEAR_FLAG(hdma, __HAL_DMA_GET_HT_FLAG_INDEX(hdma));
 1740              		.loc 1 301 0 discriminator 165
 1741 0ad0 01F58061 		add	r1, r1, #1024
 1742 0ad4 8A42     		cmp	r2, r1
 1743 0ad6 20D0     		beq	.L250
 301:../Drivers/STM32F4xx_HAL_Driver/Src/stm32f4xx_hal_dma.c ****   __HAL_DMA_CLEAR_FLAG(hdma, __HAL_DMA_GET_HT_FLAG_INDEX(hdma));
 1744              		.loc 1 301 0 discriminator 167
 1745 0ad8 A1F58961 		sub	r1, r1, #1096
ARM GAS  /tmp/ccIvKYQX.s 			page 52


 1746 0adc 8A42     		cmp	r2, r1
 1747 0ade 1ED0     		beq	.L251
 301:../Drivers/STM32F4xx_HAL_Driver/Src/stm32f4xx_hal_dma.c ****   __HAL_DMA_CLEAR_FLAG(hdma, __HAL_DMA_GET_HT_FLAG_INDEX(hdma));
 1748              		.loc 1 301 0 discriminator 169
 1749 0ae0 01F58061 		add	r1, r1, #1024
 1750 0ae4 8A42     		cmp	r2, r1
 1751 0ae6 1DD0     		beq	.L252
 301:../Drivers/STM32F4xx_HAL_Driver/Src/stm32f4xx_hal_dma.c ****   __HAL_DMA_CLEAR_FLAG(hdma, __HAL_DMA_GET_HT_FLAG_INDEX(hdma));
 1752              		.loc 1 301 0 discriminator 171
 1753 0ae8 A1F56871 		sub	r1, r1, #928
 1754 0aec 8A42     		cmp	r2, r1
 1755 0aee 1CD0     		beq	.L253
 301:../Drivers/STM32F4xx_HAL_Driver/Src/stm32f4xx_hal_dma.c ****   __HAL_DMA_CLEAR_FLAG(hdma, __HAL_DMA_GET_HT_FLAG_INDEX(hdma));
 1756              		.loc 1 301 0 discriminator 173
 1757 0af0 01F58061 		add	r1, r1, #1024
 1758 0af4 8A42     		cmp	r2, r1
 1759 0af6 29D1     		bne	.L254
 301:../Drivers/STM32F4xx_HAL_Driver/Src/stm32f4xx_hal_dma.c ****   __HAL_DMA_CLEAR_FLAG(hdma, __HAL_DMA_GET_HT_FLAG_INDEX(hdma));
 1760              		.loc 1 301 0
 1761 0af8 4FF48031 		mov	r1, #65536
 1762 0afc 28E0     		b	.L51
 1763              	.L243:
 1764 0afe 0E49     		ldr	r1, .L309+8
 1765 0b00 26E0     		b	.L51
 1766              	.L244:
 1767 0b02 0D49     		ldr	r1, .L309+8
 1768 0b04 24E0     		b	.L51
 1769              	.L245:
 1770 0b06 0C49     		ldr	r1, .L309+8
 1771 0b08 22E0     		b	.L51
 1772              	.L246:
 1773 0b0a 0B49     		ldr	r1, .L309+8
 1774 0b0c 20E0     		b	.L51
 1775              	.L247:
 1776 0b0e 4021     		movs	r1, #64
 1777 0b10 1EE0     		b	.L51
 1778              	.L248:
 1779 0b12 4021     		movs	r1, #64
 1780 0b14 1CE0     		b	.L51
 1781              	.L249:
 1782 0b16 4021     		movs	r1, #64
 1783 0b18 1AE0     		b	.L51
 1784              	.L250:
 1785 0b1a 4021     		movs	r1, #64
 1786 0b1c 18E0     		b	.L51
 1787              	.L251:
 1788 0b1e 4FF48031 		mov	r1, #65536
 1789 0b22 15E0     		b	.L51
 1790              	.L252:
 1791 0b24 4FF48031 		mov	r1, #65536
 1792 0b28 12E0     		b	.L51
 1793              	.L253:
 1794 0b2a 4FF48031 		mov	r1, #65536
 1795 0b2e 0FE0     		b	.L51
 1796              	.L310:
 1797              		.align	2
 1798              	.L309:
ARM GAS  /tmp/ccIvKYQX.s 			page 53


 1799 0b30 00600240 		.word	1073897472
 1800 0b34 58640240 		.word	1073898584
 1801 0b38 01008000 		.word	8388609
 1802 0b3c 00640240 		.word	1073898496
 1803 0b40 B8600240 		.word	1073897656
 1804 0b44 58600240 		.word	1073897560
 1805 0b48 10600240 		.word	1073897488
 1806              	.L254:
 1807 0b4c 4FF48001 		mov	r1, #4194304
 1808              	.L51:
 301:../Drivers/STM32F4xx_HAL_Driver/Src/stm32f4xx_hal_dma.c ****   __HAL_DMA_CLEAR_FLAG(hdma, __HAL_DMA_GET_HT_FLAG_INDEX(hdma));
 1809              		.loc 1 301 0 discriminator 200
 1810 0b50 B34A     		ldr	r2, .L311
 1811 0b52 9160     		str	r1, [r2, #8]
 1812              	.L45:
 302:../Drivers/STM32F4xx_HAL_Driver/Src/stm32f4xx_hal_dma.c **** 
 1813              		.loc 1 302 0 is_stmt 1
 1814 0b54 1A68     		ldr	r2, [r3]
 1815 0b56 B349     		ldr	r1, .L311+4
 1816 0b58 8A42     		cmp	r2, r1
 1817 0b5a 54D9     		bls	.L52
 302:../Drivers/STM32F4xx_HAL_Driver/Src/stm32f4xx_hal_dma.c **** 
 1818              		.loc 1 302 0 is_stmt 0 discriminator 1
 1819 0b5c A1F58961 		sub	r1, r1, #1096
 1820 0b60 8A42     		cmp	r2, r1
 1821 0b62 2ED0     		beq	.L255
 302:../Drivers/STM32F4xx_HAL_Driver/Src/stm32f4xx_hal_dma.c **** 
 1822              		.loc 1 302 0 discriminator 3
 1823 0b64 01F58061 		add	r1, r1, #1024
 1824 0b68 8A42     		cmp	r2, r1
 1825 0b6a 2CD0     		beq	.L256
 302:../Drivers/STM32F4xx_HAL_Driver/Src/stm32f4xx_hal_dma.c **** 
 1826              		.loc 1 302 0 discriminator 5
 1827 0b6c A1F56871 		sub	r1, r1, #928
 1828 0b70 8A42     		cmp	r2, r1
 1829 0b72 2AD0     		beq	.L257
 302:../Drivers/STM32F4xx_HAL_Driver/Src/stm32f4xx_hal_dma.c **** 
 1830              		.loc 1 302 0 discriminator 7
 1831 0b74 01F58061 		add	r1, r1, #1024
 1832 0b78 8A42     		cmp	r2, r1
 1833 0b7a 28D0     		beq	.L258
 302:../Drivers/STM32F4xx_HAL_Driver/Src/stm32f4xx_hal_dma.c **** 
 1834              		.loc 1 302 0 discriminator 9
 1835 0b7c A1F58961 		sub	r1, r1, #1096
 1836 0b80 8A42     		cmp	r2, r1
 1837 0b82 26D0     		beq	.L259
 302:../Drivers/STM32F4xx_HAL_Driver/Src/stm32f4xx_hal_dma.c **** 
 1838              		.loc 1 302 0 discriminator 11
 1839 0b84 01F58061 		add	r1, r1, #1024
 1840 0b88 8A42     		cmp	r2, r1
 1841 0b8a 25D0     		beq	.L260
 302:../Drivers/STM32F4xx_HAL_Driver/Src/stm32f4xx_hal_dma.c **** 
 1842              		.loc 1 302 0 discriminator 13
 1843 0b8c A1F56871 		sub	r1, r1, #928
 1844 0b90 8A42     		cmp	r2, r1
 1845 0b92 24D0     		beq	.L261
 302:../Drivers/STM32F4xx_HAL_Driver/Src/stm32f4xx_hal_dma.c **** 
ARM GAS  /tmp/ccIvKYQX.s 			page 54


 1846              		.loc 1 302 0 discriminator 15
 1847 0b94 01F58061 		add	r1, r1, #1024
 1848 0b98 8A42     		cmp	r2, r1
 1849 0b9a 23D0     		beq	.L262
 302:../Drivers/STM32F4xx_HAL_Driver/Src/stm32f4xx_hal_dma.c **** 
 1850              		.loc 1 302 0 discriminator 17
 1851 0b9c A1F58961 		sub	r1, r1, #1096
 1852 0ba0 8A42     		cmp	r2, r1
 1853 0ba2 22D0     		beq	.L263
 302:../Drivers/STM32F4xx_HAL_Driver/Src/stm32f4xx_hal_dma.c **** 
 1854              		.loc 1 302 0 discriminator 19
 1855 0ba4 01F58061 		add	r1, r1, #1024
 1856 0ba8 8A42     		cmp	r2, r1
 1857 0baa 21D0     		beq	.L264
 302:../Drivers/STM32F4xx_HAL_Driver/Src/stm32f4xx_hal_dma.c **** 
 1858              		.loc 1 302 0 discriminator 21
 1859 0bac A1F56871 		sub	r1, r1, #928
 1860 0bb0 8A42     		cmp	r2, r1
 1861 0bb2 20D0     		beq	.L265
 302:../Drivers/STM32F4xx_HAL_Driver/Src/stm32f4xx_hal_dma.c **** 
 1862              		.loc 1 302 0 discriminator 23
 1863 0bb4 01F58061 		add	r1, r1, #1024
 1864 0bb8 8A42     		cmp	r2, r1
 1865 0bba 1FD1     		bne	.L266
 302:../Drivers/STM32F4xx_HAL_Driver/Src/stm32f4xx_hal_dma.c **** 
 1866              		.loc 1 302 0
 1867 0bbc 4FF48011 		mov	r1, #1048576
 1868 0bc0 1EE0     		b	.L53
 1869              	.L255:
 1870 0bc2 1021     		movs	r1, #16
 1871 0bc4 1CE0     		b	.L53
 1872              	.L256:
 1873 0bc6 1021     		movs	r1, #16
 1874 0bc8 1AE0     		b	.L53
 1875              	.L257:
 1876 0bca 1021     		movs	r1, #16
 1877 0bcc 18E0     		b	.L53
 1878              	.L258:
 1879 0bce 1021     		movs	r1, #16
 1880 0bd0 16E0     		b	.L53
 1881              	.L259:
 1882 0bd2 4FF48061 		mov	r1, #1024
 1883 0bd6 13E0     		b	.L53
 1884              	.L260:
 1885 0bd8 4FF48061 		mov	r1, #1024
 1886 0bdc 10E0     		b	.L53
 1887              	.L261:
 1888 0bde 4FF48061 		mov	r1, #1024
 1889 0be2 0DE0     		b	.L53
 1890              	.L262:
 1891 0be4 4FF48061 		mov	r1, #1024
 1892 0be8 0AE0     		b	.L53
 1893              	.L263:
 1894 0bea 4FF48011 		mov	r1, #1048576
 1895 0bee 07E0     		b	.L53
 1896              	.L264:
 1897 0bf0 4FF48011 		mov	r1, #1048576
ARM GAS  /tmp/ccIvKYQX.s 			page 55


 1898 0bf4 04E0     		b	.L53
 1899              	.L265:
 1900 0bf6 4FF48011 		mov	r1, #1048576
 1901 0bfa 01E0     		b	.L53
 1902              	.L266:
 1903 0bfc 4FF08061 		mov	r1, #67108864
 1904              	.L53:
 302:../Drivers/STM32F4xx_HAL_Driver/Src/stm32f4xx_hal_dma.c **** 
 1905              		.loc 1 302 0 discriminator 50
 1906 0c00 894A     		ldr	r2, .L311+8
 1907 0c02 D160     		str	r1, [r2, #12]
 1908 0c04 00E1     		b	.L54
 1909              	.L52:
 302:../Drivers/STM32F4xx_HAL_Driver/Src/stm32f4xx_hal_dma.c **** 
 1910              		.loc 1 302 0 discriminator 2
 1911 0c06 8949     		ldr	r1, .L311+12
 1912 0c08 8A42     		cmp	r2, r1
 1913 0c0a 53D9     		bls	.L55
 302:../Drivers/STM32F4xx_HAL_Driver/Src/stm32f4xx_hal_dma.c **** 
 1914              		.loc 1 302 0 discriminator 51
 1915 0c0c A839     		subs	r1, r1, #168
 1916 0c0e 8A42     		cmp	r2, r1
 1917 0c10 2ED0     		beq	.L267
 302:../Drivers/STM32F4xx_HAL_Driver/Src/stm32f4xx_hal_dma.c **** 
 1918              		.loc 1 302 0 discriminator 53
 1919 0c12 01F58061 		add	r1, r1, #1024
 1920 0c16 8A42     		cmp	r2, r1
 1921 0c18 2CD0     		beq	.L268
 302:../Drivers/STM32F4xx_HAL_Driver/Src/stm32f4xx_hal_dma.c **** 
 1922              		.loc 1 302 0 discriminator 55
 1923 0c1a A1F56871 		sub	r1, r1, #928
 1924 0c1e 8A42     		cmp	r2, r1
 1925 0c20 2AD0     		beq	.L269
 302:../Drivers/STM32F4xx_HAL_Driver/Src/stm32f4xx_hal_dma.c **** 
 1926              		.loc 1 302 0 discriminator 57
 1927 0c22 01F58061 		add	r1, r1, #1024
 1928 0c26 8A42     		cmp	r2, r1
 1929 0c28 28D0     		beq	.L270
 302:../Drivers/STM32F4xx_HAL_Driver/Src/stm32f4xx_hal_dma.c **** 
 1930              		.loc 1 302 0 discriminator 59
 1931 0c2a A1F58961 		sub	r1, r1, #1096
 1932 0c2e 8A42     		cmp	r2, r1
 1933 0c30 26D0     		beq	.L271
 302:../Drivers/STM32F4xx_HAL_Driver/Src/stm32f4xx_hal_dma.c **** 
 1934              		.loc 1 302 0 discriminator 61
 1935 0c32 01F58061 		add	r1, r1, #1024
 1936 0c36 8A42     		cmp	r2, r1
 1937 0c38 25D0     		beq	.L272
 302:../Drivers/STM32F4xx_HAL_Driver/Src/stm32f4xx_hal_dma.c **** 
 1938              		.loc 1 302 0 discriminator 63
 1939 0c3a A1F56871 		sub	r1, r1, #928
 1940 0c3e 8A42     		cmp	r2, r1
 1941 0c40 24D0     		beq	.L273
 302:../Drivers/STM32F4xx_HAL_Driver/Src/stm32f4xx_hal_dma.c **** 
 1942              		.loc 1 302 0 discriminator 65
 1943 0c42 01F58061 		add	r1, r1, #1024
 1944 0c46 8A42     		cmp	r2, r1
ARM GAS  /tmp/ccIvKYQX.s 			page 56


 1945 0c48 23D0     		beq	.L274
 302:../Drivers/STM32F4xx_HAL_Driver/Src/stm32f4xx_hal_dma.c **** 
 1946              		.loc 1 302 0 discriminator 67
 1947 0c4a A1F58961 		sub	r1, r1, #1096
 1948 0c4e 8A42     		cmp	r2, r1
 1949 0c50 22D0     		beq	.L275
 302:../Drivers/STM32F4xx_HAL_Driver/Src/stm32f4xx_hal_dma.c **** 
 1950              		.loc 1 302 0 discriminator 69
 1951 0c52 01F58061 		add	r1, r1, #1024
 1952 0c56 8A42     		cmp	r2, r1
 1953 0c58 21D0     		beq	.L276
 302:../Drivers/STM32F4xx_HAL_Driver/Src/stm32f4xx_hal_dma.c **** 
 1954              		.loc 1 302 0 discriminator 71
 1955 0c5a A1F56871 		sub	r1, r1, #928
 1956 0c5e 8A42     		cmp	r2, r1
 1957 0c60 20D0     		beq	.L277
 302:../Drivers/STM32F4xx_HAL_Driver/Src/stm32f4xx_hal_dma.c **** 
 1958              		.loc 1 302 0 discriminator 73
 1959 0c62 01F58061 		add	r1, r1, #1024
 1960 0c66 8A42     		cmp	r2, r1
 1961 0c68 1FD1     		bne	.L278
 302:../Drivers/STM32F4xx_HAL_Driver/Src/stm32f4xx_hal_dma.c **** 
 1962              		.loc 1 302 0
 1963 0c6a 4FF48011 		mov	r1, #1048576
 1964 0c6e 1EE0     		b	.L56
 1965              	.L267:
 1966 0c70 1021     		movs	r1, #16
 1967 0c72 1CE0     		b	.L56
 1968              	.L268:
 1969 0c74 1021     		movs	r1, #16
 1970 0c76 1AE0     		b	.L56
 1971              	.L269:
 1972 0c78 1021     		movs	r1, #16
 1973 0c7a 18E0     		b	.L56
 1974              	.L270:
 1975 0c7c 1021     		movs	r1, #16
 1976 0c7e 16E0     		b	.L56
 1977              	.L271:
 1978 0c80 4FF48061 		mov	r1, #1024
 1979 0c84 13E0     		b	.L56
 1980              	.L272:
 1981 0c86 4FF48061 		mov	r1, #1024
 1982 0c8a 10E0     		b	.L56
 1983              	.L273:
 1984 0c8c 4FF48061 		mov	r1, #1024
 1985 0c90 0DE0     		b	.L56
 1986              	.L274:
 1987 0c92 4FF48061 		mov	r1, #1024
 1988 0c96 0AE0     		b	.L56
 1989              	.L275:
 1990 0c98 4FF48011 		mov	r1, #1048576
 1991 0c9c 07E0     		b	.L56
 1992              	.L276:
 1993 0c9e 4FF48011 		mov	r1, #1048576
 1994 0ca2 04E0     		b	.L56
 1995              	.L277:
 1996 0ca4 4FF48011 		mov	r1, #1048576
ARM GAS  /tmp/ccIvKYQX.s 			page 57


 1997 0ca8 01E0     		b	.L56
 1998              	.L278:
 1999 0caa 4FF08061 		mov	r1, #67108864
 2000              	.L56:
 302:../Drivers/STM32F4xx_HAL_Driver/Src/stm32f4xx_hal_dma.c **** 
 2001              		.loc 1 302 0 discriminator 100
 2002 0cae 5E4A     		ldr	r2, .L311+8
 2003 0cb0 9160     		str	r1, [r2, #8]
 2004 0cb2 A9E0     		b	.L54
 2005              	.L55:
 302:../Drivers/STM32F4xx_HAL_Driver/Src/stm32f4xx_hal_dma.c **** 
 2006              		.loc 1 302 0 discriminator 52
 2007 0cb4 5E49     		ldr	r1, .L311+16
 2008 0cb6 8A42     		cmp	r2, r1
 2009 0cb8 53D9     		bls	.L58
 302:../Drivers/STM32F4xx_HAL_Driver/Src/stm32f4xx_hal_dma.c **** 
 2010              		.loc 1 302 0 discriminator 102
 2011 0cba 4839     		subs	r1, r1, #72
 2012 0cbc 8A42     		cmp	r2, r1
 2013 0cbe 2ED0     		beq	.L279
 302:../Drivers/STM32F4xx_HAL_Driver/Src/stm32f4xx_hal_dma.c **** 
 2014              		.loc 1 302 0 discriminator 104
 2015 0cc0 01F58061 		add	r1, r1, #1024
 2016 0cc4 8A42     		cmp	r2, r1
 2017 0cc6 2CD0     		beq	.L280
 302:../Drivers/STM32F4xx_HAL_Driver/Src/stm32f4xx_hal_dma.c **** 
 2018              		.loc 1 302 0 discriminator 106
 2019 0cc8 A1F56871 		sub	r1, r1, #928
 2020 0ccc 8A42     		cmp	r2, r1
 2021 0cce 2AD0     		beq	.L281
 302:../Drivers/STM32F4xx_HAL_Driver/Src/stm32f4xx_hal_dma.c **** 
 2022              		.loc 1 302 0 discriminator 108
 2023 0cd0 01F58061 		add	r1, r1, #1024
 2024 0cd4 8A42     		cmp	r2, r1
 2025 0cd6 28D0     		beq	.L282
 302:../Drivers/STM32F4xx_HAL_Driver/Src/stm32f4xx_hal_dma.c **** 
 2026              		.loc 1 302 0 discriminator 110
 2027 0cd8 A1F58961 		sub	r1, r1, #1096
 2028 0cdc 8A42     		cmp	r2, r1
 2029 0cde 26D0     		beq	.L283
 302:../Drivers/STM32F4xx_HAL_Driver/Src/stm32f4xx_hal_dma.c **** 
 2030              		.loc 1 302 0 discriminator 112
 2031 0ce0 01F58061 		add	r1, r1, #1024
 2032 0ce4 8A42     		cmp	r2, r1
 2033 0ce6 25D0     		beq	.L284
 302:../Drivers/STM32F4xx_HAL_Driver/Src/stm32f4xx_hal_dma.c **** 
 2034              		.loc 1 302 0 discriminator 114
 2035 0ce8 A1F56871 		sub	r1, r1, #928
 2036 0cec 8A42     		cmp	r2, r1
 2037 0cee 24D0     		beq	.L285
 302:../Drivers/STM32F4xx_HAL_Driver/Src/stm32f4xx_hal_dma.c **** 
 2038              		.loc 1 302 0 discriminator 116
 2039 0cf0 01F58061 		add	r1, r1, #1024
 2040 0cf4 8A42     		cmp	r2, r1
 2041 0cf6 23D0     		beq	.L286
 302:../Drivers/STM32F4xx_HAL_Driver/Src/stm32f4xx_hal_dma.c **** 
 2042              		.loc 1 302 0 discriminator 118
ARM GAS  /tmp/ccIvKYQX.s 			page 58


 2043 0cf8 A1F58961 		sub	r1, r1, #1096
 2044 0cfc 8A42     		cmp	r2, r1
 2045 0cfe 22D0     		beq	.L287
 302:../Drivers/STM32F4xx_HAL_Driver/Src/stm32f4xx_hal_dma.c **** 
 2046              		.loc 1 302 0 discriminator 120
 2047 0d00 01F58061 		add	r1, r1, #1024
 2048 0d04 8A42     		cmp	r2, r1
 2049 0d06 21D0     		beq	.L288
 302:../Drivers/STM32F4xx_HAL_Driver/Src/stm32f4xx_hal_dma.c **** 
 2050              		.loc 1 302 0 discriminator 122
 2051 0d08 A1F56871 		sub	r1, r1, #928
 2052 0d0c 8A42     		cmp	r2, r1
 2053 0d0e 20D0     		beq	.L289
 302:../Drivers/STM32F4xx_HAL_Driver/Src/stm32f4xx_hal_dma.c **** 
 2054              		.loc 1 302 0 discriminator 124
 2055 0d10 01F58061 		add	r1, r1, #1024
 2056 0d14 8A42     		cmp	r2, r1
 2057 0d16 1FD1     		bne	.L290
 302:../Drivers/STM32F4xx_HAL_Driver/Src/stm32f4xx_hal_dma.c **** 
 2058              		.loc 1 302 0
 2059 0d18 4FF48011 		mov	r1, #1048576
 2060 0d1c 1EE0     		b	.L59
 2061              	.L279:
 2062 0d1e 1021     		movs	r1, #16
 2063 0d20 1CE0     		b	.L59
 2064              	.L280:
 2065 0d22 1021     		movs	r1, #16
 2066 0d24 1AE0     		b	.L59
 2067              	.L281:
 2068 0d26 1021     		movs	r1, #16
 2069 0d28 18E0     		b	.L59
 2070              	.L282:
 2071 0d2a 1021     		movs	r1, #16
 2072 0d2c 16E0     		b	.L59
 2073              	.L283:
 2074 0d2e 4FF48061 		mov	r1, #1024
 2075 0d32 13E0     		b	.L59
 2076              	.L284:
 2077 0d34 4FF48061 		mov	r1, #1024
 2078 0d38 10E0     		b	.L59
 2079              	.L285:
 2080 0d3a 4FF48061 		mov	r1, #1024
 2081 0d3e 0DE0     		b	.L59
 2082              	.L286:
 2083 0d40 4FF48061 		mov	r1, #1024
 2084 0d44 0AE0     		b	.L59
 2085              	.L287:
 2086 0d46 4FF48011 		mov	r1, #1048576
 2087 0d4a 07E0     		b	.L59
 2088              	.L288:
 2089 0d4c 4FF48011 		mov	r1, #1048576
 2090 0d50 04E0     		b	.L59
 2091              	.L289:
 2092 0d52 4FF48011 		mov	r1, #1048576
 2093 0d56 01E0     		b	.L59
 2094              	.L290:
 2095 0d58 4FF08061 		mov	r1, #67108864
ARM GAS  /tmp/ccIvKYQX.s 			page 59


 2096              	.L59:
 302:../Drivers/STM32F4xx_HAL_Driver/Src/stm32f4xx_hal_dma.c **** 
 2097              		.loc 1 302 0 discriminator 151
 2098 0d5c 304A     		ldr	r2, .L311
 2099 0d5e D160     		str	r1, [r2, #12]
 2100 0d60 52E0     		b	.L54
 2101              	.L58:
 302:../Drivers/STM32F4xx_HAL_Driver/Src/stm32f4xx_hal_dma.c **** 
 2102              		.loc 1 302 0 discriminator 103
 2103 0d62 3449     		ldr	r1, .L311+20
 2104 0d64 8A42     		cmp	r2, r1
 2105 0d66 2ED0     		beq	.L291
 302:../Drivers/STM32F4xx_HAL_Driver/Src/stm32f4xx_hal_dma.c **** 
 2106              		.loc 1 302 0 discriminator 153
 2107 0d68 01F58061 		add	r1, r1, #1024
 2108 0d6c 8A42     		cmp	r2, r1
 2109 0d6e 2CD0     		beq	.L292
 302:../Drivers/STM32F4xx_HAL_Driver/Src/stm32f4xx_hal_dma.c **** 
 2110              		.loc 1 302 0 discriminator 155
 2111 0d70 A1F56871 		sub	r1, r1, #928
 2112 0d74 8A42     		cmp	r2, r1
 2113 0d76 2AD0     		beq	.L293
 302:../Drivers/STM32F4xx_HAL_Driver/Src/stm32f4xx_hal_dma.c **** 
 2114              		.loc 1 302 0 discriminator 157
 2115 0d78 01F58061 		add	r1, r1, #1024
 2116 0d7c 8A42     		cmp	r2, r1
 2117 0d7e 28D0     		beq	.L294
 302:../Drivers/STM32F4xx_HAL_Driver/Src/stm32f4xx_hal_dma.c **** 
 2118              		.loc 1 302 0 discriminator 159
 2119 0d80 A1F58961 		sub	r1, r1, #1096
 2120 0d84 8A42     		cmp	r2, r1
 2121 0d86 26D0     		beq	.L295
 302:../Drivers/STM32F4xx_HAL_Driver/Src/stm32f4xx_hal_dma.c **** 
 2122              		.loc 1 302 0 discriminator 161
 2123 0d88 01F58061 		add	r1, r1, #1024
 2124 0d8c 8A42     		cmp	r2, r1
 2125 0d8e 25D0     		beq	.L296
 302:../Drivers/STM32F4xx_HAL_Driver/Src/stm32f4xx_hal_dma.c **** 
 2126              		.loc 1 302 0 discriminator 163
 2127 0d90 A1F56871 		sub	r1, r1, #928
 2128 0d94 8A42     		cmp	r2, r1
 2129 0d96 24D0     		beq	.L297
 302:../Drivers/STM32F4xx_HAL_Driver/Src/stm32f4xx_hal_dma.c **** 
 2130              		.loc 1 302 0 discriminator 165
 2131 0d98 01F58061 		add	r1, r1, #1024
 2132 0d9c 8A42     		cmp	r2, r1
 2133 0d9e 23D0     		beq	.L298
 302:../Drivers/STM32F4xx_HAL_Driver/Src/stm32f4xx_hal_dma.c **** 
 2134              		.loc 1 302 0 discriminator 167
 2135 0da0 A1F58961 		sub	r1, r1, #1096
 2136 0da4 8A42     		cmp	r2, r1
 2137 0da6 22D0     		beq	.L299
 302:../Drivers/STM32F4xx_HAL_Driver/Src/stm32f4xx_hal_dma.c **** 
 2138              		.loc 1 302 0 discriminator 169
 2139 0da8 01F58061 		add	r1, r1, #1024
 2140 0dac 8A42     		cmp	r2, r1
 2141 0dae 21D0     		beq	.L300
ARM GAS  /tmp/ccIvKYQX.s 			page 60


 302:../Drivers/STM32F4xx_HAL_Driver/Src/stm32f4xx_hal_dma.c **** 
 2142              		.loc 1 302 0 discriminator 171
 2143 0db0 A1F56871 		sub	r1, r1, #928
 2144 0db4 8A42     		cmp	r2, r1
 2145 0db6 20D0     		beq	.L301
 302:../Drivers/STM32F4xx_HAL_Driver/Src/stm32f4xx_hal_dma.c **** 
 2146              		.loc 1 302 0 discriminator 173
 2147 0db8 01F58061 		add	r1, r1, #1024
 2148 0dbc 8A42     		cmp	r2, r1
 2149 0dbe 1FD1     		bne	.L302
 302:../Drivers/STM32F4xx_HAL_Driver/Src/stm32f4xx_hal_dma.c **** 
 2150              		.loc 1 302 0
 2151 0dc0 4FF48011 		mov	r1, #1048576
 2152 0dc4 1EE0     		b	.L60
 2153              	.L291:
 2154 0dc6 1021     		movs	r1, #16
 2155 0dc8 1CE0     		b	.L60
 2156              	.L292:
 2157 0dca 1021     		movs	r1, #16
 2158 0dcc 1AE0     		b	.L60
 2159              	.L293:
 2160 0dce 1021     		movs	r1, #16
 2161 0dd0 18E0     		b	.L60
 2162              	.L294:
 2163 0dd2 1021     		movs	r1, #16
 2164 0dd4 16E0     		b	.L60
 2165              	.L295:
 2166 0dd6 4FF48061 		mov	r1, #1024
 2167 0dda 13E0     		b	.L60
 2168              	.L296:
 2169 0ddc 4FF48061 		mov	r1, #1024
 2170 0de0 10E0     		b	.L60
 2171              	.L297:
 2172 0de2 4FF48061 		mov	r1, #1024
 2173 0de6 0DE0     		b	.L60
 2174              	.L298:
 2175 0de8 4FF48061 		mov	r1, #1024
 2176 0dec 0AE0     		b	.L60
 2177              	.L299:
 2178 0dee 4FF48011 		mov	r1, #1048576
 2179 0df2 07E0     		b	.L60
 2180              	.L300:
 2181 0df4 4FF48011 		mov	r1, #1048576
 2182 0df8 04E0     		b	.L60
 2183              	.L301:
 2184 0dfa 4FF48011 		mov	r1, #1048576
 2185 0dfe 01E0     		b	.L60
 2186              	.L302:
 2187 0e00 4FF08061 		mov	r1, #67108864
 2188              	.L60:
 302:../Drivers/STM32F4xx_HAL_Driver/Src/stm32f4xx_hal_dma.c **** 
 2189              		.loc 1 302 0 discriminator 200
 2190 0e04 064A     		ldr	r2, .L311
 2191 0e06 9160     		str	r1, [r2, #8]
 2192              	.L54:
 305:../Drivers/STM32F4xx_HAL_Driver/Src/stm32f4xx_hal_dma.c **** 
 2193              		.loc 1 305 0 is_stmt 1
ARM GAS  /tmp/ccIvKYQX.s 			page 61


 2194 0e08 0020     		movs	r0, #0
 2195              	.LVL20:
 2196 0e0a D864     		str	r0, [r3, #76]
 308:../Drivers/STM32F4xx_HAL_Driver/Src/stm32f4xx_hal_dma.c **** 
 2197              		.loc 1 308 0
 2198 0e0c 83F83500 		strb	r0, [r3, #53]
 311:../Drivers/STM32F4xx_HAL_Driver/Src/stm32f4xx_hal_dma.c **** 
 2199              		.loc 1 311 0
 2200 0e10 83F83400 		strb	r0, [r3, #52]
 313:../Drivers/STM32F4xx_HAL_Driver/Src/stm32f4xx_hal_dma.c **** }
 2201              		.loc 1 313 0
 2202 0e14 7047     		bx	lr
 2203              	.LVL21:
 2204              	.L61:
 267:../Drivers/STM32F4xx_HAL_Driver/Src/stm32f4xx_hal_dma.c ****   }
 2205              		.loc 1 267 0
 2206 0e16 0120     		movs	r0, #1
 2207              	.LVL22:
 2208 0e18 7047     		bx	lr
 2209              	.LVL23:
 2210              	.L62:
 273:../Drivers/STM32F4xx_HAL_Driver/Src/stm32f4xx_hal_dma.c ****   }
 2211              		.loc 1 273 0
 2212 0e1a 0120     		movs	r0, #1
 2213              	.LVL24:
 314:../Drivers/STM32F4xx_HAL_Driver/Src/stm32f4xx_hal_dma.c **** 
 2214              		.loc 1 314 0
 2215 0e1c 7047     		bx	lr
 2216              	.L312:
 2217 0e1e 00BF     		.align	2
 2218              	.L311:
 2219 0e20 00600240 		.word	1073897472
 2220 0e24 58640240 		.word	1073898584
 2221 0e28 00640240 		.word	1073898496
 2222 0e2c B8600240 		.word	1073897656
 2223 0e30 58600240 		.word	1073897560
 2224 0e34 10600240 		.word	1073897488
 2225              		.cfi_endproc
 2226              	.LFE113:
 2228              		.section	.text.HAL_DMA_Start,"ax",%progbits
 2229              		.align	2
 2230              		.global	HAL_DMA_Start
 2231              		.thumb
 2232              		.thumb_func
 2234              	HAL_DMA_Start:
 2235              	.LFB114:
 349:../Drivers/STM32F4xx_HAL_Driver/Src/stm32f4xx_hal_dma.c ****   /* Process locked */
 2236              		.loc 1 349 0
 2237              		.cfi_startproc
 2238              		@ args = 0, pretend = 0, frame = 0
 2239              		@ frame_needed = 0, uses_anonymous_args = 0
 2240              	.LVL25:
 2241 0000 38B5     		push	{r3, r4, r5, lr}
 2242              	.LCFI6:
 2243              		.cfi_def_cfa_offset 16
 2244              		.cfi_offset 3, -16
 2245              		.cfi_offset 4, -12
ARM GAS  /tmp/ccIvKYQX.s 			page 62


 2246              		.cfi_offset 5, -8
 2247              		.cfi_offset 14, -4
 351:../Drivers/STM32F4xx_HAL_Driver/Src/stm32f4xx_hal_dma.c **** 
 2248              		.loc 1 351 0
 2249 0002 90F83440 		ldrb	r4, [r0, #52]	@ zero_extendqisi2
 2250 0006 012C     		cmp	r4, #1
 2251 0008 15D0     		beq	.L315
 2252 000a 0446     		mov	r4, r0
 351:../Drivers/STM32F4xx_HAL_Driver/Src/stm32f4xx_hal_dma.c **** 
 2253              		.loc 1 351 0 is_stmt 0 discriminator 2
 2254 000c 0120     		movs	r0, #1
 2255              	.LVL26:
 2256 000e 84F83400 		strb	r0, [r4, #52]
 354:../Drivers/STM32F4xx_HAL_Driver/Src/stm32f4xx_hal_dma.c **** 
 2257              		.loc 1 354 0 is_stmt 1 discriminator 2
 2258 0012 0220     		movs	r0, #2
 2259 0014 84F83500 		strb	r0, [r4, #53]
 360:../Drivers/STM32F4xx_HAL_Driver/Src/stm32f4xx_hal_dma.c **** 
 2260              		.loc 1 360 0 discriminator 2
 2261 0018 2568     		ldr	r5, [r4]
 2262 001a 2868     		ldr	r0, [r5]
 2263 001c 20F00100 		bic	r0, r0, #1
 2264 0020 2860     		str	r0, [r5]
 363:../Drivers/STM32F4xx_HAL_Driver/Src/stm32f4xx_hal_dma.c **** 
 2265              		.loc 1 363 0 discriminator 2
 2266 0022 2046     		mov	r0, r4
 2267 0024 FFF7FEFF 		bl	DMA_SetConfig
 2268              	.LVL27:
 366:../Drivers/STM32F4xx_HAL_Driver/Src/stm32f4xx_hal_dma.c **** 
 2269              		.loc 1 366 0 discriminator 2
 2270 0028 2268     		ldr	r2, [r4]
 2271 002a 1368     		ldr	r3, [r2]
 2272 002c 43F00103 		orr	r3, r3, #1
 2273 0030 1360     		str	r3, [r2]
 368:../Drivers/STM32F4xx_HAL_Driver/Src/stm32f4xx_hal_dma.c **** }
 2274              		.loc 1 368 0 discriminator 2
 2275 0032 0020     		movs	r0, #0
 2276 0034 38BD     		pop	{r3, r4, r5, pc}
 2277              	.LVL28:
 2278              	.L315:
 351:../Drivers/STM32F4xx_HAL_Driver/Src/stm32f4xx_hal_dma.c **** 
 2279              		.loc 1 351 0
 2280 0036 0220     		movs	r0, #2
 2281              	.LVL29:
 369:../Drivers/STM32F4xx_HAL_Driver/Src/stm32f4xx_hal_dma.c **** 
 2282              		.loc 1 369 0
 2283 0038 38BD     		pop	{r3, r4, r5, pc}
 2284              		.cfi_endproc
 2285              	.LFE114:
 2287 003a 00BF     		.section	.text.HAL_DMA_Start_IT,"ax",%progbits
 2288              		.align	2
 2289              		.global	HAL_DMA_Start_IT
 2290              		.thumb
 2291              		.thumb_func
 2293              	HAL_DMA_Start_IT:
 2294              	.LFB115:
 381:../Drivers/STM32F4xx_HAL_Driver/Src/stm32f4xx_hal_dma.c ****   /* Process locked */
ARM GAS  /tmp/ccIvKYQX.s 			page 63


 2295              		.loc 1 381 0
 2296              		.cfi_startproc
 2297              		@ args = 0, pretend = 0, frame = 0
 2298              		@ frame_needed = 0, uses_anonymous_args = 0
 2299              	.LVL30:
 2300 0000 38B5     		push	{r3, r4, r5, lr}
 2301              	.LCFI7:
 2302              		.cfi_def_cfa_offset 16
 2303              		.cfi_offset 3, -16
 2304              		.cfi_offset 4, -12
 2305              		.cfi_offset 5, -8
 2306              		.cfi_offset 14, -4
 383:../Drivers/STM32F4xx_HAL_Driver/Src/stm32f4xx_hal_dma.c **** 
 2307              		.loc 1 383 0
 2308 0002 90F83440 		ldrb	r4, [r0, #52]	@ zero_extendqisi2
 2309 0006 012C     		cmp	r4, #1
 2310 0008 2ED0     		beq	.L319
 2311 000a 0446     		mov	r4, r0
 383:../Drivers/STM32F4xx_HAL_Driver/Src/stm32f4xx_hal_dma.c **** 
 2312              		.loc 1 383 0 is_stmt 0 discriminator 2
 2313 000c 0120     		movs	r0, #1
 2314              	.LVL31:
 2315 000e 84F83400 		strb	r0, [r4, #52]
 386:../Drivers/STM32F4xx_HAL_Driver/Src/stm32f4xx_hal_dma.c **** 
 2316              		.loc 1 386 0 is_stmt 1 discriminator 2
 2317 0012 0220     		movs	r0, #2
 2318 0014 84F83500 		strb	r0, [r4, #53]
 392:../Drivers/STM32F4xx_HAL_Driver/Src/stm32f4xx_hal_dma.c **** 
 2319              		.loc 1 392 0 discriminator 2
 2320 0018 2568     		ldr	r5, [r4]
 2321 001a 2868     		ldr	r0, [r5]
 2322 001c 20F00100 		bic	r0, r0, #1
 2323 0020 2860     		str	r0, [r5]
 395:../Drivers/STM32F4xx_HAL_Driver/Src/stm32f4xx_hal_dma.c **** 
 2324              		.loc 1 395 0 discriminator 2
 2325 0022 2046     		mov	r0, r4
 2326 0024 FFF7FEFF 		bl	DMA_SetConfig
 2327              	.LVL32:
 398:../Drivers/STM32F4xx_HAL_Driver/Src/stm32f4xx_hal_dma.c **** 
 2328              		.loc 1 398 0 discriminator 2
 2329 0028 2268     		ldr	r2, [r4]
 2330 002a 1368     		ldr	r3, [r2]
 2331 002c 43F01003 		orr	r3, r3, #16
 2332 0030 1360     		str	r3, [r2]
 401:../Drivers/STM32F4xx_HAL_Driver/Src/stm32f4xx_hal_dma.c **** 
 2333              		.loc 1 401 0 discriminator 2
 2334 0032 2268     		ldr	r2, [r4]
 2335 0034 1368     		ldr	r3, [r2]
 2336 0036 43F00803 		orr	r3, r3, #8
 2337 003a 1360     		str	r3, [r2]
 404:../Drivers/STM32F4xx_HAL_Driver/Src/stm32f4xx_hal_dma.c **** 
 2338              		.loc 1 404 0 discriminator 2
 2339 003c 2268     		ldr	r2, [r4]
 2340 003e 1368     		ldr	r3, [r2]
 2341 0040 43F00403 		orr	r3, r3, #4
 2342 0044 1360     		str	r3, [r2]
 407:../Drivers/STM32F4xx_HAL_Driver/Src/stm32f4xx_hal_dma.c **** 
ARM GAS  /tmp/ccIvKYQX.s 			page 64


 2343              		.loc 1 407 0 discriminator 2
 2344 0046 2268     		ldr	r2, [r4]
 2345 0048 5369     		ldr	r3, [r2, #20]
 2346 004a 43F08003 		orr	r3, r3, #128
 2347 004e 5361     		str	r3, [r2, #20]
 410:../Drivers/STM32F4xx_HAL_Driver/Src/stm32f4xx_hal_dma.c **** 
 2348              		.loc 1 410 0 discriminator 2
 2349 0050 2268     		ldr	r2, [r4]
 2350 0052 1368     		ldr	r3, [r2]
 2351 0054 43F00203 		orr	r3, r3, #2
 2352 0058 1360     		str	r3, [r2]
 413:../Drivers/STM32F4xx_HAL_Driver/Src/stm32f4xx_hal_dma.c **** 
 2353              		.loc 1 413 0 discriminator 2
 2354 005a 2268     		ldr	r2, [r4]
 2355 005c 1368     		ldr	r3, [r2]
 2356 005e 43F00103 		orr	r3, r3, #1
 2357 0062 1360     		str	r3, [r2]
 415:../Drivers/STM32F4xx_HAL_Driver/Src/stm32f4xx_hal_dma.c **** } 
 2358              		.loc 1 415 0 discriminator 2
 2359 0064 0020     		movs	r0, #0
 2360 0066 38BD     		pop	{r3, r4, r5, pc}
 2361              	.LVL33:
 2362              	.L319:
 383:../Drivers/STM32F4xx_HAL_Driver/Src/stm32f4xx_hal_dma.c **** 
 2363              		.loc 1 383 0
 2364 0068 0220     		movs	r0, #2
 2365              	.LVL34:
 416:../Drivers/STM32F4xx_HAL_Driver/Src/stm32f4xx_hal_dma.c **** 
 2366              		.loc 1 416 0
 2367 006a 38BD     		pop	{r3, r4, r5, pc}
 2368              		.cfi_endproc
 2369              	.LFE115:
 2371              		.section	.text.HAL_DMA_Abort,"ax",%progbits
 2372              		.align	2
 2373              		.global	HAL_DMA_Abort
 2374              		.thumb
 2375              		.thumb_func
 2377              	HAL_DMA_Abort:
 2378              	.LFB116:
 431:../Drivers/STM32F4xx_HAL_Driver/Src/stm32f4xx_hal_dma.c ****   uint32_t tickstart = 0;
 2379              		.loc 1 431 0
 2380              		.cfi_startproc
 2381              		@ args = 0, pretend = 0, frame = 0
 2382              		@ frame_needed = 0, uses_anonymous_args = 0
 2383              	.LVL35:
 2384 0000 38B5     		push	{r3, r4, r5, lr}
 2385              	.LCFI8:
 2386              		.cfi_def_cfa_offset 16
 2387              		.cfi_offset 3, -16
 2388              		.cfi_offset 4, -12
 2389              		.cfi_offset 5, -8
 2390              		.cfi_offset 14, -4
 2391 0002 0446     		mov	r4, r0
 2392              	.LVL36:
 435:../Drivers/STM32F4xx_HAL_Driver/Src/stm32f4xx_hal_dma.c **** 
 2393              		.loc 1 435 0
 2394 0004 0268     		ldr	r2, [r0]
ARM GAS  /tmp/ccIvKYQX.s 			page 65


 2395 0006 1368     		ldr	r3, [r2]
 2396 0008 23F00103 		bic	r3, r3, #1
 2397 000c 1360     		str	r3, [r2]
 438:../Drivers/STM32F4xx_HAL_Driver/Src/stm32f4xx_hal_dma.c **** 
 2398              		.loc 1 438 0
 2399 000e FFF7FEFF 		bl	HAL_GetTick
 2400              	.LVL37:
 2401 0012 0546     		mov	r5, r0
 2402              	.LVL38:
 441:../Drivers/STM32F4xx_HAL_Driver/Src/stm32f4xx_hal_dma.c ****   {
 2403              		.loc 1 441 0
 2404 0014 10E0     		b	.L322
 2405              	.LVL39:
 2406              	.L324:
 444:../Drivers/STM32F4xx_HAL_Driver/Src/stm32f4xx_hal_dma.c ****     {
 2407              		.loc 1 444 0
 2408 0016 FFF7FEFF 		bl	HAL_GetTick
 2409              	.LVL40:
 2410 001a 401B     		subs	r0, r0, r5
 2411 001c B0F57A7F 		cmp	r0, #1000
 2412 0020 0AD9     		bls	.L322
 447:../Drivers/STM32F4xx_HAL_Driver/Src/stm32f4xx_hal_dma.c ****       
 2413              		.loc 1 447 0
 2414 0022 E36C     		ldr	r3, [r4, #76]
 2415 0024 43F02003 		orr	r3, r3, #32
 2416 0028 E364     		str	r3, [r4, #76]
 450:../Drivers/STM32F4xx_HAL_Driver/Src/stm32f4xx_hal_dma.c ****       
 2417              		.loc 1 450 0
 2418 002a 0023     		movs	r3, #0
 2419 002c 84F83430 		strb	r3, [r4, #52]
 453:../Drivers/STM32F4xx_HAL_Driver/Src/stm32f4xx_hal_dma.c ****       
 2420              		.loc 1 453 0
 2421 0030 0320     		movs	r0, #3
 2422 0032 84F83500 		strb	r0, [r4, #53]
 455:../Drivers/STM32F4xx_HAL_Driver/Src/stm32f4xx_hal_dma.c ****     }
 2423              		.loc 1 455 0
 2424 0036 38BD     		pop	{r3, r4, r5, pc}
 2425              	.LVL41:
 2426              	.L322:
 441:../Drivers/STM32F4xx_HAL_Driver/Src/stm32f4xx_hal_dma.c ****   {
 2427              		.loc 1 441 0
 2428 0038 2368     		ldr	r3, [r4]
 2429 003a 1B68     		ldr	r3, [r3]
 2430 003c 13F0010F 		tst	r3, #1
 2431 0040 E9D1     		bne	.L324
 459:../Drivers/STM32F4xx_HAL_Driver/Src/stm32f4xx_hal_dma.c **** 
 2432              		.loc 1 459 0
 2433 0042 0020     		movs	r0, #0
 2434 0044 84F83400 		strb	r0, [r4, #52]
 462:../Drivers/STM32F4xx_HAL_Driver/Src/stm32f4xx_hal_dma.c **** 
 2435              		.loc 1 462 0
 2436 0048 0123     		movs	r3, #1
 2437 004a 84F83530 		strb	r3, [r4, #53]
 465:../Drivers/STM32F4xx_HAL_Driver/Src/stm32f4xx_hal_dma.c **** 
 2438              		.loc 1 465 0
 2439 004e 38BD     		pop	{r3, r4, r5, pc}
 2440              		.cfi_endproc
ARM GAS  /tmp/ccIvKYQX.s 			page 66


 2441              	.LFE116:
 2443              		.section	.text.HAL_DMA_PollForTransfer,"ax",%progbits
 2444              		.align	2
 2445              		.global	HAL_DMA_PollForTransfer
 2446              		.thumb
 2447              		.thumb_func
 2449              	HAL_DMA_PollForTransfer:
 2450              	.LFB117:
 476:../Drivers/STM32F4xx_HAL_Driver/Src/stm32f4xx_hal_dma.c ****   uint32_t temp, tmp, tmp1, tmp2;
 2451              		.loc 1 476 0
 2452              		.cfi_startproc
 2453              		@ args = 0, pretend = 0, frame = 0
 2454              		@ frame_needed = 0, uses_anonymous_args = 0
 2455              	.LVL42:
 2456 0000 2DE9F843 		push	{r3, r4, r5, r6, r7, r8, r9, lr}
 2457              	.LCFI9:
 2458              		.cfi_def_cfa_offset 32
 2459              		.cfi_offset 3, -32
 2460              		.cfi_offset 4, -28
 2461              		.cfi_offset 5, -24
 2462              		.cfi_offset 6, -20
 2463              		.cfi_offset 7, -16
 2464              		.cfi_offset 8, -12
 2465              		.cfi_offset 9, -8
 2466              		.cfi_offset 14, -4
 2467 0004 0446     		mov	r4, r0
 2468 0006 1646     		mov	r6, r2
 2469              	.LVL43:
 481:../Drivers/STM32F4xx_HAL_Driver/Src/stm32f4xx_hal_dma.c ****   {
 2470              		.loc 1 481 0
 2471 0008 8946     		mov	r9, r1
 2472 000a 91BB     		cbnz	r1, .L327
 484:../Drivers/STM32F4xx_HAL_Driver/Src/stm32f4xx_hal_dma.c ****   }
 2473              		.loc 1 484 0
 2474 000c 0368     		ldr	r3, [r0]
 2475 000e AC4A     		ldr	r2, .L1053
 2476              	.LVL44:
 2477 0010 9342     		cmp	r3, r2
 2478 0012 61D0     		beq	.L451
 484:../Drivers/STM32F4xx_HAL_Driver/Src/stm32f4xx_hal_dma.c ****   }
 2479              		.loc 1 484 0 is_stmt 0 discriminator 1
 2480 0014 02F58062 		add	r2, r2, #1024
 2481 0018 9342     		cmp	r3, r2
 2482 001a 5FD0     		beq	.L452
 484:../Drivers/STM32F4xx_HAL_Driver/Src/stm32f4xx_hal_dma.c ****   }
 2483              		.loc 1 484 0 discriminator 3
 2484 001c A2F56872 		sub	r2, r2, #928
 2485 0020 9342     		cmp	r3, r2
 2486 0022 5DD0     		beq	.L453
 484:../Drivers/STM32F4xx_HAL_Driver/Src/stm32f4xx_hal_dma.c ****   }
 2487              		.loc 1 484 0 discriminator 5
 2488 0024 02F58062 		add	r2, r2, #1024
 2489 0028 9342     		cmp	r3, r2
 2490 002a 5BD0     		beq	.L454
 484:../Drivers/STM32F4xx_HAL_Driver/Src/stm32f4xx_hal_dma.c ****   }
 2491              		.loc 1 484 0 discriminator 7
 2492 002c A2F58962 		sub	r2, r2, #1096
ARM GAS  /tmp/ccIvKYQX.s 			page 67


 2493 0030 9342     		cmp	r3, r2
 2494 0032 59D0     		beq	.L455
 484:../Drivers/STM32F4xx_HAL_Driver/Src/stm32f4xx_hal_dma.c ****   }
 2495              		.loc 1 484 0 discriminator 9
 2496 0034 02F58062 		add	r2, r2, #1024
 2497 0038 9342     		cmp	r3, r2
 2498 003a 58D0     		beq	.L456
 484:../Drivers/STM32F4xx_HAL_Driver/Src/stm32f4xx_hal_dma.c ****   }
 2499              		.loc 1 484 0 discriminator 11
 2500 003c A2F56872 		sub	r2, r2, #928
 2501 0040 9342     		cmp	r3, r2
 2502 0042 57D0     		beq	.L457
 484:../Drivers/STM32F4xx_HAL_Driver/Src/stm32f4xx_hal_dma.c ****   }
 2503              		.loc 1 484 0 discriminator 13
 2504 0044 02F58062 		add	r2, r2, #1024
 2505 0048 9342     		cmp	r3, r2
 2506 004a 56D0     		beq	.L458
 484:../Drivers/STM32F4xx_HAL_Driver/Src/stm32f4xx_hal_dma.c ****   }
 2507              		.loc 1 484 0 discriminator 15
 2508 004c A2F58962 		sub	r2, r2, #1096
 2509 0050 9342     		cmp	r3, r2
 2510 0052 55D0     		beq	.L459
 484:../Drivers/STM32F4xx_HAL_Driver/Src/stm32f4xx_hal_dma.c ****   }
 2511              		.loc 1 484 0 discriminator 17
 2512 0054 02F58062 		add	r2, r2, #1024
 2513 0058 9342     		cmp	r3, r2
 2514 005a 54D0     		beq	.L460
 484:../Drivers/STM32F4xx_HAL_Driver/Src/stm32f4xx_hal_dma.c ****   }
 2515              		.loc 1 484 0 discriminator 19
 2516 005c A2F56872 		sub	r2, r2, #928
 2517 0060 9342     		cmp	r3, r2
 2518 0062 53D0     		beq	.L461
 484:../Drivers/STM32F4xx_HAL_Driver/Src/stm32f4xx_hal_dma.c ****   }
 2519              		.loc 1 484 0 discriminator 21
 2520 0064 02F58062 		add	r2, r2, #1024
 2521 0068 9342     		cmp	r3, r2
 2522 006a 52D1     		bne	.L462
 484:../Drivers/STM32F4xx_HAL_Driver/Src/stm32f4xx_hal_dma.c ****   }
 2523              		.loc 1 484 0
 2524 006c 4FF40015 		mov	r5, #2097152
 2525 0070 71E0     		b	.L328
 2526              	.LVL45:
 2527              	.L327:
 489:../Drivers/STM32F4xx_HAL_Driver/Src/stm32f4xx_hal_dma.c ****   }
 2528              		.loc 1 489 0 is_stmt 1
 2529 0072 0368     		ldr	r3, [r0]
 2530 0074 924A     		ldr	r2, .L1053
 2531              	.LVL46:
 2532 0076 9342     		cmp	r3, r2
 2533 0078 4ED0     		beq	.L463
 489:../Drivers/STM32F4xx_HAL_Driver/Src/stm32f4xx_hal_dma.c ****   }
 2534              		.loc 1 489 0 is_stmt 0 discriminator 1
 2535 007a 02F58062 		add	r2, r2, #1024
 2536 007e 9342     		cmp	r3, r2
 2537 0080 4CD0     		beq	.L464
 489:../Drivers/STM32F4xx_HAL_Driver/Src/stm32f4xx_hal_dma.c ****   }
 2538              		.loc 1 489 0 discriminator 3
ARM GAS  /tmp/ccIvKYQX.s 			page 68


 2539 0082 A2F56872 		sub	r2, r2, #928
 2540 0086 9342     		cmp	r3, r2
 2541 0088 4AD0     		beq	.L465
 489:../Drivers/STM32F4xx_HAL_Driver/Src/stm32f4xx_hal_dma.c ****   }
 2542              		.loc 1 489 0 discriminator 5
 2543 008a 02F58062 		add	r2, r2, #1024
 2544 008e 9342     		cmp	r3, r2
 2545 0090 48D0     		beq	.L466
 489:../Drivers/STM32F4xx_HAL_Driver/Src/stm32f4xx_hal_dma.c ****   }
 2546              		.loc 1 489 0 discriminator 7
 2547 0092 A2F58962 		sub	r2, r2, #1096
 2548 0096 9342     		cmp	r3, r2
 2549 0098 46D0     		beq	.L467
 489:../Drivers/STM32F4xx_HAL_Driver/Src/stm32f4xx_hal_dma.c ****   }
 2550              		.loc 1 489 0 discriminator 9
 2551 009a 02F58062 		add	r2, r2, #1024
 2552 009e 9342     		cmp	r3, r2
 2553 00a0 45D0     		beq	.L468
 489:../Drivers/STM32F4xx_HAL_Driver/Src/stm32f4xx_hal_dma.c ****   }
 2554              		.loc 1 489 0 discriminator 11
 2555 00a2 A2F56872 		sub	r2, r2, #928
 2556 00a6 9342     		cmp	r3, r2
 2557 00a8 44D0     		beq	.L469
 489:../Drivers/STM32F4xx_HAL_Driver/Src/stm32f4xx_hal_dma.c ****   }
 2558              		.loc 1 489 0 discriminator 13
 2559 00aa 02F58062 		add	r2, r2, #1024
 2560 00ae 9342     		cmp	r3, r2
 2561 00b0 43D0     		beq	.L470
 489:../Drivers/STM32F4xx_HAL_Driver/Src/stm32f4xx_hal_dma.c ****   }
 2562              		.loc 1 489 0 discriminator 15
 2563 00b2 A2F58962 		sub	r2, r2, #1096
 2564 00b6 9342     		cmp	r3, r2
 2565 00b8 42D0     		beq	.L471
 489:../Drivers/STM32F4xx_HAL_Driver/Src/stm32f4xx_hal_dma.c ****   }
 2566              		.loc 1 489 0 discriminator 17
 2567 00ba 02F58062 		add	r2, r2, #1024
 2568 00be 9342     		cmp	r3, r2
 2569 00c0 41D0     		beq	.L472
 489:../Drivers/STM32F4xx_HAL_Driver/Src/stm32f4xx_hal_dma.c ****   }
 2570              		.loc 1 489 0 discriminator 19
 2571 00c2 A2F56872 		sub	r2, r2, #928
 2572 00c6 9342     		cmp	r3, r2
 2573 00c8 40D0     		beq	.L473
 489:../Drivers/STM32F4xx_HAL_Driver/Src/stm32f4xx_hal_dma.c ****   }
 2574              		.loc 1 489 0 discriminator 21
 2575 00ca 02F58062 		add	r2, r2, #1024
 2576 00ce 9342     		cmp	r3, r2
 2577 00d0 3FD1     		bne	.L474
 489:../Drivers/STM32F4xx_HAL_Driver/Src/stm32f4xx_hal_dma.c ****   }
 2578              		.loc 1 489 0
 2579 00d2 4FF48015 		mov	r5, #1048576
 2580 00d6 3EE0     		b	.L328
 2581              	.L451:
 484:../Drivers/STM32F4xx_HAL_Driver/Src/stm32f4xx_hal_dma.c ****   }
 2582              		.loc 1 484 0 is_stmt 1
 2583 00d8 2025     		movs	r5, #32
 2584 00da 3CE0     		b	.L328
ARM GAS  /tmp/ccIvKYQX.s 			page 69


 2585              	.L452:
 2586 00dc 2025     		movs	r5, #32
 2587 00de 3AE0     		b	.L328
 2588              	.L453:
 2589 00e0 2025     		movs	r5, #32
 2590 00e2 38E0     		b	.L328
 2591              	.L454:
 2592 00e4 2025     		movs	r5, #32
 2593 00e6 36E0     		b	.L328
 2594              	.L455:
 2595 00e8 4FF40065 		mov	r5, #2048
 2596 00ec 33E0     		b	.L328
 2597              	.L456:
 2598 00ee 4FF40065 		mov	r5, #2048
 2599 00f2 30E0     		b	.L328
 2600              	.L457:
 2601 00f4 4FF40065 		mov	r5, #2048
 2602 00f8 2DE0     		b	.L328
 2603              	.L458:
 2604 00fa 4FF40065 		mov	r5, #2048
 2605 00fe 2AE0     		b	.L328
 2606              	.L459:
 2607 0100 4FF40015 		mov	r5, #2097152
 2608 0104 27E0     		b	.L328
 2609              	.L460:
 2610 0106 4FF40015 		mov	r5, #2097152
 2611 010a 24E0     		b	.L328
 2612              	.L461:
 2613 010c 4FF40015 		mov	r5, #2097152
 2614 0110 21E0     		b	.L328
 2615              	.L462:
 2616 0112 4FF00065 		mov	r5, #134217728
 2617 0116 1EE0     		b	.L328
 2618              	.L463:
 489:../Drivers/STM32F4xx_HAL_Driver/Src/stm32f4xx_hal_dma.c ****   }
 2619              		.loc 1 489 0
 2620 0118 1025     		movs	r5, #16
 2621 011a 1CE0     		b	.L328
 2622              	.L464:
 2623 011c 1025     		movs	r5, #16
 2624 011e 1AE0     		b	.L328
 2625              	.L465:
 2626 0120 1025     		movs	r5, #16
 2627 0122 18E0     		b	.L328
 2628              	.L466:
 2629 0124 1025     		movs	r5, #16
 2630 0126 16E0     		b	.L328
 2631              	.L467:
 2632 0128 4FF48065 		mov	r5, #1024
 2633 012c 13E0     		b	.L328
 2634              	.L468:
 2635 012e 4FF48065 		mov	r5, #1024
 2636 0132 10E0     		b	.L328
 2637              	.L469:
 2638 0134 4FF48065 		mov	r5, #1024
 2639 0138 0DE0     		b	.L328
 2640              	.L470:
ARM GAS  /tmp/ccIvKYQX.s 			page 70


 2641 013a 4FF48065 		mov	r5, #1024
 2642 013e 0AE0     		b	.L328
 2643              	.L471:
 2644 0140 4FF48015 		mov	r5, #1048576
 2645 0144 07E0     		b	.L328
 2646              	.L472:
 2647 0146 4FF48015 		mov	r5, #1048576
 2648 014a 04E0     		b	.L328
 2649              	.L473:
 2650 014c 4FF48015 		mov	r5, #1048576
 2651 0150 01E0     		b	.L328
 2652              	.L474:
 2653 0152 4FF08065 		mov	r5, #67108864
 2654              	.L328:
 2655              	.LVL47:
 493:../Drivers/STM32F4xx_HAL_Driver/Src/stm32f4xx_hal_dma.c **** 
 2656              		.loc 1 493 0
 2657 0156 FFF7FEFF 		bl	HAL_GetTick
 2658              	.LVL48:
 2659 015a 8046     		mov	r8, r0
 2660              	.LVL49:
 495:../Drivers/STM32F4xx_HAL_Driver/Src/stm32f4xx_hal_dma.c ****   {
 2661              		.loc 1 495 0
 2662 015c 01F08FB8 		b	.L384
 2663              	.LVL50:
 2664              	.L390:
 497:../Drivers/STM32F4xx_HAL_Driver/Src/stm32f4xx_hal_dma.c ****     tmp1 = __HAL_DMA_GET_FLAG(hdma, __HAL_DMA_GET_FE_FLAG_INDEX(hdma));
 2665              		.loc 1 497 0
 2666 0160 584A     		ldr	r2, .L1053+4
 2667 0162 9342     		cmp	r3, r2
 2668 0164 53D9     		bls	.L330
 497:../Drivers/STM32F4xx_HAL_Driver/Src/stm32f4xx_hal_dma.c ****     tmp1 = __HAL_DMA_GET_FLAG(hdma, __HAL_DMA_GET_FE_FLAG_INDEX(hdma));
 2669              		.loc 1 497 0 is_stmt 0 discriminator 1
 2670 0166 583A     		subs	r2, r2, #88
 2671 0168 5068     		ldr	r0, [r2, #4]
 2672 016a 5549     		ldr	r1, .L1053
 2673 016c 8B42     		cmp	r3, r1
 2674 016e 2DD0     		beq	.L475
 497:../Drivers/STM32F4xx_HAL_Driver/Src/stm32f4xx_hal_dma.c ****     tmp1 = __HAL_DMA_GET_FLAG(hdma, __HAL_DMA_GET_FE_FLAG_INDEX(hdma));
 2675              		.loc 1 497 0 discriminator 3
 2676 0170 01F58061 		add	r1, r1, #1024
 2677 0174 8B42     		cmp	r3, r1
 2678 0176 2BD0     		beq	.L476
 497:../Drivers/STM32F4xx_HAL_Driver/Src/stm32f4xx_hal_dma.c ****     tmp1 = __HAL_DMA_GET_FLAG(hdma, __HAL_DMA_GET_FE_FLAG_INDEX(hdma));
 2679              		.loc 1 497 0 discriminator 5
 2680 0178 A1F56871 		sub	r1, r1, #928
 2681 017c 8B42     		cmp	r3, r1
 2682 017e 29D0     		beq	.L477
 497:../Drivers/STM32F4xx_HAL_Driver/Src/stm32f4xx_hal_dma.c ****     tmp1 = __HAL_DMA_GET_FLAG(hdma, __HAL_DMA_GET_FE_FLAG_INDEX(hdma));
 2683              		.loc 1 497 0 discriminator 7
 2684 0180 01F58061 		add	r1, r1, #1024
 2685 0184 8B42     		cmp	r3, r1
 2686 0186 27D0     		beq	.L478
 497:../Drivers/STM32F4xx_HAL_Driver/Src/stm32f4xx_hal_dma.c ****     tmp1 = __HAL_DMA_GET_FLAG(hdma, __HAL_DMA_GET_FE_FLAG_INDEX(hdma));
 2687              		.loc 1 497 0 discriminator 9
 2688 0188 A1F58961 		sub	r1, r1, #1096
 2689 018c 8B42     		cmp	r3, r1
ARM GAS  /tmp/ccIvKYQX.s 			page 71


 2690 018e 25D0     		beq	.L479
 497:../Drivers/STM32F4xx_HAL_Driver/Src/stm32f4xx_hal_dma.c ****     tmp1 = __HAL_DMA_GET_FLAG(hdma, __HAL_DMA_GET_FE_FLAG_INDEX(hdma));
 2691              		.loc 1 497 0 discriminator 11
 2692 0190 2832     		adds	r2, r2, #40
 2693 0192 9342     		cmp	r3, r2
 2694 0194 25D0     		beq	.L480
 497:../Drivers/STM32F4xx_HAL_Driver/Src/stm32f4xx_hal_dma.c ****     tmp1 = __HAL_DMA_GET_FLAG(hdma, __HAL_DMA_GET_FE_FLAG_INDEX(hdma));
 2695              		.loc 1 497 0 discriminator 13
 2696 0196 A2F56872 		sub	r2, r2, #928
 2697 019a 9342     		cmp	r3, r2
 2698 019c 24D0     		beq	.L481
 497:../Drivers/STM32F4xx_HAL_Driver/Src/stm32f4xx_hal_dma.c ****     tmp1 = __HAL_DMA_GET_FLAG(hdma, __HAL_DMA_GET_FE_FLAG_INDEX(hdma));
 2699              		.loc 1 497 0 discriminator 15
 2700 019e 02F58062 		add	r2, r2, #1024
 2701 01a2 9342     		cmp	r3, r2
 2702 01a4 23D0     		beq	.L482
 497:../Drivers/STM32F4xx_HAL_Driver/Src/stm32f4xx_hal_dma.c ****     tmp1 = __HAL_DMA_GET_FLAG(hdma, __HAL_DMA_GET_FE_FLAG_INDEX(hdma));
 2703              		.loc 1 497 0 discriminator 17
 2704 01a6 A2F58962 		sub	r2, r2, #1096
 2705 01aa 9342     		cmp	r3, r2
 2706 01ac 22D0     		beq	.L483
 497:../Drivers/STM32F4xx_HAL_Driver/Src/stm32f4xx_hal_dma.c ****     tmp1 = __HAL_DMA_GET_FLAG(hdma, __HAL_DMA_GET_FE_FLAG_INDEX(hdma));
 2707              		.loc 1 497 0 discriminator 19
 2708 01ae 02F58062 		add	r2, r2, #1024
 2709 01b2 9342     		cmp	r3, r2
 2710 01b4 21D0     		beq	.L484
 497:../Drivers/STM32F4xx_HAL_Driver/Src/stm32f4xx_hal_dma.c ****     tmp1 = __HAL_DMA_GET_FLAG(hdma, __HAL_DMA_GET_FE_FLAG_INDEX(hdma));
 2711              		.loc 1 497 0 discriminator 21
 2712 01b6 A2F56872 		sub	r2, r2, #928
 2713 01ba 9342     		cmp	r3, r2
 2714 01bc 20D0     		beq	.L485
 497:../Drivers/STM32F4xx_HAL_Driver/Src/stm32f4xx_hal_dma.c ****     tmp1 = __HAL_DMA_GET_FLAG(hdma, __HAL_DMA_GET_FE_FLAG_INDEX(hdma));
 2715              		.loc 1 497 0 discriminator 23
 2716 01be 02F58062 		add	r2, r2, #1024
 2717 01c2 9342     		cmp	r3, r2
 2718 01c4 1FD1     		bne	.L486
 497:../Drivers/STM32F4xx_HAL_Driver/Src/stm32f4xx_hal_dma.c ****     tmp1 = __HAL_DMA_GET_FLAG(hdma, __HAL_DMA_GET_FE_FLAG_INDEX(hdma));
 2719              		.loc 1 497 0
 2720 01c6 4FF40022 		mov	r2, #524288
 2721 01ca 1EE0     		b	.L331
 2722              	.L475:
 2723 01cc 0822     		movs	r2, #8
 2724 01ce 1CE0     		b	.L331
 2725              	.L476:
 2726 01d0 0822     		movs	r2, #8
 2727 01d2 1AE0     		b	.L331
 2728              	.L477:
 2729 01d4 0822     		movs	r2, #8
 2730 01d6 18E0     		b	.L331
 2731              	.L478:
 2732 01d8 0822     		movs	r2, #8
 2733 01da 16E0     		b	.L331
 2734              	.L479:
 2735 01dc 4FF40072 		mov	r2, #512
 2736 01e0 13E0     		b	.L331
 2737              	.L480:
 2738 01e2 4FF40072 		mov	r2, #512
ARM GAS  /tmp/ccIvKYQX.s 			page 72


 2739 01e6 10E0     		b	.L331
 2740              	.L481:
 2741 01e8 4FF40072 		mov	r2, #512
 2742 01ec 0DE0     		b	.L331
 2743              	.L482:
 2744 01ee 4FF40072 		mov	r2, #512
 2745 01f2 0AE0     		b	.L331
 2746              	.L483:
 2747 01f4 4FF40022 		mov	r2, #524288
 2748 01f8 07E0     		b	.L331
 2749              	.L484:
 2750 01fa 4FF40022 		mov	r2, #524288
 2751 01fe 04E0     		b	.L331
 2752              	.L485:
 2753 0200 4FF40022 		mov	r2, #524288
 2754 0204 01E0     		b	.L331
 2755              	.L486:
 2756 0206 4FF00072 		mov	r2, #33554432
 2757              	.L331:
 497:../Drivers/STM32F4xx_HAL_Driver/Src/stm32f4xx_hal_dma.c ****     tmp1 = __HAL_DMA_GET_FLAG(hdma, __HAL_DMA_GET_FE_FLAG_INDEX(hdma));
 2758              		.loc 1 497 0 discriminator 50
 2759 020a 0240     		ands	r2, r2, r0
 2760 020c 0AE1     		b	.L332
 2761              	.L330:
 497:../Drivers/STM32F4xx_HAL_Driver/Src/stm32f4xx_hal_dma.c ****     tmp1 = __HAL_DMA_GET_FLAG(hdma, __HAL_DMA_GET_FE_FLAG_INDEX(hdma));
 2762              		.loc 1 497 0 discriminator 2
 2763 020e 2E4A     		ldr	r2, .L1053+8
 2764 0210 9342     		cmp	r3, r2
 2765 0212 5BD9     		bls	.L333
 497:../Drivers/STM32F4xx_HAL_Driver/Src/stm32f4xx_hal_dma.c ****     tmp1 = __HAL_DMA_GET_FLAG(hdma, __HAL_DMA_GET_FE_FLAG_INDEX(hdma));
 2766              		.loc 1 497 0 discriminator 52
 2767 0214 02F55272 		add	r2, r2, #840
 2768 0218 1068     		ldr	r0, [r2]
 2769 021a 2949     		ldr	r1, .L1053
 2770 021c 8B42     		cmp	r3, r1
 2771 021e 2DD0     		beq	.L487
 497:../Drivers/STM32F4xx_HAL_Driver/Src/stm32f4xx_hal_dma.c ****     tmp1 = __HAL_DMA_GET_FLAG(hdma, __HAL_DMA_GET_FE_FLAG_INDEX(hdma));
 2772              		.loc 1 497 0 discriminator 54
 2773 0220 01F58061 		add	r1, r1, #1024
 2774 0224 8B42     		cmp	r3, r1
 2775 0226 2BD0     		beq	.L488
 497:../Drivers/STM32F4xx_HAL_Driver/Src/stm32f4xx_hal_dma.c ****     tmp1 = __HAL_DMA_GET_FLAG(hdma, __HAL_DMA_GET_FE_FLAG_INDEX(hdma));
 2776              		.loc 1 497 0 discriminator 56
 2777 0228 A1F56871 		sub	r1, r1, #928
 2778 022c 8B42     		cmp	r3, r1
 2779 022e 29D0     		beq	.L489
 497:../Drivers/STM32F4xx_HAL_Driver/Src/stm32f4xx_hal_dma.c ****     tmp1 = __HAL_DMA_GET_FLAG(hdma, __HAL_DMA_GET_FE_FLAG_INDEX(hdma));
 2780              		.loc 1 497 0 discriminator 58
 2781 0230 7032     		adds	r2, r2, #112
 2782 0232 9342     		cmp	r3, r2
 2783 0234 28D0     		beq	.L490
 497:../Drivers/STM32F4xx_HAL_Driver/Src/stm32f4xx_hal_dma.c ****     tmp1 = __HAL_DMA_GET_FLAG(hdma, __HAL_DMA_GET_FE_FLAG_INDEX(hdma));
 2784              		.loc 1 497 0 discriminator 60
 2785 0236 A2F58962 		sub	r2, r2, #1096
 2786 023a 9342     		cmp	r3, r2
 2787 023c 26D0     		beq	.L491
 497:../Drivers/STM32F4xx_HAL_Driver/Src/stm32f4xx_hal_dma.c ****     tmp1 = __HAL_DMA_GET_FLAG(hdma, __HAL_DMA_GET_FE_FLAG_INDEX(hdma));
ARM GAS  /tmp/ccIvKYQX.s 			page 73


 2788              		.loc 1 497 0 discriminator 62
 2789 023e 02F58062 		add	r2, r2, #1024
 2790 0242 9342     		cmp	r3, r2
 2791 0244 25D0     		beq	.L492
 497:../Drivers/STM32F4xx_HAL_Driver/Src/stm32f4xx_hal_dma.c ****     tmp1 = __HAL_DMA_GET_FLAG(hdma, __HAL_DMA_GET_FE_FLAG_INDEX(hdma));
 2792              		.loc 1 497 0 discriminator 64
 2793 0246 A2F56872 		sub	r2, r2, #928
 2794 024a 9342     		cmp	r3, r2
 2795 024c 24D0     		beq	.L493
 497:../Drivers/STM32F4xx_HAL_Driver/Src/stm32f4xx_hal_dma.c ****     tmp1 = __HAL_DMA_GET_FLAG(hdma, __HAL_DMA_GET_FE_FLAG_INDEX(hdma));
 2796              		.loc 1 497 0 discriminator 66
 2797 024e 02F58062 		add	r2, r2, #1024
 2798 0252 9342     		cmp	r3, r2
 2799 0254 23D0     		beq	.L494
 497:../Drivers/STM32F4xx_HAL_Driver/Src/stm32f4xx_hal_dma.c ****     tmp1 = __HAL_DMA_GET_FLAG(hdma, __HAL_DMA_GET_FE_FLAG_INDEX(hdma));
 2800              		.loc 1 497 0 discriminator 68
 2801 0256 A2F58962 		sub	r2, r2, #1096
 2802 025a 9342     		cmp	r3, r2
 2803 025c 22D0     		beq	.L495
 497:../Drivers/STM32F4xx_HAL_Driver/Src/stm32f4xx_hal_dma.c ****     tmp1 = __HAL_DMA_GET_FLAG(hdma, __HAL_DMA_GET_FE_FLAG_INDEX(hdma));
 2804              		.loc 1 497 0 discriminator 70
 2805 025e 02F58062 		add	r2, r2, #1024
 2806 0262 9342     		cmp	r3, r2
 2807 0264 21D0     		beq	.L496
 497:../Drivers/STM32F4xx_HAL_Driver/Src/stm32f4xx_hal_dma.c ****     tmp1 = __HAL_DMA_GET_FLAG(hdma, __HAL_DMA_GET_FE_FLAG_INDEX(hdma));
 2808              		.loc 1 497 0 discriminator 72
 2809 0266 A2F56872 		sub	r2, r2, #928
 2810 026a 9342     		cmp	r3, r2
 2811 026c 20D0     		beq	.L497
 497:../Drivers/STM32F4xx_HAL_Driver/Src/stm32f4xx_hal_dma.c ****     tmp1 = __HAL_DMA_GET_FLAG(hdma, __HAL_DMA_GET_FE_FLAG_INDEX(hdma));
 2812              		.loc 1 497 0 discriminator 74
 2813 026e 02F58062 		add	r2, r2, #1024
 2814 0272 9342     		cmp	r3, r2
 2815 0274 1FD1     		bne	.L498
 497:../Drivers/STM32F4xx_HAL_Driver/Src/stm32f4xx_hal_dma.c ****     tmp1 = __HAL_DMA_GET_FLAG(hdma, __HAL_DMA_GET_FE_FLAG_INDEX(hdma));
 2816              		.loc 1 497 0
 2817 0276 4FF40022 		mov	r2, #524288
 2818 027a 1EE0     		b	.L334
 2819              	.L487:
 2820 027c 0822     		movs	r2, #8
 2821 027e 1CE0     		b	.L334
 2822              	.L488:
 2823 0280 0822     		movs	r2, #8
 2824 0282 1AE0     		b	.L334
 2825              	.L489:
 2826 0284 0822     		movs	r2, #8
 2827 0286 18E0     		b	.L334
 2828              	.L490:
 2829 0288 0822     		movs	r2, #8
 2830 028a 16E0     		b	.L334
 2831              	.L491:
 2832 028c 4FF40072 		mov	r2, #512
 2833 0290 13E0     		b	.L334
 2834              	.L492:
 2835 0292 4FF40072 		mov	r2, #512
 2836 0296 10E0     		b	.L334
 2837              	.L493:
ARM GAS  /tmp/ccIvKYQX.s 			page 74


 2838 0298 4FF40072 		mov	r2, #512
 2839 029c 0DE0     		b	.L334
 2840              	.L494:
 2841 029e 4FF40072 		mov	r2, #512
 2842 02a2 0AE0     		b	.L334
 2843              	.L495:
 2844 02a4 4FF40022 		mov	r2, #524288
 2845 02a8 07E0     		b	.L334
 2846              	.L496:
 2847 02aa 4FF40022 		mov	r2, #524288
 2848 02ae 04E0     		b	.L334
 2849              	.L497:
 2850 02b0 4FF40022 		mov	r2, #524288
 2851 02b4 01E0     		b	.L334
 2852              	.L498:
 2853 02b6 4FF00072 		mov	r2, #33554432
 2854              	.L334:
 497:../Drivers/STM32F4xx_HAL_Driver/Src/stm32f4xx_hal_dma.c ****     tmp1 = __HAL_DMA_GET_FLAG(hdma, __HAL_DMA_GET_FE_FLAG_INDEX(hdma));
 2855              		.loc 1 497 0 discriminator 101
 2856 02ba 0240     		ands	r2, r2, r0
 2857 02bc B2E0     		b	.L332
 2858              	.L1054:
 2859 02be 00BF     		.align	2
 2860              	.L1053:
 2861 02c0 10600240 		.word	1073897488
 2862 02c4 58640240 		.word	1073898584
 2863 02c8 B8600240 		.word	1073897656
 2864              	.L333:
 497:../Drivers/STM32F4xx_HAL_Driver/Src/stm32f4xx_hal_dma.c ****     tmp1 = __HAL_DMA_GET_FLAG(hdma, __HAL_DMA_GET_FE_FLAG_INDEX(hdma));
 2865              		.loc 1 497 0 discriminator 53
 2866 02cc A94A     		ldr	r2, .L1055
 2867 02ce 9342     		cmp	r3, r2
 2868 02d0 54D9     		bls	.L335
 497:../Drivers/STM32F4xx_HAL_Driver/Src/stm32f4xx_hal_dma.c ****     tmp1 = __HAL_DMA_GET_FLAG(hdma, __HAL_DMA_GET_FE_FLAG_INDEX(hdma));
 2869              		.loc 1 497 0 discriminator 103
 2870 02d2 583A     		subs	r2, r2, #88
 2871 02d4 5268     		ldr	r2, [r2, #4]
 2872 02d6 A849     		ldr	r1, .L1055+4
 2873 02d8 8B42     		cmp	r3, r1
 2874 02da 2ED0     		beq	.L499
 497:../Drivers/STM32F4xx_HAL_Driver/Src/stm32f4xx_hal_dma.c ****     tmp1 = __HAL_DMA_GET_FLAG(hdma, __HAL_DMA_GET_FE_FLAG_INDEX(hdma));
 2875              		.loc 1 497 0 discriminator 105
 2876 02dc 01F58061 		add	r1, r1, #1024
 2877 02e0 8B42     		cmp	r3, r1
 2878 02e2 2CD0     		beq	.L500
 497:../Drivers/STM32F4xx_HAL_Driver/Src/stm32f4xx_hal_dma.c ****     tmp1 = __HAL_DMA_GET_FLAG(hdma, __HAL_DMA_GET_FE_FLAG_INDEX(hdma));
 2879              		.loc 1 497 0 discriminator 107
 2880 02e4 A1F56871 		sub	r1, r1, #928
 2881 02e8 8B42     		cmp	r3, r1
 2882 02ea 2AD0     		beq	.L501
 497:../Drivers/STM32F4xx_HAL_Driver/Src/stm32f4xx_hal_dma.c ****     tmp1 = __HAL_DMA_GET_FLAG(hdma, __HAL_DMA_GET_FE_FLAG_INDEX(hdma));
 2883              		.loc 1 497 0 discriminator 109
 2884 02ec 01F58061 		add	r1, r1, #1024
 2885 02f0 8B42     		cmp	r3, r1
 2886 02f2 28D0     		beq	.L502
 497:../Drivers/STM32F4xx_HAL_Driver/Src/stm32f4xx_hal_dma.c ****     tmp1 = __HAL_DMA_GET_FLAG(hdma, __HAL_DMA_GET_FE_FLAG_INDEX(hdma));
 2887              		.loc 1 497 0 discriminator 111
ARM GAS  /tmp/ccIvKYQX.s 			page 75


 2888 02f4 A1F58961 		sub	r1, r1, #1096
 2889 02f8 8B42     		cmp	r3, r1
 2890 02fa 26D0     		beq	.L503
 497:../Drivers/STM32F4xx_HAL_Driver/Src/stm32f4xx_hal_dma.c ****     tmp1 = __HAL_DMA_GET_FLAG(hdma, __HAL_DMA_GET_FE_FLAG_INDEX(hdma));
 2891              		.loc 1 497 0 discriminator 113
 2892 02fc 01F58061 		add	r1, r1, #1024
 2893 0300 8B42     		cmp	r3, r1
 2894 0302 25D0     		beq	.L504
 497:../Drivers/STM32F4xx_HAL_Driver/Src/stm32f4xx_hal_dma.c ****     tmp1 = __HAL_DMA_GET_FLAG(hdma, __HAL_DMA_GET_FE_FLAG_INDEX(hdma));
 2895              		.loc 1 497 0 discriminator 115
 2896 0304 A1F56871 		sub	r1, r1, #928
 2897 0308 8B42     		cmp	r3, r1
 2898 030a 24D0     		beq	.L505
 497:../Drivers/STM32F4xx_HAL_Driver/Src/stm32f4xx_hal_dma.c ****     tmp1 = __HAL_DMA_GET_FLAG(hdma, __HAL_DMA_GET_FE_FLAG_INDEX(hdma));
 2899              		.loc 1 497 0 discriminator 117
 2900 030c 01F58061 		add	r1, r1, #1024
 2901 0310 8B42     		cmp	r3, r1
 2902 0312 23D0     		beq	.L506
 497:../Drivers/STM32F4xx_HAL_Driver/Src/stm32f4xx_hal_dma.c ****     tmp1 = __HAL_DMA_GET_FLAG(hdma, __HAL_DMA_GET_FE_FLAG_INDEX(hdma));
 2903              		.loc 1 497 0 discriminator 119
 2904 0314 A1F58961 		sub	r1, r1, #1096
 2905 0318 8B42     		cmp	r3, r1
 2906 031a 22D0     		beq	.L507
 497:../Drivers/STM32F4xx_HAL_Driver/Src/stm32f4xx_hal_dma.c ****     tmp1 = __HAL_DMA_GET_FLAG(hdma, __HAL_DMA_GET_FE_FLAG_INDEX(hdma));
 2907              		.loc 1 497 0 discriminator 121
 2908 031c 01F58061 		add	r1, r1, #1024
 2909 0320 8B42     		cmp	r3, r1
 2910 0322 21D0     		beq	.L508
 497:../Drivers/STM32F4xx_HAL_Driver/Src/stm32f4xx_hal_dma.c ****     tmp1 = __HAL_DMA_GET_FLAG(hdma, __HAL_DMA_GET_FE_FLAG_INDEX(hdma));
 2911              		.loc 1 497 0 discriminator 123
 2912 0324 A1F56871 		sub	r1, r1, #928
 2913 0328 8B42     		cmp	r3, r1
 2914 032a 20D0     		beq	.L509
 497:../Drivers/STM32F4xx_HAL_Driver/Src/stm32f4xx_hal_dma.c ****     tmp1 = __HAL_DMA_GET_FLAG(hdma, __HAL_DMA_GET_FE_FLAG_INDEX(hdma));
 2915              		.loc 1 497 0 discriminator 125
 2916 032c 01F58061 		add	r1, r1, #1024
 2917 0330 8B42     		cmp	r3, r1
 2918 0332 1FD1     		bne	.L510
 497:../Drivers/STM32F4xx_HAL_Driver/Src/stm32f4xx_hal_dma.c ****     tmp1 = __HAL_DMA_GET_FLAG(hdma, __HAL_DMA_GET_FE_FLAG_INDEX(hdma));
 2919              		.loc 1 497 0
 2920 0334 4FF40021 		mov	r1, #524288
 2921 0338 1EE0     		b	.L336
 2922              	.L499:
 2923 033a 0821     		movs	r1, #8
 2924 033c 1CE0     		b	.L336
 2925              	.L500:
 2926 033e 0821     		movs	r1, #8
 2927 0340 1AE0     		b	.L336
 2928              	.L501:
 2929 0342 0821     		movs	r1, #8
 2930 0344 18E0     		b	.L336
 2931              	.L502:
 2932 0346 0821     		movs	r1, #8
 2933 0348 16E0     		b	.L336
 2934              	.L503:
 2935 034a 4FF40071 		mov	r1, #512
 2936 034e 13E0     		b	.L336
ARM GAS  /tmp/ccIvKYQX.s 			page 76


 2937              	.L504:
 2938 0350 4FF40071 		mov	r1, #512
 2939 0354 10E0     		b	.L336
 2940              	.L505:
 2941 0356 4FF40071 		mov	r1, #512
 2942 035a 0DE0     		b	.L336
 2943              	.L506:
 2944 035c 4FF40071 		mov	r1, #512
 2945 0360 0AE0     		b	.L336
 2946              	.L507:
 2947 0362 4FF40021 		mov	r1, #524288
 2948 0366 07E0     		b	.L336
 2949              	.L508:
 2950 0368 4FF40021 		mov	r1, #524288
 2951 036c 04E0     		b	.L336
 2952              	.L509:
 2953 036e 4FF40021 		mov	r1, #524288
 2954 0372 01E0     		b	.L336
 2955              	.L510:
 2956 0374 4FF00071 		mov	r1, #33554432
 2957              	.L336:
 497:../Drivers/STM32F4xx_HAL_Driver/Src/stm32f4xx_hal_dma.c ****     tmp1 = __HAL_DMA_GET_FLAG(hdma, __HAL_DMA_GET_FE_FLAG_INDEX(hdma));
 2958              		.loc 1 497 0 discriminator 152
 2959 0378 0A40     		ands	r2, r2, r1
 2960 037a 53E0     		b	.L332
 2961              	.L335:
 497:../Drivers/STM32F4xx_HAL_Driver/Src/stm32f4xx_hal_dma.c ****     tmp1 = __HAL_DMA_GET_FLAG(hdma, __HAL_DMA_GET_FE_FLAG_INDEX(hdma));
 2962              		.loc 1 497 0 discriminator 104
 2963 037c 7F4A     		ldr	r2, .L1055+8
 2964 037e 1268     		ldr	r2, [r2]
 2965 0380 7D49     		ldr	r1, .L1055+4
 2966 0382 8B42     		cmp	r3, r1
 2967 0384 2ED0     		beq	.L511
 497:../Drivers/STM32F4xx_HAL_Driver/Src/stm32f4xx_hal_dma.c ****     tmp1 = __HAL_DMA_GET_FLAG(hdma, __HAL_DMA_GET_FE_FLAG_INDEX(hdma));
 2968              		.loc 1 497 0 discriminator 154
 2969 0386 01F58061 		add	r1, r1, #1024
 2970 038a 8B42     		cmp	r3, r1
 2971 038c 2CD0     		beq	.L512
 497:../Drivers/STM32F4xx_HAL_Driver/Src/stm32f4xx_hal_dma.c ****     tmp1 = __HAL_DMA_GET_FLAG(hdma, __HAL_DMA_GET_FE_FLAG_INDEX(hdma));
 2972              		.loc 1 497 0 discriminator 156
 2973 038e A1F56871 		sub	r1, r1, #928
 2974 0392 8B42     		cmp	r3, r1
 2975 0394 2AD0     		beq	.L513
 497:../Drivers/STM32F4xx_HAL_Driver/Src/stm32f4xx_hal_dma.c ****     tmp1 = __HAL_DMA_GET_FLAG(hdma, __HAL_DMA_GET_FE_FLAG_INDEX(hdma));
 2976              		.loc 1 497 0 discriminator 158
 2977 0396 01F58061 		add	r1, r1, #1024
 2978 039a 8B42     		cmp	r3, r1
 2979 039c 28D0     		beq	.L514
 497:../Drivers/STM32F4xx_HAL_Driver/Src/stm32f4xx_hal_dma.c ****     tmp1 = __HAL_DMA_GET_FLAG(hdma, __HAL_DMA_GET_FE_FLAG_INDEX(hdma));
 2980              		.loc 1 497 0 discriminator 160
 2981 039e A1F58961 		sub	r1, r1, #1096
 2982 03a2 8B42     		cmp	r3, r1
 2983 03a4 26D0     		beq	.L515
 497:../Drivers/STM32F4xx_HAL_Driver/Src/stm32f4xx_hal_dma.c ****     tmp1 = __HAL_DMA_GET_FLAG(hdma, __HAL_DMA_GET_FE_FLAG_INDEX(hdma));
 2984              		.loc 1 497 0 discriminator 162
 2985 03a6 01F58061 		add	r1, r1, #1024
 2986 03aa 8B42     		cmp	r3, r1
ARM GAS  /tmp/ccIvKYQX.s 			page 77


 2987 03ac 25D0     		beq	.L516
 497:../Drivers/STM32F4xx_HAL_Driver/Src/stm32f4xx_hal_dma.c ****     tmp1 = __HAL_DMA_GET_FLAG(hdma, __HAL_DMA_GET_FE_FLAG_INDEX(hdma));
 2988              		.loc 1 497 0 discriminator 164
 2989 03ae A1F56871 		sub	r1, r1, #928
 2990 03b2 8B42     		cmp	r3, r1
 2991 03b4 24D0     		beq	.L517
 497:../Drivers/STM32F4xx_HAL_Driver/Src/stm32f4xx_hal_dma.c ****     tmp1 = __HAL_DMA_GET_FLAG(hdma, __HAL_DMA_GET_FE_FLAG_INDEX(hdma));
 2992              		.loc 1 497 0 discriminator 166
 2993 03b6 01F58061 		add	r1, r1, #1024
 2994 03ba 8B42     		cmp	r3, r1
 2995 03bc 23D0     		beq	.L518
 497:../Drivers/STM32F4xx_HAL_Driver/Src/stm32f4xx_hal_dma.c ****     tmp1 = __HAL_DMA_GET_FLAG(hdma, __HAL_DMA_GET_FE_FLAG_INDEX(hdma));
 2996              		.loc 1 497 0 discriminator 168
 2997 03be A1F58961 		sub	r1, r1, #1096
 2998 03c2 8B42     		cmp	r3, r1
 2999 03c4 22D0     		beq	.L519
 497:../Drivers/STM32F4xx_HAL_Driver/Src/stm32f4xx_hal_dma.c ****     tmp1 = __HAL_DMA_GET_FLAG(hdma, __HAL_DMA_GET_FE_FLAG_INDEX(hdma));
 3000              		.loc 1 497 0 discriminator 170
 3001 03c6 01F58061 		add	r1, r1, #1024
 3002 03ca 8B42     		cmp	r3, r1
 3003 03cc 21D0     		beq	.L520
 497:../Drivers/STM32F4xx_HAL_Driver/Src/stm32f4xx_hal_dma.c ****     tmp1 = __HAL_DMA_GET_FLAG(hdma, __HAL_DMA_GET_FE_FLAG_INDEX(hdma));
 3004              		.loc 1 497 0 discriminator 172
 3005 03ce A1F56871 		sub	r1, r1, #928
 3006 03d2 8B42     		cmp	r3, r1
 3007 03d4 20D0     		beq	.L521
 497:../Drivers/STM32F4xx_HAL_Driver/Src/stm32f4xx_hal_dma.c ****     tmp1 = __HAL_DMA_GET_FLAG(hdma, __HAL_DMA_GET_FE_FLAG_INDEX(hdma));
 3008              		.loc 1 497 0 discriminator 174
 3009 03d6 01F58061 		add	r1, r1, #1024
 3010 03da 8B42     		cmp	r3, r1
 3011 03dc 1FD1     		bne	.L522
 497:../Drivers/STM32F4xx_HAL_Driver/Src/stm32f4xx_hal_dma.c ****     tmp1 = __HAL_DMA_GET_FLAG(hdma, __HAL_DMA_GET_FE_FLAG_INDEX(hdma));
 3012              		.loc 1 497 0
 3013 03de 4FF40021 		mov	r1, #524288
 3014 03e2 1EE0     		b	.L337
 3015              	.L511:
 3016 03e4 0821     		movs	r1, #8
 3017 03e6 1CE0     		b	.L337
 3018              	.L512:
 3019 03e8 0821     		movs	r1, #8
 3020 03ea 1AE0     		b	.L337
 3021              	.L513:
 3022 03ec 0821     		movs	r1, #8
 3023 03ee 18E0     		b	.L337
 3024              	.L514:
 3025 03f0 0821     		movs	r1, #8
 3026 03f2 16E0     		b	.L337
 3027              	.L515:
 3028 03f4 4FF40071 		mov	r1, #512
 3029 03f8 13E0     		b	.L337
 3030              	.L516:
 3031 03fa 4FF40071 		mov	r1, #512
 3032 03fe 10E0     		b	.L337
 3033              	.L517:
 3034 0400 4FF40071 		mov	r1, #512
 3035 0404 0DE0     		b	.L337
 3036              	.L518:
ARM GAS  /tmp/ccIvKYQX.s 			page 78


 3037 0406 4FF40071 		mov	r1, #512
 3038 040a 0AE0     		b	.L337
 3039              	.L519:
 3040 040c 4FF40021 		mov	r1, #524288
 3041 0410 07E0     		b	.L337
 3042              	.L520:
 3043 0412 4FF40021 		mov	r1, #524288
 3044 0416 04E0     		b	.L337
 3045              	.L521:
 3046 0418 4FF40021 		mov	r1, #524288
 3047 041c 01E0     		b	.L337
 3048              	.L522:
 3049 041e 4FF00071 		mov	r1, #33554432
 3050              	.L337:
 497:../Drivers/STM32F4xx_HAL_Driver/Src/stm32f4xx_hal_dma.c ****     tmp1 = __HAL_DMA_GET_FLAG(hdma, __HAL_DMA_GET_FE_FLAG_INDEX(hdma));
 3051              		.loc 1 497 0 discriminator 201
 3052 0422 0A40     		ands	r2, r2, r1
 3053              	.L332:
 3054              	.LVL51:
 498:../Drivers/STM32F4xx_HAL_Driver/Src/stm32f4xx_hal_dma.c ****     tmp2 = __HAL_DMA_GET_FLAG(hdma, __HAL_DMA_GET_DME_FLAG_INDEX(hdma));
 3055              		.loc 1 498 0 is_stmt 1 discriminator 204
 3056 0424 5649     		ldr	r1, .L1055+12
 3057 0426 8B42     		cmp	r3, r1
 3058 0428 4FD9     		bls	.L338
 498:../Drivers/STM32F4xx_HAL_Driver/Src/stm32f4xx_hal_dma.c ****     tmp2 = __HAL_DMA_GET_FLAG(hdma, __HAL_DMA_GET_DME_FLAG_INDEX(hdma));
 3059              		.loc 1 498 0 is_stmt 0 discriminator 1
 3060 042a 5839     		subs	r1, r1, #88
 3061 042c 4F68     		ldr	r7, [r1, #4]
 3062 042e 5248     		ldr	r0, .L1055+4
 3063 0430 8342     		cmp	r3, r0
 3064 0432 2DD0     		beq	.L523
 498:../Drivers/STM32F4xx_HAL_Driver/Src/stm32f4xx_hal_dma.c ****     tmp2 = __HAL_DMA_GET_FLAG(hdma, __HAL_DMA_GET_DME_FLAG_INDEX(hdma));
 3065              		.loc 1 498 0 discriminator 3
 3066 0434 00F58060 		add	r0, r0, #1024
 3067 0438 8342     		cmp	r3, r0
 3068 043a 2BD0     		beq	.L524
 498:../Drivers/STM32F4xx_HAL_Driver/Src/stm32f4xx_hal_dma.c ****     tmp2 = __HAL_DMA_GET_FLAG(hdma, __HAL_DMA_GET_DME_FLAG_INDEX(hdma));
 3069              		.loc 1 498 0 discriminator 5
 3070 043c A0F56870 		sub	r0, r0, #928
 3071 0440 8342     		cmp	r3, r0
 3072 0442 29D0     		beq	.L525
 498:../Drivers/STM32F4xx_HAL_Driver/Src/stm32f4xx_hal_dma.c ****     tmp2 = __HAL_DMA_GET_FLAG(hdma, __HAL_DMA_GET_DME_FLAG_INDEX(hdma));
 3073              		.loc 1 498 0 discriminator 7
 3074 0444 7031     		adds	r1, r1, #112
 3075 0446 8B42     		cmp	r3, r1
 3076 0448 28D0     		beq	.L526
 498:../Drivers/STM32F4xx_HAL_Driver/Src/stm32f4xx_hal_dma.c ****     tmp2 = __HAL_DMA_GET_FLAG(hdma, __HAL_DMA_GET_DME_FLAG_INDEX(hdma));
 3077              		.loc 1 498 0 discriminator 9
 3078 044a A1F58961 		sub	r1, r1, #1096
 3079 044e 8B42     		cmp	r3, r1
 3080 0450 26D0     		beq	.L527
 498:../Drivers/STM32F4xx_HAL_Driver/Src/stm32f4xx_hal_dma.c ****     tmp2 = __HAL_DMA_GET_FLAG(hdma, __HAL_DMA_GET_DME_FLAG_INDEX(hdma));
 3081              		.loc 1 498 0 discriminator 11
 3082 0452 01F58061 		add	r1, r1, #1024
 3083 0456 8B42     		cmp	r3, r1
 3084 0458 24D0     		beq	.L528
 498:../Drivers/STM32F4xx_HAL_Driver/Src/stm32f4xx_hal_dma.c ****     tmp2 = __HAL_DMA_GET_FLAG(hdma, __HAL_DMA_GET_DME_FLAG_INDEX(hdma));
ARM GAS  /tmp/ccIvKYQX.s 			page 79


 3085              		.loc 1 498 0 discriminator 13
 3086 045a A1F56871 		sub	r1, r1, #928
 3087 045e 8B42     		cmp	r3, r1
 3088 0460 22D0     		beq	.L529
 498:../Drivers/STM32F4xx_HAL_Driver/Src/stm32f4xx_hal_dma.c ****     tmp2 = __HAL_DMA_GET_FLAG(hdma, __HAL_DMA_GET_DME_FLAG_INDEX(hdma));
 3089              		.loc 1 498 0 discriminator 15
 3090 0462 01F58061 		add	r1, r1, #1024
 3091 0466 8B42     		cmp	r3, r1
 3092 0468 20D0     		beq	.L530
 498:../Drivers/STM32F4xx_HAL_Driver/Src/stm32f4xx_hal_dma.c ****     tmp2 = __HAL_DMA_GET_FLAG(hdma, __HAL_DMA_GET_DME_FLAG_INDEX(hdma));
 3093              		.loc 1 498 0 discriminator 17
 3094 046a A1F58961 		sub	r1, r1, #1096
 3095 046e 8B42     		cmp	r3, r1
 3096 0470 1ED0     		beq	.L531
 498:../Drivers/STM32F4xx_HAL_Driver/Src/stm32f4xx_hal_dma.c ****     tmp2 = __HAL_DMA_GET_FLAG(hdma, __HAL_DMA_GET_DME_FLAG_INDEX(hdma));
 3097              		.loc 1 498 0 discriminator 19
 3098 0472 01F58061 		add	r1, r1, #1024
 3099 0476 8B42     		cmp	r3, r1
 3100 0478 1DD0     		beq	.L532
 498:../Drivers/STM32F4xx_HAL_Driver/Src/stm32f4xx_hal_dma.c ****     tmp2 = __HAL_DMA_GET_FLAG(hdma, __HAL_DMA_GET_DME_FLAG_INDEX(hdma));
 3101              		.loc 1 498 0 discriminator 21
 3102 047a A1F56871 		sub	r1, r1, #928
 3103 047e 8B42     		cmp	r3, r1
 3104 0480 1CD0     		beq	.L533
 498:../Drivers/STM32F4xx_HAL_Driver/Src/stm32f4xx_hal_dma.c ****     tmp2 = __HAL_DMA_GET_FLAG(hdma, __HAL_DMA_GET_DME_FLAG_INDEX(hdma));
 3105              		.loc 1 498 0 discriminator 23
 3106 0482 01F58061 		add	r1, r1, #1024
 3107 0486 8B42     		cmp	r3, r1
 3108 0488 1BD1     		bne	.L534
 498:../Drivers/STM32F4xx_HAL_Driver/Src/stm32f4xx_hal_dma.c ****     tmp2 = __HAL_DMA_GET_FLAG(hdma, __HAL_DMA_GET_DME_FLAG_INDEX(hdma));
 3109              		.loc 1 498 0
 3110 048a 4FF48031 		mov	r1, #65536
 3111 048e 1AE0     		b	.L339
 3112              	.L523:
 3113 0490 3C49     		ldr	r1, .L1055+16
 3114 0492 18E0     		b	.L339
 3115              	.L524:
 3116 0494 3B49     		ldr	r1, .L1055+16
 3117 0496 16E0     		b	.L339
 3118              	.L525:
 3119 0498 3A49     		ldr	r1, .L1055+16
 3120 049a 14E0     		b	.L339
 3121              	.L526:
 3122 049c 3949     		ldr	r1, .L1055+16
 3123 049e 12E0     		b	.L339
 3124              	.L527:
 3125 04a0 4021     		movs	r1, #64
 3126 04a2 10E0     		b	.L339
 3127              	.L528:
 3128 04a4 4021     		movs	r1, #64
 3129 04a6 0EE0     		b	.L339
 3130              	.L529:
 3131 04a8 4021     		movs	r1, #64
 3132 04aa 0CE0     		b	.L339
 3133              	.L530:
 3134 04ac 4021     		movs	r1, #64
 3135 04ae 0AE0     		b	.L339
ARM GAS  /tmp/ccIvKYQX.s 			page 80


 3136              	.L531:
 3137 04b0 4FF48031 		mov	r1, #65536
 3138 04b4 07E0     		b	.L339
 3139              	.L532:
 3140 04b6 4FF48031 		mov	r1, #65536
 3141 04ba 04E0     		b	.L339
 3142              	.L533:
 3143 04bc 4FF48031 		mov	r1, #65536
 3144 04c0 01E0     		b	.L339
 3145              	.L534:
 3146 04c2 4FF48001 		mov	r1, #4194304
 3147              	.L339:
 498:../Drivers/STM32F4xx_HAL_Driver/Src/stm32f4xx_hal_dma.c ****     tmp2 = __HAL_DMA_GET_FLAG(hdma, __HAL_DMA_GET_DME_FLAG_INDEX(hdma));
 3148              		.loc 1 498 0 discriminator 50
 3149 04c6 3940     		ands	r1, r1, r7
 3150 04c8 04E1     		b	.L340
 3151              	.L338:
 498:../Drivers/STM32F4xx_HAL_Driver/Src/stm32f4xx_hal_dma.c ****     tmp2 = __HAL_DMA_GET_FLAG(hdma, __HAL_DMA_GET_DME_FLAG_INDEX(hdma));
 3152              		.loc 1 498 0 discriminator 2
 3153 04ca 2F49     		ldr	r1, .L1055+20
 3154 04cc 8B42     		cmp	r3, r1
 3155 04ce 5DD9     		bls	.L341
 498:../Drivers/STM32F4xx_HAL_Driver/Src/stm32f4xx_hal_dma.c ****     tmp2 = __HAL_DMA_GET_FLAG(hdma, __HAL_DMA_GET_DME_FLAG_INDEX(hdma));
 3156              		.loc 1 498 0 discriminator 52
 3157 04d0 01F55271 		add	r1, r1, #840
 3158 04d4 0F68     		ldr	r7, [r1]
 3159 04d6 2848     		ldr	r0, .L1055+4
 3160 04d8 8342     		cmp	r3, r0
 3161 04da 2DD0     		beq	.L535
 498:../Drivers/STM32F4xx_HAL_Driver/Src/stm32f4xx_hal_dma.c ****     tmp2 = __HAL_DMA_GET_FLAG(hdma, __HAL_DMA_GET_DME_FLAG_INDEX(hdma));
 3162              		.loc 1 498 0 discriminator 54
 3163 04dc 00F58060 		add	r0, r0, #1024
 3164 04e0 8342     		cmp	r3, r0
 3165 04e2 2BD0     		beq	.L536
 498:../Drivers/STM32F4xx_HAL_Driver/Src/stm32f4xx_hal_dma.c ****     tmp2 = __HAL_DMA_GET_FLAG(hdma, __HAL_DMA_GET_DME_FLAG_INDEX(hdma));
 3166              		.loc 1 498 0 discriminator 56
 3167 04e4 A0F56870 		sub	r0, r0, #928
 3168 04e8 8342     		cmp	r3, r0
 3169 04ea 29D0     		beq	.L537
 498:../Drivers/STM32F4xx_HAL_Driver/Src/stm32f4xx_hal_dma.c ****     tmp2 = __HAL_DMA_GET_FLAG(hdma, __HAL_DMA_GET_DME_FLAG_INDEX(hdma));
 3170              		.loc 1 498 0 discriminator 58
 3171 04ec 7031     		adds	r1, r1, #112
 3172 04ee 8B42     		cmp	r3, r1
 3173 04f0 28D0     		beq	.L538
 498:../Drivers/STM32F4xx_HAL_Driver/Src/stm32f4xx_hal_dma.c ****     tmp2 = __HAL_DMA_GET_FLAG(hdma, __HAL_DMA_GET_DME_FLAG_INDEX(hdma));
 3174              		.loc 1 498 0 discriminator 60
 3175 04f2 A1F58961 		sub	r1, r1, #1096
 3176 04f6 8B42     		cmp	r3, r1
 3177 04f8 26D0     		beq	.L539
 498:../Drivers/STM32F4xx_HAL_Driver/Src/stm32f4xx_hal_dma.c ****     tmp2 = __HAL_DMA_GET_FLAG(hdma, __HAL_DMA_GET_DME_FLAG_INDEX(hdma));
 3178              		.loc 1 498 0 discriminator 62
 3179 04fa 01F58061 		add	r1, r1, #1024
 3180 04fe 8B42     		cmp	r3, r1
 3181 0500 24D0     		beq	.L540
 498:../Drivers/STM32F4xx_HAL_Driver/Src/stm32f4xx_hal_dma.c ****     tmp2 = __HAL_DMA_GET_FLAG(hdma, __HAL_DMA_GET_DME_FLAG_INDEX(hdma));
 3182              		.loc 1 498 0 discriminator 64
 3183 0502 A1F56871 		sub	r1, r1, #928
ARM GAS  /tmp/ccIvKYQX.s 			page 81


 3184 0506 8B42     		cmp	r3, r1
 3185 0508 22D0     		beq	.L541
 498:../Drivers/STM32F4xx_HAL_Driver/Src/stm32f4xx_hal_dma.c ****     tmp2 = __HAL_DMA_GET_FLAG(hdma, __HAL_DMA_GET_DME_FLAG_INDEX(hdma));
 3186              		.loc 1 498 0 discriminator 66
 3187 050a 01F58061 		add	r1, r1, #1024
 3188 050e 8B42     		cmp	r3, r1
 3189 0510 20D0     		beq	.L542
 498:../Drivers/STM32F4xx_HAL_Driver/Src/stm32f4xx_hal_dma.c ****     tmp2 = __HAL_DMA_GET_FLAG(hdma, __HAL_DMA_GET_DME_FLAG_INDEX(hdma));
 3190              		.loc 1 498 0 discriminator 68
 3191 0512 A1F58961 		sub	r1, r1, #1096
 3192 0516 8B42     		cmp	r3, r1
 3193 0518 1ED0     		beq	.L543
 498:../Drivers/STM32F4xx_HAL_Driver/Src/stm32f4xx_hal_dma.c ****     tmp2 = __HAL_DMA_GET_FLAG(hdma, __HAL_DMA_GET_DME_FLAG_INDEX(hdma));
 3194              		.loc 1 498 0 discriminator 70
 3195 051a 01F58061 		add	r1, r1, #1024
 3196 051e 8B42     		cmp	r3, r1
 3197 0520 1DD0     		beq	.L544
 498:../Drivers/STM32F4xx_HAL_Driver/Src/stm32f4xx_hal_dma.c ****     tmp2 = __HAL_DMA_GET_FLAG(hdma, __HAL_DMA_GET_DME_FLAG_INDEX(hdma));
 3198              		.loc 1 498 0 discriminator 72
 3199 0522 A1F56871 		sub	r1, r1, #928
 3200 0526 8B42     		cmp	r3, r1
 3201 0528 1CD0     		beq	.L545
 498:../Drivers/STM32F4xx_HAL_Driver/Src/stm32f4xx_hal_dma.c ****     tmp2 = __HAL_DMA_GET_FLAG(hdma, __HAL_DMA_GET_DME_FLAG_INDEX(hdma));
 3202              		.loc 1 498 0 discriminator 74
 3203 052a 01F58061 		add	r1, r1, #1024
 3204 052e 8B42     		cmp	r3, r1
 3205 0530 1BD1     		bne	.L546
 498:../Drivers/STM32F4xx_HAL_Driver/Src/stm32f4xx_hal_dma.c ****     tmp2 = __HAL_DMA_GET_FLAG(hdma, __HAL_DMA_GET_DME_FLAG_INDEX(hdma));
 3206              		.loc 1 498 0
 3207 0532 4FF48031 		mov	r1, #65536
 3208 0536 1AE0     		b	.L342
 3209              	.L535:
 3210 0538 1249     		ldr	r1, .L1055+16
 3211 053a 18E0     		b	.L342
 3212              	.L536:
 3213 053c 1149     		ldr	r1, .L1055+16
 3214 053e 16E0     		b	.L342
 3215              	.L537:
 3216 0540 1049     		ldr	r1, .L1055+16
 3217 0542 14E0     		b	.L342
 3218              	.L538:
 3219 0544 0F49     		ldr	r1, .L1055+16
 3220 0546 12E0     		b	.L342
 3221              	.L539:
 3222 0548 4021     		movs	r1, #64
 3223 054a 10E0     		b	.L342
 3224              	.L540:
 3225 054c 4021     		movs	r1, #64
 3226 054e 0EE0     		b	.L342
 3227              	.L541:
 3228 0550 4021     		movs	r1, #64
 3229 0552 0CE0     		b	.L342
 3230              	.L542:
 3231 0554 4021     		movs	r1, #64
 3232 0556 0AE0     		b	.L342
 3233              	.L543:
 3234 0558 4FF48031 		mov	r1, #65536
ARM GAS  /tmp/ccIvKYQX.s 			page 82


 3235 055c 07E0     		b	.L342
 3236              	.L544:
 3237 055e 4FF48031 		mov	r1, #65536
 3238 0562 04E0     		b	.L342
 3239              	.L545:
 3240 0564 4FF48031 		mov	r1, #65536
 3241 0568 01E0     		b	.L342
 3242              	.L546:
 3243 056a 4FF48001 		mov	r1, #4194304
 3244              	.L342:
 498:../Drivers/STM32F4xx_HAL_Driver/Src/stm32f4xx_hal_dma.c ****     tmp2 = __HAL_DMA_GET_FLAG(hdma, __HAL_DMA_GET_DME_FLAG_INDEX(hdma));
 3245              		.loc 1 498 0 discriminator 101
 3246 056e 3940     		ands	r1, r1, r7
 3247 0570 B0E0     		b	.L340
 3248              	.L1056:
 3249 0572 00BF     		.align	2
 3250              	.L1055:
 3251 0574 58600240 		.word	1073897560
 3252 0578 10600240 		.word	1073897488
 3253 057c 00600240 		.word	1073897472
 3254 0580 58640240 		.word	1073898584
 3255 0584 01008000 		.word	8388609
 3256 0588 B8600240 		.word	1073897656
 3257              	.L341:
 498:../Drivers/STM32F4xx_HAL_Driver/Src/stm32f4xx_hal_dma.c ****     tmp2 = __HAL_DMA_GET_FLAG(hdma, __HAL_DMA_GET_DME_FLAG_INDEX(hdma));
 3258              		.loc 1 498 0 discriminator 53
 3259 058c AB49     		ldr	r1, .L1057
 3260 058e 8B42     		cmp	r3, r1
 3261 0590 50D9     		bls	.L343
 498:../Drivers/STM32F4xx_HAL_Driver/Src/stm32f4xx_hal_dma.c ****     tmp2 = __HAL_DMA_GET_FLAG(hdma, __HAL_DMA_GET_DME_FLAG_INDEX(hdma));
 3262              		.loc 1 498 0 discriminator 103
 3263 0592 5839     		subs	r1, r1, #88
 3264 0594 4968     		ldr	r1, [r1, #4]
 3265 0596 AA48     		ldr	r0, .L1057+4
 3266 0598 8342     		cmp	r3, r0
 3267 059a 2ED0     		beq	.L547
 498:../Drivers/STM32F4xx_HAL_Driver/Src/stm32f4xx_hal_dma.c ****     tmp2 = __HAL_DMA_GET_FLAG(hdma, __HAL_DMA_GET_DME_FLAG_INDEX(hdma));
 3268              		.loc 1 498 0 discriminator 105
 3269 059c 00F58060 		add	r0, r0, #1024
 3270 05a0 8342     		cmp	r3, r0
 3271 05a2 2CD0     		beq	.L548
 498:../Drivers/STM32F4xx_HAL_Driver/Src/stm32f4xx_hal_dma.c ****     tmp2 = __HAL_DMA_GET_FLAG(hdma, __HAL_DMA_GET_DME_FLAG_INDEX(hdma));
 3272              		.loc 1 498 0 discriminator 107
 3273 05a4 A0F56870 		sub	r0, r0, #928
 3274 05a8 8342     		cmp	r3, r0
 3275 05aa 2AD0     		beq	.L549
 498:../Drivers/STM32F4xx_HAL_Driver/Src/stm32f4xx_hal_dma.c ****     tmp2 = __HAL_DMA_GET_FLAG(hdma, __HAL_DMA_GET_DME_FLAG_INDEX(hdma));
 3276              		.loc 1 498 0 discriminator 109
 3277 05ac 00F58060 		add	r0, r0, #1024
 3278 05b0 8342     		cmp	r3, r0
 3279 05b2 28D0     		beq	.L550
 498:../Drivers/STM32F4xx_HAL_Driver/Src/stm32f4xx_hal_dma.c ****     tmp2 = __HAL_DMA_GET_FLAG(hdma, __HAL_DMA_GET_DME_FLAG_INDEX(hdma));
 3280              		.loc 1 498 0 discriminator 111
 3281 05b4 A0F58960 		sub	r0, r0, #1096
 3282 05b8 8342     		cmp	r3, r0
 3283 05ba 26D0     		beq	.L551
 498:../Drivers/STM32F4xx_HAL_Driver/Src/stm32f4xx_hal_dma.c ****     tmp2 = __HAL_DMA_GET_FLAG(hdma, __HAL_DMA_GET_DME_FLAG_INDEX(hdma));
ARM GAS  /tmp/ccIvKYQX.s 			page 83


 3284              		.loc 1 498 0 discriminator 113
 3285 05bc 00F58060 		add	r0, r0, #1024
 3286 05c0 8342     		cmp	r3, r0
 3287 05c2 24D0     		beq	.L552
 498:../Drivers/STM32F4xx_HAL_Driver/Src/stm32f4xx_hal_dma.c ****     tmp2 = __HAL_DMA_GET_FLAG(hdma, __HAL_DMA_GET_DME_FLAG_INDEX(hdma));
 3288              		.loc 1 498 0 discriminator 115
 3289 05c4 A0F56870 		sub	r0, r0, #928
 3290 05c8 8342     		cmp	r3, r0
 3291 05ca 22D0     		beq	.L553
 498:../Drivers/STM32F4xx_HAL_Driver/Src/stm32f4xx_hal_dma.c ****     tmp2 = __HAL_DMA_GET_FLAG(hdma, __HAL_DMA_GET_DME_FLAG_INDEX(hdma));
 3292              		.loc 1 498 0 discriminator 117
 3293 05cc 00F58060 		add	r0, r0, #1024
 3294 05d0 8342     		cmp	r3, r0
 3295 05d2 20D0     		beq	.L554
 498:../Drivers/STM32F4xx_HAL_Driver/Src/stm32f4xx_hal_dma.c ****     tmp2 = __HAL_DMA_GET_FLAG(hdma, __HAL_DMA_GET_DME_FLAG_INDEX(hdma));
 3296              		.loc 1 498 0 discriminator 119
 3297 05d4 A0F58960 		sub	r0, r0, #1096
 3298 05d8 8342     		cmp	r3, r0
 3299 05da 1ED0     		beq	.L555
 498:../Drivers/STM32F4xx_HAL_Driver/Src/stm32f4xx_hal_dma.c ****     tmp2 = __HAL_DMA_GET_FLAG(hdma, __HAL_DMA_GET_DME_FLAG_INDEX(hdma));
 3300              		.loc 1 498 0 discriminator 121
 3301 05dc 00F58060 		add	r0, r0, #1024
 3302 05e0 8342     		cmp	r3, r0
 3303 05e2 1DD0     		beq	.L556
 498:../Drivers/STM32F4xx_HAL_Driver/Src/stm32f4xx_hal_dma.c ****     tmp2 = __HAL_DMA_GET_FLAG(hdma, __HAL_DMA_GET_DME_FLAG_INDEX(hdma));
 3304              		.loc 1 498 0 discriminator 123
 3305 05e4 A0F56870 		sub	r0, r0, #928
 3306 05e8 8342     		cmp	r3, r0
 3307 05ea 1CD0     		beq	.L557
 498:../Drivers/STM32F4xx_HAL_Driver/Src/stm32f4xx_hal_dma.c ****     tmp2 = __HAL_DMA_GET_FLAG(hdma, __HAL_DMA_GET_DME_FLAG_INDEX(hdma));
 3308              		.loc 1 498 0 discriminator 125
 3309 05ec 00F58060 		add	r0, r0, #1024
 3310 05f0 8342     		cmp	r3, r0
 3311 05f2 1BD1     		bne	.L558
 498:../Drivers/STM32F4xx_HAL_Driver/Src/stm32f4xx_hal_dma.c ****     tmp2 = __HAL_DMA_GET_FLAG(hdma, __HAL_DMA_GET_DME_FLAG_INDEX(hdma));
 3312              		.loc 1 498 0
 3313 05f4 4FF48030 		mov	r0, #65536
 3314 05f8 1AE0     		b	.L344
 3315              	.L547:
 3316 05fa 9248     		ldr	r0, .L1057+8
 3317 05fc 18E0     		b	.L344
 3318              	.L548:
 3319 05fe 9148     		ldr	r0, .L1057+8
 3320 0600 16E0     		b	.L344
 3321              	.L549:
 3322 0602 9048     		ldr	r0, .L1057+8
 3323 0604 14E0     		b	.L344
 3324              	.L550:
 3325 0606 8F48     		ldr	r0, .L1057+8
 3326 0608 12E0     		b	.L344
 3327              	.L551:
 3328 060a 4020     		movs	r0, #64
 3329 060c 10E0     		b	.L344
 3330              	.L552:
 3331 060e 4020     		movs	r0, #64
 3332 0610 0EE0     		b	.L344
 3333              	.L553:
ARM GAS  /tmp/ccIvKYQX.s 			page 84


 3334 0612 4020     		movs	r0, #64
 3335 0614 0CE0     		b	.L344
 3336              	.L554:
 3337 0616 4020     		movs	r0, #64
 3338 0618 0AE0     		b	.L344
 3339              	.L555:
 3340 061a 4FF48030 		mov	r0, #65536
 3341 061e 07E0     		b	.L344
 3342              	.L556:
 3343 0620 4FF48030 		mov	r0, #65536
 3344 0624 04E0     		b	.L344
 3345              	.L557:
 3346 0626 4FF48030 		mov	r0, #65536
 3347 062a 01E0     		b	.L344
 3348              	.L558:
 3349 062c 4FF48000 		mov	r0, #4194304
 3350              	.L344:
 498:../Drivers/STM32F4xx_HAL_Driver/Src/stm32f4xx_hal_dma.c ****     tmp2 = __HAL_DMA_GET_FLAG(hdma, __HAL_DMA_GET_DME_FLAG_INDEX(hdma));
 3351              		.loc 1 498 0 discriminator 152
 3352 0630 0140     		ands	r1, r1, r0
 3353 0632 4FE0     		b	.L340
 3354              	.L343:
 498:../Drivers/STM32F4xx_HAL_Driver/Src/stm32f4xx_hal_dma.c ****     tmp2 = __HAL_DMA_GET_FLAG(hdma, __HAL_DMA_GET_DME_FLAG_INDEX(hdma));
 3355              		.loc 1 498 0 discriminator 104
 3356 0634 8449     		ldr	r1, .L1057+12
 3357 0636 0968     		ldr	r1, [r1]
 3358 0638 8148     		ldr	r0, .L1057+4
 3359 063a 8342     		cmp	r3, r0
 3360 063c 2ED0     		beq	.L559
 498:../Drivers/STM32F4xx_HAL_Driver/Src/stm32f4xx_hal_dma.c ****     tmp2 = __HAL_DMA_GET_FLAG(hdma, __HAL_DMA_GET_DME_FLAG_INDEX(hdma));
 3361              		.loc 1 498 0 discriminator 154
 3362 063e 00F58060 		add	r0, r0, #1024
 3363 0642 8342     		cmp	r3, r0
 3364 0644 2CD0     		beq	.L560
 498:../Drivers/STM32F4xx_HAL_Driver/Src/stm32f4xx_hal_dma.c ****     tmp2 = __HAL_DMA_GET_FLAG(hdma, __HAL_DMA_GET_DME_FLAG_INDEX(hdma));
 3365              		.loc 1 498 0 discriminator 156
 3366 0646 A0F56870 		sub	r0, r0, #928
 3367 064a 8342     		cmp	r3, r0
 3368 064c 2AD0     		beq	.L561
 498:../Drivers/STM32F4xx_HAL_Driver/Src/stm32f4xx_hal_dma.c ****     tmp2 = __HAL_DMA_GET_FLAG(hdma, __HAL_DMA_GET_DME_FLAG_INDEX(hdma));
 3369              		.loc 1 498 0 discriminator 158
 3370 064e 00F58060 		add	r0, r0, #1024
 3371 0652 8342     		cmp	r3, r0
 3372 0654 28D0     		beq	.L562
 498:../Drivers/STM32F4xx_HAL_Driver/Src/stm32f4xx_hal_dma.c ****     tmp2 = __HAL_DMA_GET_FLAG(hdma, __HAL_DMA_GET_DME_FLAG_INDEX(hdma));
 3373              		.loc 1 498 0 discriminator 160
 3374 0656 A0F58960 		sub	r0, r0, #1096
 3375 065a 8342     		cmp	r3, r0
 3376 065c 26D0     		beq	.L563
 498:../Drivers/STM32F4xx_HAL_Driver/Src/stm32f4xx_hal_dma.c ****     tmp2 = __HAL_DMA_GET_FLAG(hdma, __HAL_DMA_GET_DME_FLAG_INDEX(hdma));
 3377              		.loc 1 498 0 discriminator 162
 3378 065e 00F58060 		add	r0, r0, #1024
 3379 0662 8342     		cmp	r3, r0
 3380 0664 24D0     		beq	.L564
 498:../Drivers/STM32F4xx_HAL_Driver/Src/stm32f4xx_hal_dma.c ****     tmp2 = __HAL_DMA_GET_FLAG(hdma, __HAL_DMA_GET_DME_FLAG_INDEX(hdma));
 3381              		.loc 1 498 0 discriminator 164
 3382 0666 A0F56870 		sub	r0, r0, #928
ARM GAS  /tmp/ccIvKYQX.s 			page 85


 3383 066a 8342     		cmp	r3, r0
 3384 066c 22D0     		beq	.L565
 498:../Drivers/STM32F4xx_HAL_Driver/Src/stm32f4xx_hal_dma.c ****     tmp2 = __HAL_DMA_GET_FLAG(hdma, __HAL_DMA_GET_DME_FLAG_INDEX(hdma));
 3385              		.loc 1 498 0 discriminator 166
 3386 066e 00F58060 		add	r0, r0, #1024
 3387 0672 8342     		cmp	r3, r0
 3388 0674 20D0     		beq	.L566
 498:../Drivers/STM32F4xx_HAL_Driver/Src/stm32f4xx_hal_dma.c ****     tmp2 = __HAL_DMA_GET_FLAG(hdma, __HAL_DMA_GET_DME_FLAG_INDEX(hdma));
 3389              		.loc 1 498 0 discriminator 168
 3390 0676 A0F58960 		sub	r0, r0, #1096
 3391 067a 8342     		cmp	r3, r0
 3392 067c 1ED0     		beq	.L567
 498:../Drivers/STM32F4xx_HAL_Driver/Src/stm32f4xx_hal_dma.c ****     tmp2 = __HAL_DMA_GET_FLAG(hdma, __HAL_DMA_GET_DME_FLAG_INDEX(hdma));
 3393              		.loc 1 498 0 discriminator 170
 3394 067e 00F58060 		add	r0, r0, #1024
 3395 0682 8342     		cmp	r3, r0
 3396 0684 1DD0     		beq	.L568
 498:../Drivers/STM32F4xx_HAL_Driver/Src/stm32f4xx_hal_dma.c ****     tmp2 = __HAL_DMA_GET_FLAG(hdma, __HAL_DMA_GET_DME_FLAG_INDEX(hdma));
 3397              		.loc 1 498 0 discriminator 172
 3398 0686 A0F56870 		sub	r0, r0, #928
 3399 068a 8342     		cmp	r3, r0
 3400 068c 1CD0     		beq	.L569
 498:../Drivers/STM32F4xx_HAL_Driver/Src/stm32f4xx_hal_dma.c ****     tmp2 = __HAL_DMA_GET_FLAG(hdma, __HAL_DMA_GET_DME_FLAG_INDEX(hdma));
 3401              		.loc 1 498 0 discriminator 174
 3402 068e 00F58060 		add	r0, r0, #1024
 3403 0692 8342     		cmp	r3, r0
 3404 0694 1BD1     		bne	.L570
 498:../Drivers/STM32F4xx_HAL_Driver/Src/stm32f4xx_hal_dma.c ****     tmp2 = __HAL_DMA_GET_FLAG(hdma, __HAL_DMA_GET_DME_FLAG_INDEX(hdma));
 3405              		.loc 1 498 0
 3406 0696 4FF48030 		mov	r0, #65536
 3407 069a 1AE0     		b	.L345
 3408              	.L559:
 3409 069c 6948     		ldr	r0, .L1057+8
 3410 069e 18E0     		b	.L345
 3411              	.L560:
 3412 06a0 6848     		ldr	r0, .L1057+8
 3413 06a2 16E0     		b	.L345
 3414              	.L561:
 3415 06a4 6748     		ldr	r0, .L1057+8
 3416 06a6 14E0     		b	.L345
 3417              	.L562:
 3418 06a8 6648     		ldr	r0, .L1057+8
 3419 06aa 12E0     		b	.L345
 3420              	.L563:
 3421 06ac 4020     		movs	r0, #64
 3422 06ae 10E0     		b	.L345
 3423              	.L564:
 3424 06b0 4020     		movs	r0, #64
 3425 06b2 0EE0     		b	.L345
 3426              	.L565:
 3427 06b4 4020     		movs	r0, #64
 3428 06b6 0CE0     		b	.L345
 3429              	.L566:
 3430 06b8 4020     		movs	r0, #64
 3431 06ba 0AE0     		b	.L345
 3432              	.L567:
 3433 06bc 4FF48030 		mov	r0, #65536
ARM GAS  /tmp/ccIvKYQX.s 			page 86


 3434 06c0 07E0     		b	.L345
 3435              	.L568:
 3436 06c2 4FF48030 		mov	r0, #65536
 3437 06c6 04E0     		b	.L345
 3438              	.L569:
 3439 06c8 4FF48030 		mov	r0, #65536
 3440 06cc 01E0     		b	.L345
 3441              	.L570:
 3442 06ce 4FF48000 		mov	r0, #4194304
 3443              	.L345:
 498:../Drivers/STM32F4xx_HAL_Driver/Src/stm32f4xx_hal_dma.c ****     tmp2 = __HAL_DMA_GET_FLAG(hdma, __HAL_DMA_GET_DME_FLAG_INDEX(hdma));
 3444              		.loc 1 498 0 discriminator 201
 3445 06d2 0140     		ands	r1, r1, r0
 3446              	.L340:
 3447              	.LVL52:
 499:../Drivers/STM32F4xx_HAL_Driver/Src/stm32f4xx_hal_dma.c ****     if((tmp != RESET) || (tmp1 != RESET) || (tmp2 != RESET))
 3448              		.loc 1 499 0 is_stmt 1 discriminator 204
 3449 06d4 5D48     		ldr	r0, .L1057+16
 3450 06d6 8342     		cmp	r3, r0
 3451 06d8 55D9     		bls	.L346
 499:../Drivers/STM32F4xx_HAL_Driver/Src/stm32f4xx_hal_dma.c ****     if((tmp != RESET) || (tmp1 != RESET) || (tmp2 != RESET))
 3452              		.loc 1 499 0 is_stmt 0 discriminator 1
 3453 06da 5838     		subs	r0, r0, #88
 3454 06dc 4768     		ldr	r7, [r0, #4]
 3455 06de A0F57C70 		sub	r0, r0, #1008
 3456 06e2 8342     		cmp	r3, r0
 3457 06e4 2ED0     		beq	.L571
 499:../Drivers/STM32F4xx_HAL_Driver/Src/stm32f4xx_hal_dma.c ****     if((tmp != RESET) || (tmp1 != RESET) || (tmp2 != RESET))
 3458              		.loc 1 499 0 discriminator 3
 3459 06e6 00F58060 		add	r0, r0, #1024
 3460 06ea 8342     		cmp	r3, r0
 3461 06ec 2CD0     		beq	.L572
 499:../Drivers/STM32F4xx_HAL_Driver/Src/stm32f4xx_hal_dma.c ****     if((tmp != RESET) || (tmp1 != RESET) || (tmp2 != RESET))
 3462              		.loc 1 499 0 discriminator 5
 3463 06ee A0F56870 		sub	r0, r0, #928
 3464 06f2 8342     		cmp	r3, r0
 3465 06f4 2AD0     		beq	.L573
 499:../Drivers/STM32F4xx_HAL_Driver/Src/stm32f4xx_hal_dma.c ****     if((tmp != RESET) || (tmp1 != RESET) || (tmp2 != RESET))
 3466              		.loc 1 499 0 discriminator 7
 3467 06f6 00F58060 		add	r0, r0, #1024
 3468 06fa 8342     		cmp	r3, r0
 3469 06fc 28D0     		beq	.L574
 499:../Drivers/STM32F4xx_HAL_Driver/Src/stm32f4xx_hal_dma.c ****     if((tmp != RESET) || (tmp1 != RESET) || (tmp2 != RESET))
 3470              		.loc 1 499 0 discriminator 9
 3471 06fe A0F58960 		sub	r0, r0, #1096
 3472 0702 8342     		cmp	r3, r0
 3473 0704 26D0     		beq	.L575
 499:../Drivers/STM32F4xx_HAL_Driver/Src/stm32f4xx_hal_dma.c ****     if((tmp != RESET) || (tmp1 != RESET) || (tmp2 != RESET))
 3474              		.loc 1 499 0 discriminator 11
 3475 0706 00F58060 		add	r0, r0, #1024
 3476 070a 8342     		cmp	r3, r0
 3477 070c 25D0     		beq	.L576
 499:../Drivers/STM32F4xx_HAL_Driver/Src/stm32f4xx_hal_dma.c ****     if((tmp != RESET) || (tmp1 != RESET) || (tmp2 != RESET))
 3478              		.loc 1 499 0 discriminator 13
 3479 070e A0F56870 		sub	r0, r0, #928
 3480 0712 8342     		cmp	r3, r0
 3481 0714 24D0     		beq	.L577
ARM GAS  /tmp/ccIvKYQX.s 			page 87


 499:../Drivers/STM32F4xx_HAL_Driver/Src/stm32f4xx_hal_dma.c ****     if((tmp != RESET) || (tmp1 != RESET) || (tmp2 != RESET))
 3482              		.loc 1 499 0 discriminator 15
 3483 0716 00F58060 		add	r0, r0, #1024
 3484 071a 8342     		cmp	r3, r0
 3485 071c 23D0     		beq	.L578
 499:../Drivers/STM32F4xx_HAL_Driver/Src/stm32f4xx_hal_dma.c ****     if((tmp != RESET) || (tmp1 != RESET) || (tmp2 != RESET))
 3486              		.loc 1 499 0 discriminator 17
 3487 071e A0F58960 		sub	r0, r0, #1096
 3488 0722 8342     		cmp	r3, r0
 3489 0724 22D0     		beq	.L579
 499:../Drivers/STM32F4xx_HAL_Driver/Src/stm32f4xx_hal_dma.c ****     if((tmp != RESET) || (tmp1 != RESET) || (tmp2 != RESET))
 3490              		.loc 1 499 0 discriminator 19
 3491 0726 00F58060 		add	r0, r0, #1024
 3492 072a 8342     		cmp	r3, r0
 3493 072c 21D0     		beq	.L580
 499:../Drivers/STM32F4xx_HAL_Driver/Src/stm32f4xx_hal_dma.c ****     if((tmp != RESET) || (tmp1 != RESET) || (tmp2 != RESET))
 3494              		.loc 1 499 0 discriminator 21
 3495 072e A0F56870 		sub	r0, r0, #928
 3496 0732 8342     		cmp	r3, r0
 3497 0734 20D0     		beq	.L581
 499:../Drivers/STM32F4xx_HAL_Driver/Src/stm32f4xx_hal_dma.c ****     if((tmp != RESET) || (tmp1 != RESET) || (tmp2 != RESET))
 3498              		.loc 1 499 0 discriminator 23
 3499 0736 00F58060 		add	r0, r0, #1024
 3500 073a 8342     		cmp	r3, r0
 3501 073c 1FD1     		bne	.L582
 499:../Drivers/STM32F4xx_HAL_Driver/Src/stm32f4xx_hal_dma.c ****     if((tmp != RESET) || (tmp1 != RESET) || (tmp2 != RESET))
 3502              		.loc 1 499 0
 3503 073e 4FF48023 		mov	r3, #262144
 3504 0742 1EE0     		b	.L347
 3505              	.L571:
 3506 0744 424B     		ldr	r3, .L1057+20
 3507 0746 1CE0     		b	.L347
 3508              	.L572:
 3509 0748 414B     		ldr	r3, .L1057+20
 3510 074a 1AE0     		b	.L347
 3511              	.L573:
 3512 074c 404B     		ldr	r3, .L1057+20
 3513 074e 18E0     		b	.L347
 3514              	.L574:
 3515 0750 3F4B     		ldr	r3, .L1057+20
 3516 0752 16E0     		b	.L347
 3517              	.L575:
 3518 0754 4FF48073 		mov	r3, #256
 3519 0758 13E0     		b	.L347
 3520              	.L576:
 3521 075a 4FF48073 		mov	r3, #256
 3522 075e 10E0     		b	.L347
 3523              	.L577:
 3524 0760 4FF48073 		mov	r3, #256
 3525 0764 0DE0     		b	.L347
 3526              	.L578:
 3527 0766 4FF48073 		mov	r3, #256
 3528 076a 0AE0     		b	.L347
 3529              	.L579:
 3530 076c 4FF48023 		mov	r3, #262144
 3531 0770 07E0     		b	.L347
 3532              	.L580:
ARM GAS  /tmp/ccIvKYQX.s 			page 88


 3533 0772 4FF48023 		mov	r3, #262144
 3534 0776 04E0     		b	.L347
 3535              	.L581:
 3536 0778 4FF48023 		mov	r3, #262144
 3537 077c 01E0     		b	.L347
 3538              	.L582:
 3539 077e 4FF08073 		mov	r3, #16777216
 3540              	.L347:
 499:../Drivers/STM32F4xx_HAL_Driver/Src/stm32f4xx_hal_dma.c ****     if((tmp != RESET) || (tmp1 != RESET) || (tmp2 != RESET))
 3541              		.loc 1 499 0 discriminator 50
 3542 0782 3B40     		ands	r3, r3, r7
 3543 0784 18E1     		b	.L348
 3544              	.L346:
 499:../Drivers/STM32F4xx_HAL_Driver/Src/stm32f4xx_hal_dma.c ****     if((tmp != RESET) || (tmp1 != RESET) || (tmp2 != RESET))
 3545              		.loc 1 499 0 discriminator 2
 3546 0786 3348     		ldr	r0, .L1057+24
 3547 0788 8342     		cmp	r3, r0
 3548 078a 65D9     		bls	.L349
 499:../Drivers/STM32F4xx_HAL_Driver/Src/stm32f4xx_hal_dma.c ****     if((tmp != RESET) || (tmp1 != RESET) || (tmp2 != RESET))
 3549              		.loc 1 499 0 discriminator 52
 3550 078c 00F55270 		add	r0, r0, #840
 3551 0790 0768     		ldr	r7, [r0]
 3552 0792 A0F57C70 		sub	r0, r0, #1008
 3553 0796 8342     		cmp	r3, r0
 3554 0798 2ED0     		beq	.L583
 499:../Drivers/STM32F4xx_HAL_Driver/Src/stm32f4xx_hal_dma.c ****     if((tmp != RESET) || (tmp1 != RESET) || (tmp2 != RESET))
 3555              		.loc 1 499 0 discriminator 54
 3556 079a 00F58060 		add	r0, r0, #1024
 3557 079e 8342     		cmp	r3, r0
 3558 07a0 2CD0     		beq	.L584
 499:../Drivers/STM32F4xx_HAL_Driver/Src/stm32f4xx_hal_dma.c ****     if((tmp != RESET) || (tmp1 != RESET) || (tmp2 != RESET))
 3559              		.loc 1 499 0 discriminator 56
 3560 07a2 A0F56870 		sub	r0, r0, #928
 3561 07a6 8342     		cmp	r3, r0
 3562 07a8 2AD0     		beq	.L585
 499:../Drivers/STM32F4xx_HAL_Driver/Src/stm32f4xx_hal_dma.c ****     if((tmp != RESET) || (tmp1 != RESET) || (tmp2 != RESET))
 3563              		.loc 1 499 0 discriminator 58
 3564 07aa 00F58060 		add	r0, r0, #1024
 3565 07ae 8342     		cmp	r3, r0
 3566 07b0 28D0     		beq	.L586
 499:../Drivers/STM32F4xx_HAL_Driver/Src/stm32f4xx_hal_dma.c ****     if((tmp != RESET) || (tmp1 != RESET) || (tmp2 != RESET))
 3567              		.loc 1 499 0 discriminator 60
 3568 07b2 A0F58960 		sub	r0, r0, #1096
 3569 07b6 8342     		cmp	r3, r0
 3570 07b8 26D0     		beq	.L587
 499:../Drivers/STM32F4xx_HAL_Driver/Src/stm32f4xx_hal_dma.c ****     if((tmp != RESET) || (tmp1 != RESET) || (tmp2 != RESET))
 3571              		.loc 1 499 0 discriminator 62
 3572 07ba 00F58060 		add	r0, r0, #1024
 3573 07be 8342     		cmp	r3, r0
 3574 07c0 25D0     		beq	.L588
 499:../Drivers/STM32F4xx_HAL_Driver/Src/stm32f4xx_hal_dma.c ****     if((tmp != RESET) || (tmp1 != RESET) || (tmp2 != RESET))
 3575              		.loc 1 499 0 discriminator 64
 3576 07c2 A0F56870 		sub	r0, r0, #928
 3577 07c6 8342     		cmp	r3, r0
 3578 07c8 24D0     		beq	.L589
 499:../Drivers/STM32F4xx_HAL_Driver/Src/stm32f4xx_hal_dma.c ****     if((tmp != RESET) || (tmp1 != RESET) || (tmp2 != RESET))
 3579              		.loc 1 499 0 discriminator 66
ARM GAS  /tmp/ccIvKYQX.s 			page 89


 3580 07ca 00F58060 		add	r0, r0, #1024
 3581 07ce 8342     		cmp	r3, r0
 3582 07d0 23D0     		beq	.L590
 499:../Drivers/STM32F4xx_HAL_Driver/Src/stm32f4xx_hal_dma.c ****     if((tmp != RESET) || (tmp1 != RESET) || (tmp2 != RESET))
 3583              		.loc 1 499 0 discriminator 68
 3584 07d2 A0F58960 		sub	r0, r0, #1096
 3585 07d6 8342     		cmp	r3, r0
 3586 07d8 22D0     		beq	.L591
 499:../Drivers/STM32F4xx_HAL_Driver/Src/stm32f4xx_hal_dma.c ****     if((tmp != RESET) || (tmp1 != RESET) || (tmp2 != RESET))
 3587              		.loc 1 499 0 discriminator 70
 3588 07da 00F58060 		add	r0, r0, #1024
 3589 07de 8342     		cmp	r3, r0
 3590 07e0 21D0     		beq	.L592
 499:../Drivers/STM32F4xx_HAL_Driver/Src/stm32f4xx_hal_dma.c ****     if((tmp != RESET) || (tmp1 != RESET) || (tmp2 != RESET))
 3591              		.loc 1 499 0 discriminator 72
 3592 07e2 A0F56870 		sub	r0, r0, #928
 3593 07e6 8342     		cmp	r3, r0
 3594 07e8 20D0     		beq	.L593
 499:../Drivers/STM32F4xx_HAL_Driver/Src/stm32f4xx_hal_dma.c ****     if((tmp != RESET) || (tmp1 != RESET) || (tmp2 != RESET))
 3595              		.loc 1 499 0 discriminator 74
 3596 07ea 00F58060 		add	r0, r0, #1024
 3597 07ee 8342     		cmp	r3, r0
 3598 07f0 1FD1     		bne	.L594
 499:../Drivers/STM32F4xx_HAL_Driver/Src/stm32f4xx_hal_dma.c ****     if((tmp != RESET) || (tmp1 != RESET) || (tmp2 != RESET))
 3599              		.loc 1 499 0
 3600 07f2 4FF48023 		mov	r3, #262144
 3601 07f6 1EE0     		b	.L350
 3602              	.L583:
 3603 07f8 154B     		ldr	r3, .L1057+20
 3604 07fa 1CE0     		b	.L350
 3605              	.L584:
 3606 07fc 144B     		ldr	r3, .L1057+20
 3607 07fe 1AE0     		b	.L350
 3608              	.L585:
 3609 0800 134B     		ldr	r3, .L1057+20
 3610 0802 18E0     		b	.L350
 3611              	.L586:
 3612 0804 124B     		ldr	r3, .L1057+20
 3613 0806 16E0     		b	.L350
 3614              	.L587:
 3615 0808 4FF48073 		mov	r3, #256
 3616 080c 13E0     		b	.L350
 3617              	.L588:
 3618 080e 4FF48073 		mov	r3, #256
 3619 0812 10E0     		b	.L350
 3620              	.L589:
 3621 0814 4FF48073 		mov	r3, #256
 3622 0818 0DE0     		b	.L350
 3623              	.L590:
 3624 081a 4FF48073 		mov	r3, #256
 3625 081e 0AE0     		b	.L350
 3626              	.L591:
 3627 0820 4FF48023 		mov	r3, #262144
 3628 0824 07E0     		b	.L350
 3629              	.L592:
 3630 0826 4FF48023 		mov	r3, #262144
 3631 082a 04E0     		b	.L350
ARM GAS  /tmp/ccIvKYQX.s 			page 90


 3632              	.L593:
 3633 082c 4FF48023 		mov	r3, #262144
 3634 0830 01E0     		b	.L350
 3635              	.L594:
 3636 0832 4FF08073 		mov	r3, #16777216
 3637              	.L350:
 499:../Drivers/STM32F4xx_HAL_Driver/Src/stm32f4xx_hal_dma.c ****     if((tmp != RESET) || (tmp1 != RESET) || (tmp2 != RESET))
 3638              		.loc 1 499 0 discriminator 101
 3639 0836 3B40     		ands	r3, r3, r7
 3640 0838 BEE0     		b	.L348
 3641              	.L1058:
 3642 083a 00BF     		.align	2
 3643              	.L1057:
 3644 083c 58600240 		.word	1073897560
 3645 0840 10600240 		.word	1073897488
 3646 0844 01008000 		.word	8388609
 3647 0848 00600240 		.word	1073897472
 3648 084c 58640240 		.word	1073898584
 3649 0850 04008000 		.word	8388612
 3650 0854 B8600240 		.word	1073897656
 3651              	.L349:
 499:../Drivers/STM32F4xx_HAL_Driver/Src/stm32f4xx_hal_dma.c ****     if((tmp != RESET) || (tmp1 != RESET) || (tmp2 != RESET))
 3652              		.loc 1 499 0 discriminator 53
 3653 0858 B548     		ldr	r0, .L1059
 3654 085a 8342     		cmp	r3, r0
 3655 085c 56D9     		bls	.L351
 499:../Drivers/STM32F4xx_HAL_Driver/Src/stm32f4xx_hal_dma.c ****     if((tmp != RESET) || (tmp1 != RESET) || (tmp2 != RESET))
 3656              		.loc 1 499 0 discriminator 103
 3657 085e 5838     		subs	r0, r0, #88
 3658 0860 D0F804C0 		ldr	ip, [r0, #4]
 3659 0864 1030     		adds	r0, r0, #16
 3660 0866 8342     		cmp	r3, r0
 3661 0868 2ED0     		beq	.L595
 499:../Drivers/STM32F4xx_HAL_Driver/Src/stm32f4xx_hal_dma.c ****     if((tmp != RESET) || (tmp1 != RESET) || (tmp2 != RESET))
 3662              		.loc 1 499 0 discriminator 105
 3663 086a 00F58060 		add	r0, r0, #1024
 3664 086e 8342     		cmp	r3, r0
 3665 0870 2CD0     		beq	.L596
 499:../Drivers/STM32F4xx_HAL_Driver/Src/stm32f4xx_hal_dma.c ****     if((tmp != RESET) || (tmp1 != RESET) || (tmp2 != RESET))
 3666              		.loc 1 499 0 discriminator 107
 3667 0872 A0F56870 		sub	r0, r0, #928
 3668 0876 8342     		cmp	r3, r0
 3669 0878 2AD0     		beq	.L597
 499:../Drivers/STM32F4xx_HAL_Driver/Src/stm32f4xx_hal_dma.c ****     if((tmp != RESET) || (tmp1 != RESET) || (tmp2 != RESET))
 3670              		.loc 1 499 0 discriminator 109
 3671 087a 00F58060 		add	r0, r0, #1024
 3672 087e 8342     		cmp	r3, r0
 3673 0880 28D0     		beq	.L598
 499:../Drivers/STM32F4xx_HAL_Driver/Src/stm32f4xx_hal_dma.c ****     if((tmp != RESET) || (tmp1 != RESET) || (tmp2 != RESET))
 3674              		.loc 1 499 0 discriminator 111
 3675 0882 A0F58960 		sub	r0, r0, #1096
 3676 0886 8342     		cmp	r3, r0
 3677 0888 26D0     		beq	.L599
 499:../Drivers/STM32F4xx_HAL_Driver/Src/stm32f4xx_hal_dma.c ****     if((tmp != RESET) || (tmp1 != RESET) || (tmp2 != RESET))
 3678              		.loc 1 499 0 discriminator 113
 3679 088a 00F58060 		add	r0, r0, #1024
 3680 088e 8342     		cmp	r3, r0
ARM GAS  /tmp/ccIvKYQX.s 			page 91


 3681 0890 25D0     		beq	.L600
 499:../Drivers/STM32F4xx_HAL_Driver/Src/stm32f4xx_hal_dma.c ****     if((tmp != RESET) || (tmp1 != RESET) || (tmp2 != RESET))
 3682              		.loc 1 499 0 discriminator 115
 3683 0892 A0F56870 		sub	r0, r0, #928
 3684 0896 8342     		cmp	r3, r0
 3685 0898 24D0     		beq	.L601
 499:../Drivers/STM32F4xx_HAL_Driver/Src/stm32f4xx_hal_dma.c ****     if((tmp != RESET) || (tmp1 != RESET) || (tmp2 != RESET))
 3686              		.loc 1 499 0 discriminator 117
 3687 089a 00F58060 		add	r0, r0, #1024
 3688 089e 8342     		cmp	r3, r0
 3689 08a0 23D0     		beq	.L602
 499:../Drivers/STM32F4xx_HAL_Driver/Src/stm32f4xx_hal_dma.c ****     if((tmp != RESET) || (tmp1 != RESET) || (tmp2 != RESET))
 3690              		.loc 1 499 0 discriminator 119
 3691 08a2 A0F58960 		sub	r0, r0, #1096
 3692 08a6 8342     		cmp	r3, r0
 3693 08a8 22D0     		beq	.L603
 499:../Drivers/STM32F4xx_HAL_Driver/Src/stm32f4xx_hal_dma.c ****     if((tmp != RESET) || (tmp1 != RESET) || (tmp2 != RESET))
 3694              		.loc 1 499 0 discriminator 121
 3695 08aa 00F58060 		add	r0, r0, #1024
 3696 08ae 8342     		cmp	r3, r0
 3697 08b0 21D0     		beq	.L604
 499:../Drivers/STM32F4xx_HAL_Driver/Src/stm32f4xx_hal_dma.c ****     if((tmp != RESET) || (tmp1 != RESET) || (tmp2 != RESET))
 3698              		.loc 1 499 0 discriminator 123
 3699 08b2 A0F56870 		sub	r0, r0, #928
 3700 08b6 8342     		cmp	r3, r0
 3701 08b8 20D0     		beq	.L605
 499:../Drivers/STM32F4xx_HAL_Driver/Src/stm32f4xx_hal_dma.c ****     if((tmp != RESET) || (tmp1 != RESET) || (tmp2 != RESET))
 3702              		.loc 1 499 0 discriminator 125
 3703 08ba 00F58060 		add	r0, r0, #1024
 3704 08be 8342     		cmp	r3, r0
 3705 08c0 1FD1     		bne	.L606
 499:../Drivers/STM32F4xx_HAL_Driver/Src/stm32f4xx_hal_dma.c ****     if((tmp != RESET) || (tmp1 != RESET) || (tmp2 != RESET))
 3706              		.loc 1 499 0
 3707 08c2 4FF48023 		mov	r3, #262144
 3708 08c6 1EE0     		b	.L352
 3709              	.L595:
 3710 08c8 9A4B     		ldr	r3, .L1059+4
 3711 08ca 1CE0     		b	.L352
 3712              	.L596:
 3713 08cc 994B     		ldr	r3, .L1059+4
 3714 08ce 1AE0     		b	.L352
 3715              	.L597:
 3716 08d0 984B     		ldr	r3, .L1059+4
 3717 08d2 18E0     		b	.L352
 3718              	.L598:
 3719 08d4 974B     		ldr	r3, .L1059+4
 3720 08d6 16E0     		b	.L352
 3721              	.L599:
 3722 08d8 4FF48073 		mov	r3, #256
 3723 08dc 13E0     		b	.L352
 3724              	.L600:
 3725 08de 4FF48073 		mov	r3, #256
 3726 08e2 10E0     		b	.L352
 3727              	.L601:
 3728 08e4 4FF48073 		mov	r3, #256
 3729 08e8 0DE0     		b	.L352
 3730              	.L602:
ARM GAS  /tmp/ccIvKYQX.s 			page 92


 3731 08ea 4FF48073 		mov	r3, #256
 3732 08ee 0AE0     		b	.L352
 3733              	.L603:
 3734 08f0 4FF48023 		mov	r3, #262144
 3735 08f4 07E0     		b	.L352
 3736              	.L604:
 3737 08f6 4FF48023 		mov	r3, #262144
 3738 08fa 04E0     		b	.L352
 3739              	.L605:
 3740 08fc 4FF48023 		mov	r3, #262144
 3741 0900 01E0     		b	.L352
 3742              	.L606:
 3743 0902 4FF08073 		mov	r3, #16777216
 3744              	.L352:
 499:../Drivers/STM32F4xx_HAL_Driver/Src/stm32f4xx_hal_dma.c ****     if((tmp != RESET) || (tmp1 != RESET) || (tmp2 != RESET))
 3745              		.loc 1 499 0 discriminator 152
 3746 0906 03EA0C03 		and	r3, r3, ip
 3747 090a 55E0     		b	.L348
 3748              	.L351:
 499:../Drivers/STM32F4xx_HAL_Driver/Src/stm32f4xx_hal_dma.c ****     if((tmp != RESET) || (tmp1 != RESET) || (tmp2 != RESET))
 3749              		.loc 1 499 0 discriminator 104
 3750 090c 8A48     		ldr	r0, .L1059+8
 3751 090e D0F800C0 		ldr	ip, [r0]
 3752 0912 1030     		adds	r0, r0, #16
 3753 0914 8342     		cmp	r3, r0
 3754 0916 2ED0     		beq	.L607
 499:../Drivers/STM32F4xx_HAL_Driver/Src/stm32f4xx_hal_dma.c ****     if((tmp != RESET) || (tmp1 != RESET) || (tmp2 != RESET))
 3755              		.loc 1 499 0 discriminator 154
 3756 0918 00F58060 		add	r0, r0, #1024
 3757 091c 8342     		cmp	r3, r0
 3758 091e 2CD0     		beq	.L608
 499:../Drivers/STM32F4xx_HAL_Driver/Src/stm32f4xx_hal_dma.c ****     if((tmp != RESET) || (tmp1 != RESET) || (tmp2 != RESET))
 3759              		.loc 1 499 0 discriminator 156
 3760 0920 A0F56870 		sub	r0, r0, #928
 3761 0924 8342     		cmp	r3, r0
 3762 0926 2AD0     		beq	.L609
 499:../Drivers/STM32F4xx_HAL_Driver/Src/stm32f4xx_hal_dma.c ****     if((tmp != RESET) || (tmp1 != RESET) || (tmp2 != RESET))
 3763              		.loc 1 499 0 discriminator 158
 3764 0928 00F58060 		add	r0, r0, #1024
 3765 092c 8342     		cmp	r3, r0
 3766 092e 28D0     		beq	.L610
 499:../Drivers/STM32F4xx_HAL_Driver/Src/stm32f4xx_hal_dma.c ****     if((tmp != RESET) || (tmp1 != RESET) || (tmp2 != RESET))
 3767              		.loc 1 499 0 discriminator 160
 3768 0930 A0F58960 		sub	r0, r0, #1096
 3769 0934 8342     		cmp	r3, r0
 3770 0936 26D0     		beq	.L611
 499:../Drivers/STM32F4xx_HAL_Driver/Src/stm32f4xx_hal_dma.c ****     if((tmp != RESET) || (tmp1 != RESET) || (tmp2 != RESET))
 3771              		.loc 1 499 0 discriminator 162
 3772 0938 00F58060 		add	r0, r0, #1024
 3773 093c 8342     		cmp	r3, r0
 3774 093e 25D0     		beq	.L612
 499:../Drivers/STM32F4xx_HAL_Driver/Src/stm32f4xx_hal_dma.c ****     if((tmp != RESET) || (tmp1 != RESET) || (tmp2 != RESET))
 3775              		.loc 1 499 0 discriminator 164
 3776 0940 A0F56870 		sub	r0, r0, #928
 3777 0944 8342     		cmp	r3, r0
 3778 0946 24D0     		beq	.L613
 499:../Drivers/STM32F4xx_HAL_Driver/Src/stm32f4xx_hal_dma.c ****     if((tmp != RESET) || (tmp1 != RESET) || (tmp2 != RESET))
ARM GAS  /tmp/ccIvKYQX.s 			page 93


 3779              		.loc 1 499 0 discriminator 166
 3780 0948 00F58060 		add	r0, r0, #1024
 3781 094c 8342     		cmp	r3, r0
 3782 094e 23D0     		beq	.L614
 499:../Drivers/STM32F4xx_HAL_Driver/Src/stm32f4xx_hal_dma.c ****     if((tmp != RESET) || (tmp1 != RESET) || (tmp2 != RESET))
 3783              		.loc 1 499 0 discriminator 168
 3784 0950 A0F58960 		sub	r0, r0, #1096
 3785 0954 8342     		cmp	r3, r0
 3786 0956 22D0     		beq	.L615
 499:../Drivers/STM32F4xx_HAL_Driver/Src/stm32f4xx_hal_dma.c ****     if((tmp != RESET) || (tmp1 != RESET) || (tmp2 != RESET))
 3787              		.loc 1 499 0 discriminator 170
 3788 0958 00F58060 		add	r0, r0, #1024
 3789 095c 8342     		cmp	r3, r0
 3790 095e 21D0     		beq	.L616
 499:../Drivers/STM32F4xx_HAL_Driver/Src/stm32f4xx_hal_dma.c ****     if((tmp != RESET) || (tmp1 != RESET) || (tmp2 != RESET))
 3791              		.loc 1 499 0 discriminator 172
 3792 0960 A0F56870 		sub	r0, r0, #928
 3793 0964 8342     		cmp	r3, r0
 3794 0966 20D0     		beq	.L617
 499:../Drivers/STM32F4xx_HAL_Driver/Src/stm32f4xx_hal_dma.c ****     if((tmp != RESET) || (tmp1 != RESET) || (tmp2 != RESET))
 3795              		.loc 1 499 0 discriminator 174
 3796 0968 00F58060 		add	r0, r0, #1024
 3797 096c 8342     		cmp	r3, r0
 3798 096e 1FD1     		bne	.L618
 499:../Drivers/STM32F4xx_HAL_Driver/Src/stm32f4xx_hal_dma.c ****     if((tmp != RESET) || (tmp1 != RESET) || (tmp2 != RESET))
 3799              		.loc 1 499 0
 3800 0970 4FF48023 		mov	r3, #262144
 3801 0974 1EE0     		b	.L353
 3802              	.L607:
 3803 0976 6F4B     		ldr	r3, .L1059+4
 3804 0978 1CE0     		b	.L353
 3805              	.L608:
 3806 097a 6E4B     		ldr	r3, .L1059+4
 3807 097c 1AE0     		b	.L353
 3808              	.L609:
 3809 097e 6D4B     		ldr	r3, .L1059+4
 3810 0980 18E0     		b	.L353
 3811              	.L610:
 3812 0982 6C4B     		ldr	r3, .L1059+4
 3813 0984 16E0     		b	.L353
 3814              	.L611:
 3815 0986 4FF48073 		mov	r3, #256
 3816 098a 13E0     		b	.L353
 3817              	.L612:
 3818 098c 4FF48073 		mov	r3, #256
 3819 0990 10E0     		b	.L353
 3820              	.L613:
 3821 0992 4FF48073 		mov	r3, #256
 3822 0996 0DE0     		b	.L353
 3823              	.L614:
 3824 0998 4FF48073 		mov	r3, #256
 3825 099c 0AE0     		b	.L353
 3826              	.L615:
 3827 099e 4FF48023 		mov	r3, #262144
 3828 09a2 07E0     		b	.L353
 3829              	.L616:
 3830 09a4 4FF48023 		mov	r3, #262144
ARM GAS  /tmp/ccIvKYQX.s 			page 94


 3831 09a8 04E0     		b	.L353
 3832              	.L617:
 3833 09aa 4FF48023 		mov	r3, #262144
 3834 09ae 01E0     		b	.L353
 3835              	.L618:
 3836 09b0 4FF08073 		mov	r3, #16777216
 3837              	.L353:
 499:../Drivers/STM32F4xx_HAL_Driver/Src/stm32f4xx_hal_dma.c ****     if((tmp != RESET) || (tmp1 != RESET) || (tmp2 != RESET))
 3838              		.loc 1 499 0 discriminator 201
 3839 09b4 03EA0C03 		and	r3, r3, ip
 3840              	.L348:
 3841              	.LVL53:
 500:../Drivers/STM32F4xx_HAL_Driver/Src/stm32f4xx_hal_dma.c ****     {
 3842              		.loc 1 500 0 is_stmt 1 discriminator 204
 3843 09b8 1AB9     		cbnz	r2, .L354
 500:../Drivers/STM32F4xx_HAL_Driver/Src/stm32f4xx_hal_dma.c ****     {
 3844              		.loc 1 500 0 is_stmt 0 discriminator 1
 3845 09ba 11B9     		cbnz	r1, .L354
 500:../Drivers/STM32F4xx_HAL_Driver/Src/stm32f4xx_hal_dma.c ****     {
 3846              		.loc 1 500 0 discriminator 2
 3847 09bc 002B     		cmp	r3, #0
 3848 09be 00F04884 		beq	.L355
 3849              	.L354:
 502:../Drivers/STM32F4xx_HAL_Driver/Src/stm32f4xx_hal_dma.c ****       {
 3850              		.loc 1 502 0 is_stmt 1
 3851 09c2 002A     		cmp	r2, #0
 3852 09c4 00F06A81 		beq	.L356
 505:../Drivers/STM32F4xx_HAL_Driver/Src/stm32f4xx_hal_dma.c **** 
 3853              		.loc 1 505 0
 3854 09c8 E26C     		ldr	r2, [r4, #76]
 3855              	.LVL54:
 3856 09ca 42F00102 		orr	r2, r2, #1
 3857 09ce E264     		str	r2, [r4, #76]
 508:../Drivers/STM32F4xx_HAL_Driver/Src/stm32f4xx_hal_dma.c ****       }
 3858              		.loc 1 508 0
 3859 09d0 5A4A     		ldr	r2, .L1059+12
 3860 09d2 9645     		cmp	lr, r2
 3861 09d4 54D9     		bls	.L357
 508:../Drivers/STM32F4xx_HAL_Driver/Src/stm32f4xx_hal_dma.c ****       }
 3862              		.loc 1 508 0 is_stmt 0 discriminator 1
 3863 09d6 A2F58962 		sub	r2, r2, #1096
 3864 09da 9645     		cmp	lr, r2
 3865 09dc 2ED0     		beq	.L619
 508:../Drivers/STM32F4xx_HAL_Driver/Src/stm32f4xx_hal_dma.c ****       }
 3866              		.loc 1 508 0 discriminator 3
 3867 09de 02F58062 		add	r2, r2, #1024
 3868 09e2 9645     		cmp	lr, r2
 3869 09e4 2CD0     		beq	.L620
 508:../Drivers/STM32F4xx_HAL_Driver/Src/stm32f4xx_hal_dma.c ****       }
 3870              		.loc 1 508 0 discriminator 5
 3871 09e6 A2F56872 		sub	r2, r2, #928
 3872 09ea 9645     		cmp	lr, r2
 3873 09ec 2AD0     		beq	.L621
 508:../Drivers/STM32F4xx_HAL_Driver/Src/stm32f4xx_hal_dma.c ****       }
 3874              		.loc 1 508 0 discriminator 7
 3875 09ee 02F58062 		add	r2, r2, #1024
 3876 09f2 9645     		cmp	lr, r2
ARM GAS  /tmp/ccIvKYQX.s 			page 95


 3877 09f4 28D0     		beq	.L622
 508:../Drivers/STM32F4xx_HAL_Driver/Src/stm32f4xx_hal_dma.c ****       }
 3878              		.loc 1 508 0 discriminator 9
 3879 09f6 A2F58962 		sub	r2, r2, #1096
 3880 09fa 9645     		cmp	lr, r2
 3881 09fc 26D0     		beq	.L623
 508:../Drivers/STM32F4xx_HAL_Driver/Src/stm32f4xx_hal_dma.c ****       }
 3882              		.loc 1 508 0 discriminator 11
 3883 09fe 02F58062 		add	r2, r2, #1024
 3884 0a02 9645     		cmp	lr, r2
 3885 0a04 25D0     		beq	.L624
 508:../Drivers/STM32F4xx_HAL_Driver/Src/stm32f4xx_hal_dma.c ****       }
 3886              		.loc 1 508 0 discriminator 13
 3887 0a06 A2F56872 		sub	r2, r2, #928
 3888 0a0a 9645     		cmp	lr, r2
 3889 0a0c 24D0     		beq	.L625
 508:../Drivers/STM32F4xx_HAL_Driver/Src/stm32f4xx_hal_dma.c ****       }
 3890              		.loc 1 508 0 discriminator 15
 3891 0a0e 02F58062 		add	r2, r2, #1024
 3892 0a12 9645     		cmp	lr, r2
 3893 0a14 23D0     		beq	.L626
 508:../Drivers/STM32F4xx_HAL_Driver/Src/stm32f4xx_hal_dma.c ****       }
 3894              		.loc 1 508 0 discriminator 17
 3895 0a16 A2F58962 		sub	r2, r2, #1096
 3896 0a1a 9645     		cmp	lr, r2
 3897 0a1c 22D0     		beq	.L627
 508:../Drivers/STM32F4xx_HAL_Driver/Src/stm32f4xx_hal_dma.c ****       }
 3898              		.loc 1 508 0 discriminator 19
 3899 0a1e 02F58062 		add	r2, r2, #1024
 3900 0a22 9645     		cmp	lr, r2
 3901 0a24 21D0     		beq	.L628
 508:../Drivers/STM32F4xx_HAL_Driver/Src/stm32f4xx_hal_dma.c ****       }
 3902              		.loc 1 508 0 discriminator 21
 3903 0a26 A2F56872 		sub	r2, r2, #928
 3904 0a2a 9645     		cmp	lr, r2
 3905 0a2c 20D0     		beq	.L629
 508:../Drivers/STM32F4xx_HAL_Driver/Src/stm32f4xx_hal_dma.c ****       }
 3906              		.loc 1 508 0 discriminator 23
 3907 0a2e 02F58062 		add	r2, r2, #1024
 3908 0a32 9645     		cmp	lr, r2
 3909 0a34 1FD1     		bne	.L630
 508:../Drivers/STM32F4xx_HAL_Driver/Src/stm32f4xx_hal_dma.c ****       }
 3910              		.loc 1 508 0
 3911 0a36 4FF40022 		mov	r2, #524288
 3912 0a3a 1EE0     		b	.L358
 3913              	.L619:
 3914 0a3c 0822     		movs	r2, #8
 3915 0a3e 1CE0     		b	.L358
 3916              	.L620:
 3917 0a40 0822     		movs	r2, #8
 3918 0a42 1AE0     		b	.L358
 3919              	.L621:
 3920 0a44 0822     		movs	r2, #8
 3921 0a46 18E0     		b	.L358
 3922              	.L622:
 3923 0a48 0822     		movs	r2, #8
 3924 0a4a 16E0     		b	.L358
ARM GAS  /tmp/ccIvKYQX.s 			page 96


 3925              	.L623:
 3926 0a4c 4FF40072 		mov	r2, #512
 3927 0a50 13E0     		b	.L358
 3928              	.L624:
 3929 0a52 4FF40072 		mov	r2, #512
 3930 0a56 10E0     		b	.L358
 3931              	.L625:
 3932 0a58 4FF40072 		mov	r2, #512
 3933 0a5c 0DE0     		b	.L358
 3934              	.L626:
 3935 0a5e 4FF40072 		mov	r2, #512
 3936 0a62 0AE0     		b	.L358
 3937              	.L627:
 3938 0a64 4FF40022 		mov	r2, #524288
 3939 0a68 07E0     		b	.L358
 3940              	.L628:
 3941 0a6a 4FF40022 		mov	r2, #524288
 3942 0a6e 04E0     		b	.L358
 3943              	.L629:
 3944 0a70 4FF40022 		mov	r2, #524288
 3945 0a74 01E0     		b	.L358
 3946              	.L630:
 3947 0a76 4FF00072 		mov	r2, #33554432
 3948              	.L358:
 508:../Drivers/STM32F4xx_HAL_Driver/Src/stm32f4xx_hal_dma.c ****       }
 3949              		.loc 1 508 0 discriminator 50
 3950 0a7a 3148     		ldr	r0, .L1059+16
 3951 0a7c C260     		str	r2, [r0, #12]
 3952 0a7e 0DE1     		b	.L356
 3953              	.L357:
 508:../Drivers/STM32F4xx_HAL_Driver/Src/stm32f4xx_hal_dma.c ****       }
 3954              		.loc 1 508 0 discriminator 2
 3955 0a80 304A     		ldr	r2, .L1059+20
 3956 0a82 9645     		cmp	lr, r2
 3957 0a84 60D9     		bls	.L359
 508:../Drivers/STM32F4xx_HAL_Driver/Src/stm32f4xx_hal_dma.c ****       }
 3958              		.loc 1 508 0 discriminator 51
 3959 0a86 A83A     		subs	r2, r2, #168
 3960 0a88 9645     		cmp	lr, r2
 3961 0a8a 2ED0     		beq	.L631
 508:../Drivers/STM32F4xx_HAL_Driver/Src/stm32f4xx_hal_dma.c ****       }
 3962              		.loc 1 508 0 discriminator 53
 3963 0a8c 02F58062 		add	r2, r2, #1024
 3964 0a90 9645     		cmp	lr, r2
 3965 0a92 2CD0     		beq	.L632
 508:../Drivers/STM32F4xx_HAL_Driver/Src/stm32f4xx_hal_dma.c ****       }
 3966              		.loc 1 508 0 discriminator 55
 3967 0a94 A2F56872 		sub	r2, r2, #928
 3968 0a98 9645     		cmp	lr, r2
 3969 0a9a 2AD0     		beq	.L633
 508:../Drivers/STM32F4xx_HAL_Driver/Src/stm32f4xx_hal_dma.c ****       }
 3970              		.loc 1 508 0 discriminator 57
 3971 0a9c 02F58062 		add	r2, r2, #1024
 3972 0aa0 9645     		cmp	lr, r2
 3973 0aa2 28D0     		beq	.L634
 508:../Drivers/STM32F4xx_HAL_Driver/Src/stm32f4xx_hal_dma.c ****       }
 3974              		.loc 1 508 0 discriminator 59
ARM GAS  /tmp/ccIvKYQX.s 			page 97


 3975 0aa4 A2F58962 		sub	r2, r2, #1096
 3976 0aa8 9645     		cmp	lr, r2
 3977 0aaa 26D0     		beq	.L635
 508:../Drivers/STM32F4xx_HAL_Driver/Src/stm32f4xx_hal_dma.c ****       }
 3978              		.loc 1 508 0 discriminator 61
 3979 0aac 02F58062 		add	r2, r2, #1024
 3980 0ab0 9645     		cmp	lr, r2
 3981 0ab2 25D0     		beq	.L636
 508:../Drivers/STM32F4xx_HAL_Driver/Src/stm32f4xx_hal_dma.c ****       }
 3982              		.loc 1 508 0 discriminator 63
 3983 0ab4 A2F56872 		sub	r2, r2, #928
 3984 0ab8 9645     		cmp	lr, r2
 3985 0aba 24D0     		beq	.L637
 508:../Drivers/STM32F4xx_HAL_Driver/Src/stm32f4xx_hal_dma.c ****       }
 3986              		.loc 1 508 0 discriminator 65
 3987 0abc 02F58062 		add	r2, r2, #1024
 3988 0ac0 9645     		cmp	lr, r2
 3989 0ac2 23D0     		beq	.L638
 508:../Drivers/STM32F4xx_HAL_Driver/Src/stm32f4xx_hal_dma.c ****       }
 3990              		.loc 1 508 0 discriminator 67
 3991 0ac4 A2F58962 		sub	r2, r2, #1096
 3992 0ac8 9645     		cmp	lr, r2
 3993 0aca 22D0     		beq	.L639
 508:../Drivers/STM32F4xx_HAL_Driver/Src/stm32f4xx_hal_dma.c ****       }
 3994              		.loc 1 508 0 discriminator 69
 3995 0acc 02F58062 		add	r2, r2, #1024
 3996 0ad0 9645     		cmp	lr, r2
 3997 0ad2 21D0     		beq	.L640
 508:../Drivers/STM32F4xx_HAL_Driver/Src/stm32f4xx_hal_dma.c ****       }
 3998              		.loc 1 508 0 discriminator 71
 3999 0ad4 A2F56872 		sub	r2, r2, #928
 4000 0ad8 9645     		cmp	lr, r2
 4001 0ada 20D0     		beq	.L641
 508:../Drivers/STM32F4xx_HAL_Driver/Src/stm32f4xx_hal_dma.c ****       }
 4002              		.loc 1 508 0 discriminator 73
 4003 0adc 02F58062 		add	r2, r2, #1024
 4004 0ae0 9645     		cmp	lr, r2
 4005 0ae2 1FD1     		bne	.L642
 508:../Drivers/STM32F4xx_HAL_Driver/Src/stm32f4xx_hal_dma.c ****       }
 4006              		.loc 1 508 0
 4007 0ae4 4FF40022 		mov	r2, #524288
 4008 0ae8 1EE0     		b	.L360
 4009              	.L631:
 4010 0aea 0822     		movs	r2, #8
 4011 0aec 1CE0     		b	.L360
 4012              	.L632:
 4013 0aee 0822     		movs	r2, #8
 4014 0af0 1AE0     		b	.L360
 4015              	.L633:
 4016 0af2 0822     		movs	r2, #8
 4017 0af4 18E0     		b	.L360
 4018              	.L634:
 4019 0af6 0822     		movs	r2, #8
 4020 0af8 16E0     		b	.L360
 4021              	.L635:
 4022 0afa 4FF40072 		mov	r2, #512
 4023 0afe 13E0     		b	.L360
ARM GAS  /tmp/ccIvKYQX.s 			page 98


 4024              	.L636:
 4025 0b00 4FF40072 		mov	r2, #512
 4026 0b04 10E0     		b	.L360
 4027              	.L637:
 4028 0b06 4FF40072 		mov	r2, #512
 4029 0b0a 0DE0     		b	.L360
 4030              	.L638:
 4031 0b0c 4FF40072 		mov	r2, #512
 4032 0b10 0AE0     		b	.L360
 4033              	.L639:
 4034 0b12 4FF40022 		mov	r2, #524288
 4035 0b16 07E0     		b	.L360
 4036              	.L640:
 4037 0b18 4FF40022 		mov	r2, #524288
 4038 0b1c 04E0     		b	.L360
 4039              	.L641:
 4040 0b1e 4FF40022 		mov	r2, #524288
 4041 0b22 01E0     		b	.L360
 4042              	.L642:
 4043 0b24 4FF00072 		mov	r2, #33554432
 4044              	.L360:
 508:../Drivers/STM32F4xx_HAL_Driver/Src/stm32f4xx_hal_dma.c ****       }
 4045              		.loc 1 508 0 discriminator 100
 4046 0b28 0548     		ldr	r0, .L1059+16
 4047 0b2a 8260     		str	r2, [r0, #8]
 4048 0b2c B6E0     		b	.L356
 4049              	.L1060:
 4050 0b2e 00BF     		.align	2
 4051              	.L1059:
 4052 0b30 58600240 		.word	1073897560
 4053 0b34 04008000 		.word	8388612
 4054 0b38 00600240 		.word	1073897472
 4055 0b3c 58640240 		.word	1073898584
 4056 0b40 00640240 		.word	1073898496
 4057 0b44 B8600240 		.word	1073897656
 4058              	.L359:
 508:../Drivers/STM32F4xx_HAL_Driver/Src/stm32f4xx_hal_dma.c ****       }
 4059              		.loc 1 508 0 discriminator 52
 4060 0b48 AC4A     		ldr	r2, .L1061
 4061 0b4a 9645     		cmp	lr, r2
 4062 0b4c 53D9     		bls	.L362
 508:../Drivers/STM32F4xx_HAL_Driver/Src/stm32f4xx_hal_dma.c ****       }
 4063              		.loc 1 508 0 discriminator 102
 4064 0b4e 483A     		subs	r2, r2, #72
 4065 0b50 9645     		cmp	lr, r2
 4066 0b52 2ED0     		beq	.L643
 508:../Drivers/STM32F4xx_HAL_Driver/Src/stm32f4xx_hal_dma.c ****       }
 4067              		.loc 1 508 0 discriminator 104
 4068 0b54 02F58062 		add	r2, r2, #1024
 4069 0b58 9645     		cmp	lr, r2
 4070 0b5a 2CD0     		beq	.L644
 508:../Drivers/STM32F4xx_HAL_Driver/Src/stm32f4xx_hal_dma.c ****       }
 4071              		.loc 1 508 0 discriminator 106
 4072 0b5c A2F56872 		sub	r2, r2, #928
 4073 0b60 9645     		cmp	lr, r2
 4074 0b62 2AD0     		beq	.L645
 508:../Drivers/STM32F4xx_HAL_Driver/Src/stm32f4xx_hal_dma.c ****       }
ARM GAS  /tmp/ccIvKYQX.s 			page 99


 4075              		.loc 1 508 0 discriminator 108
 4076 0b64 02F58062 		add	r2, r2, #1024
 4077 0b68 9645     		cmp	lr, r2
 4078 0b6a 28D0     		beq	.L646
 508:../Drivers/STM32F4xx_HAL_Driver/Src/stm32f4xx_hal_dma.c ****       }
 4079              		.loc 1 508 0 discriminator 110
 4080 0b6c A2F58962 		sub	r2, r2, #1096
 4081 0b70 9645     		cmp	lr, r2
 4082 0b72 26D0     		beq	.L647
 508:../Drivers/STM32F4xx_HAL_Driver/Src/stm32f4xx_hal_dma.c ****       }
 4083              		.loc 1 508 0 discriminator 112
 4084 0b74 02F58062 		add	r2, r2, #1024
 4085 0b78 9645     		cmp	lr, r2
 4086 0b7a 25D0     		beq	.L648
 508:../Drivers/STM32F4xx_HAL_Driver/Src/stm32f4xx_hal_dma.c ****       }
 4087              		.loc 1 508 0 discriminator 114
 4088 0b7c A2F56872 		sub	r2, r2, #928
 4089 0b80 9645     		cmp	lr, r2
 4090 0b82 24D0     		beq	.L649
 508:../Drivers/STM32F4xx_HAL_Driver/Src/stm32f4xx_hal_dma.c ****       }
 4091              		.loc 1 508 0 discriminator 116
 4092 0b84 02F58062 		add	r2, r2, #1024
 4093 0b88 9645     		cmp	lr, r2
 4094 0b8a 23D0     		beq	.L650
 508:../Drivers/STM32F4xx_HAL_Driver/Src/stm32f4xx_hal_dma.c ****       }
 4095              		.loc 1 508 0 discriminator 118
 4096 0b8c A2F58962 		sub	r2, r2, #1096
 4097 0b90 9645     		cmp	lr, r2
 4098 0b92 22D0     		beq	.L651
 508:../Drivers/STM32F4xx_HAL_Driver/Src/stm32f4xx_hal_dma.c ****       }
 4099              		.loc 1 508 0 discriminator 120
 4100 0b94 02F58062 		add	r2, r2, #1024
 4101 0b98 9645     		cmp	lr, r2
 4102 0b9a 21D0     		beq	.L652
 508:../Drivers/STM32F4xx_HAL_Driver/Src/stm32f4xx_hal_dma.c ****       }
 4103              		.loc 1 508 0 discriminator 122
 4104 0b9c A2F56872 		sub	r2, r2, #928
 4105 0ba0 9645     		cmp	lr, r2
 4106 0ba2 20D0     		beq	.L653
 508:../Drivers/STM32F4xx_HAL_Driver/Src/stm32f4xx_hal_dma.c ****       }
 4107              		.loc 1 508 0 discriminator 124
 4108 0ba4 02F58062 		add	r2, r2, #1024
 4109 0ba8 9645     		cmp	lr, r2
 4110 0baa 1FD1     		bne	.L654
 508:../Drivers/STM32F4xx_HAL_Driver/Src/stm32f4xx_hal_dma.c ****       }
 4111              		.loc 1 508 0
 4112 0bac 4FF40022 		mov	r2, #524288
 4113 0bb0 1EE0     		b	.L363
 4114              	.L643:
 4115 0bb2 0822     		movs	r2, #8
 4116 0bb4 1CE0     		b	.L363
 4117              	.L644:
 4118 0bb6 0822     		movs	r2, #8
 4119 0bb8 1AE0     		b	.L363
 4120              	.L645:
 4121 0bba 0822     		movs	r2, #8
 4122 0bbc 18E0     		b	.L363
ARM GAS  /tmp/ccIvKYQX.s 			page 100


 4123              	.L646:
 4124 0bbe 0822     		movs	r2, #8
 4125 0bc0 16E0     		b	.L363
 4126              	.L647:
 4127 0bc2 4FF40072 		mov	r2, #512
 4128 0bc6 13E0     		b	.L363
 4129              	.L648:
 4130 0bc8 4FF40072 		mov	r2, #512
 4131 0bcc 10E0     		b	.L363
 4132              	.L649:
 4133 0bce 4FF40072 		mov	r2, #512
 4134 0bd2 0DE0     		b	.L363
 4135              	.L650:
 4136 0bd4 4FF40072 		mov	r2, #512
 4137 0bd8 0AE0     		b	.L363
 4138              	.L651:
 4139 0bda 4FF40022 		mov	r2, #524288
 4140 0bde 07E0     		b	.L363
 4141              	.L652:
 4142 0be0 4FF40022 		mov	r2, #524288
 4143 0be4 04E0     		b	.L363
 4144              	.L653:
 4145 0be6 4FF40022 		mov	r2, #524288
 4146 0bea 01E0     		b	.L363
 4147              	.L654:
 4148 0bec 4FF00072 		mov	r2, #33554432
 4149              	.L363:
 508:../Drivers/STM32F4xx_HAL_Driver/Src/stm32f4xx_hal_dma.c ****       }
 4150              		.loc 1 508 0 discriminator 151
 4151 0bf0 8348     		ldr	r0, .L1061+4
 4152 0bf2 C260     		str	r2, [r0, #12]
 4153 0bf4 52E0     		b	.L356
 4154              	.L362:
 508:../Drivers/STM32F4xx_HAL_Driver/Src/stm32f4xx_hal_dma.c ****       }
 4155              		.loc 1 508 0 discriminator 103
 4156 0bf6 834A     		ldr	r2, .L1061+8
 4157 0bf8 9645     		cmp	lr, r2
 4158 0bfa 2ED0     		beq	.L655
 508:../Drivers/STM32F4xx_HAL_Driver/Src/stm32f4xx_hal_dma.c ****       }
 4159              		.loc 1 508 0 discriminator 153
 4160 0bfc 02F58062 		add	r2, r2, #1024
 4161 0c00 9645     		cmp	lr, r2
 4162 0c02 2CD0     		beq	.L656
 508:../Drivers/STM32F4xx_HAL_Driver/Src/stm32f4xx_hal_dma.c ****       }
 4163              		.loc 1 508 0 discriminator 155
 4164 0c04 A2F56872 		sub	r2, r2, #928
 4165 0c08 9645     		cmp	lr, r2
 4166 0c0a 2AD0     		beq	.L657
 508:../Drivers/STM32F4xx_HAL_Driver/Src/stm32f4xx_hal_dma.c ****       }
 4167              		.loc 1 508 0 discriminator 157
 4168 0c0c 02F58062 		add	r2, r2, #1024
 4169 0c10 9645     		cmp	lr, r2
 4170 0c12 28D0     		beq	.L658
 508:../Drivers/STM32F4xx_HAL_Driver/Src/stm32f4xx_hal_dma.c ****       }
 4171              		.loc 1 508 0 discriminator 159
 4172 0c14 A2F58962 		sub	r2, r2, #1096
 4173 0c18 9645     		cmp	lr, r2
ARM GAS  /tmp/ccIvKYQX.s 			page 101


 4174 0c1a 26D0     		beq	.L659
 508:../Drivers/STM32F4xx_HAL_Driver/Src/stm32f4xx_hal_dma.c ****       }
 4175              		.loc 1 508 0 discriminator 161
 4176 0c1c 02F58062 		add	r2, r2, #1024
 4177 0c20 9645     		cmp	lr, r2
 4178 0c22 25D0     		beq	.L660
 508:../Drivers/STM32F4xx_HAL_Driver/Src/stm32f4xx_hal_dma.c ****       }
 4179              		.loc 1 508 0 discriminator 163
 4180 0c24 A2F56872 		sub	r2, r2, #928
 4181 0c28 9645     		cmp	lr, r2
 4182 0c2a 24D0     		beq	.L661
 508:../Drivers/STM32F4xx_HAL_Driver/Src/stm32f4xx_hal_dma.c ****       }
 4183              		.loc 1 508 0 discriminator 165
 4184 0c2c 02F58062 		add	r2, r2, #1024
 4185 0c30 9645     		cmp	lr, r2
 4186 0c32 23D0     		beq	.L662
 508:../Drivers/STM32F4xx_HAL_Driver/Src/stm32f4xx_hal_dma.c ****       }
 4187              		.loc 1 508 0 discriminator 167
 4188 0c34 A2F58962 		sub	r2, r2, #1096
 4189 0c38 9645     		cmp	lr, r2
 4190 0c3a 22D0     		beq	.L663
 508:../Drivers/STM32F4xx_HAL_Driver/Src/stm32f4xx_hal_dma.c ****       }
 4191              		.loc 1 508 0 discriminator 169
 4192 0c3c 02F58062 		add	r2, r2, #1024
 4193 0c40 9645     		cmp	lr, r2
 4194 0c42 21D0     		beq	.L664
 508:../Drivers/STM32F4xx_HAL_Driver/Src/stm32f4xx_hal_dma.c ****       }
 4195              		.loc 1 508 0 discriminator 171
 4196 0c44 A2F56872 		sub	r2, r2, #928
 4197 0c48 9645     		cmp	lr, r2
 4198 0c4a 20D0     		beq	.L665
 508:../Drivers/STM32F4xx_HAL_Driver/Src/stm32f4xx_hal_dma.c ****       }
 4199              		.loc 1 508 0 discriminator 173
 4200 0c4c 02F58062 		add	r2, r2, #1024
 4201 0c50 9645     		cmp	lr, r2
 4202 0c52 1FD1     		bne	.L666
 508:../Drivers/STM32F4xx_HAL_Driver/Src/stm32f4xx_hal_dma.c ****       }
 4203              		.loc 1 508 0
 4204 0c54 4FF40022 		mov	r2, #524288
 4205 0c58 1EE0     		b	.L364
 4206              	.L655:
 4207 0c5a 0822     		movs	r2, #8
 4208 0c5c 1CE0     		b	.L364
 4209              	.L656:
 4210 0c5e 0822     		movs	r2, #8
 4211 0c60 1AE0     		b	.L364
 4212              	.L657:
 4213 0c62 0822     		movs	r2, #8
 4214 0c64 18E0     		b	.L364
 4215              	.L658:
 4216 0c66 0822     		movs	r2, #8
 4217 0c68 16E0     		b	.L364
 4218              	.L659:
 4219 0c6a 4FF40072 		mov	r2, #512
 4220 0c6e 13E0     		b	.L364
 4221              	.L660:
 4222 0c70 4FF40072 		mov	r2, #512
ARM GAS  /tmp/ccIvKYQX.s 			page 102


 4223 0c74 10E0     		b	.L364
 4224              	.L661:
 4225 0c76 4FF40072 		mov	r2, #512
 4226 0c7a 0DE0     		b	.L364
 4227              	.L662:
 4228 0c7c 4FF40072 		mov	r2, #512
 4229 0c80 0AE0     		b	.L364
 4230              	.L663:
 4231 0c82 4FF40022 		mov	r2, #524288
 4232 0c86 07E0     		b	.L364
 4233              	.L664:
 4234 0c88 4FF40022 		mov	r2, #524288
 4235 0c8c 04E0     		b	.L364
 4236              	.L665:
 4237 0c8e 4FF40022 		mov	r2, #524288
 4238 0c92 01E0     		b	.L364
 4239              	.L666:
 4240 0c94 4FF00072 		mov	r2, #33554432
 4241              	.L364:
 508:../Drivers/STM32F4xx_HAL_Driver/Src/stm32f4xx_hal_dma.c ****       }
 4242              		.loc 1 508 0 discriminator 200
 4243 0c98 5948     		ldr	r0, .L1061+4
 4244 0c9a 8260     		str	r2, [r0, #8]
 4245              	.L356:
 510:../Drivers/STM32F4xx_HAL_Driver/Src/stm32f4xx_hal_dma.c ****       {
 4246              		.loc 1 510 0 is_stmt 1
 4247 0c9c 0029     		cmp	r1, #0
 4248 0c9e 00F05D81 		beq	.L365
 513:../Drivers/STM32F4xx_HAL_Driver/Src/stm32f4xx_hal_dma.c ****  
 4249              		.loc 1 513 0
 4250 0ca2 E26C     		ldr	r2, [r4, #76]
 4251 0ca4 42F00202 		orr	r2, r2, #2
 4252 0ca8 E264     		str	r2, [r4, #76]
 516:../Drivers/STM32F4xx_HAL_Driver/Src/stm32f4xx_hal_dma.c ****       }
 4253              		.loc 1 516 0
 4254 0caa 2268     		ldr	r2, [r4]
 4255 0cac 5649     		ldr	r1, .L1061+12
 4256              	.LVL55:
 4257 0cae 8A42     		cmp	r2, r1
 4258 0cb0 50D9     		bls	.L366
 516:../Drivers/STM32F4xx_HAL_Driver/Src/stm32f4xx_hal_dma.c ****       }
 4259              		.loc 1 516 0 is_stmt 0 discriminator 1
 4260 0cb2 A1F58961 		sub	r1, r1, #1096
 4261 0cb6 8A42     		cmp	r2, r1
 4262 0cb8 2ED0     		beq	.L667
 516:../Drivers/STM32F4xx_HAL_Driver/Src/stm32f4xx_hal_dma.c ****       }
 4263              		.loc 1 516 0 discriminator 3
 4264 0cba 01F58061 		add	r1, r1, #1024
 4265 0cbe 8A42     		cmp	r2, r1
 4266 0cc0 2CD0     		beq	.L668
 516:../Drivers/STM32F4xx_HAL_Driver/Src/stm32f4xx_hal_dma.c ****       }
 4267              		.loc 1 516 0 discriminator 5
 4268 0cc2 A1F56871 		sub	r1, r1, #928
 4269 0cc6 8A42     		cmp	r2, r1
 4270 0cc8 2AD0     		beq	.L669
 516:../Drivers/STM32F4xx_HAL_Driver/Src/stm32f4xx_hal_dma.c ****       }
 4271              		.loc 1 516 0 discriminator 7
ARM GAS  /tmp/ccIvKYQX.s 			page 103


 4272 0cca 01F58061 		add	r1, r1, #1024
 4273 0cce 8A42     		cmp	r2, r1
 4274 0cd0 28D0     		beq	.L670
 516:../Drivers/STM32F4xx_HAL_Driver/Src/stm32f4xx_hal_dma.c ****       }
 4275              		.loc 1 516 0 discriminator 9
 4276 0cd2 A1F58961 		sub	r1, r1, #1096
 4277 0cd6 8A42     		cmp	r2, r1
 4278 0cd8 26D0     		beq	.L671
 516:../Drivers/STM32F4xx_HAL_Driver/Src/stm32f4xx_hal_dma.c ****       }
 4279              		.loc 1 516 0 discriminator 11
 4280 0cda 01F58061 		add	r1, r1, #1024
 4281 0cde 8A42     		cmp	r2, r1
 4282 0ce0 24D0     		beq	.L672
 516:../Drivers/STM32F4xx_HAL_Driver/Src/stm32f4xx_hal_dma.c ****       }
 4283              		.loc 1 516 0 discriminator 13
 4284 0ce2 A1F56871 		sub	r1, r1, #928
 4285 0ce6 8A42     		cmp	r2, r1
 4286 0ce8 22D0     		beq	.L673
 516:../Drivers/STM32F4xx_HAL_Driver/Src/stm32f4xx_hal_dma.c ****       }
 4287              		.loc 1 516 0 discriminator 15
 4288 0cea 01F58061 		add	r1, r1, #1024
 4289 0cee 8A42     		cmp	r2, r1
 4290 0cf0 20D0     		beq	.L674
 516:../Drivers/STM32F4xx_HAL_Driver/Src/stm32f4xx_hal_dma.c ****       }
 4291              		.loc 1 516 0 discriminator 17
 4292 0cf2 A1F58961 		sub	r1, r1, #1096
 4293 0cf6 8A42     		cmp	r2, r1
 4294 0cf8 1ED0     		beq	.L675
 516:../Drivers/STM32F4xx_HAL_Driver/Src/stm32f4xx_hal_dma.c ****       }
 4295              		.loc 1 516 0 discriminator 19
 4296 0cfa 01F58061 		add	r1, r1, #1024
 4297 0cfe 8A42     		cmp	r2, r1
 4298 0d00 1DD0     		beq	.L676
 516:../Drivers/STM32F4xx_HAL_Driver/Src/stm32f4xx_hal_dma.c ****       }
 4299              		.loc 1 516 0 discriminator 21
 4300 0d02 A1F56871 		sub	r1, r1, #928
 4301 0d06 8A42     		cmp	r2, r1
 4302 0d08 1CD0     		beq	.L677
 516:../Drivers/STM32F4xx_HAL_Driver/Src/stm32f4xx_hal_dma.c ****       }
 4303              		.loc 1 516 0 discriminator 23
 4304 0d0a 01F58061 		add	r1, r1, #1024
 4305 0d0e 8A42     		cmp	r2, r1
 4306 0d10 1BD1     		bne	.L678
 516:../Drivers/STM32F4xx_HAL_Driver/Src/stm32f4xx_hal_dma.c ****       }
 4307              		.loc 1 516 0
 4308 0d12 4FF48032 		mov	r2, #65536
 4309 0d16 1AE0     		b	.L367
 4310              	.L667:
 4311 0d18 3C4A     		ldr	r2, .L1061+16
 4312 0d1a 18E0     		b	.L367
 4313              	.L668:
 4314 0d1c 3B4A     		ldr	r2, .L1061+16
 4315 0d1e 16E0     		b	.L367
 4316              	.L669:
 4317 0d20 3A4A     		ldr	r2, .L1061+16
 4318 0d22 14E0     		b	.L367
 4319              	.L670:
ARM GAS  /tmp/ccIvKYQX.s 			page 104


 4320 0d24 394A     		ldr	r2, .L1061+16
 4321 0d26 12E0     		b	.L367
 4322              	.L671:
 4323 0d28 4022     		movs	r2, #64
 4324 0d2a 10E0     		b	.L367
 4325              	.L672:
 4326 0d2c 4022     		movs	r2, #64
 4327 0d2e 0EE0     		b	.L367
 4328              	.L673:
 4329 0d30 4022     		movs	r2, #64
 4330 0d32 0CE0     		b	.L367
 4331              	.L674:
 4332 0d34 4022     		movs	r2, #64
 4333 0d36 0AE0     		b	.L367
 4334              	.L675:
 4335 0d38 4FF48032 		mov	r2, #65536
 4336 0d3c 07E0     		b	.L367
 4337              	.L676:
 4338 0d3e 4FF48032 		mov	r2, #65536
 4339 0d42 04E0     		b	.L367
 4340              	.L677:
 4341 0d44 4FF48032 		mov	r2, #65536
 4342 0d48 01E0     		b	.L367
 4343              	.L678:
 4344 0d4a 4FF48002 		mov	r2, #4194304
 4345              	.L367:
 516:../Drivers/STM32F4xx_HAL_Driver/Src/stm32f4xx_hal_dma.c ****       }
 4346              		.loc 1 516 0 discriminator 50
 4347 0d4e 3049     		ldr	r1, .L1061+20
 4348 0d50 CA60     		str	r2, [r1, #12]
 4349 0d52 03E1     		b	.L365
 4350              	.L366:
 516:../Drivers/STM32F4xx_HAL_Driver/Src/stm32f4xx_hal_dma.c ****       }
 4351              		.loc 1 516 0 discriminator 2
 4352 0d54 2F49     		ldr	r1, .L1061+24
 4353 0d56 8A42     		cmp	r2, r1
 4354 0d58 5ED9     		bls	.L368
 516:../Drivers/STM32F4xx_HAL_Driver/Src/stm32f4xx_hal_dma.c ****       }
 4355              		.loc 1 516 0 discriminator 51
 4356 0d5a A839     		subs	r1, r1, #168
 4357 0d5c 8A42     		cmp	r2, r1
 4358 0d5e 2ED0     		beq	.L679
 516:../Drivers/STM32F4xx_HAL_Driver/Src/stm32f4xx_hal_dma.c ****       }
 4359              		.loc 1 516 0 discriminator 53
 4360 0d60 01F58061 		add	r1, r1, #1024
 4361 0d64 8A42     		cmp	r2, r1
 4362 0d66 2CD0     		beq	.L680
 516:../Drivers/STM32F4xx_HAL_Driver/Src/stm32f4xx_hal_dma.c ****       }
 4363              		.loc 1 516 0 discriminator 55
 4364 0d68 A1F56871 		sub	r1, r1, #928
 4365 0d6c 8A42     		cmp	r2, r1
 4366 0d6e 2AD0     		beq	.L681
 516:../Drivers/STM32F4xx_HAL_Driver/Src/stm32f4xx_hal_dma.c ****       }
 4367              		.loc 1 516 0 discriminator 57
 4368 0d70 01F58061 		add	r1, r1, #1024
 4369 0d74 8A42     		cmp	r2, r1
 4370 0d76 28D0     		beq	.L682
ARM GAS  /tmp/ccIvKYQX.s 			page 105


 516:../Drivers/STM32F4xx_HAL_Driver/Src/stm32f4xx_hal_dma.c ****       }
 4371              		.loc 1 516 0 discriminator 59
 4372 0d78 A1F58961 		sub	r1, r1, #1096
 4373 0d7c 8A42     		cmp	r2, r1
 4374 0d7e 26D0     		beq	.L683
 516:../Drivers/STM32F4xx_HAL_Driver/Src/stm32f4xx_hal_dma.c ****       }
 4375              		.loc 1 516 0 discriminator 61
 4376 0d80 01F58061 		add	r1, r1, #1024
 4377 0d84 8A42     		cmp	r2, r1
 4378 0d86 24D0     		beq	.L684
 516:../Drivers/STM32F4xx_HAL_Driver/Src/stm32f4xx_hal_dma.c ****       }
 4379              		.loc 1 516 0 discriminator 63
 4380 0d88 A1F56871 		sub	r1, r1, #928
 4381 0d8c 8A42     		cmp	r2, r1
 4382 0d8e 22D0     		beq	.L685
 516:../Drivers/STM32F4xx_HAL_Driver/Src/stm32f4xx_hal_dma.c ****       }
 4383              		.loc 1 516 0 discriminator 65
 4384 0d90 01F58061 		add	r1, r1, #1024
 4385 0d94 8A42     		cmp	r2, r1
 4386 0d96 20D0     		beq	.L686
 516:../Drivers/STM32F4xx_HAL_Driver/Src/stm32f4xx_hal_dma.c ****       }
 4387              		.loc 1 516 0 discriminator 67
 4388 0d98 A1F58961 		sub	r1, r1, #1096
 4389 0d9c 8A42     		cmp	r2, r1
 4390 0d9e 1ED0     		beq	.L687
 516:../Drivers/STM32F4xx_HAL_Driver/Src/stm32f4xx_hal_dma.c ****       }
 4391              		.loc 1 516 0 discriminator 69
 4392 0da0 01F58061 		add	r1, r1, #1024
 4393 0da4 8A42     		cmp	r2, r1
 4394 0da6 1DD0     		beq	.L688
 516:../Drivers/STM32F4xx_HAL_Driver/Src/stm32f4xx_hal_dma.c ****       }
 4395              		.loc 1 516 0 discriminator 71
 4396 0da8 A1F56871 		sub	r1, r1, #928
 4397 0dac 8A42     		cmp	r2, r1
 4398 0dae 1CD0     		beq	.L689
 516:../Drivers/STM32F4xx_HAL_Driver/Src/stm32f4xx_hal_dma.c ****       }
 4399              		.loc 1 516 0 discriminator 73
 4400 0db0 01F58061 		add	r1, r1, #1024
 4401 0db4 8A42     		cmp	r2, r1
 4402 0db6 1BD1     		bne	.L690
 516:../Drivers/STM32F4xx_HAL_Driver/Src/stm32f4xx_hal_dma.c ****       }
 4403              		.loc 1 516 0
 4404 0db8 4FF48032 		mov	r2, #65536
 4405 0dbc 1AE0     		b	.L369
 4406              	.L679:
 4407 0dbe 134A     		ldr	r2, .L1061+16
 4408 0dc0 18E0     		b	.L369
 4409              	.L680:
 4410 0dc2 124A     		ldr	r2, .L1061+16
 4411 0dc4 16E0     		b	.L369
 4412              	.L681:
 4413 0dc6 114A     		ldr	r2, .L1061+16
 4414 0dc8 14E0     		b	.L369
 4415              	.L682:
 4416 0dca 104A     		ldr	r2, .L1061+16
 4417 0dcc 12E0     		b	.L369
 4418              	.L683:
ARM GAS  /tmp/ccIvKYQX.s 			page 106


 4419 0dce 4022     		movs	r2, #64
 4420 0dd0 10E0     		b	.L369
 4421              	.L684:
 4422 0dd2 4022     		movs	r2, #64
 4423 0dd4 0EE0     		b	.L369
 4424              	.L685:
 4425 0dd6 4022     		movs	r2, #64
 4426 0dd8 0CE0     		b	.L369
 4427              	.L686:
 4428 0dda 4022     		movs	r2, #64
 4429 0ddc 0AE0     		b	.L369
 4430              	.L687:
 4431 0dde 4FF48032 		mov	r2, #65536
 4432 0de2 07E0     		b	.L369
 4433              	.L688:
 4434 0de4 4FF48032 		mov	r2, #65536
 4435 0de8 04E0     		b	.L369
 4436              	.L689:
 4437 0dea 4FF48032 		mov	r2, #65536
 4438 0dee 01E0     		b	.L369
 4439              	.L690:
 4440 0df0 4FF48002 		mov	r2, #4194304
 4441              	.L369:
 516:../Drivers/STM32F4xx_HAL_Driver/Src/stm32f4xx_hal_dma.c ****       }
 4442              		.loc 1 516 0 discriminator 100
 4443 0df4 0649     		ldr	r1, .L1061+20
 4444 0df6 8A60     		str	r2, [r1, #8]
 4445 0df8 B0E0     		b	.L365
 4446              	.L1062:
 4447 0dfa 00BF     		.align	2
 4448              	.L1061:
 4449 0dfc 58600240 		.word	1073897560
 4450 0e00 00600240 		.word	1073897472
 4451 0e04 10600240 		.word	1073897488
 4452 0e08 58640240 		.word	1073898584
 4453 0e0c 01008000 		.word	8388609
 4454 0e10 00640240 		.word	1073898496
 4455 0e14 B8600240 		.word	1073897656
 4456              	.L368:
 516:../Drivers/STM32F4xx_HAL_Driver/Src/stm32f4xx_hal_dma.c ****       }
 4457              		.loc 1 516 0 discriminator 52
 4458 0e18 AC49     		ldr	r1, .L1063
 4459 0e1a 8A42     		cmp	r2, r1
 4460 0e1c 4FD9     		bls	.L371
 516:../Drivers/STM32F4xx_HAL_Driver/Src/stm32f4xx_hal_dma.c ****       }
 4461              		.loc 1 516 0 discriminator 102
 4462 0e1e 4839     		subs	r1, r1, #72
 4463 0e20 8A42     		cmp	r2, r1
 4464 0e22 2ED0     		beq	.L691
 516:../Drivers/STM32F4xx_HAL_Driver/Src/stm32f4xx_hal_dma.c ****       }
 4465              		.loc 1 516 0 discriminator 104
 4466 0e24 01F58061 		add	r1, r1, #1024
 4467 0e28 8A42     		cmp	r2, r1
 4468 0e2a 2CD0     		beq	.L692
 516:../Drivers/STM32F4xx_HAL_Driver/Src/stm32f4xx_hal_dma.c ****       }
 4469              		.loc 1 516 0 discriminator 106
 4470 0e2c A1F56871 		sub	r1, r1, #928
ARM GAS  /tmp/ccIvKYQX.s 			page 107


 4471 0e30 8A42     		cmp	r2, r1
 4472 0e32 2AD0     		beq	.L693
 516:../Drivers/STM32F4xx_HAL_Driver/Src/stm32f4xx_hal_dma.c ****       }
 4473              		.loc 1 516 0 discriminator 108
 4474 0e34 01F58061 		add	r1, r1, #1024
 4475 0e38 8A42     		cmp	r2, r1
 4476 0e3a 28D0     		beq	.L694
 516:../Drivers/STM32F4xx_HAL_Driver/Src/stm32f4xx_hal_dma.c ****       }
 4477              		.loc 1 516 0 discriminator 110
 4478 0e3c A1F58961 		sub	r1, r1, #1096
 4479 0e40 8A42     		cmp	r2, r1
 4480 0e42 26D0     		beq	.L695
 516:../Drivers/STM32F4xx_HAL_Driver/Src/stm32f4xx_hal_dma.c ****       }
 4481              		.loc 1 516 0 discriminator 112
 4482 0e44 01F58061 		add	r1, r1, #1024
 4483 0e48 8A42     		cmp	r2, r1
 4484 0e4a 24D0     		beq	.L696
 516:../Drivers/STM32F4xx_HAL_Driver/Src/stm32f4xx_hal_dma.c ****       }
 4485              		.loc 1 516 0 discriminator 114
 4486 0e4c A1F56871 		sub	r1, r1, #928
 4487 0e50 8A42     		cmp	r2, r1
 4488 0e52 22D0     		beq	.L697
 516:../Drivers/STM32F4xx_HAL_Driver/Src/stm32f4xx_hal_dma.c ****       }
 4489              		.loc 1 516 0 discriminator 116
 4490 0e54 01F58061 		add	r1, r1, #1024
 4491 0e58 8A42     		cmp	r2, r1
 4492 0e5a 20D0     		beq	.L698
 516:../Drivers/STM32F4xx_HAL_Driver/Src/stm32f4xx_hal_dma.c ****       }
 4493              		.loc 1 516 0 discriminator 118
 4494 0e5c A1F58961 		sub	r1, r1, #1096
 4495 0e60 8A42     		cmp	r2, r1
 4496 0e62 1ED0     		beq	.L699
 516:../Drivers/STM32F4xx_HAL_Driver/Src/stm32f4xx_hal_dma.c ****       }
 4497              		.loc 1 516 0 discriminator 120
 4498 0e64 01F58061 		add	r1, r1, #1024
 4499 0e68 8A42     		cmp	r2, r1
 4500 0e6a 1DD0     		beq	.L700
 516:../Drivers/STM32F4xx_HAL_Driver/Src/stm32f4xx_hal_dma.c ****       }
 4501              		.loc 1 516 0 discriminator 122
 4502 0e6c A1F56871 		sub	r1, r1, #928
 4503 0e70 8A42     		cmp	r2, r1
 4504 0e72 1CD0     		beq	.L701
 516:../Drivers/STM32F4xx_HAL_Driver/Src/stm32f4xx_hal_dma.c ****       }
 4505              		.loc 1 516 0 discriminator 124
 4506 0e74 01F58061 		add	r1, r1, #1024
 4507 0e78 8A42     		cmp	r2, r1
 4508 0e7a 1BD1     		bne	.L702
 516:../Drivers/STM32F4xx_HAL_Driver/Src/stm32f4xx_hal_dma.c ****       }
 4509              		.loc 1 516 0
 4510 0e7c 4FF48032 		mov	r2, #65536
 4511 0e80 1AE0     		b	.L372
 4512              	.L691:
 4513 0e82 934A     		ldr	r2, .L1063+4
 4514 0e84 18E0     		b	.L372
 4515              	.L692:
 4516 0e86 924A     		ldr	r2, .L1063+4
 4517 0e88 16E0     		b	.L372
ARM GAS  /tmp/ccIvKYQX.s 			page 108


 4518              	.L693:
 4519 0e8a 914A     		ldr	r2, .L1063+4
 4520 0e8c 14E0     		b	.L372
 4521              	.L694:
 4522 0e8e 904A     		ldr	r2, .L1063+4
 4523 0e90 12E0     		b	.L372
 4524              	.L695:
 4525 0e92 4022     		movs	r2, #64
 4526 0e94 10E0     		b	.L372
 4527              	.L696:
 4528 0e96 4022     		movs	r2, #64
 4529 0e98 0EE0     		b	.L372
 4530              	.L697:
 4531 0e9a 4022     		movs	r2, #64
 4532 0e9c 0CE0     		b	.L372
 4533              	.L698:
 4534 0e9e 4022     		movs	r2, #64
 4535 0ea0 0AE0     		b	.L372
 4536              	.L699:
 4537 0ea2 4FF48032 		mov	r2, #65536
 4538 0ea6 07E0     		b	.L372
 4539              	.L700:
 4540 0ea8 4FF48032 		mov	r2, #65536
 4541 0eac 04E0     		b	.L372
 4542              	.L701:
 4543 0eae 4FF48032 		mov	r2, #65536
 4544 0eb2 01E0     		b	.L372
 4545              	.L702:
 4546 0eb4 4FF48002 		mov	r2, #4194304
 4547              	.L372:
 516:../Drivers/STM32F4xx_HAL_Driver/Src/stm32f4xx_hal_dma.c ****       }
 4548              		.loc 1 516 0 discriminator 151
 4549 0eb8 8649     		ldr	r1, .L1063+8
 4550 0eba CA60     		str	r2, [r1, #12]
 4551 0ebc 4EE0     		b	.L365
 4552              	.L371:
 516:../Drivers/STM32F4xx_HAL_Driver/Src/stm32f4xx_hal_dma.c ****       }
 4553              		.loc 1 516 0 discriminator 103
 4554 0ebe 8649     		ldr	r1, .L1063+12
 4555 0ec0 8A42     		cmp	r2, r1
 4556 0ec2 2ED0     		beq	.L703
 516:../Drivers/STM32F4xx_HAL_Driver/Src/stm32f4xx_hal_dma.c ****       }
 4557              		.loc 1 516 0 discriminator 153
 4558 0ec4 01F58061 		add	r1, r1, #1024
 4559 0ec8 8A42     		cmp	r2, r1
 4560 0eca 2CD0     		beq	.L704
 516:../Drivers/STM32F4xx_HAL_Driver/Src/stm32f4xx_hal_dma.c ****       }
 4561              		.loc 1 516 0 discriminator 155
 4562 0ecc A1F56871 		sub	r1, r1, #928
 4563 0ed0 8A42     		cmp	r2, r1
 4564 0ed2 2AD0     		beq	.L705
 516:../Drivers/STM32F4xx_HAL_Driver/Src/stm32f4xx_hal_dma.c ****       }
 4565              		.loc 1 516 0 discriminator 157
 4566 0ed4 01F58061 		add	r1, r1, #1024
 4567 0ed8 8A42     		cmp	r2, r1
 4568 0eda 28D0     		beq	.L706
 516:../Drivers/STM32F4xx_HAL_Driver/Src/stm32f4xx_hal_dma.c ****       }
ARM GAS  /tmp/ccIvKYQX.s 			page 109


 4569              		.loc 1 516 0 discriminator 159
 4570 0edc A1F58961 		sub	r1, r1, #1096
 4571 0ee0 8A42     		cmp	r2, r1
 4572 0ee2 26D0     		beq	.L707
 516:../Drivers/STM32F4xx_HAL_Driver/Src/stm32f4xx_hal_dma.c ****       }
 4573              		.loc 1 516 0 discriminator 161
 4574 0ee4 01F58061 		add	r1, r1, #1024
 4575 0ee8 8A42     		cmp	r2, r1
 4576 0eea 24D0     		beq	.L708
 516:../Drivers/STM32F4xx_HAL_Driver/Src/stm32f4xx_hal_dma.c ****       }
 4577              		.loc 1 516 0 discriminator 163
 4578 0eec A1F56871 		sub	r1, r1, #928
 4579 0ef0 8A42     		cmp	r2, r1
 4580 0ef2 22D0     		beq	.L709
 516:../Drivers/STM32F4xx_HAL_Driver/Src/stm32f4xx_hal_dma.c ****       }
 4581              		.loc 1 516 0 discriminator 165
 4582 0ef4 01F58061 		add	r1, r1, #1024
 4583 0ef8 8A42     		cmp	r2, r1
 4584 0efa 20D0     		beq	.L710
 516:../Drivers/STM32F4xx_HAL_Driver/Src/stm32f4xx_hal_dma.c ****       }
 4585              		.loc 1 516 0 discriminator 167
 4586 0efc A1F58961 		sub	r1, r1, #1096
 4587 0f00 8A42     		cmp	r2, r1
 4588 0f02 1ED0     		beq	.L711
 516:../Drivers/STM32F4xx_HAL_Driver/Src/stm32f4xx_hal_dma.c ****       }
 4589              		.loc 1 516 0 discriminator 169
 4590 0f04 01F58061 		add	r1, r1, #1024
 4591 0f08 8A42     		cmp	r2, r1
 4592 0f0a 1DD0     		beq	.L712
 516:../Drivers/STM32F4xx_HAL_Driver/Src/stm32f4xx_hal_dma.c ****       }
 4593              		.loc 1 516 0 discriminator 171
 4594 0f0c A1F56871 		sub	r1, r1, #928
 4595 0f10 8A42     		cmp	r2, r1
 4596 0f12 1CD0     		beq	.L713
 516:../Drivers/STM32F4xx_HAL_Driver/Src/stm32f4xx_hal_dma.c ****       }
 4597              		.loc 1 516 0 discriminator 173
 4598 0f14 01F58061 		add	r1, r1, #1024
 4599 0f18 8A42     		cmp	r2, r1
 4600 0f1a 1BD1     		bne	.L714
 516:../Drivers/STM32F4xx_HAL_Driver/Src/stm32f4xx_hal_dma.c ****       }
 4601              		.loc 1 516 0
 4602 0f1c 4FF48032 		mov	r2, #65536
 4603 0f20 1AE0     		b	.L373
 4604              	.L703:
 4605 0f22 6B4A     		ldr	r2, .L1063+4
 4606 0f24 18E0     		b	.L373
 4607              	.L704:
 4608 0f26 6A4A     		ldr	r2, .L1063+4
 4609 0f28 16E0     		b	.L373
 4610              	.L705:
 4611 0f2a 694A     		ldr	r2, .L1063+4
 4612 0f2c 14E0     		b	.L373
 4613              	.L706:
 4614 0f2e 684A     		ldr	r2, .L1063+4
 4615 0f30 12E0     		b	.L373
 4616              	.L707:
 4617 0f32 4022     		movs	r2, #64
ARM GAS  /tmp/ccIvKYQX.s 			page 110


 4618 0f34 10E0     		b	.L373
 4619              	.L708:
 4620 0f36 4022     		movs	r2, #64
 4621 0f38 0EE0     		b	.L373
 4622              	.L709:
 4623 0f3a 4022     		movs	r2, #64
 4624 0f3c 0CE0     		b	.L373
 4625              	.L710:
 4626 0f3e 4022     		movs	r2, #64
 4627 0f40 0AE0     		b	.L373
 4628              	.L711:
 4629 0f42 4FF48032 		mov	r2, #65536
 4630 0f46 07E0     		b	.L373
 4631              	.L712:
 4632 0f48 4FF48032 		mov	r2, #65536
 4633 0f4c 04E0     		b	.L373
 4634              	.L713:
 4635 0f4e 4FF48032 		mov	r2, #65536
 4636 0f52 01E0     		b	.L373
 4637              	.L714:
 4638 0f54 4FF48002 		mov	r2, #4194304
 4639              	.L373:
 516:../Drivers/STM32F4xx_HAL_Driver/Src/stm32f4xx_hal_dma.c ****       }
 4640              		.loc 1 516 0 discriminator 200
 4641 0f58 5E49     		ldr	r1, .L1063+8
 4642 0f5a 8A60     		str	r2, [r1, #8]
 4643              	.L365:
 518:../Drivers/STM32F4xx_HAL_Driver/Src/stm32f4xx_hal_dma.c ****       {
 4644              		.loc 1 518 0 is_stmt 1
 4645 0f5c 002B     		cmp	r3, #0
 4646 0f5e 00F06F81 		beq	.L374
 521:../Drivers/STM32F4xx_HAL_Driver/Src/stm32f4xx_hal_dma.c **** 
 4647              		.loc 1 521 0
 4648 0f62 E36C     		ldr	r3, [r4, #76]
 4649              	.LVL56:
 4650 0f64 43F00403 		orr	r3, r3, #4
 4651 0f68 E364     		str	r3, [r4, #76]
 524:../Drivers/STM32F4xx_HAL_Driver/Src/stm32f4xx_hal_dma.c ****       }
 4652              		.loc 1 524 0
 4653 0f6a 2368     		ldr	r3, [r4]
 4654 0f6c 5B4A     		ldr	r2, .L1063+16
 4655 0f6e 9342     		cmp	r3, r2
 4656 0f70 54D9     		bls	.L375
 524:../Drivers/STM32F4xx_HAL_Driver/Src/stm32f4xx_hal_dma.c ****       }
 4657              		.loc 1 524 0 is_stmt 0 discriminator 1
 4658 0f72 A2F58962 		sub	r2, r2, #1096
 4659 0f76 9342     		cmp	r3, r2
 4660 0f78 2ED0     		beq	.L715
 524:../Drivers/STM32F4xx_HAL_Driver/Src/stm32f4xx_hal_dma.c ****       }
 4661              		.loc 1 524 0 discriminator 3
 4662 0f7a 02F58062 		add	r2, r2, #1024
 4663 0f7e 9342     		cmp	r3, r2
 4664 0f80 2CD0     		beq	.L716
 524:../Drivers/STM32F4xx_HAL_Driver/Src/stm32f4xx_hal_dma.c ****       }
 4665              		.loc 1 524 0 discriminator 5
 4666 0f82 A2F56872 		sub	r2, r2, #928
 4667 0f86 9342     		cmp	r3, r2
ARM GAS  /tmp/ccIvKYQX.s 			page 111


 4668 0f88 2AD0     		beq	.L717
 524:../Drivers/STM32F4xx_HAL_Driver/Src/stm32f4xx_hal_dma.c ****       }
 4669              		.loc 1 524 0 discriminator 7
 4670 0f8a 02F58062 		add	r2, r2, #1024
 4671 0f8e 9342     		cmp	r3, r2
 4672 0f90 28D0     		beq	.L718
 524:../Drivers/STM32F4xx_HAL_Driver/Src/stm32f4xx_hal_dma.c ****       }
 4673              		.loc 1 524 0 discriminator 9
 4674 0f92 A2F58962 		sub	r2, r2, #1096
 4675 0f96 9342     		cmp	r3, r2
 4676 0f98 26D0     		beq	.L719
 524:../Drivers/STM32F4xx_HAL_Driver/Src/stm32f4xx_hal_dma.c ****       }
 4677              		.loc 1 524 0 discriminator 11
 4678 0f9a 02F58062 		add	r2, r2, #1024
 4679 0f9e 9342     		cmp	r3, r2
 4680 0fa0 25D0     		beq	.L720
 524:../Drivers/STM32F4xx_HAL_Driver/Src/stm32f4xx_hal_dma.c ****       }
 4681              		.loc 1 524 0 discriminator 13
 4682 0fa2 A2F56872 		sub	r2, r2, #928
 4683 0fa6 9342     		cmp	r3, r2
 4684 0fa8 24D0     		beq	.L721
 524:../Drivers/STM32F4xx_HAL_Driver/Src/stm32f4xx_hal_dma.c ****       }
 4685              		.loc 1 524 0 discriminator 15
 4686 0faa 02F58062 		add	r2, r2, #1024
 4687 0fae 9342     		cmp	r3, r2
 4688 0fb0 23D0     		beq	.L722
 524:../Drivers/STM32F4xx_HAL_Driver/Src/stm32f4xx_hal_dma.c ****       }
 4689              		.loc 1 524 0 discriminator 17
 4690 0fb2 A2F58962 		sub	r2, r2, #1096
 4691 0fb6 9342     		cmp	r3, r2
 4692 0fb8 22D0     		beq	.L723
 524:../Drivers/STM32F4xx_HAL_Driver/Src/stm32f4xx_hal_dma.c ****       }
 4693              		.loc 1 524 0 discriminator 19
 4694 0fba 02F58062 		add	r2, r2, #1024
 4695 0fbe 9342     		cmp	r3, r2
 4696 0fc0 21D0     		beq	.L724
 524:../Drivers/STM32F4xx_HAL_Driver/Src/stm32f4xx_hal_dma.c ****       }
 4697              		.loc 1 524 0 discriminator 21
 4698 0fc2 A2F56872 		sub	r2, r2, #928
 4699 0fc6 9342     		cmp	r3, r2
 4700 0fc8 20D0     		beq	.L725
 524:../Drivers/STM32F4xx_HAL_Driver/Src/stm32f4xx_hal_dma.c ****       }
 4701              		.loc 1 524 0 discriminator 23
 4702 0fca 02F58062 		add	r2, r2, #1024
 4703 0fce 9342     		cmp	r3, r2
 4704 0fd0 1FD1     		bne	.L726
 524:../Drivers/STM32F4xx_HAL_Driver/Src/stm32f4xx_hal_dma.c ****       }
 4705              		.loc 1 524 0
 4706 0fd2 4FF48023 		mov	r3, #262144
 4707 0fd6 1EE0     		b	.L376
 4708              	.L715:
 4709 0fd8 414B     		ldr	r3, .L1063+20
 4710 0fda 1CE0     		b	.L376
 4711              	.L716:
 4712 0fdc 404B     		ldr	r3, .L1063+20
 4713 0fde 1AE0     		b	.L376
 4714              	.L717:
ARM GAS  /tmp/ccIvKYQX.s 			page 112


 4715 0fe0 3F4B     		ldr	r3, .L1063+20
 4716 0fe2 18E0     		b	.L376
 4717              	.L718:
 4718 0fe4 3E4B     		ldr	r3, .L1063+20
 4719 0fe6 16E0     		b	.L376
 4720              	.L719:
 4721 0fe8 4FF48073 		mov	r3, #256
 4722 0fec 13E0     		b	.L376
 4723              	.L720:
 4724 0fee 4FF48073 		mov	r3, #256
 4725 0ff2 10E0     		b	.L376
 4726              	.L721:
 4727 0ff4 4FF48073 		mov	r3, #256
 4728 0ff8 0DE0     		b	.L376
 4729              	.L722:
 4730 0ffa 4FF48073 		mov	r3, #256
 4731 0ffe 0AE0     		b	.L376
 4732              	.L723:
 4733 1000 4FF48023 		mov	r3, #262144
 4734 1004 07E0     		b	.L376
 4735              	.L724:
 4736 1006 4FF48023 		mov	r3, #262144
 4737 100a 04E0     		b	.L376
 4738              	.L725:
 4739 100c 4FF48023 		mov	r3, #262144
 4740 1010 01E0     		b	.L376
 4741              	.L726:
 4742 1012 4FF08073 		mov	r3, #16777216
 4743              	.L376:
 524:../Drivers/STM32F4xx_HAL_Driver/Src/stm32f4xx_hal_dma.c ****       }
 4744              		.loc 1 524 0 discriminator 50
 4745 1016 334A     		ldr	r2, .L1063+24
 4746 1018 D360     		str	r3, [r2, #12]
 4747 101a 11E1     		b	.L374
 4748              	.L375:
 524:../Drivers/STM32F4xx_HAL_Driver/Src/stm32f4xx_hal_dma.c ****       }
 4749              		.loc 1 524 0 discriminator 2
 4750 101c 324A     		ldr	r2, .L1063+28
 4751 101e 9342     		cmp	r3, r2
 4752 1020 64D9     		bls	.L377
 524:../Drivers/STM32F4xx_HAL_Driver/Src/stm32f4xx_hal_dma.c ****       }
 4753              		.loc 1 524 0 discriminator 51
 4754 1022 A83A     		subs	r2, r2, #168
 4755 1024 9342     		cmp	r3, r2
 4756 1026 2ED0     		beq	.L727
 524:../Drivers/STM32F4xx_HAL_Driver/Src/stm32f4xx_hal_dma.c ****       }
 4757              		.loc 1 524 0 discriminator 53
 4758 1028 02F58062 		add	r2, r2, #1024
 4759 102c 9342     		cmp	r3, r2
 4760 102e 2CD0     		beq	.L728
 524:../Drivers/STM32F4xx_HAL_Driver/Src/stm32f4xx_hal_dma.c ****       }
 4761              		.loc 1 524 0 discriminator 55
 4762 1030 A2F56872 		sub	r2, r2, #928
 4763 1034 9342     		cmp	r3, r2
 4764 1036 2AD0     		beq	.L729
 524:../Drivers/STM32F4xx_HAL_Driver/Src/stm32f4xx_hal_dma.c ****       }
 4765              		.loc 1 524 0 discriminator 57
ARM GAS  /tmp/ccIvKYQX.s 			page 113


 4766 1038 02F58062 		add	r2, r2, #1024
 4767 103c 9342     		cmp	r3, r2
 4768 103e 28D0     		beq	.L730
 524:../Drivers/STM32F4xx_HAL_Driver/Src/stm32f4xx_hal_dma.c ****       }
 4769              		.loc 1 524 0 discriminator 59
 4770 1040 A2F58962 		sub	r2, r2, #1096
 4771 1044 9342     		cmp	r3, r2
 4772 1046 26D0     		beq	.L731
 524:../Drivers/STM32F4xx_HAL_Driver/Src/stm32f4xx_hal_dma.c ****       }
 4773              		.loc 1 524 0 discriminator 61
 4774 1048 02F58062 		add	r2, r2, #1024
 4775 104c 9342     		cmp	r3, r2
 4776 104e 25D0     		beq	.L732
 524:../Drivers/STM32F4xx_HAL_Driver/Src/stm32f4xx_hal_dma.c ****       }
 4777              		.loc 1 524 0 discriminator 63
 4778 1050 A2F56872 		sub	r2, r2, #928
 4779 1054 9342     		cmp	r3, r2
 4780 1056 24D0     		beq	.L733
 524:../Drivers/STM32F4xx_HAL_Driver/Src/stm32f4xx_hal_dma.c ****       }
 4781              		.loc 1 524 0 discriminator 65
 4782 1058 02F58062 		add	r2, r2, #1024
 4783 105c 9342     		cmp	r3, r2
 4784 105e 23D0     		beq	.L734
 524:../Drivers/STM32F4xx_HAL_Driver/Src/stm32f4xx_hal_dma.c ****       }
 4785              		.loc 1 524 0 discriminator 67
 4786 1060 A2F58962 		sub	r2, r2, #1096
 4787 1064 9342     		cmp	r3, r2
 4788 1066 22D0     		beq	.L735
 524:../Drivers/STM32F4xx_HAL_Driver/Src/stm32f4xx_hal_dma.c ****       }
 4789              		.loc 1 524 0 discriminator 69
 4790 1068 02F58062 		add	r2, r2, #1024
 4791 106c 9342     		cmp	r3, r2
 4792 106e 21D0     		beq	.L736
 524:../Drivers/STM32F4xx_HAL_Driver/Src/stm32f4xx_hal_dma.c ****       }
 4793              		.loc 1 524 0 discriminator 71
 4794 1070 A2F56872 		sub	r2, r2, #928
 4795 1074 9342     		cmp	r3, r2
 4796 1076 20D0     		beq	.L737
 524:../Drivers/STM32F4xx_HAL_Driver/Src/stm32f4xx_hal_dma.c ****       }
 4797              		.loc 1 524 0 discriminator 73
 4798 1078 02F58062 		add	r2, r2, #1024
 4799 107c 9342     		cmp	r3, r2
 4800 107e 1FD1     		bne	.L738
 524:../Drivers/STM32F4xx_HAL_Driver/Src/stm32f4xx_hal_dma.c ****       }
 4801              		.loc 1 524 0
 4802 1080 4FF48023 		mov	r3, #262144
 4803 1084 1EE0     		b	.L378
 4804              	.L727:
 4805 1086 164B     		ldr	r3, .L1063+20
 4806 1088 1CE0     		b	.L378
 4807              	.L728:
 4808 108a 154B     		ldr	r3, .L1063+20
 4809 108c 1AE0     		b	.L378
 4810              	.L729:
 4811 108e 144B     		ldr	r3, .L1063+20
 4812 1090 18E0     		b	.L378
 4813              	.L730:
ARM GAS  /tmp/ccIvKYQX.s 			page 114


 4814 1092 134B     		ldr	r3, .L1063+20
 4815 1094 16E0     		b	.L378
 4816              	.L731:
 4817 1096 4FF48073 		mov	r3, #256
 4818 109a 13E0     		b	.L378
 4819              	.L732:
 4820 109c 4FF48073 		mov	r3, #256
 4821 10a0 10E0     		b	.L378
 4822              	.L733:
 4823 10a2 4FF48073 		mov	r3, #256
 4824 10a6 0DE0     		b	.L378
 4825              	.L734:
 4826 10a8 4FF48073 		mov	r3, #256
 4827 10ac 0AE0     		b	.L378
 4828              	.L735:
 4829 10ae 4FF48023 		mov	r3, #262144
 4830 10b2 07E0     		b	.L378
 4831              	.L736:
 4832 10b4 4FF48023 		mov	r3, #262144
 4833 10b8 04E0     		b	.L378
 4834              	.L737:
 4835 10ba 4FF48023 		mov	r3, #262144
 4836 10be 01E0     		b	.L378
 4837              	.L738:
 4838 10c0 4FF08073 		mov	r3, #16777216
 4839              	.L378:
 524:../Drivers/STM32F4xx_HAL_Driver/Src/stm32f4xx_hal_dma.c ****       }
 4840              		.loc 1 524 0 discriminator 100
 4841 10c4 074A     		ldr	r2, .L1063+24
 4842 10c6 9360     		str	r3, [r2, #8]
 4843 10c8 BAE0     		b	.L374
 4844              	.L1064:
 4845 10ca 00BF     		.align	2
 4846              	.L1063:
 4847 10cc 58600240 		.word	1073897560
 4848 10d0 01008000 		.word	8388609
 4849 10d4 00600240 		.word	1073897472
 4850 10d8 10600240 		.word	1073897488
 4851 10dc 58640240 		.word	1073898584
 4852 10e0 04008000 		.word	8388612
 4853 10e4 00640240 		.word	1073898496
 4854 10e8 B8600240 		.word	1073897656
 4855              	.L377:
 524:../Drivers/STM32F4xx_HAL_Driver/Src/stm32f4xx_hal_dma.c ****       }
 4856              		.loc 1 524 0 discriminator 52
 4857 10ec A94A     		ldr	r2, .L1065
 4858 10ee 9342     		cmp	r3, r2
 4859 10f0 53D9     		bls	.L380
 524:../Drivers/STM32F4xx_HAL_Driver/Src/stm32f4xx_hal_dma.c ****       }
 4860              		.loc 1 524 0 discriminator 102
 4861 10f2 483A     		subs	r2, r2, #72
 4862 10f4 9342     		cmp	r3, r2
 4863 10f6 2ED0     		beq	.L739
 524:../Drivers/STM32F4xx_HAL_Driver/Src/stm32f4xx_hal_dma.c ****       }
 4864              		.loc 1 524 0 discriminator 104
 4865 10f8 02F58062 		add	r2, r2, #1024
 4866 10fc 9342     		cmp	r3, r2
ARM GAS  /tmp/ccIvKYQX.s 			page 115


 4867 10fe 2CD0     		beq	.L740
 524:../Drivers/STM32F4xx_HAL_Driver/Src/stm32f4xx_hal_dma.c ****       }
 4868              		.loc 1 524 0 discriminator 106
 4869 1100 A2F56872 		sub	r2, r2, #928
 4870 1104 9342     		cmp	r3, r2
 4871 1106 2AD0     		beq	.L741
 524:../Drivers/STM32F4xx_HAL_Driver/Src/stm32f4xx_hal_dma.c ****       }
 4872              		.loc 1 524 0 discriminator 108
 4873 1108 02F58062 		add	r2, r2, #1024
 4874 110c 9342     		cmp	r3, r2
 4875 110e 28D0     		beq	.L742
 524:../Drivers/STM32F4xx_HAL_Driver/Src/stm32f4xx_hal_dma.c ****       }
 4876              		.loc 1 524 0 discriminator 110
 4877 1110 A2F58962 		sub	r2, r2, #1096
 4878 1114 9342     		cmp	r3, r2
 4879 1116 26D0     		beq	.L743
 524:../Drivers/STM32F4xx_HAL_Driver/Src/stm32f4xx_hal_dma.c ****       }
 4880              		.loc 1 524 0 discriminator 112
 4881 1118 02F58062 		add	r2, r2, #1024
 4882 111c 9342     		cmp	r3, r2
 4883 111e 25D0     		beq	.L744
 524:../Drivers/STM32F4xx_HAL_Driver/Src/stm32f4xx_hal_dma.c ****       }
 4884              		.loc 1 524 0 discriminator 114
 4885 1120 A2F56872 		sub	r2, r2, #928
 4886 1124 9342     		cmp	r3, r2
 4887 1126 24D0     		beq	.L745
 524:../Drivers/STM32F4xx_HAL_Driver/Src/stm32f4xx_hal_dma.c ****       }
 4888              		.loc 1 524 0 discriminator 116
 4889 1128 02F58062 		add	r2, r2, #1024
 4890 112c 9342     		cmp	r3, r2
 4891 112e 23D0     		beq	.L746
 524:../Drivers/STM32F4xx_HAL_Driver/Src/stm32f4xx_hal_dma.c ****       }
 4892              		.loc 1 524 0 discriminator 118
 4893 1130 A2F58962 		sub	r2, r2, #1096
 4894 1134 9342     		cmp	r3, r2
 4895 1136 22D0     		beq	.L747
 524:../Drivers/STM32F4xx_HAL_Driver/Src/stm32f4xx_hal_dma.c ****       }
 4896              		.loc 1 524 0 discriminator 120
 4897 1138 02F58062 		add	r2, r2, #1024
 4898 113c 9342     		cmp	r3, r2
 4899 113e 21D0     		beq	.L748
 524:../Drivers/STM32F4xx_HAL_Driver/Src/stm32f4xx_hal_dma.c ****       }
 4900              		.loc 1 524 0 discriminator 122
 4901 1140 A2F56872 		sub	r2, r2, #928
 4902 1144 9342     		cmp	r3, r2
 4903 1146 20D0     		beq	.L749
 524:../Drivers/STM32F4xx_HAL_Driver/Src/stm32f4xx_hal_dma.c ****       }
 4904              		.loc 1 524 0 discriminator 124
 4905 1148 02F58062 		add	r2, r2, #1024
 4906 114c 9342     		cmp	r3, r2
 4907 114e 1FD1     		bne	.L750
 524:../Drivers/STM32F4xx_HAL_Driver/Src/stm32f4xx_hal_dma.c ****       }
 4908              		.loc 1 524 0
 4909 1150 4FF48023 		mov	r3, #262144
 4910 1154 1EE0     		b	.L381
 4911              	.L739:
 4912 1156 904B     		ldr	r3, .L1065+4
ARM GAS  /tmp/ccIvKYQX.s 			page 116


 4913 1158 1CE0     		b	.L381
 4914              	.L740:
 4915 115a 8F4B     		ldr	r3, .L1065+4
 4916 115c 1AE0     		b	.L381
 4917              	.L741:
 4918 115e 8E4B     		ldr	r3, .L1065+4
 4919 1160 18E0     		b	.L381
 4920              	.L742:
 4921 1162 8D4B     		ldr	r3, .L1065+4
 4922 1164 16E0     		b	.L381
 4923              	.L743:
 4924 1166 4FF48073 		mov	r3, #256
 4925 116a 13E0     		b	.L381
 4926              	.L744:
 4927 116c 4FF48073 		mov	r3, #256
 4928 1170 10E0     		b	.L381
 4929              	.L745:
 4930 1172 4FF48073 		mov	r3, #256
 4931 1176 0DE0     		b	.L381
 4932              	.L746:
 4933 1178 4FF48073 		mov	r3, #256
 4934 117c 0AE0     		b	.L381
 4935              	.L747:
 4936 117e 4FF48023 		mov	r3, #262144
 4937 1182 07E0     		b	.L381
 4938              	.L748:
 4939 1184 4FF48023 		mov	r3, #262144
 4940 1188 04E0     		b	.L381
 4941              	.L749:
 4942 118a 4FF48023 		mov	r3, #262144
 4943 118e 01E0     		b	.L381
 4944              	.L750:
 4945 1190 4FF08073 		mov	r3, #16777216
 4946              	.L381:
 524:../Drivers/STM32F4xx_HAL_Driver/Src/stm32f4xx_hal_dma.c ****       }
 4947              		.loc 1 524 0 discriminator 151
 4948 1194 814A     		ldr	r2, .L1065+8
 4949 1196 D360     		str	r3, [r2, #12]
 4950 1198 52E0     		b	.L374
 4951              	.L380:
 524:../Drivers/STM32F4xx_HAL_Driver/Src/stm32f4xx_hal_dma.c ****       }
 4952              		.loc 1 524 0 discriminator 103
 4953 119a 814A     		ldr	r2, .L1065+12
 4954 119c 9342     		cmp	r3, r2
 4955 119e 2ED0     		beq	.L751
 524:../Drivers/STM32F4xx_HAL_Driver/Src/stm32f4xx_hal_dma.c ****       }
 4956              		.loc 1 524 0 discriminator 153
 4957 11a0 02F58062 		add	r2, r2, #1024
 4958 11a4 9342     		cmp	r3, r2
 4959 11a6 2CD0     		beq	.L752
 524:../Drivers/STM32F4xx_HAL_Driver/Src/stm32f4xx_hal_dma.c ****       }
 4960              		.loc 1 524 0 discriminator 155
 4961 11a8 A2F56872 		sub	r2, r2, #928
 4962 11ac 9342     		cmp	r3, r2
 4963 11ae 2AD0     		beq	.L753
 524:../Drivers/STM32F4xx_HAL_Driver/Src/stm32f4xx_hal_dma.c ****       }
 4964              		.loc 1 524 0 discriminator 157
ARM GAS  /tmp/ccIvKYQX.s 			page 117


 4965 11b0 02F58062 		add	r2, r2, #1024
 4966 11b4 9342     		cmp	r3, r2
 4967 11b6 28D0     		beq	.L754
 524:../Drivers/STM32F4xx_HAL_Driver/Src/stm32f4xx_hal_dma.c ****       }
 4968              		.loc 1 524 0 discriminator 159
 4969 11b8 A2F58962 		sub	r2, r2, #1096
 4970 11bc 9342     		cmp	r3, r2
 4971 11be 26D0     		beq	.L755
 524:../Drivers/STM32F4xx_HAL_Driver/Src/stm32f4xx_hal_dma.c ****       }
 4972              		.loc 1 524 0 discriminator 161
 4973 11c0 02F58062 		add	r2, r2, #1024
 4974 11c4 9342     		cmp	r3, r2
 4975 11c6 25D0     		beq	.L756
 524:../Drivers/STM32F4xx_HAL_Driver/Src/stm32f4xx_hal_dma.c ****       }
 4976              		.loc 1 524 0 discriminator 163
 4977 11c8 A2F56872 		sub	r2, r2, #928
 4978 11cc 9342     		cmp	r3, r2
 4979 11ce 24D0     		beq	.L757
 524:../Drivers/STM32F4xx_HAL_Driver/Src/stm32f4xx_hal_dma.c ****       }
 4980              		.loc 1 524 0 discriminator 165
 4981 11d0 02F58062 		add	r2, r2, #1024
 4982 11d4 9342     		cmp	r3, r2
 4983 11d6 23D0     		beq	.L758
 524:../Drivers/STM32F4xx_HAL_Driver/Src/stm32f4xx_hal_dma.c ****       }
 4984              		.loc 1 524 0 discriminator 167
 4985 11d8 A2F58962 		sub	r2, r2, #1096
 4986 11dc 9342     		cmp	r3, r2
 4987 11de 22D0     		beq	.L759
 524:../Drivers/STM32F4xx_HAL_Driver/Src/stm32f4xx_hal_dma.c ****       }
 4988              		.loc 1 524 0 discriminator 169
 4989 11e0 02F58062 		add	r2, r2, #1024
 4990 11e4 9342     		cmp	r3, r2
 4991 11e6 21D0     		beq	.L760
 524:../Drivers/STM32F4xx_HAL_Driver/Src/stm32f4xx_hal_dma.c ****       }
 4992              		.loc 1 524 0 discriminator 171
 4993 11e8 A2F56872 		sub	r2, r2, #928
 4994 11ec 9342     		cmp	r3, r2
 4995 11ee 20D0     		beq	.L761
 524:../Drivers/STM32F4xx_HAL_Driver/Src/stm32f4xx_hal_dma.c ****       }
 4996              		.loc 1 524 0 discriminator 173
 4997 11f0 02F58062 		add	r2, r2, #1024
 4998 11f4 9342     		cmp	r3, r2
 4999 11f6 1FD1     		bne	.L762
 524:../Drivers/STM32F4xx_HAL_Driver/Src/stm32f4xx_hal_dma.c ****       }
 5000              		.loc 1 524 0
 5001 11f8 4FF48023 		mov	r3, #262144
 5002 11fc 1EE0     		b	.L382
 5003              	.L751:
 5004 11fe 664B     		ldr	r3, .L1065+4
 5005 1200 1CE0     		b	.L382
 5006              	.L752:
 5007 1202 654B     		ldr	r3, .L1065+4
 5008 1204 1AE0     		b	.L382
 5009              	.L753:
 5010 1206 644B     		ldr	r3, .L1065+4
 5011 1208 18E0     		b	.L382
 5012              	.L754:
ARM GAS  /tmp/ccIvKYQX.s 			page 118


 5013 120a 634B     		ldr	r3, .L1065+4
 5014 120c 16E0     		b	.L382
 5015              	.L755:
 5016 120e 4FF48073 		mov	r3, #256
 5017 1212 13E0     		b	.L382
 5018              	.L756:
 5019 1214 4FF48073 		mov	r3, #256
 5020 1218 10E0     		b	.L382
 5021              	.L757:
 5022 121a 4FF48073 		mov	r3, #256
 5023 121e 0DE0     		b	.L382
 5024              	.L758:
 5025 1220 4FF48073 		mov	r3, #256
 5026 1224 0AE0     		b	.L382
 5027              	.L759:
 5028 1226 4FF48023 		mov	r3, #262144
 5029 122a 07E0     		b	.L382
 5030              	.L760:
 5031 122c 4FF48023 		mov	r3, #262144
 5032 1230 04E0     		b	.L382
 5033              	.L761:
 5034 1232 4FF48023 		mov	r3, #262144
 5035 1236 01E0     		b	.L382
 5036              	.L762:
 5037 1238 4FF08073 		mov	r3, #16777216
 5038              	.L382:
 524:../Drivers/STM32F4xx_HAL_Driver/Src/stm32f4xx_hal_dma.c ****       }
 5039              		.loc 1 524 0 discriminator 200
 5040 123c 574A     		ldr	r2, .L1065+8
 5041 123e 9360     		str	r3, [r2, #8]
 5042              	.L374:
 527:../Drivers/STM32F4xx_HAL_Driver/Src/stm32f4xx_hal_dma.c ****       
 5043              		.loc 1 527 0 is_stmt 1
 5044 1240 0423     		movs	r3, #4
 5045 1242 84F83530 		strb	r3, [r4, #53]
 530:../Drivers/STM32F4xx_HAL_Driver/Src/stm32f4xx_hal_dma.c **** 
 5046              		.loc 1 530 0
 5047 1246 0023     		movs	r3, #0
 5048 1248 84F83430 		strb	r3, [r4, #52]
 532:../Drivers/STM32F4xx_HAL_Driver/Src/stm32f4xx_hal_dma.c ****     }  
 5049              		.loc 1 532 0
 5050 124c 0120     		movs	r0, #1
 5051 124e BDE8F883 		pop	{r3, r4, r5, r6, r7, r8, r9, pc}
 5052              	.LVL57:
 5053              	.L355:
 535:../Drivers/STM32F4xx_HAL_Driver/Src/stm32f4xx_hal_dma.c ****     {
 5054              		.loc 1 535 0
 5055 1252 B6F1FF3F 		cmp	r6, #-1
 5056 1256 12D0     		beq	.L384
 537:../Drivers/STM32F4xx_HAL_Driver/Src/stm32f4xx_hal_dma.c ****       {
 5057              		.loc 1 537 0
 5058 1258 2EB1     		cbz	r6, .L385
 537:../Drivers/STM32F4xx_HAL_Driver/Src/stm32f4xx_hal_dma.c ****       {
 5059              		.loc 1 537 0 is_stmt 0 discriminator 1
 5060 125a FFF7FEFF 		bl	HAL_GetTick
 5061              	.LVL58:
 5062 125e C8EB0000 		rsb	r0, r8, r0
ARM GAS  /tmp/ccIvKYQX.s 			page 119


 5063 1262 8642     		cmp	r6, r0
 5064 1264 0BD2     		bcs	.L384
 5065              	.L385:
 540:../Drivers/STM32F4xx_HAL_Driver/Src/stm32f4xx_hal_dma.c **** 
 5066              		.loc 1 540 0 is_stmt 1
 5067 1266 E36C     		ldr	r3, [r4, #76]
 5068 1268 43F02003 		orr	r3, r3, #32
 5069 126c E364     		str	r3, [r4, #76]
 543:../Drivers/STM32F4xx_HAL_Driver/Src/stm32f4xx_hal_dma.c **** 
 5070              		.loc 1 543 0
 5071 126e 0320     		movs	r0, #3
 5072 1270 84F83500 		strb	r0, [r4, #53]
 546:../Drivers/STM32F4xx_HAL_Driver/Src/stm32f4xx_hal_dma.c ****         
 5073              		.loc 1 546 0
 5074 1274 0023     		movs	r3, #0
 5075 1276 84F83430 		strb	r3, [r4, #52]
 548:../Drivers/STM32F4xx_HAL_Driver/Src/stm32f4xx_hal_dma.c ****       }
 5076              		.loc 1 548 0
 5077 127a BDE8F883 		pop	{r3, r4, r5, r6, r7, r8, r9, pc}
 5078              	.LVL59:
 5079              	.L384:
 495:../Drivers/STM32F4xx_HAL_Driver/Src/stm32f4xx_hal_dma.c ****   {
 5080              		.loc 1 495 0
 5081 127e 2368     		ldr	r3, [r4]
 5082 1280 9E46     		mov	lr, r3
 5083 1282 484A     		ldr	r2, .L1065+16
 5084 1284 9342     		cmp	r3, r2
 5085 1286 06D9     		bls	.L386
 495:../Drivers/STM32F4xx_HAL_Driver/Src/stm32f4xx_hal_dma.c ****   {
 5086              		.loc 1 495 0 is_stmt 0 discriminator 1
 5087 1288 583A     		subs	r2, r2, #88
 5088 128a 5268     		ldr	r2, [r2, #4]
 5089 128c 1542     		tst	r5, r2
 5090 128e 0CBF     		ite	eq
 5091 1290 0122     		moveq	r2, #1
 5092 1292 0022     		movne	r2, #0
 5093 1294 1AE0     		b	.L387
 5094              	.L386:
 495:../Drivers/STM32F4xx_HAL_Driver/Src/stm32f4xx_hal_dma.c ****   {
 5095              		.loc 1 495 0 discriminator 2
 5096 1296 444A     		ldr	r2, .L1065+20
 5097 1298 9342     		cmp	r3, r2
 5098 129a 07D9     		bls	.L388
 495:../Drivers/STM32F4xx_HAL_Driver/Src/stm32f4xx_hal_dma.c ****   {
 5099              		.loc 1 495 0 discriminator 4
 5100 129c 02F55272 		add	r2, r2, #840
 5101 12a0 1268     		ldr	r2, [r2]
 5102 12a2 1542     		tst	r5, r2
 5103 12a4 0CBF     		ite	eq
 5104 12a6 0122     		moveq	r2, #1
 5105 12a8 0022     		movne	r2, #0
 5106 12aa 0FE0     		b	.L387
 5107              	.L388:
 495:../Drivers/STM32F4xx_HAL_Driver/Src/stm32f4xx_hal_dma.c ****   {
 5108              		.loc 1 495 0 discriminator 5
 5109 12ac 394A     		ldr	r2, .L1065
 5110 12ae 9342     		cmp	r3, r2
ARM GAS  /tmp/ccIvKYQX.s 			page 120


 5111 12b0 06D9     		bls	.L389
 495:../Drivers/STM32F4xx_HAL_Driver/Src/stm32f4xx_hal_dma.c ****   {
 5112              		.loc 1 495 0 discriminator 7
 5113 12b2 583A     		subs	r2, r2, #88
 5114 12b4 5268     		ldr	r2, [r2, #4]
 5115 12b6 1542     		tst	r5, r2
 5116 12b8 0CBF     		ite	eq
 5117 12ba 0122     		moveq	r2, #1
 5118 12bc 0022     		movne	r2, #0
 5119 12be 05E0     		b	.L387
 5120              	.L389:
 495:../Drivers/STM32F4xx_HAL_Driver/Src/stm32f4xx_hal_dma.c ****   {
 5121              		.loc 1 495 0 discriminator 8
 5122 12c0 364A     		ldr	r2, .L1065+8
 5123 12c2 1268     		ldr	r2, [r2]
 5124 12c4 1542     		tst	r5, r2
 5125 12c6 0CBF     		ite	eq
 5126 12c8 0122     		moveq	r2, #1
 5127 12ca 0022     		movne	r2, #0
 5128              	.L387:
 495:../Drivers/STM32F4xx_HAL_Driver/Src/stm32f4xx_hal_dma.c ****   {
 5129              		.loc 1 495 0 discriminator 12
 5130 12cc 002A     		cmp	r2, #0
 5131 12ce 7EF447AF 		bne	.L390
 553:../Drivers/STM32F4xx_HAL_Driver/Src/stm32f4xx_hal_dma.c ****   {
 5132              		.loc 1 553 0 is_stmt 1
 5133 12d2 B9F1000F 		cmp	r9, #0
 5134 12d6 40F0B885 		bne	.L391
 556:../Drivers/STM32F4xx_HAL_Driver/Src/stm32f4xx_hal_dma.c ****     {
 5135              		.loc 1 556 0
 5136 12da 1B68     		ldr	r3, [r3]
 5137 12dc 13F4802F 		tst	r3, #262144
 5138 12e0 00F0DF82 		beq	.L392
 559:../Drivers/STM32F4xx_HAL_Driver/Src/stm32f4xx_hal_dma.c ****       /* Clear the transfer complete flag */
 5139              		.loc 1 559 0
 5140 12e4 2F4B     		ldr	r3, .L1065+16
 5141 12e6 9E45     		cmp	lr, r3
 5142 12e8 62D9     		bls	.L393
 559:../Drivers/STM32F4xx_HAL_Driver/Src/stm32f4xx_hal_dma.c ****       /* Clear the transfer complete flag */
 5143              		.loc 1 559 0 is_stmt 0 discriminator 1
 5144 12ea A3F58963 		sub	r3, r3, #1096
 5145 12ee 9E45     		cmp	lr, r3
 5146 12f0 2ED0     		beq	.L763
 559:../Drivers/STM32F4xx_HAL_Driver/Src/stm32f4xx_hal_dma.c ****       /* Clear the transfer complete flag */
 5147              		.loc 1 559 0 discriminator 3
 5148 12f2 03F58063 		add	r3, r3, #1024
 5149 12f6 9E45     		cmp	lr, r3
 5150 12f8 2CD0     		beq	.L764
 559:../Drivers/STM32F4xx_HAL_Driver/Src/stm32f4xx_hal_dma.c ****       /* Clear the transfer complete flag */
 5151              		.loc 1 559 0 discriminator 5
 5152 12fa A3F56873 		sub	r3, r3, #928
 5153 12fe 9E45     		cmp	lr, r3
 5154 1300 2AD0     		beq	.L765
 559:../Drivers/STM32F4xx_HAL_Driver/Src/stm32f4xx_hal_dma.c ****       /* Clear the transfer complete flag */
 5155              		.loc 1 559 0 discriminator 7
 5156 1302 03F58063 		add	r3, r3, #1024
 5157 1306 9E45     		cmp	lr, r3
ARM GAS  /tmp/ccIvKYQX.s 			page 121


 5158 1308 28D0     		beq	.L766
 559:../Drivers/STM32F4xx_HAL_Driver/Src/stm32f4xx_hal_dma.c ****       /* Clear the transfer complete flag */
 5159              		.loc 1 559 0 discriminator 9
 5160 130a A3F58963 		sub	r3, r3, #1096
 5161 130e 9E45     		cmp	lr, r3
 5162 1310 26D0     		beq	.L767
 559:../Drivers/STM32F4xx_HAL_Driver/Src/stm32f4xx_hal_dma.c ****       /* Clear the transfer complete flag */
 5163              		.loc 1 559 0 discriminator 11
 5164 1312 03F58063 		add	r3, r3, #1024
 5165 1316 9E45     		cmp	lr, r3
 5166 1318 25D0     		beq	.L768
 559:../Drivers/STM32F4xx_HAL_Driver/Src/stm32f4xx_hal_dma.c ****       /* Clear the transfer complete flag */
 5167              		.loc 1 559 0 discriminator 13
 5168 131a A3F56873 		sub	r3, r3, #928
 5169 131e 9E45     		cmp	lr, r3
 5170 1320 24D0     		beq	.L769
 559:../Drivers/STM32F4xx_HAL_Driver/Src/stm32f4xx_hal_dma.c ****       /* Clear the transfer complete flag */
 5171              		.loc 1 559 0 discriminator 15
 5172 1322 03F58063 		add	r3, r3, #1024
 5173 1326 9E45     		cmp	lr, r3
 5174 1328 23D0     		beq	.L770
 559:../Drivers/STM32F4xx_HAL_Driver/Src/stm32f4xx_hal_dma.c ****       /* Clear the transfer complete flag */
 5175              		.loc 1 559 0 discriminator 17
 5176 132a A3F58963 		sub	r3, r3, #1096
 5177 132e 9E45     		cmp	lr, r3
 5178 1330 22D0     		beq	.L771
 559:../Drivers/STM32F4xx_HAL_Driver/Src/stm32f4xx_hal_dma.c ****       /* Clear the transfer complete flag */
 5179              		.loc 1 559 0 discriminator 19
 5180 1332 03F58063 		add	r3, r3, #1024
 5181 1336 9E45     		cmp	lr, r3
 5182 1338 21D0     		beq	.L772
 559:../Drivers/STM32F4xx_HAL_Driver/Src/stm32f4xx_hal_dma.c ****       /* Clear the transfer complete flag */
 5183              		.loc 1 559 0 discriminator 21
 5184 133a A3F56873 		sub	r3, r3, #928
 5185 133e 9E45     		cmp	lr, r3
 5186 1340 20D0     		beq	.L773
 559:../Drivers/STM32F4xx_HAL_Driver/Src/stm32f4xx_hal_dma.c ****       /* Clear the transfer complete flag */
 5187              		.loc 1 559 0 discriminator 23
 5188 1342 03F58063 		add	r3, r3, #1024
 5189 1346 9E45     		cmp	lr, r3
 5190 1348 1FD1     		bne	.L774
 559:../Drivers/STM32F4xx_HAL_Driver/Src/stm32f4xx_hal_dma.c ****       /* Clear the transfer complete flag */
 5191              		.loc 1 559 0
 5192 134a 4FF48013 		mov	r3, #1048576
 5193 134e 1EE0     		b	.L394
 5194              	.L763:
 5195 1350 1023     		movs	r3, #16
 5196 1352 1CE0     		b	.L394
 5197              	.L764:
 5198 1354 1023     		movs	r3, #16
 5199 1356 1AE0     		b	.L394
 5200              	.L765:
 5201 1358 1023     		movs	r3, #16
 5202 135a 18E0     		b	.L394
 5203              	.L766:
 5204 135c 1023     		movs	r3, #16
 5205 135e 16E0     		b	.L394
ARM GAS  /tmp/ccIvKYQX.s 			page 122


 5206              	.L767:
 5207 1360 4FF48063 		mov	r3, #1024
 5208 1364 13E0     		b	.L394
 5209              	.L768:
 5210 1366 4FF48063 		mov	r3, #1024
 5211 136a 10E0     		b	.L394
 5212              	.L769:
 5213 136c 4FF48063 		mov	r3, #1024
 5214 1370 0DE0     		b	.L394
 5215              	.L770:
 5216 1372 4FF48063 		mov	r3, #1024
 5217 1376 0AE0     		b	.L394
 5218              	.L771:
 5219 1378 4FF48013 		mov	r3, #1048576
 5220 137c 07E0     		b	.L394
 5221              	.L772:
 5222 137e 4FF48013 		mov	r3, #1048576
 5223 1382 04E0     		b	.L394
 5224              	.L773:
 5225 1384 4FF48013 		mov	r3, #1048576
 5226 1388 01E0     		b	.L394
 5227              	.L774:
 5228 138a 4FF08063 		mov	r3, #67108864
 5229              	.L394:
 559:../Drivers/STM32F4xx_HAL_Driver/Src/stm32f4xx_hal_dma.c ****       /* Clear the transfer complete flag */
 5230              		.loc 1 559 0 discriminator 50
 5231 138e 074A     		ldr	r2, .L1065+24
 5232 1390 D360     		str	r3, [r2, #12]
 5233 1392 0EE1     		b	.L395
 5234              	.L1066:
 5235              		.align	2
 5236              	.L1065:
 5237 1394 58600240 		.word	1073897560
 5238 1398 04008000 		.word	8388612
 5239 139c 00600240 		.word	1073897472
 5240 13a0 10600240 		.word	1073897488
 5241 13a4 58640240 		.word	1073898584
 5242 13a8 B8600240 		.word	1073897656
 5243 13ac 00640240 		.word	1073898496
 5244              	.L393:
 559:../Drivers/STM32F4xx_HAL_Driver/Src/stm32f4xx_hal_dma.c ****       /* Clear the transfer complete flag */
 5245              		.loc 1 559 0 discriminator 2
 5246 13b0 AC4B     		ldr	r3, .L1067
 5247 13b2 9E45     		cmp	lr, r3
 5248 13b4 53D9     		bls	.L396
 559:../Drivers/STM32F4xx_HAL_Driver/Src/stm32f4xx_hal_dma.c ****       /* Clear the transfer complete flag */
 5249              		.loc 1 559 0 discriminator 51
 5250 13b6 A83B     		subs	r3, r3, #168
 5251 13b8 9E45     		cmp	lr, r3
 5252 13ba 2ED0     		beq	.L775
 559:../Drivers/STM32F4xx_HAL_Driver/Src/stm32f4xx_hal_dma.c ****       /* Clear the transfer complete flag */
 5253              		.loc 1 559 0 discriminator 53
 5254 13bc 03F58063 		add	r3, r3, #1024
 5255 13c0 9E45     		cmp	lr, r3
 5256 13c2 2CD0     		beq	.L776
 559:../Drivers/STM32F4xx_HAL_Driver/Src/stm32f4xx_hal_dma.c ****       /* Clear the transfer complete flag */
 5257              		.loc 1 559 0 discriminator 55
ARM GAS  /tmp/ccIvKYQX.s 			page 123


 5258 13c4 A3F56873 		sub	r3, r3, #928
 5259 13c8 9E45     		cmp	lr, r3
 5260 13ca 2AD0     		beq	.L777
 559:../Drivers/STM32F4xx_HAL_Driver/Src/stm32f4xx_hal_dma.c ****       /* Clear the transfer complete flag */
 5261              		.loc 1 559 0 discriminator 57
 5262 13cc 03F58063 		add	r3, r3, #1024
 5263 13d0 9E45     		cmp	lr, r3
 5264 13d2 28D0     		beq	.L778
 559:../Drivers/STM32F4xx_HAL_Driver/Src/stm32f4xx_hal_dma.c ****       /* Clear the transfer complete flag */
 5265              		.loc 1 559 0 discriminator 59
 5266 13d4 A3F58963 		sub	r3, r3, #1096
 5267 13d8 9E45     		cmp	lr, r3
 5268 13da 26D0     		beq	.L779
 559:../Drivers/STM32F4xx_HAL_Driver/Src/stm32f4xx_hal_dma.c ****       /* Clear the transfer complete flag */
 5269              		.loc 1 559 0 discriminator 61
 5270 13dc 03F58063 		add	r3, r3, #1024
 5271 13e0 9E45     		cmp	lr, r3
 5272 13e2 25D0     		beq	.L780
 559:../Drivers/STM32F4xx_HAL_Driver/Src/stm32f4xx_hal_dma.c ****       /* Clear the transfer complete flag */
 5273              		.loc 1 559 0 discriminator 63
 5274 13e4 A3F56873 		sub	r3, r3, #928
 5275 13e8 9E45     		cmp	lr, r3
 5276 13ea 24D0     		beq	.L781
 559:../Drivers/STM32F4xx_HAL_Driver/Src/stm32f4xx_hal_dma.c ****       /* Clear the transfer complete flag */
 5277              		.loc 1 559 0 discriminator 65
 5278 13ec 03F58063 		add	r3, r3, #1024
 5279 13f0 9E45     		cmp	lr, r3
 5280 13f2 23D0     		beq	.L782
 559:../Drivers/STM32F4xx_HAL_Driver/Src/stm32f4xx_hal_dma.c ****       /* Clear the transfer complete flag */
 5281              		.loc 1 559 0 discriminator 67
 5282 13f4 A3F58963 		sub	r3, r3, #1096
 5283 13f8 9E45     		cmp	lr, r3
 5284 13fa 22D0     		beq	.L783
 559:../Drivers/STM32F4xx_HAL_Driver/Src/stm32f4xx_hal_dma.c ****       /* Clear the transfer complete flag */
 5285              		.loc 1 559 0 discriminator 69
 5286 13fc 03F58063 		add	r3, r3, #1024
 5287 1400 9E45     		cmp	lr, r3
 5288 1402 21D0     		beq	.L784
 559:../Drivers/STM32F4xx_HAL_Driver/Src/stm32f4xx_hal_dma.c ****       /* Clear the transfer complete flag */
 5289              		.loc 1 559 0 discriminator 71
 5290 1404 A3F56873 		sub	r3, r3, #928
 5291 1408 9E45     		cmp	lr, r3
 5292 140a 20D0     		beq	.L785
 559:../Drivers/STM32F4xx_HAL_Driver/Src/stm32f4xx_hal_dma.c ****       /* Clear the transfer complete flag */
 5293              		.loc 1 559 0 discriminator 73
 5294 140c 03F58063 		add	r3, r3, #1024
 5295 1410 9E45     		cmp	lr, r3
 5296 1412 1FD1     		bne	.L786
 559:../Drivers/STM32F4xx_HAL_Driver/Src/stm32f4xx_hal_dma.c ****       /* Clear the transfer complete flag */
 5297              		.loc 1 559 0
 5298 1414 4FF48013 		mov	r3, #1048576
 5299 1418 1EE0     		b	.L397
 5300              	.L775:
 5301 141a 1023     		movs	r3, #16
 5302 141c 1CE0     		b	.L397
 5303              	.L776:
 5304 141e 1023     		movs	r3, #16
ARM GAS  /tmp/ccIvKYQX.s 			page 124


 5305 1420 1AE0     		b	.L397
 5306              	.L777:
 5307 1422 1023     		movs	r3, #16
 5308 1424 18E0     		b	.L397
 5309              	.L778:
 5310 1426 1023     		movs	r3, #16
 5311 1428 16E0     		b	.L397
 5312              	.L779:
 5313 142a 4FF48063 		mov	r3, #1024
 5314 142e 13E0     		b	.L397
 5315              	.L780:
 5316 1430 4FF48063 		mov	r3, #1024
 5317 1434 10E0     		b	.L397
 5318              	.L781:
 5319 1436 4FF48063 		mov	r3, #1024
 5320 143a 0DE0     		b	.L397
 5321              	.L782:
 5322 143c 4FF48063 		mov	r3, #1024
 5323 1440 0AE0     		b	.L397
 5324              	.L783:
 5325 1442 4FF48013 		mov	r3, #1048576
 5326 1446 07E0     		b	.L397
 5327              	.L784:
 5328 1448 4FF48013 		mov	r3, #1048576
 5329 144c 04E0     		b	.L397
 5330              	.L785:
 5331 144e 4FF48013 		mov	r3, #1048576
 5332 1452 01E0     		b	.L397
 5333              	.L786:
 5334 1454 4FF08063 		mov	r3, #67108864
 5335              	.L397:
 559:../Drivers/STM32F4xx_HAL_Driver/Src/stm32f4xx_hal_dma.c ****       /* Clear the transfer complete flag */
 5336              		.loc 1 559 0 discriminator 100
 5337 1458 834A     		ldr	r2, .L1067+4
 5338 145a 9360     		str	r3, [r2, #8]
 5339 145c A9E0     		b	.L395
 5340              	.L396:
 559:../Drivers/STM32F4xx_HAL_Driver/Src/stm32f4xx_hal_dma.c ****       /* Clear the transfer complete flag */
 5341              		.loc 1 559 0 discriminator 52
 5342 145e 834B     		ldr	r3, .L1067+8
 5343 1460 9E45     		cmp	lr, r3
 5344 1462 53D9     		bls	.L399
 559:../Drivers/STM32F4xx_HAL_Driver/Src/stm32f4xx_hal_dma.c ****       /* Clear the transfer complete flag */
 5345              		.loc 1 559 0 discriminator 102
 5346 1464 483B     		subs	r3, r3, #72
 5347 1466 9E45     		cmp	lr, r3
 5348 1468 2ED0     		beq	.L787
 559:../Drivers/STM32F4xx_HAL_Driver/Src/stm32f4xx_hal_dma.c ****       /* Clear the transfer complete flag */
 5349              		.loc 1 559 0 discriminator 104
 5350 146a 03F58063 		add	r3, r3, #1024
 5351 146e 9E45     		cmp	lr, r3
 5352 1470 2CD0     		beq	.L788
 559:../Drivers/STM32F4xx_HAL_Driver/Src/stm32f4xx_hal_dma.c ****       /* Clear the transfer complete flag */
 5353              		.loc 1 559 0 discriminator 106
 5354 1472 A3F56873 		sub	r3, r3, #928
 5355 1476 9E45     		cmp	lr, r3
 5356 1478 2AD0     		beq	.L789
ARM GAS  /tmp/ccIvKYQX.s 			page 125


 559:../Drivers/STM32F4xx_HAL_Driver/Src/stm32f4xx_hal_dma.c ****       /* Clear the transfer complete flag */
 5357              		.loc 1 559 0 discriminator 108
 5358 147a 03F58063 		add	r3, r3, #1024
 5359 147e 9E45     		cmp	lr, r3
 5360 1480 28D0     		beq	.L790
 559:../Drivers/STM32F4xx_HAL_Driver/Src/stm32f4xx_hal_dma.c ****       /* Clear the transfer complete flag */
 5361              		.loc 1 559 0 discriminator 110
 5362 1482 A3F58963 		sub	r3, r3, #1096
 5363 1486 9E45     		cmp	lr, r3
 5364 1488 26D0     		beq	.L791
 559:../Drivers/STM32F4xx_HAL_Driver/Src/stm32f4xx_hal_dma.c ****       /* Clear the transfer complete flag */
 5365              		.loc 1 559 0 discriminator 112
 5366 148a 03F58063 		add	r3, r3, #1024
 5367 148e 9E45     		cmp	lr, r3
 5368 1490 25D0     		beq	.L792
 559:../Drivers/STM32F4xx_HAL_Driver/Src/stm32f4xx_hal_dma.c ****       /* Clear the transfer complete flag */
 5369              		.loc 1 559 0 discriminator 114
 5370 1492 A3F56873 		sub	r3, r3, #928
 5371 1496 9E45     		cmp	lr, r3
 5372 1498 24D0     		beq	.L793
 559:../Drivers/STM32F4xx_HAL_Driver/Src/stm32f4xx_hal_dma.c ****       /* Clear the transfer complete flag */
 5373              		.loc 1 559 0 discriminator 116
 5374 149a 03F58063 		add	r3, r3, #1024
 5375 149e 9E45     		cmp	lr, r3
 5376 14a0 23D0     		beq	.L794
 559:../Drivers/STM32F4xx_HAL_Driver/Src/stm32f4xx_hal_dma.c ****       /* Clear the transfer complete flag */
 5377              		.loc 1 559 0 discriminator 118
 5378 14a2 A3F58963 		sub	r3, r3, #1096
 5379 14a6 9E45     		cmp	lr, r3
 5380 14a8 22D0     		beq	.L795
 559:../Drivers/STM32F4xx_HAL_Driver/Src/stm32f4xx_hal_dma.c ****       /* Clear the transfer complete flag */
 5381              		.loc 1 559 0 discriminator 120
 5382 14aa 03F58063 		add	r3, r3, #1024
 5383 14ae 9E45     		cmp	lr, r3
 5384 14b0 21D0     		beq	.L796
 559:../Drivers/STM32F4xx_HAL_Driver/Src/stm32f4xx_hal_dma.c ****       /* Clear the transfer complete flag */
 5385              		.loc 1 559 0 discriminator 122
 5386 14b2 A3F56873 		sub	r3, r3, #928
 5387 14b6 9E45     		cmp	lr, r3
 5388 14b8 20D0     		beq	.L797
 559:../Drivers/STM32F4xx_HAL_Driver/Src/stm32f4xx_hal_dma.c ****       /* Clear the transfer complete flag */
 5389              		.loc 1 559 0 discriminator 124
 5390 14ba 03F58063 		add	r3, r3, #1024
 5391 14be 9E45     		cmp	lr, r3
 5392 14c0 1FD1     		bne	.L798
 559:../Drivers/STM32F4xx_HAL_Driver/Src/stm32f4xx_hal_dma.c ****       /* Clear the transfer complete flag */
 5393              		.loc 1 559 0
 5394 14c2 4FF48013 		mov	r3, #1048576
 5395 14c6 1EE0     		b	.L400
 5396              	.L787:
 5397 14c8 1023     		movs	r3, #16
 5398 14ca 1CE0     		b	.L400
 5399              	.L788:
 5400 14cc 1023     		movs	r3, #16
 5401 14ce 1AE0     		b	.L400
 5402              	.L789:
 5403 14d0 1023     		movs	r3, #16
ARM GAS  /tmp/ccIvKYQX.s 			page 126


 5404 14d2 18E0     		b	.L400
 5405              	.L790:
 5406 14d4 1023     		movs	r3, #16
 5407 14d6 16E0     		b	.L400
 5408              	.L791:
 5409 14d8 4FF48063 		mov	r3, #1024
 5410 14dc 13E0     		b	.L400
 5411              	.L792:
 5412 14de 4FF48063 		mov	r3, #1024
 5413 14e2 10E0     		b	.L400
 5414              	.L793:
 5415 14e4 4FF48063 		mov	r3, #1024
 5416 14e8 0DE0     		b	.L400
 5417              	.L794:
 5418 14ea 4FF48063 		mov	r3, #1024
 5419 14ee 0AE0     		b	.L400
 5420              	.L795:
 5421 14f0 4FF48013 		mov	r3, #1048576
 5422 14f4 07E0     		b	.L400
 5423              	.L796:
 5424 14f6 4FF48013 		mov	r3, #1048576
 5425 14fa 04E0     		b	.L400
 5426              	.L797:
 5427 14fc 4FF48013 		mov	r3, #1048576
 5428 1500 01E0     		b	.L400
 5429              	.L798:
 5430 1502 4FF08063 		mov	r3, #67108864
 5431              	.L400:
 559:../Drivers/STM32F4xx_HAL_Driver/Src/stm32f4xx_hal_dma.c ****       /* Clear the transfer complete flag */
 5432              		.loc 1 559 0 discriminator 151
 5433 1506 5A4A     		ldr	r2, .L1067+12
 5434 1508 D360     		str	r3, [r2, #12]
 5435 150a 52E0     		b	.L395
 5436              	.L399:
 559:../Drivers/STM32F4xx_HAL_Driver/Src/stm32f4xx_hal_dma.c ****       /* Clear the transfer complete flag */
 5437              		.loc 1 559 0 discriminator 103
 5438 150c 594B     		ldr	r3, .L1067+16
 5439 150e 9E45     		cmp	lr, r3
 5440 1510 2ED0     		beq	.L799
 559:../Drivers/STM32F4xx_HAL_Driver/Src/stm32f4xx_hal_dma.c ****       /* Clear the transfer complete flag */
 5441              		.loc 1 559 0 discriminator 153
 5442 1512 03F58063 		add	r3, r3, #1024
 5443 1516 9E45     		cmp	lr, r3
 5444 1518 2CD0     		beq	.L800
 559:../Drivers/STM32F4xx_HAL_Driver/Src/stm32f4xx_hal_dma.c ****       /* Clear the transfer complete flag */
 5445              		.loc 1 559 0 discriminator 155
 5446 151a A3F56873 		sub	r3, r3, #928
 5447 151e 9E45     		cmp	lr, r3
 5448 1520 2AD0     		beq	.L801
 559:../Drivers/STM32F4xx_HAL_Driver/Src/stm32f4xx_hal_dma.c ****       /* Clear the transfer complete flag */
 5449              		.loc 1 559 0 discriminator 157
 5450 1522 03F58063 		add	r3, r3, #1024
 5451 1526 9E45     		cmp	lr, r3
 5452 1528 28D0     		beq	.L802
 559:../Drivers/STM32F4xx_HAL_Driver/Src/stm32f4xx_hal_dma.c ****       /* Clear the transfer complete flag */
 5453              		.loc 1 559 0 discriminator 159
 5454 152a A3F58963 		sub	r3, r3, #1096
ARM GAS  /tmp/ccIvKYQX.s 			page 127


 5455 152e 9E45     		cmp	lr, r3
 5456 1530 26D0     		beq	.L803
 559:../Drivers/STM32F4xx_HAL_Driver/Src/stm32f4xx_hal_dma.c ****       /* Clear the transfer complete flag */
 5457              		.loc 1 559 0 discriminator 161
 5458 1532 03F58063 		add	r3, r3, #1024
 5459 1536 9E45     		cmp	lr, r3
 5460 1538 25D0     		beq	.L804
 559:../Drivers/STM32F4xx_HAL_Driver/Src/stm32f4xx_hal_dma.c ****       /* Clear the transfer complete flag */
 5461              		.loc 1 559 0 discriminator 163
 5462 153a A3F56873 		sub	r3, r3, #928
 5463 153e 9E45     		cmp	lr, r3
 5464 1540 24D0     		beq	.L805
 559:../Drivers/STM32F4xx_HAL_Driver/Src/stm32f4xx_hal_dma.c ****       /* Clear the transfer complete flag */
 5465              		.loc 1 559 0 discriminator 165
 5466 1542 03F58063 		add	r3, r3, #1024
 5467 1546 9E45     		cmp	lr, r3
 5468 1548 23D0     		beq	.L806
 559:../Drivers/STM32F4xx_HAL_Driver/Src/stm32f4xx_hal_dma.c ****       /* Clear the transfer complete flag */
 5469              		.loc 1 559 0 discriminator 167
 5470 154a A3F58963 		sub	r3, r3, #1096
 5471 154e 9E45     		cmp	lr, r3
 5472 1550 22D0     		beq	.L807
 559:../Drivers/STM32F4xx_HAL_Driver/Src/stm32f4xx_hal_dma.c ****       /* Clear the transfer complete flag */
 5473              		.loc 1 559 0 discriminator 169
 5474 1552 03F58063 		add	r3, r3, #1024
 5475 1556 9E45     		cmp	lr, r3
 5476 1558 21D0     		beq	.L808
 559:../Drivers/STM32F4xx_HAL_Driver/Src/stm32f4xx_hal_dma.c ****       /* Clear the transfer complete flag */
 5477              		.loc 1 559 0 discriminator 171
 5478 155a A3F56873 		sub	r3, r3, #928
 5479 155e 9E45     		cmp	lr, r3
 5480 1560 20D0     		beq	.L809
 559:../Drivers/STM32F4xx_HAL_Driver/Src/stm32f4xx_hal_dma.c ****       /* Clear the transfer complete flag */
 5481              		.loc 1 559 0 discriminator 173
 5482 1562 03F58063 		add	r3, r3, #1024
 5483 1566 9E45     		cmp	lr, r3
 5484 1568 1FD1     		bne	.L810
 559:../Drivers/STM32F4xx_HAL_Driver/Src/stm32f4xx_hal_dma.c ****       /* Clear the transfer complete flag */
 5485              		.loc 1 559 0
 5486 156a 4FF48013 		mov	r3, #1048576
 5487 156e 1EE0     		b	.L401
 5488              	.L799:
 5489 1570 1023     		movs	r3, #16
 5490 1572 1CE0     		b	.L401
 5491              	.L800:
 5492 1574 1023     		movs	r3, #16
 5493 1576 1AE0     		b	.L401
 5494              	.L801:
 5495 1578 1023     		movs	r3, #16
 5496 157a 18E0     		b	.L401
 5497              	.L802:
 5498 157c 1023     		movs	r3, #16
 5499 157e 16E0     		b	.L401
 5500              	.L803:
 5501 1580 4FF48063 		mov	r3, #1024
 5502 1584 13E0     		b	.L401
 5503              	.L804:
ARM GAS  /tmp/ccIvKYQX.s 			page 128


 5504 1586 4FF48063 		mov	r3, #1024
 5505 158a 10E0     		b	.L401
 5506              	.L805:
 5507 158c 4FF48063 		mov	r3, #1024
 5508 1590 0DE0     		b	.L401
 5509              	.L806:
 5510 1592 4FF48063 		mov	r3, #1024
 5511 1596 0AE0     		b	.L401
 5512              	.L807:
 5513 1598 4FF48013 		mov	r3, #1048576
 5514 159c 07E0     		b	.L401
 5515              	.L808:
 5516 159e 4FF48013 		mov	r3, #1048576
 5517 15a2 04E0     		b	.L401
 5518              	.L809:
 5519 15a4 4FF48013 		mov	r3, #1048576
 5520 15a8 01E0     		b	.L401
 5521              	.L810:
 5522 15aa 4FF08063 		mov	r3, #67108864
 5523              	.L401:
 559:../Drivers/STM32F4xx_HAL_Driver/Src/stm32f4xx_hal_dma.c ****       /* Clear the transfer complete flag */
 5524              		.loc 1 559 0 discriminator 200
 5525 15ae 304A     		ldr	r2, .L1067+12
 5526 15b0 9360     		str	r3, [r2, #8]
 5527              	.L395:
 561:../Drivers/STM32F4xx_HAL_Driver/Src/stm32f4xx_hal_dma.c **** 
 5528              		.loc 1 561 0 is_stmt 1
 5529 15b2 2368     		ldr	r3, [r4]
 5530 15b4 304A     		ldr	r2, .L1067+20
 5531 15b6 9342     		cmp	r3, r2
 5532 15b8 60D9     		bls	.L402
 561:../Drivers/STM32F4xx_HAL_Driver/Src/stm32f4xx_hal_dma.c **** 
 5533              		.loc 1 561 0 is_stmt 0 discriminator 1
 5534 15ba A2F58962 		sub	r2, r2, #1096
 5535 15be 9342     		cmp	r3, r2
 5536 15c0 2ED0     		beq	.L811
 561:../Drivers/STM32F4xx_HAL_Driver/Src/stm32f4xx_hal_dma.c **** 
 5537              		.loc 1 561 0 discriminator 3
 5538 15c2 02F58062 		add	r2, r2, #1024
 5539 15c6 9342     		cmp	r3, r2
 5540 15c8 2CD0     		beq	.L812
 561:../Drivers/STM32F4xx_HAL_Driver/Src/stm32f4xx_hal_dma.c **** 
 5541              		.loc 1 561 0 discriminator 5
 5542 15ca A2F56872 		sub	r2, r2, #928
 5543 15ce 9342     		cmp	r3, r2
 5544 15d0 2AD0     		beq	.L813
 561:../Drivers/STM32F4xx_HAL_Driver/Src/stm32f4xx_hal_dma.c **** 
 5545              		.loc 1 561 0 discriminator 7
 5546 15d2 02F58062 		add	r2, r2, #1024
 5547 15d6 9342     		cmp	r3, r2
 5548 15d8 28D0     		beq	.L814
 561:../Drivers/STM32F4xx_HAL_Driver/Src/stm32f4xx_hal_dma.c **** 
 5549              		.loc 1 561 0 discriminator 9
 5550 15da A2F58962 		sub	r2, r2, #1096
 5551 15de 9342     		cmp	r3, r2
 5552 15e0 26D0     		beq	.L815
 561:../Drivers/STM32F4xx_HAL_Driver/Src/stm32f4xx_hal_dma.c **** 
ARM GAS  /tmp/ccIvKYQX.s 			page 129


 5553              		.loc 1 561 0 discriminator 11
 5554 15e2 02F58062 		add	r2, r2, #1024
 5555 15e6 9342     		cmp	r3, r2
 5556 15e8 25D0     		beq	.L816
 561:../Drivers/STM32F4xx_HAL_Driver/Src/stm32f4xx_hal_dma.c **** 
 5557              		.loc 1 561 0 discriminator 13
 5558 15ea A2F56872 		sub	r2, r2, #928
 5559 15ee 9342     		cmp	r3, r2
 5560 15f0 24D0     		beq	.L817
 561:../Drivers/STM32F4xx_HAL_Driver/Src/stm32f4xx_hal_dma.c **** 
 5561              		.loc 1 561 0 discriminator 15
 5562 15f2 02F58062 		add	r2, r2, #1024
 5563 15f6 9342     		cmp	r3, r2
 5564 15f8 23D0     		beq	.L818
 561:../Drivers/STM32F4xx_HAL_Driver/Src/stm32f4xx_hal_dma.c **** 
 5565              		.loc 1 561 0 discriminator 17
 5566 15fa A2F58962 		sub	r2, r2, #1096
 5567 15fe 9342     		cmp	r3, r2
 5568 1600 22D0     		beq	.L819
 561:../Drivers/STM32F4xx_HAL_Driver/Src/stm32f4xx_hal_dma.c **** 
 5569              		.loc 1 561 0 discriminator 19
 5570 1602 02F58062 		add	r2, r2, #1024
 5571 1606 9342     		cmp	r3, r2
 5572 1608 21D0     		beq	.L820
 561:../Drivers/STM32F4xx_HAL_Driver/Src/stm32f4xx_hal_dma.c **** 
 5573              		.loc 1 561 0 discriminator 21
 5574 160a A2F56872 		sub	r2, r2, #928
 5575 160e 9342     		cmp	r3, r2
 5576 1610 20D0     		beq	.L821
 561:../Drivers/STM32F4xx_HAL_Driver/Src/stm32f4xx_hal_dma.c **** 
 5577              		.loc 1 561 0 discriminator 23
 5578 1612 02F58062 		add	r2, r2, #1024
 5579 1616 9342     		cmp	r3, r2
 5580 1618 1FD1     		bne	.L822
 561:../Drivers/STM32F4xx_HAL_Driver/Src/stm32f4xx_hal_dma.c **** 
 5581              		.loc 1 561 0
 5582 161a 4FF40013 		mov	r3, #2097152
 5583 161e 1EE0     		b	.L403
 5584              	.L811:
 5585 1620 2023     		movs	r3, #32
 5586 1622 1CE0     		b	.L403
 5587              	.L812:
 5588 1624 2023     		movs	r3, #32
 5589 1626 1AE0     		b	.L403
 5590              	.L813:
 5591 1628 2023     		movs	r3, #32
 5592 162a 18E0     		b	.L403
 5593              	.L814:
 5594 162c 2023     		movs	r3, #32
 5595 162e 16E0     		b	.L403
 5596              	.L815:
 5597 1630 4FF40063 		mov	r3, #2048
 5598 1634 13E0     		b	.L403
 5599              	.L816:
 5600 1636 4FF40063 		mov	r3, #2048
 5601 163a 10E0     		b	.L403
 5602              	.L817:
ARM GAS  /tmp/ccIvKYQX.s 			page 130


 5603 163c 4FF40063 		mov	r3, #2048
 5604 1640 0DE0     		b	.L403
 5605              	.L818:
 5606 1642 4FF40063 		mov	r3, #2048
 5607 1646 0AE0     		b	.L403
 5608              	.L819:
 5609 1648 4FF40013 		mov	r3, #2097152
 5610 164c 07E0     		b	.L403
 5611              	.L820:
 5612 164e 4FF40013 		mov	r3, #2097152
 5613 1652 04E0     		b	.L403
 5614              	.L821:
 5615 1654 4FF40013 		mov	r3, #2097152
 5616 1658 01E0     		b	.L403
 5617              	.L822:
 5618 165a 4FF00063 		mov	r3, #134217728
 5619              	.L403:
 561:../Drivers/STM32F4xx_HAL_Driver/Src/stm32f4xx_hal_dma.c **** 
 5620              		.loc 1 561 0 discriminator 50
 5621 165e 024A     		ldr	r2, .L1067+4
 5622 1660 D360     		str	r3, [r2, #12]
 5623 1662 0CE1     		b	.L404
 5624              	.L1068:
 5625              		.align	2
 5626              	.L1067:
 5627 1664 B8600240 		.word	1073897656
 5628 1668 00640240 		.word	1073898496
 5629 166c 58600240 		.word	1073897560
 5630 1670 00600240 		.word	1073897472
 5631 1674 10600240 		.word	1073897488
 5632 1678 58640240 		.word	1073898584
 5633              	.L402:
 561:../Drivers/STM32F4xx_HAL_Driver/Src/stm32f4xx_hal_dma.c **** 
 5634              		.loc 1 561 0 discriminator 2
 5635 167c B54A     		ldr	r2, .L1069
 5636 167e 9342     		cmp	r3, r2
 5637 1680 53D9     		bls	.L405
 561:../Drivers/STM32F4xx_HAL_Driver/Src/stm32f4xx_hal_dma.c **** 
 5638              		.loc 1 561 0 discriminator 51
 5639 1682 A83A     		subs	r2, r2, #168
 5640 1684 9342     		cmp	r3, r2
 5641 1686 2ED0     		beq	.L823
 561:../Drivers/STM32F4xx_HAL_Driver/Src/stm32f4xx_hal_dma.c **** 
 5642              		.loc 1 561 0 discriminator 53
 5643 1688 02F58062 		add	r2, r2, #1024
 5644 168c 9342     		cmp	r3, r2
 5645 168e 2CD0     		beq	.L824
 561:../Drivers/STM32F4xx_HAL_Driver/Src/stm32f4xx_hal_dma.c **** 
 5646              		.loc 1 561 0 discriminator 55
 5647 1690 A2F56872 		sub	r2, r2, #928
 5648 1694 9342     		cmp	r3, r2
 5649 1696 2AD0     		beq	.L825
 561:../Drivers/STM32F4xx_HAL_Driver/Src/stm32f4xx_hal_dma.c **** 
 5650              		.loc 1 561 0 discriminator 57
 5651 1698 02F58062 		add	r2, r2, #1024
 5652 169c 9342     		cmp	r3, r2
 5653 169e 28D0     		beq	.L826
ARM GAS  /tmp/ccIvKYQX.s 			page 131


 561:../Drivers/STM32F4xx_HAL_Driver/Src/stm32f4xx_hal_dma.c **** 
 5654              		.loc 1 561 0 discriminator 59
 5655 16a0 A2F58962 		sub	r2, r2, #1096
 5656 16a4 9342     		cmp	r3, r2
 5657 16a6 26D0     		beq	.L827
 561:../Drivers/STM32F4xx_HAL_Driver/Src/stm32f4xx_hal_dma.c **** 
 5658              		.loc 1 561 0 discriminator 61
 5659 16a8 02F58062 		add	r2, r2, #1024
 5660 16ac 9342     		cmp	r3, r2
 5661 16ae 25D0     		beq	.L828
 561:../Drivers/STM32F4xx_HAL_Driver/Src/stm32f4xx_hal_dma.c **** 
 5662              		.loc 1 561 0 discriminator 63
 5663 16b0 A2F56872 		sub	r2, r2, #928
 5664 16b4 9342     		cmp	r3, r2
 5665 16b6 24D0     		beq	.L829
 561:../Drivers/STM32F4xx_HAL_Driver/Src/stm32f4xx_hal_dma.c **** 
 5666              		.loc 1 561 0 discriminator 65
 5667 16b8 02F58062 		add	r2, r2, #1024
 5668 16bc 9342     		cmp	r3, r2
 5669 16be 23D0     		beq	.L830
 561:../Drivers/STM32F4xx_HAL_Driver/Src/stm32f4xx_hal_dma.c **** 
 5670              		.loc 1 561 0 discriminator 67
 5671 16c0 A2F58962 		sub	r2, r2, #1096
 5672 16c4 9342     		cmp	r3, r2
 5673 16c6 22D0     		beq	.L831
 561:../Drivers/STM32F4xx_HAL_Driver/Src/stm32f4xx_hal_dma.c **** 
 5674              		.loc 1 561 0 discriminator 69
 5675 16c8 02F58062 		add	r2, r2, #1024
 5676 16cc 9342     		cmp	r3, r2
 5677 16ce 21D0     		beq	.L832
 561:../Drivers/STM32F4xx_HAL_Driver/Src/stm32f4xx_hal_dma.c **** 
 5678              		.loc 1 561 0 discriminator 71
 5679 16d0 A2F56872 		sub	r2, r2, #928
 5680 16d4 9342     		cmp	r3, r2
 5681 16d6 20D0     		beq	.L833
 561:../Drivers/STM32F4xx_HAL_Driver/Src/stm32f4xx_hal_dma.c **** 
 5682              		.loc 1 561 0 discriminator 73
 5683 16d8 02F58062 		add	r2, r2, #1024
 5684 16dc 9342     		cmp	r3, r2
 5685 16de 1FD1     		bne	.L834
 561:../Drivers/STM32F4xx_HAL_Driver/Src/stm32f4xx_hal_dma.c **** 
 5686              		.loc 1 561 0
 5687 16e0 4FF40013 		mov	r3, #2097152
 5688 16e4 1EE0     		b	.L406
 5689              	.L823:
 5690 16e6 2023     		movs	r3, #32
 5691 16e8 1CE0     		b	.L406
 5692              	.L824:
 5693 16ea 2023     		movs	r3, #32
 5694 16ec 1AE0     		b	.L406
 5695              	.L825:
 5696 16ee 2023     		movs	r3, #32
 5697 16f0 18E0     		b	.L406
 5698              	.L826:
 5699 16f2 2023     		movs	r3, #32
 5700 16f4 16E0     		b	.L406
 5701              	.L827:
ARM GAS  /tmp/ccIvKYQX.s 			page 132


 5702 16f6 4FF40063 		mov	r3, #2048
 5703 16fa 13E0     		b	.L406
 5704              	.L828:
 5705 16fc 4FF40063 		mov	r3, #2048
 5706 1700 10E0     		b	.L406
 5707              	.L829:
 5708 1702 4FF40063 		mov	r3, #2048
 5709 1706 0DE0     		b	.L406
 5710              	.L830:
 5711 1708 4FF40063 		mov	r3, #2048
 5712 170c 0AE0     		b	.L406
 5713              	.L831:
 5714 170e 4FF40013 		mov	r3, #2097152
 5715 1712 07E0     		b	.L406
 5716              	.L832:
 5717 1714 4FF40013 		mov	r3, #2097152
 5718 1718 04E0     		b	.L406
 5719              	.L833:
 5720 171a 4FF40013 		mov	r3, #2097152
 5721 171e 01E0     		b	.L406
 5722              	.L834:
 5723 1720 4FF00063 		mov	r3, #134217728
 5724              	.L406:
 561:../Drivers/STM32F4xx_HAL_Driver/Src/stm32f4xx_hal_dma.c **** 
 5725              		.loc 1 561 0 discriminator 100
 5726 1724 8C4A     		ldr	r2, .L1069+4
 5727 1726 9360     		str	r3, [r2, #8]
 5728 1728 A9E0     		b	.L404
 5729              	.L405:
 561:../Drivers/STM32F4xx_HAL_Driver/Src/stm32f4xx_hal_dma.c **** 
 5730              		.loc 1 561 0 discriminator 52
 5731 172a 8C4A     		ldr	r2, .L1069+8
 5732 172c 9342     		cmp	r3, r2
 5733 172e 53D9     		bls	.L408
 561:../Drivers/STM32F4xx_HAL_Driver/Src/stm32f4xx_hal_dma.c **** 
 5734              		.loc 1 561 0 discriminator 102
 5735 1730 483A     		subs	r2, r2, #72
 5736 1732 9342     		cmp	r3, r2
 5737 1734 2ED0     		beq	.L835
 561:../Drivers/STM32F4xx_HAL_Driver/Src/stm32f4xx_hal_dma.c **** 
 5738              		.loc 1 561 0 discriminator 104
 5739 1736 02F58062 		add	r2, r2, #1024
 5740 173a 9342     		cmp	r3, r2
 5741 173c 2CD0     		beq	.L836
 561:../Drivers/STM32F4xx_HAL_Driver/Src/stm32f4xx_hal_dma.c **** 
 5742              		.loc 1 561 0 discriminator 106
 5743 173e A2F56872 		sub	r2, r2, #928
 5744 1742 9342     		cmp	r3, r2
 5745 1744 2AD0     		beq	.L837
 561:../Drivers/STM32F4xx_HAL_Driver/Src/stm32f4xx_hal_dma.c **** 
 5746              		.loc 1 561 0 discriminator 108
 5747 1746 02F58062 		add	r2, r2, #1024
 5748 174a 9342     		cmp	r3, r2
 5749 174c 28D0     		beq	.L838
 561:../Drivers/STM32F4xx_HAL_Driver/Src/stm32f4xx_hal_dma.c **** 
 5750              		.loc 1 561 0 discriminator 110
 5751 174e A2F58962 		sub	r2, r2, #1096
ARM GAS  /tmp/ccIvKYQX.s 			page 133


 5752 1752 9342     		cmp	r3, r2
 5753 1754 26D0     		beq	.L839
 561:../Drivers/STM32F4xx_HAL_Driver/Src/stm32f4xx_hal_dma.c **** 
 5754              		.loc 1 561 0 discriminator 112
 5755 1756 02F58062 		add	r2, r2, #1024
 5756 175a 9342     		cmp	r3, r2
 5757 175c 25D0     		beq	.L840
 561:../Drivers/STM32F4xx_HAL_Driver/Src/stm32f4xx_hal_dma.c **** 
 5758              		.loc 1 561 0 discriminator 114
 5759 175e A2F56872 		sub	r2, r2, #928
 5760 1762 9342     		cmp	r3, r2
 5761 1764 24D0     		beq	.L841
 561:../Drivers/STM32F4xx_HAL_Driver/Src/stm32f4xx_hal_dma.c **** 
 5762              		.loc 1 561 0 discriminator 116
 5763 1766 02F58062 		add	r2, r2, #1024
 5764 176a 9342     		cmp	r3, r2
 5765 176c 23D0     		beq	.L842
 561:../Drivers/STM32F4xx_HAL_Driver/Src/stm32f4xx_hal_dma.c **** 
 5766              		.loc 1 561 0 discriminator 118
 5767 176e A2F58962 		sub	r2, r2, #1096
 5768 1772 9342     		cmp	r3, r2
 5769 1774 22D0     		beq	.L843
 561:../Drivers/STM32F4xx_HAL_Driver/Src/stm32f4xx_hal_dma.c **** 
 5770              		.loc 1 561 0 discriminator 120
 5771 1776 02F58062 		add	r2, r2, #1024
 5772 177a 9342     		cmp	r3, r2
 5773 177c 21D0     		beq	.L844
 561:../Drivers/STM32F4xx_HAL_Driver/Src/stm32f4xx_hal_dma.c **** 
 5774              		.loc 1 561 0 discriminator 122
 5775 177e A2F56872 		sub	r2, r2, #928
 5776 1782 9342     		cmp	r3, r2
 5777 1784 20D0     		beq	.L845
 561:../Drivers/STM32F4xx_HAL_Driver/Src/stm32f4xx_hal_dma.c **** 
 5778              		.loc 1 561 0 discriminator 124
 5779 1786 02F58062 		add	r2, r2, #1024
 5780 178a 9342     		cmp	r3, r2
 5781 178c 1FD1     		bne	.L846
 561:../Drivers/STM32F4xx_HAL_Driver/Src/stm32f4xx_hal_dma.c **** 
 5782              		.loc 1 561 0
 5783 178e 4FF40013 		mov	r3, #2097152
 5784 1792 1EE0     		b	.L409
 5785              	.L835:
 5786 1794 2023     		movs	r3, #32
 5787 1796 1CE0     		b	.L409
 5788              	.L836:
 5789 1798 2023     		movs	r3, #32
 5790 179a 1AE0     		b	.L409
 5791              	.L837:
 5792 179c 2023     		movs	r3, #32
 5793 179e 18E0     		b	.L409
 5794              	.L838:
 5795 17a0 2023     		movs	r3, #32
 5796 17a2 16E0     		b	.L409
 5797              	.L839:
 5798 17a4 4FF40063 		mov	r3, #2048
 5799 17a8 13E0     		b	.L409
 5800              	.L840:
ARM GAS  /tmp/ccIvKYQX.s 			page 134


 5801 17aa 4FF40063 		mov	r3, #2048
 5802 17ae 10E0     		b	.L409
 5803              	.L841:
 5804 17b0 4FF40063 		mov	r3, #2048
 5805 17b4 0DE0     		b	.L409
 5806              	.L842:
 5807 17b6 4FF40063 		mov	r3, #2048
 5808 17ba 0AE0     		b	.L409
 5809              	.L843:
 5810 17bc 4FF40013 		mov	r3, #2097152
 5811 17c0 07E0     		b	.L409
 5812              	.L844:
 5813 17c2 4FF40013 		mov	r3, #2097152
 5814 17c6 04E0     		b	.L409
 5815              	.L845:
 5816 17c8 4FF40013 		mov	r3, #2097152
 5817 17cc 01E0     		b	.L409
 5818              	.L846:
 5819 17ce 4FF00063 		mov	r3, #134217728
 5820              	.L409:
 561:../Drivers/STM32F4xx_HAL_Driver/Src/stm32f4xx_hal_dma.c **** 
 5821              		.loc 1 561 0 discriminator 151
 5822 17d2 634A     		ldr	r2, .L1069+12
 5823 17d4 D360     		str	r3, [r2, #12]
 5824 17d6 52E0     		b	.L404
 5825              	.L408:
 561:../Drivers/STM32F4xx_HAL_Driver/Src/stm32f4xx_hal_dma.c **** 
 5826              		.loc 1 561 0 discriminator 103
 5827 17d8 624A     		ldr	r2, .L1069+16
 5828 17da 9342     		cmp	r3, r2
 5829 17dc 2ED0     		beq	.L847
 561:../Drivers/STM32F4xx_HAL_Driver/Src/stm32f4xx_hal_dma.c **** 
 5830              		.loc 1 561 0 discriminator 153
 5831 17de 02F58062 		add	r2, r2, #1024
 5832 17e2 9342     		cmp	r3, r2
 5833 17e4 2CD0     		beq	.L848
 561:../Drivers/STM32F4xx_HAL_Driver/Src/stm32f4xx_hal_dma.c **** 
 5834              		.loc 1 561 0 discriminator 155
 5835 17e6 A2F56872 		sub	r2, r2, #928
 5836 17ea 9342     		cmp	r3, r2
 5837 17ec 2AD0     		beq	.L849
 561:../Drivers/STM32F4xx_HAL_Driver/Src/stm32f4xx_hal_dma.c **** 
 5838              		.loc 1 561 0 discriminator 157
 5839 17ee 02F58062 		add	r2, r2, #1024
 5840 17f2 9342     		cmp	r3, r2
 5841 17f4 28D0     		beq	.L850
 561:../Drivers/STM32F4xx_HAL_Driver/Src/stm32f4xx_hal_dma.c **** 
 5842              		.loc 1 561 0 discriminator 159
 5843 17f6 A2F58962 		sub	r2, r2, #1096
 5844 17fa 9342     		cmp	r3, r2
 5845 17fc 26D0     		beq	.L851
 561:../Drivers/STM32F4xx_HAL_Driver/Src/stm32f4xx_hal_dma.c **** 
 5846              		.loc 1 561 0 discriminator 161
 5847 17fe 02F58062 		add	r2, r2, #1024
 5848 1802 9342     		cmp	r3, r2
 5849 1804 25D0     		beq	.L852
 561:../Drivers/STM32F4xx_HAL_Driver/Src/stm32f4xx_hal_dma.c **** 
ARM GAS  /tmp/ccIvKYQX.s 			page 135


 5850              		.loc 1 561 0 discriminator 163
 5851 1806 A2F56872 		sub	r2, r2, #928
 5852 180a 9342     		cmp	r3, r2
 5853 180c 24D0     		beq	.L853
 561:../Drivers/STM32F4xx_HAL_Driver/Src/stm32f4xx_hal_dma.c **** 
 5854              		.loc 1 561 0 discriminator 165
 5855 180e 02F58062 		add	r2, r2, #1024
 5856 1812 9342     		cmp	r3, r2
 5857 1814 23D0     		beq	.L854
 561:../Drivers/STM32F4xx_HAL_Driver/Src/stm32f4xx_hal_dma.c **** 
 5858              		.loc 1 561 0 discriminator 167
 5859 1816 A2F58962 		sub	r2, r2, #1096
 5860 181a 9342     		cmp	r3, r2
 5861 181c 22D0     		beq	.L855
 561:../Drivers/STM32F4xx_HAL_Driver/Src/stm32f4xx_hal_dma.c **** 
 5862              		.loc 1 561 0 discriminator 169
 5863 181e 02F58062 		add	r2, r2, #1024
 5864 1822 9342     		cmp	r3, r2
 5865 1824 21D0     		beq	.L856
 561:../Drivers/STM32F4xx_HAL_Driver/Src/stm32f4xx_hal_dma.c **** 
 5866              		.loc 1 561 0 discriminator 171
 5867 1826 A2F56872 		sub	r2, r2, #928
 5868 182a 9342     		cmp	r3, r2
 5869 182c 20D0     		beq	.L857
 561:../Drivers/STM32F4xx_HAL_Driver/Src/stm32f4xx_hal_dma.c **** 
 5870              		.loc 1 561 0 discriminator 173
 5871 182e 02F58062 		add	r2, r2, #1024
 5872 1832 9342     		cmp	r3, r2
 5873 1834 1FD1     		bne	.L858
 561:../Drivers/STM32F4xx_HAL_Driver/Src/stm32f4xx_hal_dma.c **** 
 5874              		.loc 1 561 0
 5875 1836 4FF40013 		mov	r3, #2097152
 5876 183a 1EE0     		b	.L410
 5877              	.L847:
 5878 183c 2023     		movs	r3, #32
 5879 183e 1CE0     		b	.L410
 5880              	.L848:
 5881 1840 2023     		movs	r3, #32
 5882 1842 1AE0     		b	.L410
 5883              	.L849:
 5884 1844 2023     		movs	r3, #32
 5885 1846 18E0     		b	.L410
 5886              	.L850:
 5887 1848 2023     		movs	r3, #32
 5888 184a 16E0     		b	.L410
 5889              	.L851:
 5890 184c 4FF40063 		mov	r3, #2048
 5891 1850 13E0     		b	.L410
 5892              	.L852:
 5893 1852 4FF40063 		mov	r3, #2048
 5894 1856 10E0     		b	.L410
 5895              	.L853:
 5896 1858 4FF40063 		mov	r3, #2048
 5897 185c 0DE0     		b	.L410
 5898              	.L854:
 5899 185e 4FF40063 		mov	r3, #2048
 5900 1862 0AE0     		b	.L410
ARM GAS  /tmp/ccIvKYQX.s 			page 136


 5901              	.L855:
 5902 1864 4FF40013 		mov	r3, #2097152
 5903 1868 07E0     		b	.L410
 5904              	.L856:
 5905 186a 4FF40013 		mov	r3, #2097152
 5906 186e 04E0     		b	.L410
 5907              	.L857:
 5908 1870 4FF40013 		mov	r3, #2097152
 5909 1874 01E0     		b	.L410
 5910              	.L858:
 5911 1876 4FF00063 		mov	r3, #134217728
 5912              	.L410:
 561:../Drivers/STM32F4xx_HAL_Driver/Src/stm32f4xx_hal_dma.c **** 
 5913              		.loc 1 561 0 discriminator 200
 5914 187a 394A     		ldr	r2, .L1069+12
 5915 187c 9360     		str	r3, [r2, #8]
 5916              	.L404:
 564:../Drivers/STM32F4xx_HAL_Driver/Src/stm32f4xx_hal_dma.c ****       {
 5917              		.loc 1 564 0 is_stmt 1
 5918 187e 2368     		ldr	r3, [r4]
 5919 1880 1A68     		ldr	r2, [r3]
 5920 1882 12F4002F 		tst	r2, #524288
 5921 1886 03D1     		bne	.L411
 567:../Drivers/STM32F4xx_HAL_Driver/Src/stm32f4xx_hal_dma.c ****       }
 5922              		.loc 1 567 0
 5923 1888 1123     		movs	r3, #17
 5924 188a 84F83530 		strb	r3, [r4, #53]
 5925 188e D7E2     		b	.L412
 5926              	.L411:
 570:../Drivers/STM32F4xx_HAL_Driver/Src/stm32f4xx_hal_dma.c ****       {
 5927              		.loc 1 570 0
 5928 1890 1B68     		ldr	r3, [r3]
 5929 1892 13F4002F 		tst	r3, #524288
 5930 1896 00F0D382 		beq	.L412
 573:../Drivers/STM32F4xx_HAL_Driver/Src/stm32f4xx_hal_dma.c ****       }
 5931              		.loc 1 573 0
 5932 189a 2123     		movs	r3, #33
 5933 189c 84F83530 		strb	r3, [r4, #53]
 5934 18a0 CEE2     		b	.L412
 5935              	.L392:
 579:../Drivers/STM32F4xx_HAL_Driver/Src/stm32f4xx_hal_dma.c ****       /* Clear the transfer complete flag */
 5936              		.loc 1 579 0
 5937 18a2 314B     		ldr	r3, .L1069+20
 5938 18a4 9E45     		cmp	lr, r3
 5939 18a6 61D9     		bls	.L413
 579:../Drivers/STM32F4xx_HAL_Driver/Src/stm32f4xx_hal_dma.c ****       /* Clear the transfer complete flag */
 5940              		.loc 1 579 0 is_stmt 0 discriminator 1
 5941 18a8 A3F58963 		sub	r3, r3, #1096
 5942 18ac 9E45     		cmp	lr, r3
 5943 18ae 2ED0     		beq	.L859
 579:../Drivers/STM32F4xx_HAL_Driver/Src/stm32f4xx_hal_dma.c ****       /* Clear the transfer complete flag */
 5944              		.loc 1 579 0 discriminator 3
 5945 18b0 03F58063 		add	r3, r3, #1024
 5946 18b4 9E45     		cmp	lr, r3
 5947 18b6 2CD0     		beq	.L860
 579:../Drivers/STM32F4xx_HAL_Driver/Src/stm32f4xx_hal_dma.c ****       /* Clear the transfer complete flag */
 5948              		.loc 1 579 0 discriminator 5
ARM GAS  /tmp/ccIvKYQX.s 			page 137


 5949 18b8 A3F56873 		sub	r3, r3, #928
 5950 18bc 9E45     		cmp	lr, r3
 5951 18be 2AD0     		beq	.L861
 579:../Drivers/STM32F4xx_HAL_Driver/Src/stm32f4xx_hal_dma.c ****       /* Clear the transfer complete flag */
 5952              		.loc 1 579 0 discriminator 7
 5953 18c0 03F58063 		add	r3, r3, #1024
 5954 18c4 9E45     		cmp	lr, r3
 5955 18c6 28D0     		beq	.L862
 579:../Drivers/STM32F4xx_HAL_Driver/Src/stm32f4xx_hal_dma.c ****       /* Clear the transfer complete flag */
 5956              		.loc 1 579 0 discriminator 9
 5957 18c8 A3F58963 		sub	r3, r3, #1096
 5958 18cc 9E45     		cmp	lr, r3
 5959 18ce 26D0     		beq	.L863
 579:../Drivers/STM32F4xx_HAL_Driver/Src/stm32f4xx_hal_dma.c ****       /* Clear the transfer complete flag */
 5960              		.loc 1 579 0 discriminator 11
 5961 18d0 03F58063 		add	r3, r3, #1024
 5962 18d4 9E45     		cmp	lr, r3
 5963 18d6 25D0     		beq	.L864
 579:../Drivers/STM32F4xx_HAL_Driver/Src/stm32f4xx_hal_dma.c ****       /* Clear the transfer complete flag */
 5964              		.loc 1 579 0 discriminator 13
 5965 18d8 A3F56873 		sub	r3, r3, #928
 5966 18dc 9E45     		cmp	lr, r3
 5967 18de 24D0     		beq	.L865
 579:../Drivers/STM32F4xx_HAL_Driver/Src/stm32f4xx_hal_dma.c ****       /* Clear the transfer complete flag */
 5968              		.loc 1 579 0 discriminator 15
 5969 18e0 03F58063 		add	r3, r3, #1024
 5970 18e4 9E45     		cmp	lr, r3
 5971 18e6 23D0     		beq	.L866
 579:../Drivers/STM32F4xx_HAL_Driver/Src/stm32f4xx_hal_dma.c ****       /* Clear the transfer complete flag */
 5972              		.loc 1 579 0 discriminator 17
 5973 18e8 A3F58963 		sub	r3, r3, #1096
 5974 18ec 9E45     		cmp	lr, r3
 5975 18ee 22D0     		beq	.L867
 579:../Drivers/STM32F4xx_HAL_Driver/Src/stm32f4xx_hal_dma.c ****       /* Clear the transfer complete flag */
 5976              		.loc 1 579 0 discriminator 19
 5977 18f0 03F58063 		add	r3, r3, #1024
 5978 18f4 9E45     		cmp	lr, r3
 5979 18f6 21D0     		beq	.L868
 579:../Drivers/STM32F4xx_HAL_Driver/Src/stm32f4xx_hal_dma.c ****       /* Clear the transfer complete flag */
 5980              		.loc 1 579 0 discriminator 21
 5981 18f8 A3F56873 		sub	r3, r3, #928
 5982 18fc 9E45     		cmp	lr, r3
 5983 18fe 20D0     		beq	.L869
 579:../Drivers/STM32F4xx_HAL_Driver/Src/stm32f4xx_hal_dma.c ****       /* Clear the transfer complete flag */
 5984              		.loc 1 579 0 discriminator 23
 5985 1900 03F58063 		add	r3, r3, #1024
 5986 1904 9E45     		cmp	lr, r3
 5987 1906 1FD1     		bne	.L870
 579:../Drivers/STM32F4xx_HAL_Driver/Src/stm32f4xx_hal_dma.c ****       /* Clear the transfer complete flag */
 5988              		.loc 1 579 0
 5989 1908 4FF48013 		mov	r3, #1048576
 5990 190c 1EE0     		b	.L414
 5991              	.L859:
 5992 190e 1023     		movs	r3, #16
 5993 1910 1CE0     		b	.L414
 5994              	.L860:
 5995 1912 1023     		movs	r3, #16
ARM GAS  /tmp/ccIvKYQX.s 			page 138


 5996 1914 1AE0     		b	.L414
 5997              	.L861:
 5998 1916 1023     		movs	r3, #16
 5999 1918 18E0     		b	.L414
 6000              	.L862:
 6001 191a 1023     		movs	r3, #16
 6002 191c 16E0     		b	.L414
 6003              	.L863:
 6004 191e 4FF48063 		mov	r3, #1024
 6005 1922 13E0     		b	.L414
 6006              	.L864:
 6007 1924 4FF48063 		mov	r3, #1024
 6008 1928 10E0     		b	.L414
 6009              	.L865:
 6010 192a 4FF48063 		mov	r3, #1024
 6011 192e 0DE0     		b	.L414
 6012              	.L866:
 6013 1930 4FF48063 		mov	r3, #1024
 6014 1934 0AE0     		b	.L414
 6015              	.L867:
 6016 1936 4FF48013 		mov	r3, #1048576
 6017 193a 07E0     		b	.L414
 6018              	.L868:
 6019 193c 4FF48013 		mov	r3, #1048576
 6020 1940 04E0     		b	.L414
 6021              	.L869:
 6022 1942 4FF48013 		mov	r3, #1048576
 6023 1946 01E0     		b	.L414
 6024              	.L870:
 6025 1948 4FF08063 		mov	r3, #67108864
 6026              	.L414:
 579:../Drivers/STM32F4xx_HAL_Driver/Src/stm32f4xx_hal_dma.c ****       /* Clear the transfer complete flag */
 6027              		.loc 1 579 0 discriminator 50
 6028 194c 024A     		ldr	r2, .L1069+4
 6029 194e D360     		str	r3, [r2, #12]
 6030 1950 0DE1     		b	.L415
 6031              	.L1070:
 6032 1952 00BF     		.align	2
 6033              	.L1069:
 6034 1954 B8600240 		.word	1073897656
 6035 1958 00640240 		.word	1073898496
 6036 195c 58600240 		.word	1073897560
 6037 1960 00600240 		.word	1073897472
 6038 1964 10600240 		.word	1073897488
 6039 1968 58640240 		.word	1073898584
 6040              	.L413:
 579:../Drivers/STM32F4xx_HAL_Driver/Src/stm32f4xx_hal_dma.c ****       /* Clear the transfer complete flag */
 6041              		.loc 1 579 0 discriminator 2
 6042 196c AC4B     		ldr	r3, .L1071
 6043 196e 9E45     		cmp	lr, r3
 6044 1970 53D9     		bls	.L416
 579:../Drivers/STM32F4xx_HAL_Driver/Src/stm32f4xx_hal_dma.c ****       /* Clear the transfer complete flag */
 6045              		.loc 1 579 0 discriminator 51
 6046 1972 A83B     		subs	r3, r3, #168
 6047 1974 9E45     		cmp	lr, r3
 6048 1976 2ED0     		beq	.L871
 579:../Drivers/STM32F4xx_HAL_Driver/Src/stm32f4xx_hal_dma.c ****       /* Clear the transfer complete flag */
ARM GAS  /tmp/ccIvKYQX.s 			page 139


 6049              		.loc 1 579 0 discriminator 53
 6050 1978 03F58063 		add	r3, r3, #1024
 6051 197c 9E45     		cmp	lr, r3
 6052 197e 2CD0     		beq	.L872
 579:../Drivers/STM32F4xx_HAL_Driver/Src/stm32f4xx_hal_dma.c ****       /* Clear the transfer complete flag */
 6053              		.loc 1 579 0 discriminator 55
 6054 1980 A3F56873 		sub	r3, r3, #928
 6055 1984 9E45     		cmp	lr, r3
 6056 1986 2AD0     		beq	.L873
 579:../Drivers/STM32F4xx_HAL_Driver/Src/stm32f4xx_hal_dma.c ****       /* Clear the transfer complete flag */
 6057              		.loc 1 579 0 discriminator 57
 6058 1988 03F58063 		add	r3, r3, #1024
 6059 198c 9E45     		cmp	lr, r3
 6060 198e 28D0     		beq	.L874
 579:../Drivers/STM32F4xx_HAL_Driver/Src/stm32f4xx_hal_dma.c ****       /* Clear the transfer complete flag */
 6061              		.loc 1 579 0 discriminator 59
 6062 1990 A3F58963 		sub	r3, r3, #1096
 6063 1994 9E45     		cmp	lr, r3
 6064 1996 26D0     		beq	.L875
 579:../Drivers/STM32F4xx_HAL_Driver/Src/stm32f4xx_hal_dma.c ****       /* Clear the transfer complete flag */
 6065              		.loc 1 579 0 discriminator 61
 6066 1998 03F58063 		add	r3, r3, #1024
 6067 199c 9E45     		cmp	lr, r3
 6068 199e 25D0     		beq	.L876
 579:../Drivers/STM32F4xx_HAL_Driver/Src/stm32f4xx_hal_dma.c ****       /* Clear the transfer complete flag */
 6069              		.loc 1 579 0 discriminator 63
 6070 19a0 A3F56873 		sub	r3, r3, #928
 6071 19a4 9E45     		cmp	lr, r3
 6072 19a6 24D0     		beq	.L877
 579:../Drivers/STM32F4xx_HAL_Driver/Src/stm32f4xx_hal_dma.c ****       /* Clear the transfer complete flag */
 6073              		.loc 1 579 0 discriminator 65
 6074 19a8 03F58063 		add	r3, r3, #1024
 6075 19ac 9E45     		cmp	lr, r3
 6076 19ae 23D0     		beq	.L878
 579:../Drivers/STM32F4xx_HAL_Driver/Src/stm32f4xx_hal_dma.c ****       /* Clear the transfer complete flag */
 6077              		.loc 1 579 0 discriminator 67
 6078 19b0 A3F58963 		sub	r3, r3, #1096
 6079 19b4 9E45     		cmp	lr, r3
 6080 19b6 22D0     		beq	.L879
 579:../Drivers/STM32F4xx_HAL_Driver/Src/stm32f4xx_hal_dma.c ****       /* Clear the transfer complete flag */
 6081              		.loc 1 579 0 discriminator 69
 6082 19b8 03F58063 		add	r3, r3, #1024
 6083 19bc 9E45     		cmp	lr, r3
 6084 19be 21D0     		beq	.L880
 579:../Drivers/STM32F4xx_HAL_Driver/Src/stm32f4xx_hal_dma.c ****       /* Clear the transfer complete flag */
 6085              		.loc 1 579 0 discriminator 71
 6086 19c0 A3F56873 		sub	r3, r3, #928
 6087 19c4 9E45     		cmp	lr, r3
 6088 19c6 20D0     		beq	.L881
 579:../Drivers/STM32F4xx_HAL_Driver/Src/stm32f4xx_hal_dma.c ****       /* Clear the transfer complete flag */
 6089              		.loc 1 579 0 discriminator 73
 6090 19c8 03F58063 		add	r3, r3, #1024
 6091 19cc 9E45     		cmp	lr, r3
 6092 19ce 1FD1     		bne	.L882
 579:../Drivers/STM32F4xx_HAL_Driver/Src/stm32f4xx_hal_dma.c ****       /* Clear the transfer complete flag */
 6093              		.loc 1 579 0
 6094 19d0 4FF48013 		mov	r3, #1048576
ARM GAS  /tmp/ccIvKYQX.s 			page 140


 6095 19d4 1EE0     		b	.L417
 6096              	.L871:
 6097 19d6 1023     		movs	r3, #16
 6098 19d8 1CE0     		b	.L417
 6099              	.L872:
 6100 19da 1023     		movs	r3, #16
 6101 19dc 1AE0     		b	.L417
 6102              	.L873:
 6103 19de 1023     		movs	r3, #16
 6104 19e0 18E0     		b	.L417
 6105              	.L874:
 6106 19e2 1023     		movs	r3, #16
 6107 19e4 16E0     		b	.L417
 6108              	.L875:
 6109 19e6 4FF48063 		mov	r3, #1024
 6110 19ea 13E0     		b	.L417
 6111              	.L876:
 6112 19ec 4FF48063 		mov	r3, #1024
 6113 19f0 10E0     		b	.L417
 6114              	.L877:
 6115 19f2 4FF48063 		mov	r3, #1024
 6116 19f6 0DE0     		b	.L417
 6117              	.L878:
 6118 19f8 4FF48063 		mov	r3, #1024
 6119 19fc 0AE0     		b	.L417
 6120              	.L879:
 6121 19fe 4FF48013 		mov	r3, #1048576
 6122 1a02 07E0     		b	.L417
 6123              	.L880:
 6124 1a04 4FF48013 		mov	r3, #1048576
 6125 1a08 04E0     		b	.L417
 6126              	.L881:
 6127 1a0a 4FF48013 		mov	r3, #1048576
 6128 1a0e 01E0     		b	.L417
 6129              	.L882:
 6130 1a10 4FF08063 		mov	r3, #67108864
 6131              	.L417:
 579:../Drivers/STM32F4xx_HAL_Driver/Src/stm32f4xx_hal_dma.c ****       /* Clear the transfer complete flag */
 6132              		.loc 1 579 0 discriminator 100
 6133 1a14 834A     		ldr	r2, .L1071+4
 6134 1a16 9360     		str	r3, [r2, #8]
 6135 1a18 A9E0     		b	.L415
 6136              	.L416:
 579:../Drivers/STM32F4xx_HAL_Driver/Src/stm32f4xx_hal_dma.c ****       /* Clear the transfer complete flag */
 6137              		.loc 1 579 0 discriminator 52
 6138 1a1a 834B     		ldr	r3, .L1071+8
 6139 1a1c 9E45     		cmp	lr, r3
 6140 1a1e 53D9     		bls	.L419
 579:../Drivers/STM32F4xx_HAL_Driver/Src/stm32f4xx_hal_dma.c ****       /* Clear the transfer complete flag */
 6141              		.loc 1 579 0 discriminator 102
 6142 1a20 483B     		subs	r3, r3, #72
 6143 1a22 9E45     		cmp	lr, r3
 6144 1a24 2ED0     		beq	.L883
 579:../Drivers/STM32F4xx_HAL_Driver/Src/stm32f4xx_hal_dma.c ****       /* Clear the transfer complete flag */
 6145              		.loc 1 579 0 discriminator 104
 6146 1a26 03F58063 		add	r3, r3, #1024
 6147 1a2a 9E45     		cmp	lr, r3
ARM GAS  /tmp/ccIvKYQX.s 			page 141


 6148 1a2c 2CD0     		beq	.L884
 579:../Drivers/STM32F4xx_HAL_Driver/Src/stm32f4xx_hal_dma.c ****       /* Clear the transfer complete flag */
 6149              		.loc 1 579 0 discriminator 106
 6150 1a2e A3F56873 		sub	r3, r3, #928
 6151 1a32 9E45     		cmp	lr, r3
 6152 1a34 2AD0     		beq	.L885
 579:../Drivers/STM32F4xx_HAL_Driver/Src/stm32f4xx_hal_dma.c ****       /* Clear the transfer complete flag */
 6153              		.loc 1 579 0 discriminator 108
 6154 1a36 03F58063 		add	r3, r3, #1024
 6155 1a3a 9E45     		cmp	lr, r3
 6156 1a3c 28D0     		beq	.L886
 579:../Drivers/STM32F4xx_HAL_Driver/Src/stm32f4xx_hal_dma.c ****       /* Clear the transfer complete flag */
 6157              		.loc 1 579 0 discriminator 110
 6158 1a3e A3F58963 		sub	r3, r3, #1096
 6159 1a42 9E45     		cmp	lr, r3
 6160 1a44 26D0     		beq	.L887
 579:../Drivers/STM32F4xx_HAL_Driver/Src/stm32f4xx_hal_dma.c ****       /* Clear the transfer complete flag */
 6161              		.loc 1 579 0 discriminator 112
 6162 1a46 03F58063 		add	r3, r3, #1024
 6163 1a4a 9E45     		cmp	lr, r3
 6164 1a4c 25D0     		beq	.L888
 579:../Drivers/STM32F4xx_HAL_Driver/Src/stm32f4xx_hal_dma.c ****       /* Clear the transfer complete flag */
 6165              		.loc 1 579 0 discriminator 114
 6166 1a4e A3F56873 		sub	r3, r3, #928
 6167 1a52 9E45     		cmp	lr, r3
 6168 1a54 24D0     		beq	.L889
 579:../Drivers/STM32F4xx_HAL_Driver/Src/stm32f4xx_hal_dma.c ****       /* Clear the transfer complete flag */
 6169              		.loc 1 579 0 discriminator 116
 6170 1a56 03F58063 		add	r3, r3, #1024
 6171 1a5a 9E45     		cmp	lr, r3
 6172 1a5c 23D0     		beq	.L890
 579:../Drivers/STM32F4xx_HAL_Driver/Src/stm32f4xx_hal_dma.c ****       /* Clear the transfer complete flag */
 6173              		.loc 1 579 0 discriminator 118
 6174 1a5e A3F58963 		sub	r3, r3, #1096
 6175 1a62 9E45     		cmp	lr, r3
 6176 1a64 22D0     		beq	.L891
 579:../Drivers/STM32F4xx_HAL_Driver/Src/stm32f4xx_hal_dma.c ****       /* Clear the transfer complete flag */
 6177              		.loc 1 579 0 discriminator 120
 6178 1a66 03F58063 		add	r3, r3, #1024
 6179 1a6a 9E45     		cmp	lr, r3
 6180 1a6c 21D0     		beq	.L892
 579:../Drivers/STM32F4xx_HAL_Driver/Src/stm32f4xx_hal_dma.c ****       /* Clear the transfer complete flag */
 6181              		.loc 1 579 0 discriminator 122
 6182 1a6e A3F56873 		sub	r3, r3, #928
 6183 1a72 9E45     		cmp	lr, r3
 6184 1a74 20D0     		beq	.L893
 579:../Drivers/STM32F4xx_HAL_Driver/Src/stm32f4xx_hal_dma.c ****       /* Clear the transfer complete flag */
 6185              		.loc 1 579 0 discriminator 124
 6186 1a76 03F58063 		add	r3, r3, #1024
 6187 1a7a 9E45     		cmp	lr, r3
 6188 1a7c 1FD1     		bne	.L894
 579:../Drivers/STM32F4xx_HAL_Driver/Src/stm32f4xx_hal_dma.c ****       /* Clear the transfer complete flag */
 6189              		.loc 1 579 0
 6190 1a7e 4FF48013 		mov	r3, #1048576
 6191 1a82 1EE0     		b	.L420
 6192              	.L883:
 6193 1a84 1023     		movs	r3, #16
ARM GAS  /tmp/ccIvKYQX.s 			page 142


 6194 1a86 1CE0     		b	.L420
 6195              	.L884:
 6196 1a88 1023     		movs	r3, #16
 6197 1a8a 1AE0     		b	.L420
 6198              	.L885:
 6199 1a8c 1023     		movs	r3, #16
 6200 1a8e 18E0     		b	.L420
 6201              	.L886:
 6202 1a90 1023     		movs	r3, #16
 6203 1a92 16E0     		b	.L420
 6204              	.L887:
 6205 1a94 4FF48063 		mov	r3, #1024
 6206 1a98 13E0     		b	.L420
 6207              	.L888:
 6208 1a9a 4FF48063 		mov	r3, #1024
 6209 1a9e 10E0     		b	.L420
 6210              	.L889:
 6211 1aa0 4FF48063 		mov	r3, #1024
 6212 1aa4 0DE0     		b	.L420
 6213              	.L890:
 6214 1aa6 4FF48063 		mov	r3, #1024
 6215 1aaa 0AE0     		b	.L420
 6216              	.L891:
 6217 1aac 4FF48013 		mov	r3, #1048576
 6218 1ab0 07E0     		b	.L420
 6219              	.L892:
 6220 1ab2 4FF48013 		mov	r3, #1048576
 6221 1ab6 04E0     		b	.L420
 6222              	.L893:
 6223 1ab8 4FF48013 		mov	r3, #1048576
 6224 1abc 01E0     		b	.L420
 6225              	.L894:
 6226 1abe 4FF08063 		mov	r3, #67108864
 6227              	.L420:
 579:../Drivers/STM32F4xx_HAL_Driver/Src/stm32f4xx_hal_dma.c ****       /* Clear the transfer complete flag */
 6228              		.loc 1 579 0 discriminator 151
 6229 1ac2 5A4A     		ldr	r2, .L1071+12
 6230 1ac4 D360     		str	r3, [r2, #12]
 6231 1ac6 52E0     		b	.L415
 6232              	.L419:
 579:../Drivers/STM32F4xx_HAL_Driver/Src/stm32f4xx_hal_dma.c ****       /* Clear the transfer complete flag */
 6233              		.loc 1 579 0 discriminator 103
 6234 1ac8 594B     		ldr	r3, .L1071+16
 6235 1aca 9E45     		cmp	lr, r3
 6236 1acc 2ED0     		beq	.L895
 579:../Drivers/STM32F4xx_HAL_Driver/Src/stm32f4xx_hal_dma.c ****       /* Clear the transfer complete flag */
 6237              		.loc 1 579 0 discriminator 153
 6238 1ace 03F58063 		add	r3, r3, #1024
 6239 1ad2 9E45     		cmp	lr, r3
 6240 1ad4 2CD0     		beq	.L896
 579:../Drivers/STM32F4xx_HAL_Driver/Src/stm32f4xx_hal_dma.c ****       /* Clear the transfer complete flag */
 6241              		.loc 1 579 0 discriminator 155
 6242 1ad6 A3F56873 		sub	r3, r3, #928
 6243 1ada 9E45     		cmp	lr, r3
 6244 1adc 2AD0     		beq	.L897
 579:../Drivers/STM32F4xx_HAL_Driver/Src/stm32f4xx_hal_dma.c ****       /* Clear the transfer complete flag */
 6245              		.loc 1 579 0 discriminator 157
ARM GAS  /tmp/ccIvKYQX.s 			page 143


 6246 1ade 03F58063 		add	r3, r3, #1024
 6247 1ae2 9E45     		cmp	lr, r3
 6248 1ae4 28D0     		beq	.L898
 579:../Drivers/STM32F4xx_HAL_Driver/Src/stm32f4xx_hal_dma.c ****       /* Clear the transfer complete flag */
 6249              		.loc 1 579 0 discriminator 159
 6250 1ae6 A3F58963 		sub	r3, r3, #1096
 6251 1aea 9E45     		cmp	lr, r3
 6252 1aec 26D0     		beq	.L899
 579:../Drivers/STM32F4xx_HAL_Driver/Src/stm32f4xx_hal_dma.c ****       /* Clear the transfer complete flag */
 6253              		.loc 1 579 0 discriminator 161
 6254 1aee 03F58063 		add	r3, r3, #1024
 6255 1af2 9E45     		cmp	lr, r3
 6256 1af4 25D0     		beq	.L900
 579:../Drivers/STM32F4xx_HAL_Driver/Src/stm32f4xx_hal_dma.c ****       /* Clear the transfer complete flag */
 6257              		.loc 1 579 0 discriminator 163
 6258 1af6 A3F56873 		sub	r3, r3, #928
 6259 1afa 9E45     		cmp	lr, r3
 6260 1afc 24D0     		beq	.L901
 579:../Drivers/STM32F4xx_HAL_Driver/Src/stm32f4xx_hal_dma.c ****       /* Clear the transfer complete flag */
 6261              		.loc 1 579 0 discriminator 165
 6262 1afe 03F58063 		add	r3, r3, #1024
 6263 1b02 9E45     		cmp	lr, r3
 6264 1b04 23D0     		beq	.L902
 579:../Drivers/STM32F4xx_HAL_Driver/Src/stm32f4xx_hal_dma.c ****       /* Clear the transfer complete flag */
 6265              		.loc 1 579 0 discriminator 167
 6266 1b06 A3F58963 		sub	r3, r3, #1096
 6267 1b0a 9E45     		cmp	lr, r3
 6268 1b0c 22D0     		beq	.L903
 579:../Drivers/STM32F4xx_HAL_Driver/Src/stm32f4xx_hal_dma.c ****       /* Clear the transfer complete flag */
 6269              		.loc 1 579 0 discriminator 169
 6270 1b0e 03F58063 		add	r3, r3, #1024
 6271 1b12 9E45     		cmp	lr, r3
 6272 1b14 21D0     		beq	.L904
 579:../Drivers/STM32F4xx_HAL_Driver/Src/stm32f4xx_hal_dma.c ****       /* Clear the transfer complete flag */
 6273              		.loc 1 579 0 discriminator 171
 6274 1b16 A3F56873 		sub	r3, r3, #928
 6275 1b1a 9E45     		cmp	lr, r3
 6276 1b1c 20D0     		beq	.L905
 579:../Drivers/STM32F4xx_HAL_Driver/Src/stm32f4xx_hal_dma.c ****       /* Clear the transfer complete flag */
 6277              		.loc 1 579 0 discriminator 173
 6278 1b1e 03F58063 		add	r3, r3, #1024
 6279 1b22 9E45     		cmp	lr, r3
 6280 1b24 1FD1     		bne	.L906
 579:../Drivers/STM32F4xx_HAL_Driver/Src/stm32f4xx_hal_dma.c ****       /* Clear the transfer complete flag */
 6281              		.loc 1 579 0
 6282 1b26 4FF48013 		mov	r3, #1048576
 6283 1b2a 1EE0     		b	.L421
 6284              	.L895:
 6285 1b2c 1023     		movs	r3, #16
 6286 1b2e 1CE0     		b	.L421
 6287              	.L896:
 6288 1b30 1023     		movs	r3, #16
 6289 1b32 1AE0     		b	.L421
 6290              	.L897:
 6291 1b34 1023     		movs	r3, #16
 6292 1b36 18E0     		b	.L421
 6293              	.L898:
ARM GAS  /tmp/ccIvKYQX.s 			page 144


 6294 1b38 1023     		movs	r3, #16
 6295 1b3a 16E0     		b	.L421
 6296              	.L899:
 6297 1b3c 4FF48063 		mov	r3, #1024
 6298 1b40 13E0     		b	.L421
 6299              	.L900:
 6300 1b42 4FF48063 		mov	r3, #1024
 6301 1b46 10E0     		b	.L421
 6302              	.L901:
 6303 1b48 4FF48063 		mov	r3, #1024
 6304 1b4c 0DE0     		b	.L421
 6305              	.L902:
 6306 1b4e 4FF48063 		mov	r3, #1024
 6307 1b52 0AE0     		b	.L421
 6308              	.L903:
 6309 1b54 4FF48013 		mov	r3, #1048576
 6310 1b58 07E0     		b	.L421
 6311              	.L904:
 6312 1b5a 4FF48013 		mov	r3, #1048576
 6313 1b5e 04E0     		b	.L421
 6314              	.L905:
 6315 1b60 4FF48013 		mov	r3, #1048576
 6316 1b64 01E0     		b	.L421
 6317              	.L906:
 6318 1b66 4FF08063 		mov	r3, #67108864
 6319              	.L421:
 579:../Drivers/STM32F4xx_HAL_Driver/Src/stm32f4xx_hal_dma.c ****       /* Clear the transfer complete flag */
 6320              		.loc 1 579 0 discriminator 200
 6321 1b6a 304A     		ldr	r2, .L1071+12
 6322 1b6c 9360     		str	r3, [r2, #8]
 6323              	.L415:
 581:../Drivers/STM32F4xx_HAL_Driver/Src/stm32f4xx_hal_dma.c **** 
 6324              		.loc 1 581 0 is_stmt 1
 6325 1b6e 2368     		ldr	r3, [r4]
 6326 1b70 304A     		ldr	r2, .L1071+20
 6327 1b72 9342     		cmp	r3, r2
 6328 1b74 60D9     		bls	.L422
 581:../Drivers/STM32F4xx_HAL_Driver/Src/stm32f4xx_hal_dma.c **** 
 6329              		.loc 1 581 0 is_stmt 0 discriminator 1
 6330 1b76 A2F58962 		sub	r2, r2, #1096
 6331 1b7a 9342     		cmp	r3, r2
 6332 1b7c 2ED0     		beq	.L907
 581:../Drivers/STM32F4xx_HAL_Driver/Src/stm32f4xx_hal_dma.c **** 
 6333              		.loc 1 581 0 discriminator 3
 6334 1b7e 02F58062 		add	r2, r2, #1024
 6335 1b82 9342     		cmp	r3, r2
 6336 1b84 2CD0     		beq	.L908
 581:../Drivers/STM32F4xx_HAL_Driver/Src/stm32f4xx_hal_dma.c **** 
 6337              		.loc 1 581 0 discriminator 5
 6338 1b86 A2F56872 		sub	r2, r2, #928
 6339 1b8a 9342     		cmp	r3, r2
 6340 1b8c 2AD0     		beq	.L909
 581:../Drivers/STM32F4xx_HAL_Driver/Src/stm32f4xx_hal_dma.c **** 
 6341              		.loc 1 581 0 discriminator 7
 6342 1b8e 02F58062 		add	r2, r2, #1024
 6343 1b92 9342     		cmp	r3, r2
 6344 1b94 28D0     		beq	.L910
ARM GAS  /tmp/ccIvKYQX.s 			page 145


 581:../Drivers/STM32F4xx_HAL_Driver/Src/stm32f4xx_hal_dma.c **** 
 6345              		.loc 1 581 0 discriminator 9
 6346 1b96 A2F58962 		sub	r2, r2, #1096
 6347 1b9a 9342     		cmp	r3, r2
 6348 1b9c 26D0     		beq	.L911
 581:../Drivers/STM32F4xx_HAL_Driver/Src/stm32f4xx_hal_dma.c **** 
 6349              		.loc 1 581 0 discriminator 11
 6350 1b9e 02F58062 		add	r2, r2, #1024
 6351 1ba2 9342     		cmp	r3, r2
 6352 1ba4 25D0     		beq	.L912
 581:../Drivers/STM32F4xx_HAL_Driver/Src/stm32f4xx_hal_dma.c **** 
 6353              		.loc 1 581 0 discriminator 13
 6354 1ba6 A2F56872 		sub	r2, r2, #928
 6355 1baa 9342     		cmp	r3, r2
 6356 1bac 24D0     		beq	.L913
 581:../Drivers/STM32F4xx_HAL_Driver/Src/stm32f4xx_hal_dma.c **** 
 6357              		.loc 1 581 0 discriminator 15
 6358 1bae 02F58062 		add	r2, r2, #1024
 6359 1bb2 9342     		cmp	r3, r2
 6360 1bb4 23D0     		beq	.L914
 581:../Drivers/STM32F4xx_HAL_Driver/Src/stm32f4xx_hal_dma.c **** 
 6361              		.loc 1 581 0 discriminator 17
 6362 1bb6 A2F58962 		sub	r2, r2, #1096
 6363 1bba 9342     		cmp	r3, r2
 6364 1bbc 22D0     		beq	.L915
 581:../Drivers/STM32F4xx_HAL_Driver/Src/stm32f4xx_hal_dma.c **** 
 6365              		.loc 1 581 0 discriminator 19
 6366 1bbe 02F58062 		add	r2, r2, #1024
 6367 1bc2 9342     		cmp	r3, r2
 6368 1bc4 21D0     		beq	.L916
 581:../Drivers/STM32F4xx_HAL_Driver/Src/stm32f4xx_hal_dma.c **** 
 6369              		.loc 1 581 0 discriminator 21
 6370 1bc6 A2F56872 		sub	r2, r2, #928
 6371 1bca 9342     		cmp	r3, r2
 6372 1bcc 20D0     		beq	.L917
 581:../Drivers/STM32F4xx_HAL_Driver/Src/stm32f4xx_hal_dma.c **** 
 6373              		.loc 1 581 0 discriminator 23
 6374 1bce 02F58062 		add	r2, r2, #1024
 6375 1bd2 9342     		cmp	r3, r2
 6376 1bd4 1FD1     		bne	.L918
 581:../Drivers/STM32F4xx_HAL_Driver/Src/stm32f4xx_hal_dma.c **** 
 6377              		.loc 1 581 0
 6378 1bd6 4FF40013 		mov	r3, #2097152
 6379 1bda 1EE0     		b	.L423
 6380              	.L907:
 6381 1bdc 2023     		movs	r3, #32
 6382 1bde 1CE0     		b	.L423
 6383              	.L908:
 6384 1be0 2023     		movs	r3, #32
 6385 1be2 1AE0     		b	.L423
 6386              	.L909:
 6387 1be4 2023     		movs	r3, #32
 6388 1be6 18E0     		b	.L423
 6389              	.L910:
 6390 1be8 2023     		movs	r3, #32
 6391 1bea 16E0     		b	.L423
 6392              	.L911:
ARM GAS  /tmp/ccIvKYQX.s 			page 146


 6393 1bec 4FF40063 		mov	r3, #2048
 6394 1bf0 13E0     		b	.L423
 6395              	.L912:
 6396 1bf2 4FF40063 		mov	r3, #2048
 6397 1bf6 10E0     		b	.L423
 6398              	.L913:
 6399 1bf8 4FF40063 		mov	r3, #2048
 6400 1bfc 0DE0     		b	.L423
 6401              	.L914:
 6402 1bfe 4FF40063 		mov	r3, #2048
 6403 1c02 0AE0     		b	.L423
 6404              	.L915:
 6405 1c04 4FF40013 		mov	r3, #2097152
 6406 1c08 07E0     		b	.L423
 6407              	.L916:
 6408 1c0a 4FF40013 		mov	r3, #2097152
 6409 1c0e 04E0     		b	.L423
 6410              	.L917:
 6411 1c10 4FF40013 		mov	r3, #2097152
 6412 1c14 01E0     		b	.L423
 6413              	.L918:
 6414 1c16 4FF00063 		mov	r3, #134217728
 6415              	.L423:
 581:../Drivers/STM32F4xx_HAL_Driver/Src/stm32f4xx_hal_dma.c **** 
 6416              		.loc 1 581 0 discriminator 50
 6417 1c1a 024A     		ldr	r2, .L1071+4
 6418 1c1c D360     		str	r3, [r2, #12]
 6419 1c1e 0CE1     		b	.L424
 6420              	.L1072:
 6421              		.align	2
 6422              	.L1071:
 6423 1c20 B8600240 		.word	1073897656
 6424 1c24 00640240 		.word	1073898496
 6425 1c28 58600240 		.word	1073897560
 6426 1c2c 00600240 		.word	1073897472
 6427 1c30 10600240 		.word	1073897488
 6428 1c34 58640240 		.word	1073898584
 6429              	.L422:
 581:../Drivers/STM32F4xx_HAL_Driver/Src/stm32f4xx_hal_dma.c **** 
 6430              		.loc 1 581 0 discriminator 2
 6431 1c38 B24A     		ldr	r2, .L1073
 6432 1c3a 9342     		cmp	r3, r2
 6433 1c3c 53D9     		bls	.L425
 581:../Drivers/STM32F4xx_HAL_Driver/Src/stm32f4xx_hal_dma.c **** 
 6434              		.loc 1 581 0 discriminator 51
 6435 1c3e A83A     		subs	r2, r2, #168
 6436 1c40 9342     		cmp	r3, r2
 6437 1c42 2ED0     		beq	.L919
 581:../Drivers/STM32F4xx_HAL_Driver/Src/stm32f4xx_hal_dma.c **** 
 6438              		.loc 1 581 0 discriminator 53
 6439 1c44 02F58062 		add	r2, r2, #1024
 6440 1c48 9342     		cmp	r3, r2
 6441 1c4a 2CD0     		beq	.L920
 581:../Drivers/STM32F4xx_HAL_Driver/Src/stm32f4xx_hal_dma.c **** 
 6442              		.loc 1 581 0 discriminator 55
 6443 1c4c A2F56872 		sub	r2, r2, #928
 6444 1c50 9342     		cmp	r3, r2
ARM GAS  /tmp/ccIvKYQX.s 			page 147


 6445 1c52 2AD0     		beq	.L921
 581:../Drivers/STM32F4xx_HAL_Driver/Src/stm32f4xx_hal_dma.c **** 
 6446              		.loc 1 581 0 discriminator 57
 6447 1c54 02F58062 		add	r2, r2, #1024
 6448 1c58 9342     		cmp	r3, r2
 6449 1c5a 28D0     		beq	.L922
 581:../Drivers/STM32F4xx_HAL_Driver/Src/stm32f4xx_hal_dma.c **** 
 6450              		.loc 1 581 0 discriminator 59
 6451 1c5c A2F58962 		sub	r2, r2, #1096
 6452 1c60 9342     		cmp	r3, r2
 6453 1c62 26D0     		beq	.L923
 581:../Drivers/STM32F4xx_HAL_Driver/Src/stm32f4xx_hal_dma.c **** 
 6454              		.loc 1 581 0 discriminator 61
 6455 1c64 02F58062 		add	r2, r2, #1024
 6456 1c68 9342     		cmp	r3, r2
 6457 1c6a 25D0     		beq	.L924
 581:../Drivers/STM32F4xx_HAL_Driver/Src/stm32f4xx_hal_dma.c **** 
 6458              		.loc 1 581 0 discriminator 63
 6459 1c6c A2F56872 		sub	r2, r2, #928
 6460 1c70 9342     		cmp	r3, r2
 6461 1c72 24D0     		beq	.L925
 581:../Drivers/STM32F4xx_HAL_Driver/Src/stm32f4xx_hal_dma.c **** 
 6462              		.loc 1 581 0 discriminator 65
 6463 1c74 02F58062 		add	r2, r2, #1024
 6464 1c78 9342     		cmp	r3, r2
 6465 1c7a 23D0     		beq	.L926
 581:../Drivers/STM32F4xx_HAL_Driver/Src/stm32f4xx_hal_dma.c **** 
 6466              		.loc 1 581 0 discriminator 67
 6467 1c7c A2F58962 		sub	r2, r2, #1096
 6468 1c80 9342     		cmp	r3, r2
 6469 1c82 22D0     		beq	.L927
 581:../Drivers/STM32F4xx_HAL_Driver/Src/stm32f4xx_hal_dma.c **** 
 6470              		.loc 1 581 0 discriminator 69
 6471 1c84 02F58062 		add	r2, r2, #1024
 6472 1c88 9342     		cmp	r3, r2
 6473 1c8a 21D0     		beq	.L928
 581:../Drivers/STM32F4xx_HAL_Driver/Src/stm32f4xx_hal_dma.c **** 
 6474              		.loc 1 581 0 discriminator 71
 6475 1c8c A2F56872 		sub	r2, r2, #928
 6476 1c90 9342     		cmp	r3, r2
 6477 1c92 20D0     		beq	.L929
 581:../Drivers/STM32F4xx_HAL_Driver/Src/stm32f4xx_hal_dma.c **** 
 6478              		.loc 1 581 0 discriminator 73
 6479 1c94 02F58062 		add	r2, r2, #1024
 6480 1c98 9342     		cmp	r3, r2
 6481 1c9a 1FD1     		bne	.L930
 581:../Drivers/STM32F4xx_HAL_Driver/Src/stm32f4xx_hal_dma.c **** 
 6482              		.loc 1 581 0
 6483 1c9c 4FF40013 		mov	r3, #2097152
 6484 1ca0 1EE0     		b	.L426
 6485              	.L919:
 6486 1ca2 2023     		movs	r3, #32
 6487 1ca4 1CE0     		b	.L426
 6488              	.L920:
 6489 1ca6 2023     		movs	r3, #32
 6490 1ca8 1AE0     		b	.L426
 6491              	.L921:
ARM GAS  /tmp/ccIvKYQX.s 			page 148


 6492 1caa 2023     		movs	r3, #32
 6493 1cac 18E0     		b	.L426
 6494              	.L922:
 6495 1cae 2023     		movs	r3, #32
 6496 1cb0 16E0     		b	.L426
 6497              	.L923:
 6498 1cb2 4FF40063 		mov	r3, #2048
 6499 1cb6 13E0     		b	.L426
 6500              	.L924:
 6501 1cb8 4FF40063 		mov	r3, #2048
 6502 1cbc 10E0     		b	.L426
 6503              	.L925:
 6504 1cbe 4FF40063 		mov	r3, #2048
 6505 1cc2 0DE0     		b	.L426
 6506              	.L926:
 6507 1cc4 4FF40063 		mov	r3, #2048
 6508 1cc8 0AE0     		b	.L426
 6509              	.L927:
 6510 1cca 4FF40013 		mov	r3, #2097152
 6511 1cce 07E0     		b	.L426
 6512              	.L928:
 6513 1cd0 4FF40013 		mov	r3, #2097152
 6514 1cd4 04E0     		b	.L426
 6515              	.L929:
 6516 1cd6 4FF40013 		mov	r3, #2097152
 6517 1cda 01E0     		b	.L426
 6518              	.L930:
 6519 1cdc 4FF00063 		mov	r3, #134217728
 6520              	.L426:
 581:../Drivers/STM32F4xx_HAL_Driver/Src/stm32f4xx_hal_dma.c **** 
 6521              		.loc 1 581 0 discriminator 100
 6522 1ce0 894A     		ldr	r2, .L1073+4
 6523 1ce2 9360     		str	r3, [r2, #8]
 6524 1ce4 A9E0     		b	.L424
 6525              	.L425:
 581:../Drivers/STM32F4xx_HAL_Driver/Src/stm32f4xx_hal_dma.c **** 
 6526              		.loc 1 581 0 discriminator 52
 6527 1ce6 894A     		ldr	r2, .L1073+8
 6528 1ce8 9342     		cmp	r3, r2
 6529 1cea 53D9     		bls	.L428
 581:../Drivers/STM32F4xx_HAL_Driver/Src/stm32f4xx_hal_dma.c **** 
 6530              		.loc 1 581 0 discriminator 102
 6531 1cec 483A     		subs	r2, r2, #72
 6532 1cee 9342     		cmp	r3, r2
 6533 1cf0 2ED0     		beq	.L931
 581:../Drivers/STM32F4xx_HAL_Driver/Src/stm32f4xx_hal_dma.c **** 
 6534              		.loc 1 581 0 discriminator 104
 6535 1cf2 02F58062 		add	r2, r2, #1024
 6536 1cf6 9342     		cmp	r3, r2
 6537 1cf8 2CD0     		beq	.L932
 581:../Drivers/STM32F4xx_HAL_Driver/Src/stm32f4xx_hal_dma.c **** 
 6538              		.loc 1 581 0 discriminator 106
 6539 1cfa A2F56872 		sub	r2, r2, #928
 6540 1cfe 9342     		cmp	r3, r2
 6541 1d00 2AD0     		beq	.L933
 581:../Drivers/STM32F4xx_HAL_Driver/Src/stm32f4xx_hal_dma.c **** 
 6542              		.loc 1 581 0 discriminator 108
ARM GAS  /tmp/ccIvKYQX.s 			page 149


 6543 1d02 02F58062 		add	r2, r2, #1024
 6544 1d06 9342     		cmp	r3, r2
 6545 1d08 28D0     		beq	.L934
 581:../Drivers/STM32F4xx_HAL_Driver/Src/stm32f4xx_hal_dma.c **** 
 6546              		.loc 1 581 0 discriminator 110
 6547 1d0a A2F58962 		sub	r2, r2, #1096
 6548 1d0e 9342     		cmp	r3, r2
 6549 1d10 26D0     		beq	.L935
 581:../Drivers/STM32F4xx_HAL_Driver/Src/stm32f4xx_hal_dma.c **** 
 6550              		.loc 1 581 0 discriminator 112
 6551 1d12 02F58062 		add	r2, r2, #1024
 6552 1d16 9342     		cmp	r3, r2
 6553 1d18 25D0     		beq	.L936
 581:../Drivers/STM32F4xx_HAL_Driver/Src/stm32f4xx_hal_dma.c **** 
 6554              		.loc 1 581 0 discriminator 114
 6555 1d1a A2F56872 		sub	r2, r2, #928
 6556 1d1e 9342     		cmp	r3, r2
 6557 1d20 24D0     		beq	.L937
 581:../Drivers/STM32F4xx_HAL_Driver/Src/stm32f4xx_hal_dma.c **** 
 6558              		.loc 1 581 0 discriminator 116
 6559 1d22 02F58062 		add	r2, r2, #1024
 6560 1d26 9342     		cmp	r3, r2
 6561 1d28 23D0     		beq	.L938
 581:../Drivers/STM32F4xx_HAL_Driver/Src/stm32f4xx_hal_dma.c **** 
 6562              		.loc 1 581 0 discriminator 118
 6563 1d2a A2F58962 		sub	r2, r2, #1096
 6564 1d2e 9342     		cmp	r3, r2
 6565 1d30 22D0     		beq	.L939
 581:../Drivers/STM32F4xx_HAL_Driver/Src/stm32f4xx_hal_dma.c **** 
 6566              		.loc 1 581 0 discriminator 120
 6567 1d32 02F58062 		add	r2, r2, #1024
 6568 1d36 9342     		cmp	r3, r2
 6569 1d38 21D0     		beq	.L940
 581:../Drivers/STM32F4xx_HAL_Driver/Src/stm32f4xx_hal_dma.c **** 
 6570              		.loc 1 581 0 discriminator 122
 6571 1d3a A2F56872 		sub	r2, r2, #928
 6572 1d3e 9342     		cmp	r3, r2
 6573 1d40 20D0     		beq	.L941
 581:../Drivers/STM32F4xx_HAL_Driver/Src/stm32f4xx_hal_dma.c **** 
 6574              		.loc 1 581 0 discriminator 124
 6575 1d42 02F58062 		add	r2, r2, #1024
 6576 1d46 9342     		cmp	r3, r2
 6577 1d48 1FD1     		bne	.L942
 581:../Drivers/STM32F4xx_HAL_Driver/Src/stm32f4xx_hal_dma.c **** 
 6578              		.loc 1 581 0
 6579 1d4a 4FF40013 		mov	r3, #2097152
 6580 1d4e 1EE0     		b	.L429
 6581              	.L931:
 6582 1d50 2023     		movs	r3, #32
 6583 1d52 1CE0     		b	.L429
 6584              	.L932:
 6585 1d54 2023     		movs	r3, #32
 6586 1d56 1AE0     		b	.L429
 6587              	.L933:
 6588 1d58 2023     		movs	r3, #32
 6589 1d5a 18E0     		b	.L429
 6590              	.L934:
ARM GAS  /tmp/ccIvKYQX.s 			page 150


 6591 1d5c 2023     		movs	r3, #32
 6592 1d5e 16E0     		b	.L429
 6593              	.L935:
 6594 1d60 4FF40063 		mov	r3, #2048
 6595 1d64 13E0     		b	.L429
 6596              	.L936:
 6597 1d66 4FF40063 		mov	r3, #2048
 6598 1d6a 10E0     		b	.L429
 6599              	.L937:
 6600 1d6c 4FF40063 		mov	r3, #2048
 6601 1d70 0DE0     		b	.L429
 6602              	.L938:
 6603 1d72 4FF40063 		mov	r3, #2048
 6604 1d76 0AE0     		b	.L429
 6605              	.L939:
 6606 1d78 4FF40013 		mov	r3, #2097152
 6607 1d7c 07E0     		b	.L429
 6608              	.L940:
 6609 1d7e 4FF40013 		mov	r3, #2097152
 6610 1d82 04E0     		b	.L429
 6611              	.L941:
 6612 1d84 4FF40013 		mov	r3, #2097152
 6613 1d88 01E0     		b	.L429
 6614              	.L942:
 6615 1d8a 4FF00063 		mov	r3, #134217728
 6616              	.L429:
 581:../Drivers/STM32F4xx_HAL_Driver/Src/stm32f4xx_hal_dma.c **** 
 6617              		.loc 1 581 0 discriminator 151
 6618 1d8e 604A     		ldr	r2, .L1073+12
 6619 1d90 D360     		str	r3, [r2, #12]
 6620 1d92 52E0     		b	.L424
 6621              	.L428:
 581:../Drivers/STM32F4xx_HAL_Driver/Src/stm32f4xx_hal_dma.c **** 
 6622              		.loc 1 581 0 discriminator 103
 6623 1d94 5F4A     		ldr	r2, .L1073+16
 6624 1d96 9342     		cmp	r3, r2
 6625 1d98 2ED0     		beq	.L943
 581:../Drivers/STM32F4xx_HAL_Driver/Src/stm32f4xx_hal_dma.c **** 
 6626              		.loc 1 581 0 discriminator 153
 6627 1d9a 02F58062 		add	r2, r2, #1024
 6628 1d9e 9342     		cmp	r3, r2
 6629 1da0 2CD0     		beq	.L944
 581:../Drivers/STM32F4xx_HAL_Driver/Src/stm32f4xx_hal_dma.c **** 
 6630              		.loc 1 581 0 discriminator 155
 6631 1da2 A2F56872 		sub	r2, r2, #928
 6632 1da6 9342     		cmp	r3, r2
 6633 1da8 2AD0     		beq	.L945
 581:../Drivers/STM32F4xx_HAL_Driver/Src/stm32f4xx_hal_dma.c **** 
 6634              		.loc 1 581 0 discriminator 157
 6635 1daa 02F58062 		add	r2, r2, #1024
 6636 1dae 9342     		cmp	r3, r2
 6637 1db0 28D0     		beq	.L946
 581:../Drivers/STM32F4xx_HAL_Driver/Src/stm32f4xx_hal_dma.c **** 
 6638              		.loc 1 581 0 discriminator 159
 6639 1db2 A2F58962 		sub	r2, r2, #1096
 6640 1db6 9342     		cmp	r3, r2
 6641 1db8 26D0     		beq	.L947
ARM GAS  /tmp/ccIvKYQX.s 			page 151


 581:../Drivers/STM32F4xx_HAL_Driver/Src/stm32f4xx_hal_dma.c **** 
 6642              		.loc 1 581 0 discriminator 161
 6643 1dba 02F58062 		add	r2, r2, #1024
 6644 1dbe 9342     		cmp	r3, r2
 6645 1dc0 25D0     		beq	.L948
 581:../Drivers/STM32F4xx_HAL_Driver/Src/stm32f4xx_hal_dma.c **** 
 6646              		.loc 1 581 0 discriminator 163
 6647 1dc2 A2F56872 		sub	r2, r2, #928
 6648 1dc6 9342     		cmp	r3, r2
 6649 1dc8 24D0     		beq	.L949
 581:../Drivers/STM32F4xx_HAL_Driver/Src/stm32f4xx_hal_dma.c **** 
 6650              		.loc 1 581 0 discriminator 165
 6651 1dca 02F58062 		add	r2, r2, #1024
 6652 1dce 9342     		cmp	r3, r2
 6653 1dd0 23D0     		beq	.L950
 581:../Drivers/STM32F4xx_HAL_Driver/Src/stm32f4xx_hal_dma.c **** 
 6654              		.loc 1 581 0 discriminator 167
 6655 1dd2 A2F58962 		sub	r2, r2, #1096
 6656 1dd6 9342     		cmp	r3, r2
 6657 1dd8 22D0     		beq	.L951
 581:../Drivers/STM32F4xx_HAL_Driver/Src/stm32f4xx_hal_dma.c **** 
 6658              		.loc 1 581 0 discriminator 169
 6659 1dda 02F58062 		add	r2, r2, #1024
 6660 1dde 9342     		cmp	r3, r2
 6661 1de0 21D0     		beq	.L952
 581:../Drivers/STM32F4xx_HAL_Driver/Src/stm32f4xx_hal_dma.c **** 
 6662              		.loc 1 581 0 discriminator 171
 6663 1de2 A2F56872 		sub	r2, r2, #928
 6664 1de6 9342     		cmp	r3, r2
 6665 1de8 20D0     		beq	.L953
 581:../Drivers/STM32F4xx_HAL_Driver/Src/stm32f4xx_hal_dma.c **** 
 6666              		.loc 1 581 0 discriminator 173
 6667 1dea 02F58062 		add	r2, r2, #1024
 6668 1dee 9342     		cmp	r3, r2
 6669 1df0 1FD1     		bne	.L954
 581:../Drivers/STM32F4xx_HAL_Driver/Src/stm32f4xx_hal_dma.c **** 
 6670              		.loc 1 581 0
 6671 1df2 4FF40013 		mov	r3, #2097152
 6672 1df6 1EE0     		b	.L430
 6673              	.L943:
 6674 1df8 2023     		movs	r3, #32
 6675 1dfa 1CE0     		b	.L430
 6676              	.L944:
 6677 1dfc 2023     		movs	r3, #32
 6678 1dfe 1AE0     		b	.L430
 6679              	.L945:
 6680 1e00 2023     		movs	r3, #32
 6681 1e02 18E0     		b	.L430
 6682              	.L946:
 6683 1e04 2023     		movs	r3, #32
 6684 1e06 16E0     		b	.L430
 6685              	.L947:
 6686 1e08 4FF40063 		mov	r3, #2048
 6687 1e0c 13E0     		b	.L430
 6688              	.L948:
 6689 1e0e 4FF40063 		mov	r3, #2048
 6690 1e12 10E0     		b	.L430
ARM GAS  /tmp/ccIvKYQX.s 			page 152


 6691              	.L949:
 6692 1e14 4FF40063 		mov	r3, #2048
 6693 1e18 0DE0     		b	.L430
 6694              	.L950:
 6695 1e1a 4FF40063 		mov	r3, #2048
 6696 1e1e 0AE0     		b	.L430
 6697              	.L951:
 6698 1e20 4FF40013 		mov	r3, #2097152
 6699 1e24 07E0     		b	.L430
 6700              	.L952:
 6701 1e26 4FF40013 		mov	r3, #2097152
 6702 1e2a 04E0     		b	.L430
 6703              	.L953:
 6704 1e2c 4FF40013 		mov	r3, #2097152
 6705 1e30 01E0     		b	.L430
 6706              	.L954:
 6707 1e32 4FF00063 		mov	r3, #134217728
 6708              	.L430:
 581:../Drivers/STM32F4xx_HAL_Driver/Src/stm32f4xx_hal_dma.c **** 
 6709              		.loc 1 581 0 discriminator 200
 6710 1e36 364A     		ldr	r2, .L1073+12
 6711 1e38 9360     		str	r3, [r2, #8]
 6712              	.L424:
 585:../Drivers/STM32F4xx_HAL_Driver/Src/stm32f4xx_hal_dma.c ****     }
 6713              		.loc 1 585 0 is_stmt 1
 6714 1e3a 1123     		movs	r3, #17
 6715 1e3c 84F83530 		strb	r3, [r4, #53]
 6716              	.L412:
 588:../Drivers/STM32F4xx_HAL_Driver/Src/stm32f4xx_hal_dma.c ****   }
 6717              		.loc 1 588 0
 6718 1e40 0020     		movs	r0, #0
 6719 1e42 84F83400 		strb	r0, [r4, #52]
 6720 1e46 BDE8F883 		pop	{r3, r4, r5, r6, r7, r8, r9, pc}
 6721              	.LVL60:
 6722              	.L391:
 593:../Drivers/STM32F4xx_HAL_Driver/Src/stm32f4xx_hal_dma.c ****     {
 6723              		.loc 1 593 0
 6724 1e4a 1B68     		ldr	r3, [r3]
 6725 1e4c 13F4802F 		tst	r3, #262144
 6726 1e50 00F07B81 		beq	.L431
 596:../Drivers/STM32F4xx_HAL_Driver/Src/stm32f4xx_hal_dma.c **** 
 6727              		.loc 1 596 0
 6728 1e54 304B     		ldr	r3, .L1073+20
 6729 1e56 9E45     		cmp	lr, r3
 6730 1e58 60D9     		bls	.L432
 596:../Drivers/STM32F4xx_HAL_Driver/Src/stm32f4xx_hal_dma.c **** 
 6731              		.loc 1 596 0 is_stmt 0 discriminator 1
 6732 1e5a A3F58963 		sub	r3, r3, #1096
 6733 1e5e 9E45     		cmp	lr, r3
 6734 1e60 2ED0     		beq	.L955
 596:../Drivers/STM32F4xx_HAL_Driver/Src/stm32f4xx_hal_dma.c **** 
 6735              		.loc 1 596 0 discriminator 3
 6736 1e62 03F58063 		add	r3, r3, #1024
 6737 1e66 9E45     		cmp	lr, r3
 6738 1e68 2CD0     		beq	.L956
 596:../Drivers/STM32F4xx_HAL_Driver/Src/stm32f4xx_hal_dma.c **** 
 6739              		.loc 1 596 0 discriminator 5
ARM GAS  /tmp/ccIvKYQX.s 			page 153


 6740 1e6a A3F56873 		sub	r3, r3, #928
 6741 1e6e 9E45     		cmp	lr, r3
 6742 1e70 2AD0     		beq	.L957
 596:../Drivers/STM32F4xx_HAL_Driver/Src/stm32f4xx_hal_dma.c **** 
 6743              		.loc 1 596 0 discriminator 7
 6744 1e72 03F58063 		add	r3, r3, #1024
 6745 1e76 9E45     		cmp	lr, r3
 6746 1e78 28D0     		beq	.L958
 596:../Drivers/STM32F4xx_HAL_Driver/Src/stm32f4xx_hal_dma.c **** 
 6747              		.loc 1 596 0 discriminator 9
 6748 1e7a A3F58963 		sub	r3, r3, #1096
 6749 1e7e 9E45     		cmp	lr, r3
 6750 1e80 26D0     		beq	.L959
 596:../Drivers/STM32F4xx_HAL_Driver/Src/stm32f4xx_hal_dma.c **** 
 6751              		.loc 1 596 0 discriminator 11
 6752 1e82 03F58063 		add	r3, r3, #1024
 6753 1e86 9E45     		cmp	lr, r3
 6754 1e88 25D0     		beq	.L960
 596:../Drivers/STM32F4xx_HAL_Driver/Src/stm32f4xx_hal_dma.c **** 
 6755              		.loc 1 596 0 discriminator 13
 6756 1e8a A3F56873 		sub	r3, r3, #928
 6757 1e8e 9E45     		cmp	lr, r3
 6758 1e90 24D0     		beq	.L961
 596:../Drivers/STM32F4xx_HAL_Driver/Src/stm32f4xx_hal_dma.c **** 
 6759              		.loc 1 596 0 discriminator 15
 6760 1e92 03F58063 		add	r3, r3, #1024
 6761 1e96 9E45     		cmp	lr, r3
 6762 1e98 23D0     		beq	.L962
 596:../Drivers/STM32F4xx_HAL_Driver/Src/stm32f4xx_hal_dma.c **** 
 6763              		.loc 1 596 0 discriminator 17
 6764 1e9a A3F58963 		sub	r3, r3, #1096
 6765 1e9e 9E45     		cmp	lr, r3
 6766 1ea0 22D0     		beq	.L963
 596:../Drivers/STM32F4xx_HAL_Driver/Src/stm32f4xx_hal_dma.c **** 
 6767              		.loc 1 596 0 discriminator 19
 6768 1ea2 03F58063 		add	r3, r3, #1024
 6769 1ea6 9E45     		cmp	lr, r3
 6770 1ea8 21D0     		beq	.L964
 596:../Drivers/STM32F4xx_HAL_Driver/Src/stm32f4xx_hal_dma.c **** 
 6771              		.loc 1 596 0 discriminator 21
 6772 1eaa A3F56873 		sub	r3, r3, #928
 6773 1eae 9E45     		cmp	lr, r3
 6774 1eb0 20D0     		beq	.L965
 596:../Drivers/STM32F4xx_HAL_Driver/Src/stm32f4xx_hal_dma.c **** 
 6775              		.loc 1 596 0 discriminator 23
 6776 1eb2 03F58063 		add	r3, r3, #1024
 6777 1eb6 9E45     		cmp	lr, r3
 6778 1eb8 1FD1     		bne	.L966
 596:../Drivers/STM32F4xx_HAL_Driver/Src/stm32f4xx_hal_dma.c **** 
 6779              		.loc 1 596 0
 6780 1eba 4FF48013 		mov	r3, #1048576
 6781 1ebe 1EE0     		b	.L433
 6782              	.L955:
 6783 1ec0 1023     		movs	r3, #16
 6784 1ec2 1CE0     		b	.L433
 6785              	.L956:
 6786 1ec4 1023     		movs	r3, #16
ARM GAS  /tmp/ccIvKYQX.s 			page 154


 6787 1ec6 1AE0     		b	.L433
 6788              	.L957:
 6789 1ec8 1023     		movs	r3, #16
 6790 1eca 18E0     		b	.L433
 6791              	.L958:
 6792 1ecc 1023     		movs	r3, #16
 6793 1ece 16E0     		b	.L433
 6794              	.L959:
 6795 1ed0 4FF48063 		mov	r3, #1024
 6796 1ed4 13E0     		b	.L433
 6797              	.L960:
 6798 1ed6 4FF48063 		mov	r3, #1024
 6799 1eda 10E0     		b	.L433
 6800              	.L961:
 6801 1edc 4FF48063 		mov	r3, #1024
 6802 1ee0 0DE0     		b	.L433
 6803              	.L962:
 6804 1ee2 4FF48063 		mov	r3, #1024
 6805 1ee6 0AE0     		b	.L433
 6806              	.L963:
 6807 1ee8 4FF48013 		mov	r3, #1048576
 6808 1eec 07E0     		b	.L433
 6809              	.L964:
 6810 1eee 4FF48013 		mov	r3, #1048576
 6811 1ef2 04E0     		b	.L433
 6812              	.L965:
 6813 1ef4 4FF48013 		mov	r3, #1048576
 6814 1ef8 01E0     		b	.L433
 6815              	.L966:
 6816 1efa 4FF08063 		mov	r3, #67108864
 6817              	.L433:
 596:../Drivers/STM32F4xx_HAL_Driver/Src/stm32f4xx_hal_dma.c **** 
 6818              		.loc 1 596 0 discriminator 50
 6819 1efe 024A     		ldr	r2, .L1073+4
 6820 1f00 D360     		str	r3, [r2, #12]
 6821 1f02 0CE1     		b	.L434
 6822              	.L1074:
 6823              		.align	2
 6824              	.L1073:
 6825 1f04 B8600240 		.word	1073897656
 6826 1f08 00640240 		.word	1073898496
 6827 1f0c 58600240 		.word	1073897560
 6828 1f10 00600240 		.word	1073897472
 6829 1f14 10600240 		.word	1073897488
 6830 1f18 58640240 		.word	1073898584
 6831              	.L432:
 596:../Drivers/STM32F4xx_HAL_Driver/Src/stm32f4xx_hal_dma.c **** 
 6832              		.loc 1 596 0 discriminator 2
 6833 1f1c B74B     		ldr	r3, .L1075
 6834 1f1e 9E45     		cmp	lr, r3
 6835 1f20 53D9     		bls	.L435
 596:../Drivers/STM32F4xx_HAL_Driver/Src/stm32f4xx_hal_dma.c **** 
 6836              		.loc 1 596 0 discriminator 51
 6837 1f22 A83B     		subs	r3, r3, #168
 6838 1f24 9E45     		cmp	lr, r3
 6839 1f26 2ED0     		beq	.L967
 596:../Drivers/STM32F4xx_HAL_Driver/Src/stm32f4xx_hal_dma.c **** 
ARM GAS  /tmp/ccIvKYQX.s 			page 155


 6840              		.loc 1 596 0 discriminator 53
 6841 1f28 03F58063 		add	r3, r3, #1024
 6842 1f2c 9E45     		cmp	lr, r3
 6843 1f2e 2CD0     		beq	.L968
 596:../Drivers/STM32F4xx_HAL_Driver/Src/stm32f4xx_hal_dma.c **** 
 6844              		.loc 1 596 0 discriminator 55
 6845 1f30 A3F56873 		sub	r3, r3, #928
 6846 1f34 9E45     		cmp	lr, r3
 6847 1f36 2AD0     		beq	.L969
 596:../Drivers/STM32F4xx_HAL_Driver/Src/stm32f4xx_hal_dma.c **** 
 6848              		.loc 1 596 0 discriminator 57
 6849 1f38 03F58063 		add	r3, r3, #1024
 6850 1f3c 9E45     		cmp	lr, r3
 6851 1f3e 28D0     		beq	.L970
 596:../Drivers/STM32F4xx_HAL_Driver/Src/stm32f4xx_hal_dma.c **** 
 6852              		.loc 1 596 0 discriminator 59
 6853 1f40 A3F58963 		sub	r3, r3, #1096
 6854 1f44 9E45     		cmp	lr, r3
 6855 1f46 26D0     		beq	.L971
 596:../Drivers/STM32F4xx_HAL_Driver/Src/stm32f4xx_hal_dma.c **** 
 6856              		.loc 1 596 0 discriminator 61
 6857 1f48 03F58063 		add	r3, r3, #1024
 6858 1f4c 9E45     		cmp	lr, r3
 6859 1f4e 25D0     		beq	.L972
 596:../Drivers/STM32F4xx_HAL_Driver/Src/stm32f4xx_hal_dma.c **** 
 6860              		.loc 1 596 0 discriminator 63
 6861 1f50 A3F56873 		sub	r3, r3, #928
 6862 1f54 9E45     		cmp	lr, r3
 6863 1f56 24D0     		beq	.L973
 596:../Drivers/STM32F4xx_HAL_Driver/Src/stm32f4xx_hal_dma.c **** 
 6864              		.loc 1 596 0 discriminator 65
 6865 1f58 03F58063 		add	r3, r3, #1024
 6866 1f5c 9E45     		cmp	lr, r3
 6867 1f5e 23D0     		beq	.L974
 596:../Drivers/STM32F4xx_HAL_Driver/Src/stm32f4xx_hal_dma.c **** 
 6868              		.loc 1 596 0 discriminator 67
 6869 1f60 A3F58963 		sub	r3, r3, #1096
 6870 1f64 9E45     		cmp	lr, r3
 6871 1f66 22D0     		beq	.L975
 596:../Drivers/STM32F4xx_HAL_Driver/Src/stm32f4xx_hal_dma.c **** 
 6872              		.loc 1 596 0 discriminator 69
 6873 1f68 03F58063 		add	r3, r3, #1024
 6874 1f6c 9E45     		cmp	lr, r3
 6875 1f6e 21D0     		beq	.L976
 596:../Drivers/STM32F4xx_HAL_Driver/Src/stm32f4xx_hal_dma.c **** 
 6876              		.loc 1 596 0 discriminator 71
 6877 1f70 A3F56873 		sub	r3, r3, #928
 6878 1f74 9E45     		cmp	lr, r3
 6879 1f76 20D0     		beq	.L977
 596:../Drivers/STM32F4xx_HAL_Driver/Src/stm32f4xx_hal_dma.c **** 
 6880              		.loc 1 596 0 discriminator 73
 6881 1f78 03F58063 		add	r3, r3, #1024
 6882 1f7c 9E45     		cmp	lr, r3
 6883 1f7e 1FD1     		bne	.L978
 596:../Drivers/STM32F4xx_HAL_Driver/Src/stm32f4xx_hal_dma.c **** 
 6884              		.loc 1 596 0
 6885 1f80 4FF48013 		mov	r3, #1048576
ARM GAS  /tmp/ccIvKYQX.s 			page 156


 6886 1f84 1EE0     		b	.L436
 6887              	.L967:
 6888 1f86 1023     		movs	r3, #16
 6889 1f88 1CE0     		b	.L436
 6890              	.L968:
 6891 1f8a 1023     		movs	r3, #16
 6892 1f8c 1AE0     		b	.L436
 6893              	.L969:
 6894 1f8e 1023     		movs	r3, #16
 6895 1f90 18E0     		b	.L436
 6896              	.L970:
 6897 1f92 1023     		movs	r3, #16
 6898 1f94 16E0     		b	.L436
 6899              	.L971:
 6900 1f96 4FF48063 		mov	r3, #1024
 6901 1f9a 13E0     		b	.L436
 6902              	.L972:
 6903 1f9c 4FF48063 		mov	r3, #1024
 6904 1fa0 10E0     		b	.L436
 6905              	.L973:
 6906 1fa2 4FF48063 		mov	r3, #1024
 6907 1fa6 0DE0     		b	.L436
 6908              	.L974:
 6909 1fa8 4FF48063 		mov	r3, #1024
 6910 1fac 0AE0     		b	.L436
 6911              	.L975:
 6912 1fae 4FF48013 		mov	r3, #1048576
 6913 1fb2 07E0     		b	.L436
 6914              	.L976:
 6915 1fb4 4FF48013 		mov	r3, #1048576
 6916 1fb8 04E0     		b	.L436
 6917              	.L977:
 6918 1fba 4FF48013 		mov	r3, #1048576
 6919 1fbe 01E0     		b	.L436
 6920              	.L978:
 6921 1fc0 4FF08063 		mov	r3, #67108864
 6922              	.L436:
 596:../Drivers/STM32F4xx_HAL_Driver/Src/stm32f4xx_hal_dma.c **** 
 6923              		.loc 1 596 0 discriminator 100
 6924 1fc4 8E4A     		ldr	r2, .L1075+4
 6925 1fc6 9360     		str	r3, [r2, #8]
 6926 1fc8 A9E0     		b	.L434
 6927              	.L435:
 596:../Drivers/STM32F4xx_HAL_Driver/Src/stm32f4xx_hal_dma.c **** 
 6928              		.loc 1 596 0 discriminator 52
 6929 1fca 8E4B     		ldr	r3, .L1075+8
 6930 1fcc 9E45     		cmp	lr, r3
 6931 1fce 53D9     		bls	.L438
 596:../Drivers/STM32F4xx_HAL_Driver/Src/stm32f4xx_hal_dma.c **** 
 6932              		.loc 1 596 0 discriminator 102
 6933 1fd0 483B     		subs	r3, r3, #72
 6934 1fd2 9E45     		cmp	lr, r3
 6935 1fd4 2ED0     		beq	.L979
 596:../Drivers/STM32F4xx_HAL_Driver/Src/stm32f4xx_hal_dma.c **** 
 6936              		.loc 1 596 0 discriminator 104
 6937 1fd6 03F58063 		add	r3, r3, #1024
 6938 1fda 9E45     		cmp	lr, r3
ARM GAS  /tmp/ccIvKYQX.s 			page 157


 6939 1fdc 2CD0     		beq	.L980
 596:../Drivers/STM32F4xx_HAL_Driver/Src/stm32f4xx_hal_dma.c **** 
 6940              		.loc 1 596 0 discriminator 106
 6941 1fde A3F56873 		sub	r3, r3, #928
 6942 1fe2 9E45     		cmp	lr, r3
 6943 1fe4 2AD0     		beq	.L981
 596:../Drivers/STM32F4xx_HAL_Driver/Src/stm32f4xx_hal_dma.c **** 
 6944              		.loc 1 596 0 discriminator 108
 6945 1fe6 03F58063 		add	r3, r3, #1024
 6946 1fea 9E45     		cmp	lr, r3
 6947 1fec 28D0     		beq	.L982
 596:../Drivers/STM32F4xx_HAL_Driver/Src/stm32f4xx_hal_dma.c **** 
 6948              		.loc 1 596 0 discriminator 110
 6949 1fee A3F58963 		sub	r3, r3, #1096
 6950 1ff2 9E45     		cmp	lr, r3
 6951 1ff4 26D0     		beq	.L983
 596:../Drivers/STM32F4xx_HAL_Driver/Src/stm32f4xx_hal_dma.c **** 
 6952              		.loc 1 596 0 discriminator 112
 6953 1ff6 03F58063 		add	r3, r3, #1024
 6954 1ffa 9E45     		cmp	lr, r3
 6955 1ffc 25D0     		beq	.L984
 596:../Drivers/STM32F4xx_HAL_Driver/Src/stm32f4xx_hal_dma.c **** 
 6956              		.loc 1 596 0 discriminator 114
 6957 1ffe A3F56873 		sub	r3, r3, #928
 6958 2002 9E45     		cmp	lr, r3
 6959 2004 24D0     		beq	.L985
 596:../Drivers/STM32F4xx_HAL_Driver/Src/stm32f4xx_hal_dma.c **** 
 6960              		.loc 1 596 0 discriminator 116
 6961 2006 03F58063 		add	r3, r3, #1024
 6962 200a 9E45     		cmp	lr, r3
 6963 200c 23D0     		beq	.L986
 596:../Drivers/STM32F4xx_HAL_Driver/Src/stm32f4xx_hal_dma.c **** 
 6964              		.loc 1 596 0 discriminator 118
 6965 200e A3F58963 		sub	r3, r3, #1096
 6966 2012 9E45     		cmp	lr, r3
 6967 2014 22D0     		beq	.L987
 596:../Drivers/STM32F4xx_HAL_Driver/Src/stm32f4xx_hal_dma.c **** 
 6968              		.loc 1 596 0 discriminator 120
 6969 2016 03F58063 		add	r3, r3, #1024
 6970 201a 9E45     		cmp	lr, r3
 6971 201c 21D0     		beq	.L988
 596:../Drivers/STM32F4xx_HAL_Driver/Src/stm32f4xx_hal_dma.c **** 
 6972              		.loc 1 596 0 discriminator 122
 6973 201e A3F56873 		sub	r3, r3, #928
 6974 2022 9E45     		cmp	lr, r3
 6975 2024 20D0     		beq	.L989
 596:../Drivers/STM32F4xx_HAL_Driver/Src/stm32f4xx_hal_dma.c **** 
 6976              		.loc 1 596 0 discriminator 124
 6977 2026 03F58063 		add	r3, r3, #1024
 6978 202a 9E45     		cmp	lr, r3
 6979 202c 1FD1     		bne	.L990
 596:../Drivers/STM32F4xx_HAL_Driver/Src/stm32f4xx_hal_dma.c **** 
 6980              		.loc 1 596 0
 6981 202e 4FF48013 		mov	r3, #1048576
 6982 2032 1EE0     		b	.L439
 6983              	.L979:
 6984 2034 1023     		movs	r3, #16
ARM GAS  /tmp/ccIvKYQX.s 			page 158


 6985 2036 1CE0     		b	.L439
 6986              	.L980:
 6987 2038 1023     		movs	r3, #16
 6988 203a 1AE0     		b	.L439
 6989              	.L981:
 6990 203c 1023     		movs	r3, #16
 6991 203e 18E0     		b	.L439
 6992              	.L982:
 6993 2040 1023     		movs	r3, #16
 6994 2042 16E0     		b	.L439
 6995              	.L983:
 6996 2044 4FF48063 		mov	r3, #1024
 6997 2048 13E0     		b	.L439
 6998              	.L984:
 6999 204a 4FF48063 		mov	r3, #1024
 7000 204e 10E0     		b	.L439
 7001              	.L985:
 7002 2050 4FF48063 		mov	r3, #1024
 7003 2054 0DE0     		b	.L439
 7004              	.L986:
 7005 2056 4FF48063 		mov	r3, #1024
 7006 205a 0AE0     		b	.L439
 7007              	.L987:
 7008 205c 4FF48013 		mov	r3, #1048576
 7009 2060 07E0     		b	.L439
 7010              	.L988:
 7011 2062 4FF48013 		mov	r3, #1048576
 7012 2066 04E0     		b	.L439
 7013              	.L989:
 7014 2068 4FF48013 		mov	r3, #1048576
 7015 206c 01E0     		b	.L439
 7016              	.L990:
 7017 206e 4FF08063 		mov	r3, #67108864
 7018              	.L439:
 596:../Drivers/STM32F4xx_HAL_Driver/Src/stm32f4xx_hal_dma.c **** 
 7019              		.loc 1 596 0 discriminator 151
 7020 2072 654A     		ldr	r2, .L1075+12
 7021 2074 D360     		str	r3, [r2, #12]
 7022 2076 52E0     		b	.L434
 7023              	.L438:
 596:../Drivers/STM32F4xx_HAL_Driver/Src/stm32f4xx_hal_dma.c **** 
 7024              		.loc 1 596 0 discriminator 103
 7025 2078 644B     		ldr	r3, .L1075+16
 7026 207a 9E45     		cmp	lr, r3
 7027 207c 2ED0     		beq	.L991
 596:../Drivers/STM32F4xx_HAL_Driver/Src/stm32f4xx_hal_dma.c **** 
 7028              		.loc 1 596 0 discriminator 153
 7029 207e 03F58063 		add	r3, r3, #1024
 7030 2082 9E45     		cmp	lr, r3
 7031 2084 2CD0     		beq	.L992
 596:../Drivers/STM32F4xx_HAL_Driver/Src/stm32f4xx_hal_dma.c **** 
 7032              		.loc 1 596 0 discriminator 155
 7033 2086 A3F56873 		sub	r3, r3, #928
 7034 208a 9E45     		cmp	lr, r3
 7035 208c 2AD0     		beq	.L993
 596:../Drivers/STM32F4xx_HAL_Driver/Src/stm32f4xx_hal_dma.c **** 
 7036              		.loc 1 596 0 discriminator 157
ARM GAS  /tmp/ccIvKYQX.s 			page 159


 7037 208e 03F58063 		add	r3, r3, #1024
 7038 2092 9E45     		cmp	lr, r3
 7039 2094 28D0     		beq	.L994
 596:../Drivers/STM32F4xx_HAL_Driver/Src/stm32f4xx_hal_dma.c **** 
 7040              		.loc 1 596 0 discriminator 159
 7041 2096 A3F58963 		sub	r3, r3, #1096
 7042 209a 9E45     		cmp	lr, r3
 7043 209c 26D0     		beq	.L995
 596:../Drivers/STM32F4xx_HAL_Driver/Src/stm32f4xx_hal_dma.c **** 
 7044              		.loc 1 596 0 discriminator 161
 7045 209e 03F58063 		add	r3, r3, #1024
 7046 20a2 9E45     		cmp	lr, r3
 7047 20a4 25D0     		beq	.L996
 596:../Drivers/STM32F4xx_HAL_Driver/Src/stm32f4xx_hal_dma.c **** 
 7048              		.loc 1 596 0 discriminator 163
 7049 20a6 A3F56873 		sub	r3, r3, #928
 7050 20aa 9E45     		cmp	lr, r3
 7051 20ac 24D0     		beq	.L997
 596:../Drivers/STM32F4xx_HAL_Driver/Src/stm32f4xx_hal_dma.c **** 
 7052              		.loc 1 596 0 discriminator 165
 7053 20ae 03F58063 		add	r3, r3, #1024
 7054 20b2 9E45     		cmp	lr, r3
 7055 20b4 23D0     		beq	.L998
 596:../Drivers/STM32F4xx_HAL_Driver/Src/stm32f4xx_hal_dma.c **** 
 7056              		.loc 1 596 0 discriminator 167
 7057 20b6 A3F58963 		sub	r3, r3, #1096
 7058 20ba 9E45     		cmp	lr, r3
 7059 20bc 22D0     		beq	.L999
 596:../Drivers/STM32F4xx_HAL_Driver/Src/stm32f4xx_hal_dma.c **** 
 7060              		.loc 1 596 0 discriminator 169
 7061 20be 03F58063 		add	r3, r3, #1024
 7062 20c2 9E45     		cmp	lr, r3
 7063 20c4 21D0     		beq	.L1000
 596:../Drivers/STM32F4xx_HAL_Driver/Src/stm32f4xx_hal_dma.c **** 
 7064              		.loc 1 596 0 discriminator 171
 7065 20c6 A3F56873 		sub	r3, r3, #928
 7066 20ca 9E45     		cmp	lr, r3
 7067 20cc 20D0     		beq	.L1001
 596:../Drivers/STM32F4xx_HAL_Driver/Src/stm32f4xx_hal_dma.c **** 
 7068              		.loc 1 596 0 discriminator 173
 7069 20ce 03F58063 		add	r3, r3, #1024
 7070 20d2 9E45     		cmp	lr, r3
 7071 20d4 1FD1     		bne	.L1002
 596:../Drivers/STM32F4xx_HAL_Driver/Src/stm32f4xx_hal_dma.c **** 
 7072              		.loc 1 596 0
 7073 20d6 4FF48013 		mov	r3, #1048576
 7074 20da 1EE0     		b	.L440
 7075              	.L991:
 7076 20dc 1023     		movs	r3, #16
 7077 20de 1CE0     		b	.L440
 7078              	.L992:
 7079 20e0 1023     		movs	r3, #16
 7080 20e2 1AE0     		b	.L440
 7081              	.L993:
 7082 20e4 1023     		movs	r3, #16
 7083 20e6 18E0     		b	.L440
 7084              	.L994:
ARM GAS  /tmp/ccIvKYQX.s 			page 160


 7085 20e8 1023     		movs	r3, #16
 7086 20ea 16E0     		b	.L440
 7087              	.L995:
 7088 20ec 4FF48063 		mov	r3, #1024
 7089 20f0 13E0     		b	.L440
 7090              	.L996:
 7091 20f2 4FF48063 		mov	r3, #1024
 7092 20f6 10E0     		b	.L440
 7093              	.L997:
 7094 20f8 4FF48063 		mov	r3, #1024
 7095 20fc 0DE0     		b	.L440
 7096              	.L998:
 7097 20fe 4FF48063 		mov	r3, #1024
 7098 2102 0AE0     		b	.L440
 7099              	.L999:
 7100 2104 4FF48013 		mov	r3, #1048576
 7101 2108 07E0     		b	.L440
 7102              	.L1000:
 7103 210a 4FF48013 		mov	r3, #1048576
 7104 210e 04E0     		b	.L440
 7105              	.L1001:
 7106 2110 4FF48013 		mov	r3, #1048576
 7107 2114 01E0     		b	.L440
 7108              	.L1002:
 7109 2116 4FF08063 		mov	r3, #67108864
 7110              	.L440:
 596:../Drivers/STM32F4xx_HAL_Driver/Src/stm32f4xx_hal_dma.c **** 
 7111              		.loc 1 596 0 discriminator 200
 7112 211a 3B4A     		ldr	r2, .L1075+12
 7113 211c 9360     		str	r3, [r2, #8]
 7114              	.L434:
 599:../Drivers/STM32F4xx_HAL_Driver/Src/stm32f4xx_hal_dma.c ****       {
 7115              		.loc 1 599 0 is_stmt 1
 7116 211e 2368     		ldr	r3, [r4]
 7117 2120 1A68     		ldr	r2, [r3]
 7118 2122 12F4002F 		tst	r2, #524288
 7119 2126 05D1     		bne	.L441
 602:../Drivers/STM32F4xx_HAL_Driver/Src/stm32f4xx_hal_dma.c ****       }
 7120              		.loc 1 602 0
 7121 2128 3123     		movs	r3, #49
 7122 212a 84F83530 		strb	r3, [r4, #53]
 620:../Drivers/STM32F4xx_HAL_Driver/Src/stm32f4xx_hal_dma.c **** }
 7123              		.loc 1 620 0
 7124 212e 0020     		movs	r0, #0
 7125 2130 BDE8F883 		pop	{r3, r4, r5, r6, r7, r8, r9, pc}
 7126              	.LVL61:
 7127              	.L441:
 605:../Drivers/STM32F4xx_HAL_Driver/Src/stm32f4xx_hal_dma.c ****       {
 7128              		.loc 1 605 0
 7129 2134 1B68     		ldr	r3, [r3]
 7130 2136 13F4002F 		tst	r3, #524288
 7131 213a 00F07281 		beq	.L1003
 608:../Drivers/STM32F4xx_HAL_Driver/Src/stm32f4xx_hal_dma.c ****       }
 7132              		.loc 1 608 0
 7133 213e 4123     		movs	r3, #65
 7134 2140 84F83530 		strb	r3, [r4, #53]
 620:../Drivers/STM32F4xx_HAL_Driver/Src/stm32f4xx_hal_dma.c **** }
ARM GAS  /tmp/ccIvKYQX.s 			page 161


 7135              		.loc 1 620 0
 7136 2144 0020     		movs	r0, #0
 7137 2146 BDE8F883 		pop	{r3, r4, r5, r6, r7, r8, r9, pc}
 7138              	.LVL62:
 7139              	.L431:
 614:../Drivers/STM32F4xx_HAL_Driver/Src/stm32f4xx_hal_dma.c **** 
 7140              		.loc 1 614 0
 7141 214a 314B     		ldr	r3, .L1075+20
 7142 214c 9E45     		cmp	lr, r3
 7143 214e 61D9     		bls	.L442
 614:../Drivers/STM32F4xx_HAL_Driver/Src/stm32f4xx_hal_dma.c **** 
 7144              		.loc 1 614 0 is_stmt 0 discriminator 1
 7145 2150 A3F58963 		sub	r3, r3, #1096
 7146 2154 9E45     		cmp	lr, r3
 7147 2156 2ED0     		beq	.L1004
 614:../Drivers/STM32F4xx_HAL_Driver/Src/stm32f4xx_hal_dma.c **** 
 7148              		.loc 1 614 0 discriminator 3
 7149 2158 03F58063 		add	r3, r3, #1024
 7150 215c 9E45     		cmp	lr, r3
 7151 215e 2CD0     		beq	.L1005
 614:../Drivers/STM32F4xx_HAL_Driver/Src/stm32f4xx_hal_dma.c **** 
 7152              		.loc 1 614 0 discriminator 5
 7153 2160 A3F56873 		sub	r3, r3, #928
 7154 2164 9E45     		cmp	lr, r3
 7155 2166 2AD0     		beq	.L1006
 614:../Drivers/STM32F4xx_HAL_Driver/Src/stm32f4xx_hal_dma.c **** 
 7156              		.loc 1 614 0 discriminator 7
 7157 2168 03F58063 		add	r3, r3, #1024
 7158 216c 9E45     		cmp	lr, r3
 7159 216e 28D0     		beq	.L1007
 614:../Drivers/STM32F4xx_HAL_Driver/Src/stm32f4xx_hal_dma.c **** 
 7160              		.loc 1 614 0 discriminator 9
 7161 2170 A3F58963 		sub	r3, r3, #1096
 7162 2174 9E45     		cmp	lr, r3
 7163 2176 26D0     		beq	.L1008
 614:../Drivers/STM32F4xx_HAL_Driver/Src/stm32f4xx_hal_dma.c **** 
 7164              		.loc 1 614 0 discriminator 11
 7165 2178 03F58063 		add	r3, r3, #1024
 7166 217c 9E45     		cmp	lr, r3
 7167 217e 25D0     		beq	.L1009
 614:../Drivers/STM32F4xx_HAL_Driver/Src/stm32f4xx_hal_dma.c **** 
 7168              		.loc 1 614 0 discriminator 13
 7169 2180 A3F56873 		sub	r3, r3, #928
 7170 2184 9E45     		cmp	lr, r3
 7171 2186 24D0     		beq	.L1010
 614:../Drivers/STM32F4xx_HAL_Driver/Src/stm32f4xx_hal_dma.c **** 
 7172              		.loc 1 614 0 discriminator 15
 7173 2188 03F58063 		add	r3, r3, #1024
 7174 218c 9E45     		cmp	lr, r3
 7175 218e 23D0     		beq	.L1011
 614:../Drivers/STM32F4xx_HAL_Driver/Src/stm32f4xx_hal_dma.c **** 
 7176              		.loc 1 614 0 discriminator 17
 7177 2190 A3F58963 		sub	r3, r3, #1096
 7178 2194 9E45     		cmp	lr, r3
 7179 2196 22D0     		beq	.L1012
 614:../Drivers/STM32F4xx_HAL_Driver/Src/stm32f4xx_hal_dma.c **** 
 7180              		.loc 1 614 0 discriminator 19
ARM GAS  /tmp/ccIvKYQX.s 			page 162


 7181 2198 03F58063 		add	r3, r3, #1024
 7182 219c 9E45     		cmp	lr, r3
 7183 219e 21D0     		beq	.L1013
 614:../Drivers/STM32F4xx_HAL_Driver/Src/stm32f4xx_hal_dma.c **** 
 7184              		.loc 1 614 0 discriminator 21
 7185 21a0 A3F56873 		sub	r3, r3, #928
 7186 21a4 9E45     		cmp	lr, r3
 7187 21a6 20D0     		beq	.L1014
 614:../Drivers/STM32F4xx_HAL_Driver/Src/stm32f4xx_hal_dma.c **** 
 7188              		.loc 1 614 0 discriminator 23
 7189 21a8 03F58063 		add	r3, r3, #1024
 7190 21ac 9E45     		cmp	lr, r3
 7191 21ae 1FD1     		bne	.L1015
 614:../Drivers/STM32F4xx_HAL_Driver/Src/stm32f4xx_hal_dma.c **** 
 7192              		.loc 1 614 0
 7193 21b0 4FF48013 		mov	r3, #1048576
 7194 21b4 1EE0     		b	.L443
 7195              	.L1004:
 7196 21b6 1023     		movs	r3, #16
 7197 21b8 1CE0     		b	.L443
 7198              	.L1005:
 7199 21ba 1023     		movs	r3, #16
 7200 21bc 1AE0     		b	.L443
 7201              	.L1006:
 7202 21be 1023     		movs	r3, #16
 7203 21c0 18E0     		b	.L443
 7204              	.L1007:
 7205 21c2 1023     		movs	r3, #16
 7206 21c4 16E0     		b	.L443
 7207              	.L1008:
 7208 21c6 4FF48063 		mov	r3, #1024
 7209 21ca 13E0     		b	.L443
 7210              	.L1009:
 7211 21cc 4FF48063 		mov	r3, #1024
 7212 21d0 10E0     		b	.L443
 7213              	.L1010:
 7214 21d2 4FF48063 		mov	r3, #1024
 7215 21d6 0DE0     		b	.L443
 7216              	.L1011:
 7217 21d8 4FF48063 		mov	r3, #1024
 7218 21dc 0AE0     		b	.L443
 7219              	.L1012:
 7220 21de 4FF48013 		mov	r3, #1048576
 7221 21e2 07E0     		b	.L443
 7222              	.L1013:
 7223 21e4 4FF48013 		mov	r3, #1048576
 7224 21e8 04E0     		b	.L443
 7225              	.L1014:
 7226 21ea 4FF48013 		mov	r3, #1048576
 7227 21ee 01E0     		b	.L443
 7228              	.L1015:
 7229 21f0 4FF08063 		mov	r3, #67108864
 7230              	.L443:
 614:../Drivers/STM32F4xx_HAL_Driver/Src/stm32f4xx_hal_dma.c **** 
 7231              		.loc 1 614 0 discriminator 50
 7232 21f4 024A     		ldr	r2, .L1075+4
 7233 21f6 D360     		str	r3, [r2, #12]
ARM GAS  /tmp/ccIvKYQX.s 			page 163


 7234 21f8 0DE1     		b	.L444
 7235              	.L1076:
 7236 21fa 00BF     		.align	2
 7237              	.L1075:
 7238 21fc B8600240 		.word	1073897656
 7239 2200 00640240 		.word	1073898496
 7240 2204 58600240 		.word	1073897560
 7241 2208 00600240 		.word	1073897472
 7242 220c 10600240 		.word	1073897488
 7243 2210 58640240 		.word	1073898584
 7244              	.L442:
 614:../Drivers/STM32F4xx_HAL_Driver/Src/stm32f4xx_hal_dma.c **** 
 7245              		.loc 1 614 0 discriminator 2
 7246 2214 844B     		ldr	r3, .L1077
 7247 2216 9E45     		cmp	lr, r3
 7248 2218 53D9     		bls	.L445
 614:../Drivers/STM32F4xx_HAL_Driver/Src/stm32f4xx_hal_dma.c **** 
 7249              		.loc 1 614 0 discriminator 51
 7250 221a A83B     		subs	r3, r3, #168
 7251 221c 9E45     		cmp	lr, r3
 7252 221e 2ED0     		beq	.L1016
 614:../Drivers/STM32F4xx_HAL_Driver/Src/stm32f4xx_hal_dma.c **** 
 7253              		.loc 1 614 0 discriminator 53
 7254 2220 03F58063 		add	r3, r3, #1024
 7255 2224 9E45     		cmp	lr, r3
 7256 2226 2CD0     		beq	.L1017
 614:../Drivers/STM32F4xx_HAL_Driver/Src/stm32f4xx_hal_dma.c **** 
 7257              		.loc 1 614 0 discriminator 55
 7258 2228 A3F56873 		sub	r3, r3, #928
 7259 222c 9E45     		cmp	lr, r3
 7260 222e 2AD0     		beq	.L1018
 614:../Drivers/STM32F4xx_HAL_Driver/Src/stm32f4xx_hal_dma.c **** 
 7261              		.loc 1 614 0 discriminator 57
 7262 2230 03F58063 		add	r3, r3, #1024
 7263 2234 9E45     		cmp	lr, r3
 7264 2236 28D0     		beq	.L1019
 614:../Drivers/STM32F4xx_HAL_Driver/Src/stm32f4xx_hal_dma.c **** 
 7265              		.loc 1 614 0 discriminator 59
 7266 2238 A3F58963 		sub	r3, r3, #1096
 7267 223c 9E45     		cmp	lr, r3
 7268 223e 26D0     		beq	.L1020
 614:../Drivers/STM32F4xx_HAL_Driver/Src/stm32f4xx_hal_dma.c **** 
 7269              		.loc 1 614 0 discriminator 61
 7270 2240 03F58063 		add	r3, r3, #1024
 7271 2244 9E45     		cmp	lr, r3
 7272 2246 25D0     		beq	.L1021
 614:../Drivers/STM32F4xx_HAL_Driver/Src/stm32f4xx_hal_dma.c **** 
 7273              		.loc 1 614 0 discriminator 63
 7274 2248 A3F56873 		sub	r3, r3, #928
 7275 224c 9E45     		cmp	lr, r3
 7276 224e 24D0     		beq	.L1022
 614:../Drivers/STM32F4xx_HAL_Driver/Src/stm32f4xx_hal_dma.c **** 
 7277              		.loc 1 614 0 discriminator 65
 7278 2250 03F58063 		add	r3, r3, #1024
 7279 2254 9E45     		cmp	lr, r3
 7280 2256 23D0     		beq	.L1023
 614:../Drivers/STM32F4xx_HAL_Driver/Src/stm32f4xx_hal_dma.c **** 
ARM GAS  /tmp/ccIvKYQX.s 			page 164


 7281              		.loc 1 614 0 discriminator 67
 7282 2258 A3F58963 		sub	r3, r3, #1096
 7283 225c 9E45     		cmp	lr, r3
 7284 225e 22D0     		beq	.L1024
 614:../Drivers/STM32F4xx_HAL_Driver/Src/stm32f4xx_hal_dma.c **** 
 7285              		.loc 1 614 0 discriminator 69
 7286 2260 03F58063 		add	r3, r3, #1024
 7287 2264 9E45     		cmp	lr, r3
 7288 2266 21D0     		beq	.L1025
 614:../Drivers/STM32F4xx_HAL_Driver/Src/stm32f4xx_hal_dma.c **** 
 7289              		.loc 1 614 0 discriminator 71
 7290 2268 A3F56873 		sub	r3, r3, #928
 7291 226c 9E45     		cmp	lr, r3
 7292 226e 20D0     		beq	.L1026
 614:../Drivers/STM32F4xx_HAL_Driver/Src/stm32f4xx_hal_dma.c **** 
 7293              		.loc 1 614 0 discriminator 73
 7294 2270 03F58063 		add	r3, r3, #1024
 7295 2274 9E45     		cmp	lr, r3
 7296 2276 1FD1     		bne	.L1027
 614:../Drivers/STM32F4xx_HAL_Driver/Src/stm32f4xx_hal_dma.c **** 
 7297              		.loc 1 614 0
 7298 2278 4FF48013 		mov	r3, #1048576
 7299 227c 1EE0     		b	.L446
 7300              	.L1016:
 7301 227e 1023     		movs	r3, #16
 7302 2280 1CE0     		b	.L446
 7303              	.L1017:
 7304 2282 1023     		movs	r3, #16
 7305 2284 1AE0     		b	.L446
 7306              	.L1018:
 7307 2286 1023     		movs	r3, #16
 7308 2288 18E0     		b	.L446
 7309              	.L1019:
 7310 228a 1023     		movs	r3, #16
 7311 228c 16E0     		b	.L446
 7312              	.L1020:
 7313 228e 4FF48063 		mov	r3, #1024
 7314 2292 13E0     		b	.L446
 7315              	.L1021:
 7316 2294 4FF48063 		mov	r3, #1024
 7317 2298 10E0     		b	.L446
 7318              	.L1022:
 7319 229a 4FF48063 		mov	r3, #1024
 7320 229e 0DE0     		b	.L446
 7321              	.L1023:
 7322 22a0 4FF48063 		mov	r3, #1024
 7323 22a4 0AE0     		b	.L446
 7324              	.L1024:
 7325 22a6 4FF48013 		mov	r3, #1048576
 7326 22aa 07E0     		b	.L446
 7327              	.L1025:
 7328 22ac 4FF48013 		mov	r3, #1048576
 7329 22b0 04E0     		b	.L446
 7330              	.L1026:
 7331 22b2 4FF48013 		mov	r3, #1048576
 7332 22b6 01E0     		b	.L446
 7333              	.L1027:
ARM GAS  /tmp/ccIvKYQX.s 			page 165


 7334 22b8 4FF08063 		mov	r3, #67108864
 7335              	.L446:
 614:../Drivers/STM32F4xx_HAL_Driver/Src/stm32f4xx_hal_dma.c **** 
 7336              		.loc 1 614 0 discriminator 100
 7337 22bc 5B4A     		ldr	r2, .L1077+4
 7338 22be 9360     		str	r3, [r2, #8]
 7339 22c0 A9E0     		b	.L444
 7340              	.L445:
 614:../Drivers/STM32F4xx_HAL_Driver/Src/stm32f4xx_hal_dma.c **** 
 7341              		.loc 1 614 0 discriminator 52
 7342 22c2 5B4B     		ldr	r3, .L1077+8
 7343 22c4 9E45     		cmp	lr, r3
 7344 22c6 53D9     		bls	.L448
 614:../Drivers/STM32F4xx_HAL_Driver/Src/stm32f4xx_hal_dma.c **** 
 7345              		.loc 1 614 0 discriminator 102
 7346 22c8 483B     		subs	r3, r3, #72
 7347 22ca 9E45     		cmp	lr, r3
 7348 22cc 2ED0     		beq	.L1028
 614:../Drivers/STM32F4xx_HAL_Driver/Src/stm32f4xx_hal_dma.c **** 
 7349              		.loc 1 614 0 discriminator 104
 7350 22ce 03F58063 		add	r3, r3, #1024
 7351 22d2 9E45     		cmp	lr, r3
 7352 22d4 2CD0     		beq	.L1029
 614:../Drivers/STM32F4xx_HAL_Driver/Src/stm32f4xx_hal_dma.c **** 
 7353              		.loc 1 614 0 discriminator 106
 7354 22d6 A3F56873 		sub	r3, r3, #928
 7355 22da 9E45     		cmp	lr, r3
 7356 22dc 2AD0     		beq	.L1030
 614:../Drivers/STM32F4xx_HAL_Driver/Src/stm32f4xx_hal_dma.c **** 
 7357              		.loc 1 614 0 discriminator 108
 7358 22de 03F58063 		add	r3, r3, #1024
 7359 22e2 9E45     		cmp	lr, r3
 7360 22e4 28D0     		beq	.L1031
 614:../Drivers/STM32F4xx_HAL_Driver/Src/stm32f4xx_hal_dma.c **** 
 7361              		.loc 1 614 0 discriminator 110
 7362 22e6 A3F58963 		sub	r3, r3, #1096
 7363 22ea 9E45     		cmp	lr, r3
 7364 22ec 26D0     		beq	.L1032
 614:../Drivers/STM32F4xx_HAL_Driver/Src/stm32f4xx_hal_dma.c **** 
 7365              		.loc 1 614 0 discriminator 112
 7366 22ee 03F58063 		add	r3, r3, #1024
 7367 22f2 9E45     		cmp	lr, r3
 7368 22f4 25D0     		beq	.L1033
 614:../Drivers/STM32F4xx_HAL_Driver/Src/stm32f4xx_hal_dma.c **** 
 7369              		.loc 1 614 0 discriminator 114
 7370 22f6 A3F56873 		sub	r3, r3, #928
 7371 22fa 9E45     		cmp	lr, r3
 7372 22fc 24D0     		beq	.L1034
 614:../Drivers/STM32F4xx_HAL_Driver/Src/stm32f4xx_hal_dma.c **** 
 7373              		.loc 1 614 0 discriminator 116
 7374 22fe 03F58063 		add	r3, r3, #1024
 7375 2302 9E45     		cmp	lr, r3
 7376 2304 23D0     		beq	.L1035
 614:../Drivers/STM32F4xx_HAL_Driver/Src/stm32f4xx_hal_dma.c **** 
 7377              		.loc 1 614 0 discriminator 118
 7378 2306 A3F58963 		sub	r3, r3, #1096
 7379 230a 9E45     		cmp	lr, r3
ARM GAS  /tmp/ccIvKYQX.s 			page 166


 7380 230c 22D0     		beq	.L1036
 614:../Drivers/STM32F4xx_HAL_Driver/Src/stm32f4xx_hal_dma.c **** 
 7381              		.loc 1 614 0 discriminator 120
 7382 230e 03F58063 		add	r3, r3, #1024
 7383 2312 9E45     		cmp	lr, r3
 7384 2314 21D0     		beq	.L1037
 614:../Drivers/STM32F4xx_HAL_Driver/Src/stm32f4xx_hal_dma.c **** 
 7385              		.loc 1 614 0 discriminator 122
 7386 2316 A3F56873 		sub	r3, r3, #928
 7387 231a 9E45     		cmp	lr, r3
 7388 231c 20D0     		beq	.L1038
 614:../Drivers/STM32F4xx_HAL_Driver/Src/stm32f4xx_hal_dma.c **** 
 7389              		.loc 1 614 0 discriminator 124
 7390 231e 03F58063 		add	r3, r3, #1024
 7391 2322 9E45     		cmp	lr, r3
 7392 2324 1FD1     		bne	.L1039
 614:../Drivers/STM32F4xx_HAL_Driver/Src/stm32f4xx_hal_dma.c **** 
 7393              		.loc 1 614 0
 7394 2326 4FF48013 		mov	r3, #1048576
 7395 232a 1EE0     		b	.L449
 7396              	.L1028:
 7397 232c 1023     		movs	r3, #16
 7398 232e 1CE0     		b	.L449
 7399              	.L1029:
 7400 2330 1023     		movs	r3, #16
 7401 2332 1AE0     		b	.L449
 7402              	.L1030:
 7403 2334 1023     		movs	r3, #16
 7404 2336 18E0     		b	.L449
 7405              	.L1031:
 7406 2338 1023     		movs	r3, #16
 7407 233a 16E0     		b	.L449
 7408              	.L1032:
 7409 233c 4FF48063 		mov	r3, #1024
 7410 2340 13E0     		b	.L449
 7411              	.L1033:
 7412 2342 4FF48063 		mov	r3, #1024
 7413 2346 10E0     		b	.L449
 7414              	.L1034:
 7415 2348 4FF48063 		mov	r3, #1024
 7416 234c 0DE0     		b	.L449
 7417              	.L1035:
 7418 234e 4FF48063 		mov	r3, #1024
 7419 2352 0AE0     		b	.L449
 7420              	.L1036:
 7421 2354 4FF48013 		mov	r3, #1048576
 7422 2358 07E0     		b	.L449
 7423              	.L1037:
 7424 235a 4FF48013 		mov	r3, #1048576
 7425 235e 04E0     		b	.L449
 7426              	.L1038:
 7427 2360 4FF48013 		mov	r3, #1048576
 7428 2364 01E0     		b	.L449
 7429              	.L1039:
 7430 2366 4FF08063 		mov	r3, #67108864
 7431              	.L449:
 614:../Drivers/STM32F4xx_HAL_Driver/Src/stm32f4xx_hal_dma.c **** 
ARM GAS  /tmp/ccIvKYQX.s 			page 167


 7432              		.loc 1 614 0 discriminator 151
 7433 236a 324A     		ldr	r2, .L1077+12
 7434 236c D360     		str	r3, [r2, #12]
 7435 236e 52E0     		b	.L444
 7436              	.L448:
 614:../Drivers/STM32F4xx_HAL_Driver/Src/stm32f4xx_hal_dma.c **** 
 7437              		.loc 1 614 0 discriminator 103
 7438 2370 314B     		ldr	r3, .L1077+16
 7439 2372 9E45     		cmp	lr, r3
 7440 2374 2ED0     		beq	.L1040
 614:../Drivers/STM32F4xx_HAL_Driver/Src/stm32f4xx_hal_dma.c **** 
 7441              		.loc 1 614 0 discriminator 153
 7442 2376 03F58063 		add	r3, r3, #1024
 7443 237a 9E45     		cmp	lr, r3
 7444 237c 2CD0     		beq	.L1041
 614:../Drivers/STM32F4xx_HAL_Driver/Src/stm32f4xx_hal_dma.c **** 
 7445              		.loc 1 614 0 discriminator 155
 7446 237e A3F56873 		sub	r3, r3, #928
 7447 2382 9E45     		cmp	lr, r3
 7448 2384 2AD0     		beq	.L1042
 614:../Drivers/STM32F4xx_HAL_Driver/Src/stm32f4xx_hal_dma.c **** 
 7449              		.loc 1 614 0 discriminator 157
 7450 2386 03F58063 		add	r3, r3, #1024
 7451 238a 9E45     		cmp	lr, r3
 7452 238c 28D0     		beq	.L1043
 614:../Drivers/STM32F4xx_HAL_Driver/Src/stm32f4xx_hal_dma.c **** 
 7453              		.loc 1 614 0 discriminator 159
 7454 238e A3F58963 		sub	r3, r3, #1096
 7455 2392 9E45     		cmp	lr, r3
 7456 2394 26D0     		beq	.L1044
 614:../Drivers/STM32F4xx_HAL_Driver/Src/stm32f4xx_hal_dma.c **** 
 7457              		.loc 1 614 0 discriminator 161
 7458 2396 03F58063 		add	r3, r3, #1024
 7459 239a 9E45     		cmp	lr, r3
 7460 239c 25D0     		beq	.L1045
 614:../Drivers/STM32F4xx_HAL_Driver/Src/stm32f4xx_hal_dma.c **** 
 7461              		.loc 1 614 0 discriminator 163
 7462 239e A3F56873 		sub	r3, r3, #928
 7463 23a2 9E45     		cmp	lr, r3
 7464 23a4 24D0     		beq	.L1046
 614:../Drivers/STM32F4xx_HAL_Driver/Src/stm32f4xx_hal_dma.c **** 
 7465              		.loc 1 614 0 discriminator 165
 7466 23a6 03F58063 		add	r3, r3, #1024
 7467 23aa 9E45     		cmp	lr, r3
 7468 23ac 23D0     		beq	.L1047
 614:../Drivers/STM32F4xx_HAL_Driver/Src/stm32f4xx_hal_dma.c **** 
 7469              		.loc 1 614 0 discriminator 167
 7470 23ae A3F58963 		sub	r3, r3, #1096
 7471 23b2 9E45     		cmp	lr, r3
 7472 23b4 22D0     		beq	.L1048
 614:../Drivers/STM32F4xx_HAL_Driver/Src/stm32f4xx_hal_dma.c **** 
 7473              		.loc 1 614 0 discriminator 169
 7474 23b6 03F58063 		add	r3, r3, #1024
 7475 23ba 9E45     		cmp	lr, r3
 7476 23bc 21D0     		beq	.L1049
 614:../Drivers/STM32F4xx_HAL_Driver/Src/stm32f4xx_hal_dma.c **** 
 7477              		.loc 1 614 0 discriminator 171
ARM GAS  /tmp/ccIvKYQX.s 			page 168


 7478 23be A3F56873 		sub	r3, r3, #928
 7479 23c2 9E45     		cmp	lr, r3
 7480 23c4 20D0     		beq	.L1050
 614:../Drivers/STM32F4xx_HAL_Driver/Src/stm32f4xx_hal_dma.c **** 
 7481              		.loc 1 614 0 discriminator 173
 7482 23c6 03F58063 		add	r3, r3, #1024
 7483 23ca 9E45     		cmp	lr, r3
 7484 23cc 1FD1     		bne	.L1051
 614:../Drivers/STM32F4xx_HAL_Driver/Src/stm32f4xx_hal_dma.c **** 
 7485              		.loc 1 614 0
 7486 23ce 4FF48013 		mov	r3, #1048576
 7487 23d2 1EE0     		b	.L450
 7488              	.L1040:
 7489 23d4 1023     		movs	r3, #16
 7490 23d6 1CE0     		b	.L450
 7491              	.L1041:
 7492 23d8 1023     		movs	r3, #16
 7493 23da 1AE0     		b	.L450
 7494              	.L1042:
 7495 23dc 1023     		movs	r3, #16
 7496 23de 18E0     		b	.L450
 7497              	.L1043:
 7498 23e0 1023     		movs	r3, #16
 7499 23e2 16E0     		b	.L450
 7500              	.L1044:
 7501 23e4 4FF48063 		mov	r3, #1024
 7502 23e8 13E0     		b	.L450
 7503              	.L1045:
 7504 23ea 4FF48063 		mov	r3, #1024
 7505 23ee 10E0     		b	.L450
 7506              	.L1046:
 7507 23f0 4FF48063 		mov	r3, #1024
 7508 23f4 0DE0     		b	.L450
 7509              	.L1047:
 7510 23f6 4FF48063 		mov	r3, #1024
 7511 23fa 0AE0     		b	.L450
 7512              	.L1048:
 7513 23fc 4FF48013 		mov	r3, #1048576
 7514 2400 07E0     		b	.L450
 7515              	.L1049:
 7516 2402 4FF48013 		mov	r3, #1048576
 7517 2406 04E0     		b	.L450
 7518              	.L1050:
 7519 2408 4FF48013 		mov	r3, #1048576
 7520 240c 01E0     		b	.L450
 7521              	.L1051:
 7522 240e 4FF08063 		mov	r3, #67108864
 7523              	.L450:
 614:../Drivers/STM32F4xx_HAL_Driver/Src/stm32f4xx_hal_dma.c **** 
 7524              		.loc 1 614 0 discriminator 200
 7525 2412 084A     		ldr	r2, .L1077+12
 7526 2414 9360     		str	r3, [r2, #8]
 7527              	.L444:
 617:../Drivers/STM32F4xx_HAL_Driver/Src/stm32f4xx_hal_dma.c ****     }
 7528              		.loc 1 617 0 is_stmt 1
 7529 2416 3123     		movs	r3, #49
 7530 2418 84F83530 		strb	r3, [r4, #53]
ARM GAS  /tmp/ccIvKYQX.s 			page 169


 620:../Drivers/STM32F4xx_HAL_Driver/Src/stm32f4xx_hal_dma.c **** }
 7531              		.loc 1 620 0
 7532 241c 0020     		movs	r0, #0
 7533 241e BDE8F883 		pop	{r3, r4, r5, r6, r7, r8, r9, pc}
 7534              	.LVL63:
 7535              	.L1003:
 7536 2422 0020     		movs	r0, #0
 621:../Drivers/STM32F4xx_HAL_Driver/Src/stm32f4xx_hal_dma.c **** 
 7537              		.loc 1 621 0
 7538 2424 BDE8F883 		pop	{r3, r4, r5, r6, r7, r8, r9, pc}
 7539              	.LVL64:
 7540              	.L1078:
 7541              		.align	2
 7542              	.L1077:
 7543 2428 B8600240 		.word	1073897656
 7544 242c 00640240 		.word	1073898496
 7545 2430 58600240 		.word	1073897560
 7546 2434 00600240 		.word	1073897472
 7547 2438 10600240 		.word	1073897488
 7548              		.cfi_endproc
 7549              	.LFE117:
 7551              		.section	.text.HAL_DMA_IRQHandler,"ax",%progbits
 7552              		.align	2
 7553              		.global	HAL_DMA_IRQHandler
 7554              		.thumb
 7555              		.thumb_func
 7557              	HAL_DMA_IRQHandler:
 7558              	.LFB118:
 630:../Drivers/STM32F4xx_HAL_Driver/Src/stm32f4xx_hal_dma.c ****   /* Transfer Error Interrupt management ***************************************/
 7559              		.loc 1 630 0
 7560              		.cfi_startproc
 7561              		@ args = 0, pretend = 0, frame = 0
 7562              		@ frame_needed = 0, uses_anonymous_args = 0
 7563              	.LVL65:
 7564 0000 10B5     		push	{r4, lr}
 7565              	.LCFI10:
 7566              		.cfi_def_cfa_offset 8
 7567              		.cfi_offset 4, -8
 7568              		.cfi_offset 14, -4
 7569 0002 0446     		mov	r4, r0
 632:../Drivers/STM32F4xx_HAL_Driver/Src/stm32f4xx_hal_dma.c ****   {
 7570              		.loc 1 632 0
 7571 0004 0368     		ldr	r3, [r0]
 7572 0006 B14A     		ldr	r2, .L1772
 7573 0008 9342     		cmp	r3, r2
 7574 000a 57D9     		bls	.L1080
 632:../Drivers/STM32F4xx_HAL_Driver/Src/stm32f4xx_hal_dma.c ****   {
 7575              		.loc 1 632 0 is_stmt 0 discriminator 1
 7576 000c 583A     		subs	r2, r2, #88
 7577 000e 5268     		ldr	r2, [r2, #4]
 7578 0010 AF49     		ldr	r1, .L1772+4
 7579 0012 8B42     		cmp	r3, r1
 7580 0014 2ED0     		beq	.L1195
 632:../Drivers/STM32F4xx_HAL_Driver/Src/stm32f4xx_hal_dma.c ****   {
 7581              		.loc 1 632 0 discriminator 3
 7582 0016 01F58061 		add	r1, r1, #1024
 7583 001a 8B42     		cmp	r3, r1
ARM GAS  /tmp/ccIvKYQX.s 			page 170


 7584 001c 2CD0     		beq	.L1196
 632:../Drivers/STM32F4xx_HAL_Driver/Src/stm32f4xx_hal_dma.c ****   {
 7585              		.loc 1 632 0 discriminator 5
 7586 001e A1F56871 		sub	r1, r1, #928
 7587 0022 8B42     		cmp	r3, r1
 7588 0024 2AD0     		beq	.L1197
 632:../Drivers/STM32F4xx_HAL_Driver/Src/stm32f4xx_hal_dma.c ****   {
 7589              		.loc 1 632 0 discriminator 7
 7590 0026 01F58061 		add	r1, r1, #1024
 7591 002a 8B42     		cmp	r3, r1
 7592 002c 28D0     		beq	.L1198
 632:../Drivers/STM32F4xx_HAL_Driver/Src/stm32f4xx_hal_dma.c ****   {
 7593              		.loc 1 632 0 discriminator 9
 7594 002e A1F58961 		sub	r1, r1, #1096
 7595 0032 8B42     		cmp	r3, r1
 7596 0034 26D0     		beq	.L1199
 632:../Drivers/STM32F4xx_HAL_Driver/Src/stm32f4xx_hal_dma.c ****   {
 7597              		.loc 1 632 0 discriminator 11
 7598 0036 01F58061 		add	r1, r1, #1024
 7599 003a 8B42     		cmp	r3, r1
 7600 003c 25D0     		beq	.L1200
 632:../Drivers/STM32F4xx_HAL_Driver/Src/stm32f4xx_hal_dma.c ****   {
 7601              		.loc 1 632 0 discriminator 13
 7602 003e A1F56871 		sub	r1, r1, #928
 7603 0042 8B42     		cmp	r3, r1
 7604 0044 24D0     		beq	.L1201
 632:../Drivers/STM32F4xx_HAL_Driver/Src/stm32f4xx_hal_dma.c ****   {
 7605              		.loc 1 632 0 discriminator 15
 7606 0046 01F58061 		add	r1, r1, #1024
 7607 004a 8B42     		cmp	r3, r1
 7608 004c 23D0     		beq	.L1202
 632:../Drivers/STM32F4xx_HAL_Driver/Src/stm32f4xx_hal_dma.c ****   {
 7609              		.loc 1 632 0 discriminator 17
 7610 004e A1F58961 		sub	r1, r1, #1096
 7611 0052 8B42     		cmp	r3, r1
 7612 0054 22D0     		beq	.L1203
 632:../Drivers/STM32F4xx_HAL_Driver/Src/stm32f4xx_hal_dma.c ****   {
 7613              		.loc 1 632 0 discriminator 19
 7614 0056 01F58061 		add	r1, r1, #1024
 7615 005a 8B42     		cmp	r3, r1
 7616 005c 21D0     		beq	.L1204
 632:../Drivers/STM32F4xx_HAL_Driver/Src/stm32f4xx_hal_dma.c ****   {
 7617              		.loc 1 632 0 discriminator 21
 7618 005e A1F56871 		sub	r1, r1, #928
 7619 0062 8B42     		cmp	r3, r1
 7620 0064 20D0     		beq	.L1205
 632:../Drivers/STM32F4xx_HAL_Driver/Src/stm32f4xx_hal_dma.c ****   {
 7621              		.loc 1 632 0 discriminator 23
 7622 0066 01F58061 		add	r1, r1, #1024
 7623 006a 8B42     		cmp	r3, r1
 7624 006c 1FD1     		bne	.L1206
 632:../Drivers/STM32F4xx_HAL_Driver/Src/stm32f4xx_hal_dma.c ****   {
 7625              		.loc 1 632 0
 7626 006e 4FF40021 		mov	r1, #524288
 7627 0072 1EE0     		b	.L1081
 7628              	.L1195:
 7629 0074 0821     		movs	r1, #8
ARM GAS  /tmp/ccIvKYQX.s 			page 171


 7630 0076 1CE0     		b	.L1081
 7631              	.L1196:
 7632 0078 0821     		movs	r1, #8
 7633 007a 1AE0     		b	.L1081
 7634              	.L1197:
 7635 007c 0821     		movs	r1, #8
 7636 007e 18E0     		b	.L1081
 7637              	.L1198:
 7638 0080 0821     		movs	r1, #8
 7639 0082 16E0     		b	.L1081
 7640              	.L1199:
 7641 0084 4FF40071 		mov	r1, #512
 7642 0088 13E0     		b	.L1081
 7643              	.L1200:
 7644 008a 4FF40071 		mov	r1, #512
 7645 008e 10E0     		b	.L1081
 7646              	.L1201:
 7647 0090 4FF40071 		mov	r1, #512
 7648 0094 0DE0     		b	.L1081
 7649              	.L1202:
 7650 0096 4FF40071 		mov	r1, #512
 7651 009a 0AE0     		b	.L1081
 7652              	.L1203:
 7653 009c 4FF40021 		mov	r1, #524288
 7654 00a0 07E0     		b	.L1081
 7655              	.L1204:
 7656 00a2 4FF40021 		mov	r1, #524288
 7657 00a6 04E0     		b	.L1081
 7658              	.L1205:
 7659 00a8 4FF40021 		mov	r1, #524288
 7660 00ac 01E0     		b	.L1081
 7661              	.L1206:
 7662 00ae 4FF00071 		mov	r1, #33554432
 7663              	.L1081:
 632:../Drivers/STM32F4xx_HAL_Driver/Src/stm32f4xx_hal_dma.c ****   {
 7664              		.loc 1 632 0 discriminator 50
 7665 00b2 1142     		tst	r1, r2
 7666 00b4 14BF     		ite	ne
 7667 00b6 0122     		movne	r2, #1
 7668 00b8 0022     		moveq	r2, #0
 7669 00ba 17E1     		b	.L1082
 7670              	.L1080:
 632:../Drivers/STM32F4xx_HAL_Driver/Src/stm32f4xx_hal_dma.c ****   {
 7671              		.loc 1 632 0 discriminator 2
 7672 00bc 854A     		ldr	r2, .L1772+8
 7673 00be 9342     		cmp	r3, r2
 7674 00c0 58D9     		bls	.L1083
 632:../Drivers/STM32F4xx_HAL_Driver/Src/stm32f4xx_hal_dma.c ****   {
 7675              		.loc 1 632 0 discriminator 52
 7676 00c2 02F55272 		add	r2, r2, #840
 7677 00c6 1268     		ldr	r2, [r2]
 7678 00c8 8149     		ldr	r1, .L1772+4
 7679 00ca 8B42     		cmp	r3, r1
 7680 00cc 2ED0     		beq	.L1207
 632:../Drivers/STM32F4xx_HAL_Driver/Src/stm32f4xx_hal_dma.c ****   {
 7681              		.loc 1 632 0 discriminator 54
 7682 00ce 01F58061 		add	r1, r1, #1024
ARM GAS  /tmp/ccIvKYQX.s 			page 172


 7683 00d2 8B42     		cmp	r3, r1
 7684 00d4 2CD0     		beq	.L1208
 632:../Drivers/STM32F4xx_HAL_Driver/Src/stm32f4xx_hal_dma.c ****   {
 7685              		.loc 1 632 0 discriminator 56
 7686 00d6 A1F56871 		sub	r1, r1, #928
 7687 00da 8B42     		cmp	r3, r1
 7688 00dc 2AD0     		beq	.L1209
 632:../Drivers/STM32F4xx_HAL_Driver/Src/stm32f4xx_hal_dma.c ****   {
 7689              		.loc 1 632 0 discriminator 58
 7690 00de 01F58061 		add	r1, r1, #1024
 7691 00e2 8B42     		cmp	r3, r1
 7692 00e4 28D0     		beq	.L1210
 632:../Drivers/STM32F4xx_HAL_Driver/Src/stm32f4xx_hal_dma.c ****   {
 7693              		.loc 1 632 0 discriminator 60
 7694 00e6 A1F58961 		sub	r1, r1, #1096
 7695 00ea 8B42     		cmp	r3, r1
 7696 00ec 26D0     		beq	.L1211
 632:../Drivers/STM32F4xx_HAL_Driver/Src/stm32f4xx_hal_dma.c ****   {
 7697              		.loc 1 632 0 discriminator 62
 7698 00ee 01F58061 		add	r1, r1, #1024
 7699 00f2 8B42     		cmp	r3, r1
 7700 00f4 25D0     		beq	.L1212
 632:../Drivers/STM32F4xx_HAL_Driver/Src/stm32f4xx_hal_dma.c ****   {
 7701              		.loc 1 632 0 discriminator 64
 7702 00f6 A1F56871 		sub	r1, r1, #928
 7703 00fa 8B42     		cmp	r3, r1
 7704 00fc 24D0     		beq	.L1213
 632:../Drivers/STM32F4xx_HAL_Driver/Src/stm32f4xx_hal_dma.c ****   {
 7705              		.loc 1 632 0 discriminator 66
 7706 00fe 01F58061 		add	r1, r1, #1024
 7707 0102 8B42     		cmp	r3, r1
 7708 0104 23D0     		beq	.L1214
 632:../Drivers/STM32F4xx_HAL_Driver/Src/stm32f4xx_hal_dma.c ****   {
 7709              		.loc 1 632 0 discriminator 68
 7710 0106 A1F58961 		sub	r1, r1, #1096
 7711 010a 8B42     		cmp	r3, r1
 7712 010c 22D0     		beq	.L1215
 632:../Drivers/STM32F4xx_HAL_Driver/Src/stm32f4xx_hal_dma.c ****   {
 7713              		.loc 1 632 0 discriminator 70
 7714 010e 01F58061 		add	r1, r1, #1024
 7715 0112 8B42     		cmp	r3, r1
 7716 0114 21D0     		beq	.L1216
 632:../Drivers/STM32F4xx_HAL_Driver/Src/stm32f4xx_hal_dma.c ****   {
 7717              		.loc 1 632 0 discriminator 72
 7718 0116 A1F56871 		sub	r1, r1, #928
 7719 011a 8B42     		cmp	r3, r1
 7720 011c 20D0     		beq	.L1217
 632:../Drivers/STM32F4xx_HAL_Driver/Src/stm32f4xx_hal_dma.c ****   {
 7721              		.loc 1 632 0 discriminator 74
 7722 011e 01F58061 		add	r1, r1, #1024
 7723 0122 8B42     		cmp	r3, r1
 7724 0124 1FD1     		bne	.L1218
 632:../Drivers/STM32F4xx_HAL_Driver/Src/stm32f4xx_hal_dma.c ****   {
 7725              		.loc 1 632 0
 7726 0126 4FF40021 		mov	r1, #524288
 7727 012a 1EE0     		b	.L1084
 7728              	.L1207:
ARM GAS  /tmp/ccIvKYQX.s 			page 173


 7729 012c 0821     		movs	r1, #8
 7730 012e 1CE0     		b	.L1084
 7731              	.L1208:
 7732 0130 0821     		movs	r1, #8
 7733 0132 1AE0     		b	.L1084
 7734              	.L1209:
 7735 0134 0821     		movs	r1, #8
 7736 0136 18E0     		b	.L1084
 7737              	.L1210:
 7738 0138 0821     		movs	r1, #8
 7739 013a 16E0     		b	.L1084
 7740              	.L1211:
 7741 013c 4FF40071 		mov	r1, #512
 7742 0140 13E0     		b	.L1084
 7743              	.L1212:
 7744 0142 4FF40071 		mov	r1, #512
 7745 0146 10E0     		b	.L1084
 7746              	.L1213:
 7747 0148 4FF40071 		mov	r1, #512
 7748 014c 0DE0     		b	.L1084
 7749              	.L1214:
 7750 014e 4FF40071 		mov	r1, #512
 7751 0152 0AE0     		b	.L1084
 7752              	.L1215:
 7753 0154 4FF40021 		mov	r1, #524288
 7754 0158 07E0     		b	.L1084
 7755              	.L1216:
 7756 015a 4FF40021 		mov	r1, #524288
 7757 015e 04E0     		b	.L1084
 7758              	.L1217:
 7759 0160 4FF40021 		mov	r1, #524288
 7760 0164 01E0     		b	.L1084
 7761              	.L1218:
 7762 0166 4FF00071 		mov	r1, #33554432
 7763              	.L1084:
 632:../Drivers/STM32F4xx_HAL_Driver/Src/stm32f4xx_hal_dma.c ****   {
 7764              		.loc 1 632 0 discriminator 101
 7765 016a 1142     		tst	r1, r2
 7766 016c 14BF     		ite	ne
 7767 016e 0122     		movne	r2, #1
 7768 0170 0022     		moveq	r2, #0
 7769 0172 BBE0     		b	.L1082
 7770              	.L1083:
 632:../Drivers/STM32F4xx_HAL_Driver/Src/stm32f4xx_hal_dma.c ****   {
 7771              		.loc 1 632 0 discriminator 53
 7772 0174 584A     		ldr	r2, .L1772+12
 7773 0176 9342     		cmp	r3, r2
 7774 0178 57D9     		bls	.L1085
 632:../Drivers/STM32F4xx_HAL_Driver/Src/stm32f4xx_hal_dma.c ****   {
 7775              		.loc 1 632 0 discriminator 103
 7776 017a 583A     		subs	r2, r2, #88
 7777 017c 5268     		ldr	r2, [r2, #4]
 7778 017e 5449     		ldr	r1, .L1772+4
 7779 0180 8B42     		cmp	r3, r1
 7780 0182 2ED0     		beq	.L1219
 632:../Drivers/STM32F4xx_HAL_Driver/Src/stm32f4xx_hal_dma.c ****   {
 7781              		.loc 1 632 0 discriminator 105
ARM GAS  /tmp/ccIvKYQX.s 			page 174


 7782 0184 01F58061 		add	r1, r1, #1024
 7783 0188 8B42     		cmp	r3, r1
 7784 018a 2CD0     		beq	.L1220
 632:../Drivers/STM32F4xx_HAL_Driver/Src/stm32f4xx_hal_dma.c ****   {
 7785              		.loc 1 632 0 discriminator 107
 7786 018c A1F56871 		sub	r1, r1, #928
 7787 0190 8B42     		cmp	r3, r1
 7788 0192 2AD0     		beq	.L1221
 632:../Drivers/STM32F4xx_HAL_Driver/Src/stm32f4xx_hal_dma.c ****   {
 7789              		.loc 1 632 0 discriminator 109
 7790 0194 01F58061 		add	r1, r1, #1024
 7791 0198 8B42     		cmp	r3, r1
 7792 019a 28D0     		beq	.L1222
 632:../Drivers/STM32F4xx_HAL_Driver/Src/stm32f4xx_hal_dma.c ****   {
 7793              		.loc 1 632 0 discriminator 111
 7794 019c A1F58961 		sub	r1, r1, #1096
 7795 01a0 8B42     		cmp	r3, r1
 7796 01a2 26D0     		beq	.L1223
 632:../Drivers/STM32F4xx_HAL_Driver/Src/stm32f4xx_hal_dma.c ****   {
 7797              		.loc 1 632 0 discriminator 113
 7798 01a4 01F58061 		add	r1, r1, #1024
 7799 01a8 8B42     		cmp	r3, r1
 7800 01aa 25D0     		beq	.L1224
 632:../Drivers/STM32F4xx_HAL_Driver/Src/stm32f4xx_hal_dma.c ****   {
 7801              		.loc 1 632 0 discriminator 115
 7802 01ac A1F56871 		sub	r1, r1, #928
 7803 01b0 8B42     		cmp	r3, r1
 7804 01b2 24D0     		beq	.L1225
 632:../Drivers/STM32F4xx_HAL_Driver/Src/stm32f4xx_hal_dma.c ****   {
 7805              		.loc 1 632 0 discriminator 117
 7806 01b4 01F58061 		add	r1, r1, #1024
 7807 01b8 8B42     		cmp	r3, r1
 7808 01ba 23D0     		beq	.L1226
 632:../Drivers/STM32F4xx_HAL_Driver/Src/stm32f4xx_hal_dma.c ****   {
 7809              		.loc 1 632 0 discriminator 119
 7810 01bc A1F58961 		sub	r1, r1, #1096
 7811 01c0 8B42     		cmp	r3, r1
 7812 01c2 22D0     		beq	.L1227
 632:../Drivers/STM32F4xx_HAL_Driver/Src/stm32f4xx_hal_dma.c ****   {
 7813              		.loc 1 632 0 discriminator 121
 7814 01c4 01F58061 		add	r1, r1, #1024
 7815 01c8 8B42     		cmp	r3, r1
 7816 01ca 21D0     		beq	.L1228
 632:../Drivers/STM32F4xx_HAL_Driver/Src/stm32f4xx_hal_dma.c ****   {
 7817              		.loc 1 632 0 discriminator 123
 7818 01cc A1F56871 		sub	r1, r1, #928
 7819 01d0 8B42     		cmp	r3, r1
 7820 01d2 20D0     		beq	.L1229
 632:../Drivers/STM32F4xx_HAL_Driver/Src/stm32f4xx_hal_dma.c ****   {
 7821              		.loc 1 632 0 discriminator 125
 7822 01d4 01F58061 		add	r1, r1, #1024
 7823 01d8 8B42     		cmp	r3, r1
 7824 01da 1FD1     		bne	.L1230
 632:../Drivers/STM32F4xx_HAL_Driver/Src/stm32f4xx_hal_dma.c ****   {
 7825              		.loc 1 632 0
 7826 01dc 4FF40021 		mov	r1, #524288
 7827 01e0 1EE0     		b	.L1086
ARM GAS  /tmp/ccIvKYQX.s 			page 175


 7828              	.L1219:
 7829 01e2 0821     		movs	r1, #8
 7830 01e4 1CE0     		b	.L1086
 7831              	.L1220:
 7832 01e6 0821     		movs	r1, #8
 7833 01e8 1AE0     		b	.L1086
 7834              	.L1221:
 7835 01ea 0821     		movs	r1, #8
 7836 01ec 18E0     		b	.L1086
 7837              	.L1222:
 7838 01ee 0821     		movs	r1, #8
 7839 01f0 16E0     		b	.L1086
 7840              	.L1223:
 7841 01f2 4FF40071 		mov	r1, #512
 7842 01f6 13E0     		b	.L1086
 7843              	.L1224:
 7844 01f8 4FF40071 		mov	r1, #512
 7845 01fc 10E0     		b	.L1086
 7846              	.L1225:
 7847 01fe 4FF40071 		mov	r1, #512
 7848 0202 0DE0     		b	.L1086
 7849              	.L1226:
 7850 0204 4FF40071 		mov	r1, #512
 7851 0208 0AE0     		b	.L1086
 7852              	.L1227:
 7853 020a 4FF40021 		mov	r1, #524288
 7854 020e 07E0     		b	.L1086
 7855              	.L1228:
 7856 0210 4FF40021 		mov	r1, #524288
 7857 0214 04E0     		b	.L1086
 7858              	.L1229:
 7859 0216 4FF40021 		mov	r1, #524288
 7860 021a 01E0     		b	.L1086
 7861              	.L1230:
 7862 021c 4FF00071 		mov	r1, #33554432
 7863              	.L1086:
 632:../Drivers/STM32F4xx_HAL_Driver/Src/stm32f4xx_hal_dma.c ****   {
 7864              		.loc 1 632 0 discriminator 152
 7865 0220 1142     		tst	r1, r2
 7866 0222 14BF     		ite	ne
 7867 0224 0122     		movne	r2, #1
 7868 0226 0022     		moveq	r2, #0
 7869 0228 60E0     		b	.L1082
 7870              	.L1085:
 632:../Drivers/STM32F4xx_HAL_Driver/Src/stm32f4xx_hal_dma.c ****   {
 7871              		.loc 1 632 0 discriminator 104
 7872 022a 2C4A     		ldr	r2, .L1772+16
 7873 022c 1268     		ldr	r2, [r2]
 7874 022e 2849     		ldr	r1, .L1772+4
 7875 0230 8B42     		cmp	r3, r1
 7876 0232 2ED0     		beq	.L1231
 632:../Drivers/STM32F4xx_HAL_Driver/Src/stm32f4xx_hal_dma.c ****   {
 7877              		.loc 1 632 0 discriminator 154
 7878 0234 01F58061 		add	r1, r1, #1024
 7879 0238 8B42     		cmp	r3, r1
 7880 023a 2CD0     		beq	.L1232
 632:../Drivers/STM32F4xx_HAL_Driver/Src/stm32f4xx_hal_dma.c ****   {
ARM GAS  /tmp/ccIvKYQX.s 			page 176


 7881              		.loc 1 632 0 discriminator 156
 7882 023c A1F56871 		sub	r1, r1, #928
 7883 0240 8B42     		cmp	r3, r1
 7884 0242 2AD0     		beq	.L1233
 632:../Drivers/STM32F4xx_HAL_Driver/Src/stm32f4xx_hal_dma.c ****   {
 7885              		.loc 1 632 0 discriminator 158
 7886 0244 01F58061 		add	r1, r1, #1024
 7887 0248 8B42     		cmp	r3, r1
 7888 024a 28D0     		beq	.L1234
 632:../Drivers/STM32F4xx_HAL_Driver/Src/stm32f4xx_hal_dma.c ****   {
 7889              		.loc 1 632 0 discriminator 160
 7890 024c A1F58961 		sub	r1, r1, #1096
 7891 0250 8B42     		cmp	r3, r1
 7892 0252 26D0     		beq	.L1235
 632:../Drivers/STM32F4xx_HAL_Driver/Src/stm32f4xx_hal_dma.c ****   {
 7893              		.loc 1 632 0 discriminator 162
 7894 0254 01F58061 		add	r1, r1, #1024
 7895 0258 8B42     		cmp	r3, r1
 7896 025a 25D0     		beq	.L1236
 632:../Drivers/STM32F4xx_HAL_Driver/Src/stm32f4xx_hal_dma.c ****   {
 7897              		.loc 1 632 0 discriminator 164
 7898 025c A1F56871 		sub	r1, r1, #928
 7899 0260 8B42     		cmp	r3, r1
 7900 0262 24D0     		beq	.L1237
 632:../Drivers/STM32F4xx_HAL_Driver/Src/stm32f4xx_hal_dma.c ****   {
 7901              		.loc 1 632 0 discriminator 166
 7902 0264 01F58061 		add	r1, r1, #1024
 7903 0268 8B42     		cmp	r3, r1
 7904 026a 23D0     		beq	.L1238
 632:../Drivers/STM32F4xx_HAL_Driver/Src/stm32f4xx_hal_dma.c ****   {
 7905              		.loc 1 632 0 discriminator 168
 7906 026c A1F58961 		sub	r1, r1, #1096
 7907 0270 8B42     		cmp	r3, r1
 7908 0272 22D0     		beq	.L1239
 632:../Drivers/STM32F4xx_HAL_Driver/Src/stm32f4xx_hal_dma.c ****   {
 7909              		.loc 1 632 0 discriminator 170
 7910 0274 01F58061 		add	r1, r1, #1024
 7911 0278 8B42     		cmp	r3, r1
 7912 027a 21D0     		beq	.L1240
 632:../Drivers/STM32F4xx_HAL_Driver/Src/stm32f4xx_hal_dma.c ****   {
 7913              		.loc 1 632 0 discriminator 172
 7914 027c A1F56871 		sub	r1, r1, #928
 7915 0280 8B42     		cmp	r3, r1
 7916 0282 20D0     		beq	.L1241
 632:../Drivers/STM32F4xx_HAL_Driver/Src/stm32f4xx_hal_dma.c ****   {
 7917              		.loc 1 632 0 discriminator 174
 7918 0284 01F58061 		add	r1, r1, #1024
 7919 0288 8B42     		cmp	r3, r1
 7920 028a 29D1     		bne	.L1242
 632:../Drivers/STM32F4xx_HAL_Driver/Src/stm32f4xx_hal_dma.c ****   {
 7921              		.loc 1 632 0
 7922 028c 4FF40021 		mov	r1, #524288
 7923 0290 28E0     		b	.L1087
 7924              	.L1231:
 7925 0292 0821     		movs	r1, #8
 7926 0294 26E0     		b	.L1087
 7927              	.L1232:
ARM GAS  /tmp/ccIvKYQX.s 			page 177


 7928 0296 0821     		movs	r1, #8
 7929 0298 24E0     		b	.L1087
 7930              	.L1233:
 7931 029a 0821     		movs	r1, #8
 7932 029c 22E0     		b	.L1087
 7933              	.L1234:
 7934 029e 0821     		movs	r1, #8
 7935 02a0 20E0     		b	.L1087
 7936              	.L1235:
 7937 02a2 4FF40071 		mov	r1, #512
 7938 02a6 1DE0     		b	.L1087
 7939              	.L1236:
 7940 02a8 4FF40071 		mov	r1, #512
 7941 02ac 1AE0     		b	.L1087
 7942              	.L1237:
 7943 02ae 4FF40071 		mov	r1, #512
 7944 02b2 17E0     		b	.L1087
 7945              	.L1238:
 7946 02b4 4FF40071 		mov	r1, #512
 7947 02b8 14E0     		b	.L1087
 7948              	.L1239:
 7949 02ba 4FF40021 		mov	r1, #524288
 7950 02be 11E0     		b	.L1087
 7951              	.L1240:
 7952 02c0 4FF40021 		mov	r1, #524288
 7953 02c4 0EE0     		b	.L1087
 7954              	.L1241:
 7955 02c6 4FF40021 		mov	r1, #524288
 7956 02ca 0BE0     		b	.L1087
 7957              	.L1773:
 7958              		.align	2
 7959              	.L1772:
 7960 02cc 58640240 		.word	1073898584
 7961 02d0 10600240 		.word	1073897488
 7962 02d4 B8600240 		.word	1073897656
 7963 02d8 58600240 		.word	1073897560
 7964 02dc 00600240 		.word	1073897472
 7965              	.L1242:
 7966 02e0 4FF00071 		mov	r1, #33554432
 7967              	.L1087:
 632:../Drivers/STM32F4xx_HAL_Driver/Src/stm32f4xx_hal_dma.c ****   {
 7968              		.loc 1 632 0 discriminator 201
 7969 02e4 1142     		tst	r1, r2
 7970 02e6 14BF     		ite	ne
 7971 02e8 0122     		movne	r2, #1
 7972 02ea 0022     		moveq	r2, #0
 7973              	.L1082:
 632:../Drivers/STM32F4xx_HAL_Driver/Src/stm32f4xx_hal_dma.c ****   {
 7974              		.loc 1 632 0 discriminator 204
 7975 02ec 002A     		cmp	r2, #0
 7976 02ee 00F07D81 		beq	.L1088
 634:../Drivers/STM32F4xx_HAL_Driver/Src/stm32f4xx_hal_dma.c ****     {
 7977              		.loc 1 634 0 is_stmt 1
 7978 02f2 1A68     		ldr	r2, [r3]
 7979 02f4 12F0040F 		tst	r2, #4
 7980 02f8 00F07881 		beq	.L1088
 637:../Drivers/STM32F4xx_HAL_Driver/Src/stm32f4xx_hal_dma.c **** 
ARM GAS  /tmp/ccIvKYQX.s 			page 178


 7981              		.loc 1 637 0
 7982 02fc 1A68     		ldr	r2, [r3]
 7983 02fe 22F00402 		bic	r2, r2, #4
 7984 0302 1A60     		str	r2, [r3]
 640:../Drivers/STM32F4xx_HAL_Driver/Src/stm32f4xx_hal_dma.c **** 
 7985              		.loc 1 640 0
 7986 0304 2368     		ldr	r3, [r4]
 7987 0306 AA4A     		ldr	r2, .L1774
 7988 0308 9342     		cmp	r3, r2
 7989 030a 54D9     		bls	.L1089
 640:../Drivers/STM32F4xx_HAL_Driver/Src/stm32f4xx_hal_dma.c **** 
 7990              		.loc 1 640 0 is_stmt 0 discriminator 1
 7991 030c A2F58962 		sub	r2, r2, #1096
 7992 0310 9342     		cmp	r3, r2
 7993 0312 2ED0     		beq	.L1243
 640:../Drivers/STM32F4xx_HAL_Driver/Src/stm32f4xx_hal_dma.c **** 
 7994              		.loc 1 640 0 discriminator 3
 7995 0314 02F58062 		add	r2, r2, #1024
 7996 0318 9342     		cmp	r3, r2
 7997 031a 2CD0     		beq	.L1244
 640:../Drivers/STM32F4xx_HAL_Driver/Src/stm32f4xx_hal_dma.c **** 
 7998              		.loc 1 640 0 discriminator 5
 7999 031c A2F56872 		sub	r2, r2, #928
 8000 0320 9342     		cmp	r3, r2
 8001 0322 2AD0     		beq	.L1245
 640:../Drivers/STM32F4xx_HAL_Driver/Src/stm32f4xx_hal_dma.c **** 
 8002              		.loc 1 640 0 discriminator 7
 8003 0324 02F58062 		add	r2, r2, #1024
 8004 0328 9342     		cmp	r3, r2
 8005 032a 28D0     		beq	.L1246
 640:../Drivers/STM32F4xx_HAL_Driver/Src/stm32f4xx_hal_dma.c **** 
 8006              		.loc 1 640 0 discriminator 9
 8007 032c A2F58962 		sub	r2, r2, #1096
 8008 0330 9342     		cmp	r3, r2
 8009 0332 26D0     		beq	.L1247
 640:../Drivers/STM32F4xx_HAL_Driver/Src/stm32f4xx_hal_dma.c **** 
 8010              		.loc 1 640 0 discriminator 11
 8011 0334 02F58062 		add	r2, r2, #1024
 8012 0338 9342     		cmp	r3, r2
 8013 033a 25D0     		beq	.L1248
 640:../Drivers/STM32F4xx_HAL_Driver/Src/stm32f4xx_hal_dma.c **** 
 8014              		.loc 1 640 0 discriminator 13
 8015 033c A2F56872 		sub	r2, r2, #928
 8016 0340 9342     		cmp	r3, r2
 8017 0342 24D0     		beq	.L1249
 640:../Drivers/STM32F4xx_HAL_Driver/Src/stm32f4xx_hal_dma.c **** 
 8018              		.loc 1 640 0 discriminator 15
 8019 0344 02F58062 		add	r2, r2, #1024
 8020 0348 9342     		cmp	r3, r2
 8021 034a 23D0     		beq	.L1250
 640:../Drivers/STM32F4xx_HAL_Driver/Src/stm32f4xx_hal_dma.c **** 
 8022              		.loc 1 640 0 discriminator 17
 8023 034c A2F58962 		sub	r2, r2, #1096
 8024 0350 9342     		cmp	r3, r2
 8025 0352 22D0     		beq	.L1251
 640:../Drivers/STM32F4xx_HAL_Driver/Src/stm32f4xx_hal_dma.c **** 
 8026              		.loc 1 640 0 discriminator 19
ARM GAS  /tmp/ccIvKYQX.s 			page 179


 8027 0354 02F58062 		add	r2, r2, #1024
 8028 0358 9342     		cmp	r3, r2
 8029 035a 21D0     		beq	.L1252
 640:../Drivers/STM32F4xx_HAL_Driver/Src/stm32f4xx_hal_dma.c **** 
 8030              		.loc 1 640 0 discriminator 21
 8031 035c A2F56872 		sub	r2, r2, #928
 8032 0360 9342     		cmp	r3, r2
 8033 0362 20D0     		beq	.L1253
 640:../Drivers/STM32F4xx_HAL_Driver/Src/stm32f4xx_hal_dma.c **** 
 8034              		.loc 1 640 0 discriminator 23
 8035 0364 02F58062 		add	r2, r2, #1024
 8036 0368 9342     		cmp	r3, r2
 8037 036a 1FD1     		bne	.L1254
 640:../Drivers/STM32F4xx_HAL_Driver/Src/stm32f4xx_hal_dma.c **** 
 8038              		.loc 1 640 0
 8039 036c 4FF40022 		mov	r2, #524288
 8040 0370 1EE0     		b	.L1090
 8041              	.L1243:
 8042 0372 0822     		movs	r2, #8
 8043 0374 1CE0     		b	.L1090
 8044              	.L1244:
 8045 0376 0822     		movs	r2, #8
 8046 0378 1AE0     		b	.L1090
 8047              	.L1245:
 8048 037a 0822     		movs	r2, #8
 8049 037c 18E0     		b	.L1090
 8050              	.L1246:
 8051 037e 0822     		movs	r2, #8
 8052 0380 16E0     		b	.L1090
 8053              	.L1247:
 8054 0382 4FF40072 		mov	r2, #512
 8055 0386 13E0     		b	.L1090
 8056              	.L1248:
 8057 0388 4FF40072 		mov	r2, #512
 8058 038c 10E0     		b	.L1090
 8059              	.L1249:
 8060 038e 4FF40072 		mov	r2, #512
 8061 0392 0DE0     		b	.L1090
 8062              	.L1250:
 8063 0394 4FF40072 		mov	r2, #512
 8064 0398 0AE0     		b	.L1090
 8065              	.L1251:
 8066 039a 4FF40022 		mov	r2, #524288
 8067 039e 07E0     		b	.L1090
 8068              	.L1252:
 8069 03a0 4FF40022 		mov	r2, #524288
 8070 03a4 04E0     		b	.L1090
 8071              	.L1253:
 8072 03a6 4FF40022 		mov	r2, #524288
 8073 03aa 01E0     		b	.L1090
 8074              	.L1254:
 8075 03ac 4FF00072 		mov	r2, #33554432
 8076              	.L1090:
 640:../Drivers/STM32F4xx_HAL_Driver/Src/stm32f4xx_hal_dma.c **** 
 8077              		.loc 1 640 0 discriminator 50
 8078 03b0 804B     		ldr	r3, .L1774+4
 8079 03b2 DA60     		str	r2, [r3, #12]
ARM GAS  /tmp/ccIvKYQX.s 			page 180


 8080 03b4 0CE1     		b	.L1091
 8081              	.L1089:
 640:../Drivers/STM32F4xx_HAL_Driver/Src/stm32f4xx_hal_dma.c **** 
 8082              		.loc 1 640 0 discriminator 2
 8083 03b6 804A     		ldr	r2, .L1774+8
 8084 03b8 9342     		cmp	r3, r2
 8085 03ba 53D9     		bls	.L1092
 640:../Drivers/STM32F4xx_HAL_Driver/Src/stm32f4xx_hal_dma.c **** 
 8086              		.loc 1 640 0 discriminator 51
 8087 03bc A83A     		subs	r2, r2, #168
 8088 03be 9342     		cmp	r3, r2
 8089 03c0 2ED0     		beq	.L1255
 640:../Drivers/STM32F4xx_HAL_Driver/Src/stm32f4xx_hal_dma.c **** 
 8090              		.loc 1 640 0 discriminator 53
 8091 03c2 02F58062 		add	r2, r2, #1024
 8092 03c6 9342     		cmp	r3, r2
 8093 03c8 2CD0     		beq	.L1256
 640:../Drivers/STM32F4xx_HAL_Driver/Src/stm32f4xx_hal_dma.c **** 
 8094              		.loc 1 640 0 discriminator 55
 8095 03ca A2F56872 		sub	r2, r2, #928
 8096 03ce 9342     		cmp	r3, r2
 8097 03d0 2AD0     		beq	.L1257
 640:../Drivers/STM32F4xx_HAL_Driver/Src/stm32f4xx_hal_dma.c **** 
 8098              		.loc 1 640 0 discriminator 57
 8099 03d2 02F58062 		add	r2, r2, #1024
 8100 03d6 9342     		cmp	r3, r2
 8101 03d8 28D0     		beq	.L1258
 640:../Drivers/STM32F4xx_HAL_Driver/Src/stm32f4xx_hal_dma.c **** 
 8102              		.loc 1 640 0 discriminator 59
 8103 03da A2F58962 		sub	r2, r2, #1096
 8104 03de 9342     		cmp	r3, r2
 8105 03e0 26D0     		beq	.L1259
 640:../Drivers/STM32F4xx_HAL_Driver/Src/stm32f4xx_hal_dma.c **** 
 8106              		.loc 1 640 0 discriminator 61
 8107 03e2 02F58062 		add	r2, r2, #1024
 8108 03e6 9342     		cmp	r3, r2
 8109 03e8 25D0     		beq	.L1260
 640:../Drivers/STM32F4xx_HAL_Driver/Src/stm32f4xx_hal_dma.c **** 
 8110              		.loc 1 640 0 discriminator 63
 8111 03ea A2F56872 		sub	r2, r2, #928
 8112 03ee 9342     		cmp	r3, r2
 8113 03f0 24D0     		beq	.L1261
 640:../Drivers/STM32F4xx_HAL_Driver/Src/stm32f4xx_hal_dma.c **** 
 8114              		.loc 1 640 0 discriminator 65
 8115 03f2 02F58062 		add	r2, r2, #1024
 8116 03f6 9342     		cmp	r3, r2
 8117 03f8 23D0     		beq	.L1262
 640:../Drivers/STM32F4xx_HAL_Driver/Src/stm32f4xx_hal_dma.c **** 
 8118              		.loc 1 640 0 discriminator 67
 8119 03fa A2F58962 		sub	r2, r2, #1096
 8120 03fe 9342     		cmp	r3, r2
 8121 0400 22D0     		beq	.L1263
 640:../Drivers/STM32F4xx_HAL_Driver/Src/stm32f4xx_hal_dma.c **** 
 8122              		.loc 1 640 0 discriminator 69
 8123 0402 02F58062 		add	r2, r2, #1024
 8124 0406 9342     		cmp	r3, r2
 8125 0408 21D0     		beq	.L1264
ARM GAS  /tmp/ccIvKYQX.s 			page 181


 640:../Drivers/STM32F4xx_HAL_Driver/Src/stm32f4xx_hal_dma.c **** 
 8126              		.loc 1 640 0 discriminator 71
 8127 040a A2F56872 		sub	r2, r2, #928
 8128 040e 9342     		cmp	r3, r2
 8129 0410 20D0     		beq	.L1265
 640:../Drivers/STM32F4xx_HAL_Driver/Src/stm32f4xx_hal_dma.c **** 
 8130              		.loc 1 640 0 discriminator 73
 8131 0412 02F58062 		add	r2, r2, #1024
 8132 0416 9342     		cmp	r3, r2
 8133 0418 1FD1     		bne	.L1266
 640:../Drivers/STM32F4xx_HAL_Driver/Src/stm32f4xx_hal_dma.c **** 
 8134              		.loc 1 640 0
 8135 041a 4FF40022 		mov	r2, #524288
 8136 041e 1EE0     		b	.L1093
 8137              	.L1255:
 8138 0420 0822     		movs	r2, #8
 8139 0422 1CE0     		b	.L1093
 8140              	.L1256:
 8141 0424 0822     		movs	r2, #8
 8142 0426 1AE0     		b	.L1093
 8143              	.L1257:
 8144 0428 0822     		movs	r2, #8
 8145 042a 18E0     		b	.L1093
 8146              	.L1258:
 8147 042c 0822     		movs	r2, #8
 8148 042e 16E0     		b	.L1093
 8149              	.L1259:
 8150 0430 4FF40072 		mov	r2, #512
 8151 0434 13E0     		b	.L1093
 8152              	.L1260:
 8153 0436 4FF40072 		mov	r2, #512
 8154 043a 10E0     		b	.L1093
 8155              	.L1261:
 8156 043c 4FF40072 		mov	r2, #512
 8157 0440 0DE0     		b	.L1093
 8158              	.L1262:
 8159 0442 4FF40072 		mov	r2, #512
 8160 0446 0AE0     		b	.L1093
 8161              	.L1263:
 8162 0448 4FF40022 		mov	r2, #524288
 8163 044c 07E0     		b	.L1093
 8164              	.L1264:
 8165 044e 4FF40022 		mov	r2, #524288
 8166 0452 04E0     		b	.L1093
 8167              	.L1265:
 8168 0454 4FF40022 		mov	r2, #524288
 8169 0458 01E0     		b	.L1093
 8170              	.L1266:
 8171 045a 4FF00072 		mov	r2, #33554432
 8172              	.L1093:
 640:../Drivers/STM32F4xx_HAL_Driver/Src/stm32f4xx_hal_dma.c **** 
 8173              		.loc 1 640 0 discriminator 100
 8174 045e 554B     		ldr	r3, .L1774+4
 8175 0460 9A60     		str	r2, [r3, #8]
 8176 0462 B5E0     		b	.L1091
 8177              	.L1092:
 640:../Drivers/STM32F4xx_HAL_Driver/Src/stm32f4xx_hal_dma.c **** 
ARM GAS  /tmp/ccIvKYQX.s 			page 182


 8178              		.loc 1 640 0 discriminator 52
 8179 0464 554A     		ldr	r2, .L1774+12
 8180 0466 9342     		cmp	r3, r2
 8181 0468 53D9     		bls	.L1095
 640:../Drivers/STM32F4xx_HAL_Driver/Src/stm32f4xx_hal_dma.c **** 
 8182              		.loc 1 640 0 discriminator 102
 8183 046a 483A     		subs	r2, r2, #72
 8184 046c 9342     		cmp	r3, r2
 8185 046e 2ED0     		beq	.L1267
 640:../Drivers/STM32F4xx_HAL_Driver/Src/stm32f4xx_hal_dma.c **** 
 8186              		.loc 1 640 0 discriminator 104
 8187 0470 02F58062 		add	r2, r2, #1024
 8188 0474 9342     		cmp	r3, r2
 8189 0476 2CD0     		beq	.L1268
 640:../Drivers/STM32F4xx_HAL_Driver/Src/stm32f4xx_hal_dma.c **** 
 8190              		.loc 1 640 0 discriminator 106
 8191 0478 A2F56872 		sub	r2, r2, #928
 8192 047c 9342     		cmp	r3, r2
 8193 047e 2AD0     		beq	.L1269
 640:../Drivers/STM32F4xx_HAL_Driver/Src/stm32f4xx_hal_dma.c **** 
 8194              		.loc 1 640 0 discriminator 108
 8195 0480 02F58062 		add	r2, r2, #1024
 8196 0484 9342     		cmp	r3, r2
 8197 0486 28D0     		beq	.L1270
 640:../Drivers/STM32F4xx_HAL_Driver/Src/stm32f4xx_hal_dma.c **** 
 8198              		.loc 1 640 0 discriminator 110
 8199 0488 A2F58962 		sub	r2, r2, #1096
 8200 048c 9342     		cmp	r3, r2
 8201 048e 26D0     		beq	.L1271
 640:../Drivers/STM32F4xx_HAL_Driver/Src/stm32f4xx_hal_dma.c **** 
 8202              		.loc 1 640 0 discriminator 112
 8203 0490 02F58062 		add	r2, r2, #1024
 8204 0494 9342     		cmp	r3, r2
 8205 0496 25D0     		beq	.L1272
 640:../Drivers/STM32F4xx_HAL_Driver/Src/stm32f4xx_hal_dma.c **** 
 8206              		.loc 1 640 0 discriminator 114
 8207 0498 A2F56872 		sub	r2, r2, #928
 8208 049c 9342     		cmp	r3, r2
 8209 049e 24D0     		beq	.L1273
 640:../Drivers/STM32F4xx_HAL_Driver/Src/stm32f4xx_hal_dma.c **** 
 8210              		.loc 1 640 0 discriminator 116
 8211 04a0 02F58062 		add	r2, r2, #1024
 8212 04a4 9342     		cmp	r3, r2
 8213 04a6 23D0     		beq	.L1274
 640:../Drivers/STM32F4xx_HAL_Driver/Src/stm32f4xx_hal_dma.c **** 
 8214              		.loc 1 640 0 discriminator 118
 8215 04a8 A2F58962 		sub	r2, r2, #1096
 8216 04ac 9342     		cmp	r3, r2
 8217 04ae 22D0     		beq	.L1275
 640:../Drivers/STM32F4xx_HAL_Driver/Src/stm32f4xx_hal_dma.c **** 
 8218              		.loc 1 640 0 discriminator 120
 8219 04b0 02F58062 		add	r2, r2, #1024
 8220 04b4 9342     		cmp	r3, r2
 8221 04b6 21D0     		beq	.L1276
 640:../Drivers/STM32F4xx_HAL_Driver/Src/stm32f4xx_hal_dma.c **** 
 8222              		.loc 1 640 0 discriminator 122
 8223 04b8 A2F56872 		sub	r2, r2, #928
ARM GAS  /tmp/ccIvKYQX.s 			page 183


 8224 04bc 9342     		cmp	r3, r2
 8225 04be 20D0     		beq	.L1277
 640:../Drivers/STM32F4xx_HAL_Driver/Src/stm32f4xx_hal_dma.c **** 
 8226              		.loc 1 640 0 discriminator 124
 8227 04c0 02F58062 		add	r2, r2, #1024
 8228 04c4 9342     		cmp	r3, r2
 8229 04c6 1FD1     		bne	.L1278
 640:../Drivers/STM32F4xx_HAL_Driver/Src/stm32f4xx_hal_dma.c **** 
 8230              		.loc 1 640 0
 8231 04c8 4FF40022 		mov	r2, #524288
 8232 04cc 1EE0     		b	.L1096
 8233              	.L1267:
 8234 04ce 0822     		movs	r2, #8
 8235 04d0 1CE0     		b	.L1096
 8236              	.L1268:
 8237 04d2 0822     		movs	r2, #8
 8238 04d4 1AE0     		b	.L1096
 8239              	.L1269:
 8240 04d6 0822     		movs	r2, #8
 8241 04d8 18E0     		b	.L1096
 8242              	.L1270:
 8243 04da 0822     		movs	r2, #8
 8244 04dc 16E0     		b	.L1096
 8245              	.L1271:
 8246 04de 4FF40072 		mov	r2, #512
 8247 04e2 13E0     		b	.L1096
 8248              	.L1272:
 8249 04e4 4FF40072 		mov	r2, #512
 8250 04e8 10E0     		b	.L1096
 8251              	.L1273:
 8252 04ea 4FF40072 		mov	r2, #512
 8253 04ee 0DE0     		b	.L1096
 8254              	.L1274:
 8255 04f0 4FF40072 		mov	r2, #512
 8256 04f4 0AE0     		b	.L1096
 8257              	.L1275:
 8258 04f6 4FF40022 		mov	r2, #524288
 8259 04fa 07E0     		b	.L1096
 8260              	.L1276:
 8261 04fc 4FF40022 		mov	r2, #524288
 8262 0500 04E0     		b	.L1096
 8263              	.L1277:
 8264 0502 4FF40022 		mov	r2, #524288
 8265 0506 01E0     		b	.L1096
 8266              	.L1278:
 8267 0508 4FF00072 		mov	r2, #33554432
 8268              	.L1096:
 640:../Drivers/STM32F4xx_HAL_Driver/Src/stm32f4xx_hal_dma.c **** 
 8269              		.loc 1 640 0 discriminator 151
 8270 050c 2C4B     		ldr	r3, .L1774+16
 8271 050e DA60     		str	r2, [r3, #12]
 8272 0510 5EE0     		b	.L1091
 8273              	.L1095:
 640:../Drivers/STM32F4xx_HAL_Driver/Src/stm32f4xx_hal_dma.c **** 
 8274              		.loc 1 640 0 discriminator 103
 8275 0512 2C4A     		ldr	r2, .L1774+20
 8276 0514 9342     		cmp	r3, r2
ARM GAS  /tmp/ccIvKYQX.s 			page 184


 8277 0516 2ED0     		beq	.L1279
 640:../Drivers/STM32F4xx_HAL_Driver/Src/stm32f4xx_hal_dma.c **** 
 8278              		.loc 1 640 0 discriminator 153
 8279 0518 02F58062 		add	r2, r2, #1024
 8280 051c 9342     		cmp	r3, r2
 8281 051e 2CD0     		beq	.L1280
 640:../Drivers/STM32F4xx_HAL_Driver/Src/stm32f4xx_hal_dma.c **** 
 8282              		.loc 1 640 0 discriminator 155
 8283 0520 A2F56872 		sub	r2, r2, #928
 8284 0524 9342     		cmp	r3, r2
 8285 0526 2AD0     		beq	.L1281
 640:../Drivers/STM32F4xx_HAL_Driver/Src/stm32f4xx_hal_dma.c **** 
 8286              		.loc 1 640 0 discriminator 157
 8287 0528 02F58062 		add	r2, r2, #1024
 8288 052c 9342     		cmp	r3, r2
 8289 052e 28D0     		beq	.L1282
 640:../Drivers/STM32F4xx_HAL_Driver/Src/stm32f4xx_hal_dma.c **** 
 8290              		.loc 1 640 0 discriminator 159
 8291 0530 A2F58962 		sub	r2, r2, #1096
 8292 0534 9342     		cmp	r3, r2
 8293 0536 26D0     		beq	.L1283
 640:../Drivers/STM32F4xx_HAL_Driver/Src/stm32f4xx_hal_dma.c **** 
 8294              		.loc 1 640 0 discriminator 161
 8295 0538 02F58062 		add	r2, r2, #1024
 8296 053c 9342     		cmp	r3, r2
 8297 053e 25D0     		beq	.L1284
 640:../Drivers/STM32F4xx_HAL_Driver/Src/stm32f4xx_hal_dma.c **** 
 8298              		.loc 1 640 0 discriminator 163
 8299 0540 A2F56872 		sub	r2, r2, #928
 8300 0544 9342     		cmp	r3, r2
 8301 0546 24D0     		beq	.L1285
 640:../Drivers/STM32F4xx_HAL_Driver/Src/stm32f4xx_hal_dma.c **** 
 8302              		.loc 1 640 0 discriminator 165
 8303 0548 02F58062 		add	r2, r2, #1024
 8304 054c 9342     		cmp	r3, r2
 8305 054e 23D0     		beq	.L1286
 640:../Drivers/STM32F4xx_HAL_Driver/Src/stm32f4xx_hal_dma.c **** 
 8306              		.loc 1 640 0 discriminator 167
 8307 0550 A2F58962 		sub	r2, r2, #1096
 8308 0554 9342     		cmp	r3, r2
 8309 0556 22D0     		beq	.L1287
 640:../Drivers/STM32F4xx_HAL_Driver/Src/stm32f4xx_hal_dma.c **** 
 8310              		.loc 1 640 0 discriminator 169
 8311 0558 02F58062 		add	r2, r2, #1024
 8312 055c 9342     		cmp	r3, r2
 8313 055e 21D0     		beq	.L1288
 640:../Drivers/STM32F4xx_HAL_Driver/Src/stm32f4xx_hal_dma.c **** 
 8314              		.loc 1 640 0 discriminator 171
 8315 0560 A2F56872 		sub	r2, r2, #928
 8316 0564 9342     		cmp	r3, r2
 8317 0566 20D0     		beq	.L1289
 640:../Drivers/STM32F4xx_HAL_Driver/Src/stm32f4xx_hal_dma.c **** 
 8318              		.loc 1 640 0 discriminator 173
 8319 0568 02F58062 		add	r2, r2, #1024
 8320 056c 9342     		cmp	r3, r2
 8321 056e 2BD1     		bne	.L1290
 640:../Drivers/STM32F4xx_HAL_Driver/Src/stm32f4xx_hal_dma.c **** 
ARM GAS  /tmp/ccIvKYQX.s 			page 185


 8322              		.loc 1 640 0
 8323 0570 4FF40022 		mov	r2, #524288
 8324 0574 2AE0     		b	.L1097
 8325              	.L1279:
 8326 0576 0822     		movs	r2, #8
 8327 0578 28E0     		b	.L1097
 8328              	.L1280:
 8329 057a 0822     		movs	r2, #8
 8330 057c 26E0     		b	.L1097
 8331              	.L1281:
 8332 057e 0822     		movs	r2, #8
 8333 0580 24E0     		b	.L1097
 8334              	.L1282:
 8335 0582 0822     		movs	r2, #8
 8336 0584 22E0     		b	.L1097
 8337              	.L1283:
 8338 0586 4FF40072 		mov	r2, #512
 8339 058a 1FE0     		b	.L1097
 8340              	.L1284:
 8341 058c 4FF40072 		mov	r2, #512
 8342 0590 1CE0     		b	.L1097
 8343              	.L1285:
 8344 0592 4FF40072 		mov	r2, #512
 8345 0596 19E0     		b	.L1097
 8346              	.L1286:
 8347 0598 4FF40072 		mov	r2, #512
 8348 059c 16E0     		b	.L1097
 8349              	.L1287:
 8350 059e 4FF40022 		mov	r2, #524288
 8351 05a2 13E0     		b	.L1097
 8352              	.L1288:
 8353 05a4 4FF40022 		mov	r2, #524288
 8354 05a8 10E0     		b	.L1097
 8355              	.L1289:
 8356 05aa 4FF40022 		mov	r2, #524288
 8357 05ae 0DE0     		b	.L1097
 8358              	.L1775:
 8359              		.align	2
 8360              	.L1774:
 8361 05b0 58640240 		.word	1073898584
 8362 05b4 00640240 		.word	1073898496
 8363 05b8 B8600240 		.word	1073897656
 8364 05bc 58600240 		.word	1073897560
 8365 05c0 00600240 		.word	1073897472
 8366 05c4 10600240 		.word	1073897488
 8367              	.L1290:
 8368 05c8 4FF00072 		mov	r2, #33554432
 8369              	.L1097:
 640:../Drivers/STM32F4xx_HAL_Driver/Src/stm32f4xx_hal_dma.c **** 
 8370              		.loc 1 640 0 discriminator 200
 8371 05cc B14B     		ldr	r3, .L1776
 8372 05ce 9A60     		str	r2, [r3, #8]
 8373              	.L1091:
 643:../Drivers/STM32F4xx_HAL_Driver/Src/stm32f4xx_hal_dma.c **** 
 8374              		.loc 1 643 0 is_stmt 1
 8375 05d0 E36C     		ldr	r3, [r4, #76]
 8376 05d2 43F00103 		orr	r3, r3, #1
ARM GAS  /tmp/ccIvKYQX.s 			page 186


 8377 05d6 E364     		str	r3, [r4, #76]
 646:../Drivers/STM32F4xx_HAL_Driver/Src/stm32f4xx_hal_dma.c **** 
 8378              		.loc 1 646 0
 8379 05d8 0423     		movs	r3, #4
 8380 05da 84F83530 		strb	r3, [r4, #53]
 649:../Drivers/STM32F4xx_HAL_Driver/Src/stm32f4xx_hal_dma.c **** 
 8381              		.loc 1 649 0
 8382 05de 0023     		movs	r3, #0
 8383 05e0 84F83430 		strb	r3, [r4, #52]
 651:../Drivers/STM32F4xx_HAL_Driver/Src/stm32f4xx_hal_dma.c ****       {
 8384              		.loc 1 651 0
 8385 05e4 A36C     		ldr	r3, [r4, #72]
 8386 05e6 0BB1     		cbz	r3, .L1088
 654:../Drivers/STM32F4xx_HAL_Driver/Src/stm32f4xx_hal_dma.c ****       }
 8387              		.loc 1 654 0
 8388 05e8 2046     		mov	r0, r4
 8389              	.LVL66:
 8390 05ea 9847     		blx	r3
 8391              	.LVL67:
 8392              	.L1088:
 659:../Drivers/STM32F4xx_HAL_Driver/Src/stm32f4xx_hal_dma.c ****   {
 8393              		.loc 1 659 0
 8394 05ec 2368     		ldr	r3, [r4]
 8395 05ee AA4A     		ldr	r2, .L1776+4
 8396 05f0 9342     		cmp	r3, r2
 8397 05f2 53D9     		bls	.L1098
 659:../Drivers/STM32F4xx_HAL_Driver/Src/stm32f4xx_hal_dma.c ****   {
 8398              		.loc 1 659 0 is_stmt 0 discriminator 1
 8399 05f4 583A     		subs	r2, r2, #88
 8400 05f6 5268     		ldr	r2, [r2, #4]
 8401 05f8 A849     		ldr	r1, .L1776+8
 8402 05fa 8B42     		cmp	r3, r1
 8403 05fc 2ED0     		beq	.L1291
 659:../Drivers/STM32F4xx_HAL_Driver/Src/stm32f4xx_hal_dma.c ****   {
 8404              		.loc 1 659 0 discriminator 3
 8405 05fe 01F58061 		add	r1, r1, #1024
 8406 0602 8B42     		cmp	r3, r1
 8407 0604 2CD0     		beq	.L1292
 659:../Drivers/STM32F4xx_HAL_Driver/Src/stm32f4xx_hal_dma.c ****   {
 8408              		.loc 1 659 0 discriminator 5
 8409 0606 A1F56871 		sub	r1, r1, #928
 8410 060a 8B42     		cmp	r3, r1
 8411 060c 2AD0     		beq	.L1293
 659:../Drivers/STM32F4xx_HAL_Driver/Src/stm32f4xx_hal_dma.c ****   {
 8412              		.loc 1 659 0 discriminator 7
 8413 060e 01F58061 		add	r1, r1, #1024
 8414 0612 8B42     		cmp	r3, r1
 8415 0614 28D0     		beq	.L1294
 659:../Drivers/STM32F4xx_HAL_Driver/Src/stm32f4xx_hal_dma.c ****   {
 8416              		.loc 1 659 0 discriminator 9
 8417 0616 A1F58961 		sub	r1, r1, #1096
 8418 061a 8B42     		cmp	r3, r1
 8419 061c 26D0     		beq	.L1295
 659:../Drivers/STM32F4xx_HAL_Driver/Src/stm32f4xx_hal_dma.c ****   {
 8420              		.loc 1 659 0 discriminator 11
 8421 061e 01F58061 		add	r1, r1, #1024
 8422 0622 8B42     		cmp	r3, r1
ARM GAS  /tmp/ccIvKYQX.s 			page 187


 8423 0624 24D0     		beq	.L1296
 659:../Drivers/STM32F4xx_HAL_Driver/Src/stm32f4xx_hal_dma.c ****   {
 8424              		.loc 1 659 0 discriminator 13
 8425 0626 A1F56871 		sub	r1, r1, #928
 8426 062a 8B42     		cmp	r3, r1
 8427 062c 22D0     		beq	.L1297
 659:../Drivers/STM32F4xx_HAL_Driver/Src/stm32f4xx_hal_dma.c ****   {
 8428              		.loc 1 659 0 discriminator 15
 8429 062e 01F58061 		add	r1, r1, #1024
 8430 0632 8B42     		cmp	r3, r1
 8431 0634 20D0     		beq	.L1298
 659:../Drivers/STM32F4xx_HAL_Driver/Src/stm32f4xx_hal_dma.c ****   {
 8432              		.loc 1 659 0 discriminator 17
 8433 0636 A1F58961 		sub	r1, r1, #1096
 8434 063a 8B42     		cmp	r3, r1
 8435 063c 1ED0     		beq	.L1299
 659:../Drivers/STM32F4xx_HAL_Driver/Src/stm32f4xx_hal_dma.c ****   {
 8436              		.loc 1 659 0 discriminator 19
 8437 063e 01F58061 		add	r1, r1, #1024
 8438 0642 8B42     		cmp	r3, r1
 8439 0644 1DD0     		beq	.L1300
 659:../Drivers/STM32F4xx_HAL_Driver/Src/stm32f4xx_hal_dma.c ****   {
 8440              		.loc 1 659 0 discriminator 21
 8441 0646 A1F56871 		sub	r1, r1, #928
 8442 064a 8B42     		cmp	r3, r1
 8443 064c 1CD0     		beq	.L1301
 659:../Drivers/STM32F4xx_HAL_Driver/Src/stm32f4xx_hal_dma.c ****   {
 8444              		.loc 1 659 0 discriminator 23
 8445 064e 01F58061 		add	r1, r1, #1024
 8446 0652 8B42     		cmp	r3, r1
 8447 0654 1BD1     		bne	.L1302
 659:../Drivers/STM32F4xx_HAL_Driver/Src/stm32f4xx_hal_dma.c ****   {
 8448              		.loc 1 659 0
 8449 0656 4FF48031 		mov	r1, #65536
 8450 065a 1AE0     		b	.L1099
 8451              	.L1291:
 8452 065c 9049     		ldr	r1, .L1776+12
 8453 065e 18E0     		b	.L1099
 8454              	.L1292:
 8455 0660 8F49     		ldr	r1, .L1776+12
 8456 0662 16E0     		b	.L1099
 8457              	.L1293:
 8458 0664 8E49     		ldr	r1, .L1776+12
 8459 0666 14E0     		b	.L1099
 8460              	.L1294:
 8461 0668 8D49     		ldr	r1, .L1776+12
 8462 066a 12E0     		b	.L1099
 8463              	.L1295:
 8464 066c 4021     		movs	r1, #64
 8465 066e 10E0     		b	.L1099
 8466              	.L1296:
 8467 0670 4021     		movs	r1, #64
 8468 0672 0EE0     		b	.L1099
 8469              	.L1297:
 8470 0674 4021     		movs	r1, #64
 8471 0676 0CE0     		b	.L1099
 8472              	.L1298:
ARM GAS  /tmp/ccIvKYQX.s 			page 188


 8473 0678 4021     		movs	r1, #64
 8474 067a 0AE0     		b	.L1099
 8475              	.L1299:
 8476 067c 4FF48031 		mov	r1, #65536
 8477 0680 07E0     		b	.L1099
 8478              	.L1300:
 8479 0682 4FF48031 		mov	r1, #65536
 8480 0686 04E0     		b	.L1099
 8481              	.L1301:
 8482 0688 4FF48031 		mov	r1, #65536
 8483 068c 01E0     		b	.L1099
 8484              	.L1302:
 8485 068e 4FF48001 		mov	r1, #4194304
 8486              	.L1099:
 659:../Drivers/STM32F4xx_HAL_Driver/Src/stm32f4xx_hal_dma.c ****   {
 8487              		.loc 1 659 0 discriminator 50
 8488 0692 1142     		tst	r1, r2
 8489 0694 14BF     		ite	ne
 8490 0696 0122     		movne	r2, #1
 8491 0698 0022     		moveq	r2, #0
 8492 069a 0DE1     		b	.L1100
 8493              	.L1098:
 659:../Drivers/STM32F4xx_HAL_Driver/Src/stm32f4xx_hal_dma.c ****   {
 8494              		.loc 1 659 0 discriminator 2
 8495 069c 814A     		ldr	r2, .L1776+16
 8496 069e 9342     		cmp	r3, r2
 8497 06a0 54D9     		bls	.L1101
 659:../Drivers/STM32F4xx_HAL_Driver/Src/stm32f4xx_hal_dma.c ****   {
 8498              		.loc 1 659 0 discriminator 52
 8499 06a2 02F55272 		add	r2, r2, #840
 8500 06a6 1268     		ldr	r2, [r2]
 8501 06a8 7C49     		ldr	r1, .L1776+8
 8502 06aa 8B42     		cmp	r3, r1
 8503 06ac 2ED0     		beq	.L1303
 659:../Drivers/STM32F4xx_HAL_Driver/Src/stm32f4xx_hal_dma.c ****   {
 8504              		.loc 1 659 0 discriminator 54
 8505 06ae 01F58061 		add	r1, r1, #1024
 8506 06b2 8B42     		cmp	r3, r1
 8507 06b4 2CD0     		beq	.L1304
 659:../Drivers/STM32F4xx_HAL_Driver/Src/stm32f4xx_hal_dma.c ****   {
 8508              		.loc 1 659 0 discriminator 56
 8509 06b6 A1F56871 		sub	r1, r1, #928
 8510 06ba 8B42     		cmp	r3, r1
 8511 06bc 2AD0     		beq	.L1305
 659:../Drivers/STM32F4xx_HAL_Driver/Src/stm32f4xx_hal_dma.c ****   {
 8512              		.loc 1 659 0 discriminator 58
 8513 06be 01F58061 		add	r1, r1, #1024
 8514 06c2 8B42     		cmp	r3, r1
 8515 06c4 28D0     		beq	.L1306
 659:../Drivers/STM32F4xx_HAL_Driver/Src/stm32f4xx_hal_dma.c ****   {
 8516              		.loc 1 659 0 discriminator 60
 8517 06c6 A1F58961 		sub	r1, r1, #1096
 8518 06ca 8B42     		cmp	r3, r1
 8519 06cc 26D0     		beq	.L1307
 659:../Drivers/STM32F4xx_HAL_Driver/Src/stm32f4xx_hal_dma.c ****   {
 8520              		.loc 1 659 0 discriminator 62
 8521 06ce 01F58061 		add	r1, r1, #1024
ARM GAS  /tmp/ccIvKYQX.s 			page 189


 8522 06d2 8B42     		cmp	r3, r1
 8523 06d4 24D0     		beq	.L1308
 659:../Drivers/STM32F4xx_HAL_Driver/Src/stm32f4xx_hal_dma.c ****   {
 8524              		.loc 1 659 0 discriminator 64
 8525 06d6 A1F56871 		sub	r1, r1, #928
 8526 06da 8B42     		cmp	r3, r1
 8527 06dc 22D0     		beq	.L1309
 659:../Drivers/STM32F4xx_HAL_Driver/Src/stm32f4xx_hal_dma.c ****   {
 8528              		.loc 1 659 0 discriminator 66
 8529 06de 01F58061 		add	r1, r1, #1024
 8530 06e2 8B42     		cmp	r3, r1
 8531 06e4 20D0     		beq	.L1310
 659:../Drivers/STM32F4xx_HAL_Driver/Src/stm32f4xx_hal_dma.c ****   {
 8532              		.loc 1 659 0 discriminator 68
 8533 06e6 A1F58961 		sub	r1, r1, #1096
 8534 06ea 8B42     		cmp	r3, r1
 8535 06ec 1ED0     		beq	.L1311
 659:../Drivers/STM32F4xx_HAL_Driver/Src/stm32f4xx_hal_dma.c ****   {
 8536              		.loc 1 659 0 discriminator 70
 8537 06ee 01F58061 		add	r1, r1, #1024
 8538 06f2 8B42     		cmp	r3, r1
 8539 06f4 1DD0     		beq	.L1312
 659:../Drivers/STM32F4xx_HAL_Driver/Src/stm32f4xx_hal_dma.c ****   {
 8540              		.loc 1 659 0 discriminator 72
 8541 06f6 A1F56871 		sub	r1, r1, #928
 8542 06fa 8B42     		cmp	r3, r1
 8543 06fc 1CD0     		beq	.L1313
 659:../Drivers/STM32F4xx_HAL_Driver/Src/stm32f4xx_hal_dma.c ****   {
 8544              		.loc 1 659 0 discriminator 74
 8545 06fe 01F58061 		add	r1, r1, #1024
 8546 0702 8B42     		cmp	r3, r1
 8547 0704 1BD1     		bne	.L1314
 659:../Drivers/STM32F4xx_HAL_Driver/Src/stm32f4xx_hal_dma.c ****   {
 8548              		.loc 1 659 0
 8549 0706 4FF48031 		mov	r1, #65536
 8550 070a 1AE0     		b	.L1102
 8551              	.L1303:
 8552 070c 6449     		ldr	r1, .L1776+12
 8553 070e 18E0     		b	.L1102
 8554              	.L1304:
 8555 0710 6349     		ldr	r1, .L1776+12
 8556 0712 16E0     		b	.L1102
 8557              	.L1305:
 8558 0714 6249     		ldr	r1, .L1776+12
 8559 0716 14E0     		b	.L1102
 8560              	.L1306:
 8561 0718 6149     		ldr	r1, .L1776+12
 8562 071a 12E0     		b	.L1102
 8563              	.L1307:
 8564 071c 4021     		movs	r1, #64
 8565 071e 10E0     		b	.L1102
 8566              	.L1308:
 8567 0720 4021     		movs	r1, #64
 8568 0722 0EE0     		b	.L1102
 8569              	.L1309:
 8570 0724 4021     		movs	r1, #64
 8571 0726 0CE0     		b	.L1102
ARM GAS  /tmp/ccIvKYQX.s 			page 190


 8572              	.L1310:
 8573 0728 4021     		movs	r1, #64
 8574 072a 0AE0     		b	.L1102
 8575              	.L1311:
 8576 072c 4FF48031 		mov	r1, #65536
 8577 0730 07E0     		b	.L1102
 8578              	.L1312:
 8579 0732 4FF48031 		mov	r1, #65536
 8580 0736 04E0     		b	.L1102
 8581              	.L1313:
 8582 0738 4FF48031 		mov	r1, #65536
 8583 073c 01E0     		b	.L1102
 8584              	.L1314:
 8585 073e 4FF48001 		mov	r1, #4194304
 8586              	.L1102:
 659:../Drivers/STM32F4xx_HAL_Driver/Src/stm32f4xx_hal_dma.c ****   {
 8587              		.loc 1 659 0 discriminator 101
 8588 0742 1142     		tst	r1, r2
 8589 0744 14BF     		ite	ne
 8590 0746 0122     		movne	r2, #1
 8591 0748 0022     		moveq	r2, #0
 8592 074a B5E0     		b	.L1100
 8593              	.L1101:
 659:../Drivers/STM32F4xx_HAL_Driver/Src/stm32f4xx_hal_dma.c ****   {
 8594              		.loc 1 659 0 discriminator 53
 8595 074c 564A     		ldr	r2, .L1776+20
 8596 074e 9342     		cmp	r3, r2
 8597 0750 53D9     		bls	.L1103
 659:../Drivers/STM32F4xx_HAL_Driver/Src/stm32f4xx_hal_dma.c ****   {
 8598              		.loc 1 659 0 discriminator 103
 8599 0752 583A     		subs	r2, r2, #88
 8600 0754 5268     		ldr	r2, [r2, #4]
 8601 0756 5149     		ldr	r1, .L1776+8
 8602 0758 8B42     		cmp	r3, r1
 8603 075a 2ED0     		beq	.L1315
 659:../Drivers/STM32F4xx_HAL_Driver/Src/stm32f4xx_hal_dma.c ****   {
 8604              		.loc 1 659 0 discriminator 105
 8605 075c 01F58061 		add	r1, r1, #1024
 8606 0760 8B42     		cmp	r3, r1
 8607 0762 2CD0     		beq	.L1316
 659:../Drivers/STM32F4xx_HAL_Driver/Src/stm32f4xx_hal_dma.c ****   {
 8608              		.loc 1 659 0 discriminator 107
 8609 0764 A1F56871 		sub	r1, r1, #928
 8610 0768 8B42     		cmp	r3, r1
 8611 076a 2AD0     		beq	.L1317
 659:../Drivers/STM32F4xx_HAL_Driver/Src/stm32f4xx_hal_dma.c ****   {
 8612              		.loc 1 659 0 discriminator 109
 8613 076c 01F58061 		add	r1, r1, #1024
 8614 0770 8B42     		cmp	r3, r1
 8615 0772 28D0     		beq	.L1318
 659:../Drivers/STM32F4xx_HAL_Driver/Src/stm32f4xx_hal_dma.c ****   {
 8616              		.loc 1 659 0 discriminator 111
 8617 0774 A1F58961 		sub	r1, r1, #1096
 8618 0778 8B42     		cmp	r3, r1
 8619 077a 26D0     		beq	.L1319
 659:../Drivers/STM32F4xx_HAL_Driver/Src/stm32f4xx_hal_dma.c ****   {
 8620              		.loc 1 659 0 discriminator 113
ARM GAS  /tmp/ccIvKYQX.s 			page 191


 8621 077c 01F58061 		add	r1, r1, #1024
 8622 0780 8B42     		cmp	r3, r1
 8623 0782 24D0     		beq	.L1320
 659:../Drivers/STM32F4xx_HAL_Driver/Src/stm32f4xx_hal_dma.c ****   {
 8624              		.loc 1 659 0 discriminator 115
 8625 0784 A1F56871 		sub	r1, r1, #928
 8626 0788 8B42     		cmp	r3, r1
 8627 078a 22D0     		beq	.L1321
 659:../Drivers/STM32F4xx_HAL_Driver/Src/stm32f4xx_hal_dma.c ****   {
 8628              		.loc 1 659 0 discriminator 117
 8629 078c 01F58061 		add	r1, r1, #1024
 8630 0790 8B42     		cmp	r3, r1
 8631 0792 20D0     		beq	.L1322
 659:../Drivers/STM32F4xx_HAL_Driver/Src/stm32f4xx_hal_dma.c ****   {
 8632              		.loc 1 659 0 discriminator 119
 8633 0794 A1F58961 		sub	r1, r1, #1096
 8634 0798 8B42     		cmp	r3, r1
 8635 079a 1ED0     		beq	.L1323
 659:../Drivers/STM32F4xx_HAL_Driver/Src/stm32f4xx_hal_dma.c ****   {
 8636              		.loc 1 659 0 discriminator 121
 8637 079c 01F58061 		add	r1, r1, #1024
 8638 07a0 8B42     		cmp	r3, r1
 8639 07a2 1DD0     		beq	.L1324
 659:../Drivers/STM32F4xx_HAL_Driver/Src/stm32f4xx_hal_dma.c ****   {
 8640              		.loc 1 659 0 discriminator 123
 8641 07a4 A1F56871 		sub	r1, r1, #928
 8642 07a8 8B42     		cmp	r3, r1
 8643 07aa 1CD0     		beq	.L1325
 659:../Drivers/STM32F4xx_HAL_Driver/Src/stm32f4xx_hal_dma.c ****   {
 8644              		.loc 1 659 0 discriminator 125
 8645 07ac 01F58061 		add	r1, r1, #1024
 8646 07b0 8B42     		cmp	r3, r1
 8647 07b2 1BD1     		bne	.L1326
 659:../Drivers/STM32F4xx_HAL_Driver/Src/stm32f4xx_hal_dma.c ****   {
 8648              		.loc 1 659 0
 8649 07b4 4FF48031 		mov	r1, #65536
 8650 07b8 1AE0     		b	.L1104
 8651              	.L1315:
 8652 07ba 3949     		ldr	r1, .L1776+12
 8653 07bc 18E0     		b	.L1104
 8654              	.L1316:
 8655 07be 3849     		ldr	r1, .L1776+12
 8656 07c0 16E0     		b	.L1104
 8657              	.L1317:
 8658 07c2 3749     		ldr	r1, .L1776+12
 8659 07c4 14E0     		b	.L1104
 8660              	.L1318:
 8661 07c6 3649     		ldr	r1, .L1776+12
 8662 07c8 12E0     		b	.L1104
 8663              	.L1319:
 8664 07ca 4021     		movs	r1, #64
 8665 07cc 10E0     		b	.L1104
 8666              	.L1320:
 8667 07ce 4021     		movs	r1, #64
 8668 07d0 0EE0     		b	.L1104
 8669              	.L1321:
 8670 07d2 4021     		movs	r1, #64
ARM GAS  /tmp/ccIvKYQX.s 			page 192


 8671 07d4 0CE0     		b	.L1104
 8672              	.L1322:
 8673 07d6 4021     		movs	r1, #64
 8674 07d8 0AE0     		b	.L1104
 8675              	.L1323:
 8676 07da 4FF48031 		mov	r1, #65536
 8677 07de 07E0     		b	.L1104
 8678              	.L1324:
 8679 07e0 4FF48031 		mov	r1, #65536
 8680 07e4 04E0     		b	.L1104
 8681              	.L1325:
 8682 07e6 4FF48031 		mov	r1, #65536
 8683 07ea 01E0     		b	.L1104
 8684              	.L1326:
 8685 07ec 4FF48001 		mov	r1, #4194304
 8686              	.L1104:
 659:../Drivers/STM32F4xx_HAL_Driver/Src/stm32f4xx_hal_dma.c ****   {
 8687              		.loc 1 659 0 discriminator 152
 8688 07f0 1142     		tst	r1, r2
 8689 07f2 14BF     		ite	ne
 8690 07f4 0122     		movne	r2, #1
 8691 07f6 0022     		moveq	r2, #0
 8692 07f8 5EE0     		b	.L1100
 8693              	.L1103:
 659:../Drivers/STM32F4xx_HAL_Driver/Src/stm32f4xx_hal_dma.c ****   {
 8694              		.loc 1 659 0 discriminator 104
 8695 07fa 264A     		ldr	r2, .L1776
 8696 07fc 1268     		ldr	r2, [r2]
 8697 07fe 2749     		ldr	r1, .L1776+8
 8698 0800 8B42     		cmp	r3, r1
 8699 0802 2ED0     		beq	.L1327
 659:../Drivers/STM32F4xx_HAL_Driver/Src/stm32f4xx_hal_dma.c ****   {
 8700              		.loc 1 659 0 discriminator 154
 8701 0804 01F58061 		add	r1, r1, #1024
 8702 0808 8B42     		cmp	r3, r1
 8703 080a 2CD0     		beq	.L1328
 659:../Drivers/STM32F4xx_HAL_Driver/Src/stm32f4xx_hal_dma.c ****   {
 8704              		.loc 1 659 0 discriminator 156
 8705 080c A1F56871 		sub	r1, r1, #928
 8706 0810 8B42     		cmp	r3, r1
 8707 0812 2AD0     		beq	.L1329
 659:../Drivers/STM32F4xx_HAL_Driver/Src/stm32f4xx_hal_dma.c ****   {
 8708              		.loc 1 659 0 discriminator 158
 8709 0814 01F58061 		add	r1, r1, #1024
 8710 0818 8B42     		cmp	r3, r1
 8711 081a 28D0     		beq	.L1330
 659:../Drivers/STM32F4xx_HAL_Driver/Src/stm32f4xx_hal_dma.c ****   {
 8712              		.loc 1 659 0 discriminator 160
 8713 081c A1F58961 		sub	r1, r1, #1096
 8714 0820 8B42     		cmp	r3, r1
 8715 0822 26D0     		beq	.L1331
 659:../Drivers/STM32F4xx_HAL_Driver/Src/stm32f4xx_hal_dma.c ****   {
 8716              		.loc 1 659 0 discriminator 162
 8717 0824 01F58061 		add	r1, r1, #1024
 8718 0828 8B42     		cmp	r3, r1
 8719 082a 24D0     		beq	.L1332
 659:../Drivers/STM32F4xx_HAL_Driver/Src/stm32f4xx_hal_dma.c ****   {
ARM GAS  /tmp/ccIvKYQX.s 			page 193


 8720              		.loc 1 659 0 discriminator 164
 8721 082c A1F56871 		sub	r1, r1, #928
 8722 0830 8B42     		cmp	r3, r1
 8723 0832 22D0     		beq	.L1333
 659:../Drivers/STM32F4xx_HAL_Driver/Src/stm32f4xx_hal_dma.c ****   {
 8724              		.loc 1 659 0 discriminator 166
 8725 0834 01F58061 		add	r1, r1, #1024
 8726 0838 8B42     		cmp	r3, r1
 8727 083a 20D0     		beq	.L1334
 659:../Drivers/STM32F4xx_HAL_Driver/Src/stm32f4xx_hal_dma.c ****   {
 8728              		.loc 1 659 0 discriminator 168
 8729 083c A1F58961 		sub	r1, r1, #1096
 8730 0840 8B42     		cmp	r3, r1
 8731 0842 1ED0     		beq	.L1335
 659:../Drivers/STM32F4xx_HAL_Driver/Src/stm32f4xx_hal_dma.c ****   {
 8732              		.loc 1 659 0 discriminator 170
 8733 0844 01F58061 		add	r1, r1, #1024
 8734 0848 8B42     		cmp	r3, r1
 8735 084a 1DD0     		beq	.L1336
 659:../Drivers/STM32F4xx_HAL_Driver/Src/stm32f4xx_hal_dma.c ****   {
 8736              		.loc 1 659 0 discriminator 172
 8737 084c A1F56871 		sub	r1, r1, #928
 8738 0850 8B42     		cmp	r3, r1
 8739 0852 1CD0     		beq	.L1337
 659:../Drivers/STM32F4xx_HAL_Driver/Src/stm32f4xx_hal_dma.c ****   {
 8740              		.loc 1 659 0 discriminator 174
 8741 0854 01F58061 		add	r1, r1, #1024
 8742 0858 8B42     		cmp	r3, r1
 8743 085a 27D1     		bne	.L1338
 659:../Drivers/STM32F4xx_HAL_Driver/Src/stm32f4xx_hal_dma.c ****   {
 8744              		.loc 1 659 0
 8745 085c 4FF48031 		mov	r1, #65536
 8746 0860 26E0     		b	.L1105
 8747              	.L1327:
 8748 0862 0F49     		ldr	r1, .L1776+12
 8749 0864 24E0     		b	.L1105
 8750              	.L1328:
 8751 0866 0E49     		ldr	r1, .L1776+12
 8752 0868 22E0     		b	.L1105
 8753              	.L1329:
 8754 086a 0D49     		ldr	r1, .L1776+12
 8755 086c 20E0     		b	.L1105
 8756              	.L1330:
 8757 086e 0C49     		ldr	r1, .L1776+12
 8758 0870 1EE0     		b	.L1105
 8759              	.L1331:
 8760 0872 4021     		movs	r1, #64
 8761 0874 1CE0     		b	.L1105
 8762              	.L1332:
 8763 0876 4021     		movs	r1, #64
 8764 0878 1AE0     		b	.L1105
 8765              	.L1333:
 8766 087a 4021     		movs	r1, #64
 8767 087c 18E0     		b	.L1105
 8768              	.L1334:
 8769 087e 4021     		movs	r1, #64
 8770 0880 16E0     		b	.L1105
ARM GAS  /tmp/ccIvKYQX.s 			page 194


 8771              	.L1335:
 8772 0882 4FF48031 		mov	r1, #65536
 8773 0886 13E0     		b	.L1105
 8774              	.L1336:
 8775 0888 4FF48031 		mov	r1, #65536
 8776 088c 10E0     		b	.L1105
 8777              	.L1337:
 8778 088e 4FF48031 		mov	r1, #65536
 8779 0892 0DE0     		b	.L1105
 8780              	.L1777:
 8781              		.align	2
 8782              	.L1776:
 8783 0894 00600240 		.word	1073897472
 8784 0898 58640240 		.word	1073898584
 8785 089c 10600240 		.word	1073897488
 8786 08a0 01008000 		.word	8388609
 8787 08a4 B8600240 		.word	1073897656
 8788 08a8 58600240 		.word	1073897560
 8789              	.L1338:
 8790 08ac 4FF48001 		mov	r1, #4194304
 8791              	.L1105:
 659:../Drivers/STM32F4xx_HAL_Driver/Src/stm32f4xx_hal_dma.c ****   {
 8792              		.loc 1 659 0 discriminator 201
 8793 08b0 1142     		tst	r1, r2
 8794 08b2 14BF     		ite	ne
 8795 08b4 0122     		movne	r2, #1
 8796 08b6 0022     		moveq	r2, #0
 8797              	.L1100:
 659:../Drivers/STM32F4xx_HAL_Driver/Src/stm32f4xx_hal_dma.c ****   {
 8798              		.loc 1 659 0 discriminator 204
 8799 08b8 002A     		cmp	r2, #0
 8800 08ba 00F06F81 		beq	.L1106
 661:../Drivers/STM32F4xx_HAL_Driver/Src/stm32f4xx_hal_dma.c ****     {
 8801              		.loc 1 661 0 is_stmt 1
 8802 08be 5A69     		ldr	r2, [r3, #20]
 8803 08c0 12F0800F 		tst	r2, #128
 8804 08c4 00F06A81 		beq	.L1106
 664:../Drivers/STM32F4xx_HAL_Driver/Src/stm32f4xx_hal_dma.c **** 
 8805              		.loc 1 664 0
 8806 08c8 5A69     		ldr	r2, [r3, #20]
 8807 08ca 22F08002 		bic	r2, r2, #128
 8808 08ce 5A61     		str	r2, [r3, #20]
 667:../Drivers/STM32F4xx_HAL_Driver/Src/stm32f4xx_hal_dma.c **** 
 8809              		.loc 1 667 0
 8810 08d0 2368     		ldr	r3, [r4]
 8811 08d2 A24A     		ldr	r2, .L1778
 8812 08d4 9342     		cmp	r3, r2
 8813 08d6 50D9     		bls	.L1107
 667:../Drivers/STM32F4xx_HAL_Driver/Src/stm32f4xx_hal_dma.c **** 
 8814              		.loc 1 667 0 is_stmt 0 discriminator 1
 8815 08d8 A2F58962 		sub	r2, r2, #1096
 8816 08dc 9342     		cmp	r3, r2
 8817 08de 2ED0     		beq	.L1339
 667:../Drivers/STM32F4xx_HAL_Driver/Src/stm32f4xx_hal_dma.c **** 
 8818              		.loc 1 667 0 discriminator 3
 8819 08e0 02F58062 		add	r2, r2, #1024
 8820 08e4 9342     		cmp	r3, r2
ARM GAS  /tmp/ccIvKYQX.s 			page 195


 8821 08e6 2CD0     		beq	.L1340
 667:../Drivers/STM32F4xx_HAL_Driver/Src/stm32f4xx_hal_dma.c **** 
 8822              		.loc 1 667 0 discriminator 5
 8823 08e8 A2F56872 		sub	r2, r2, #928
 8824 08ec 9342     		cmp	r3, r2
 8825 08ee 2AD0     		beq	.L1341
 667:../Drivers/STM32F4xx_HAL_Driver/Src/stm32f4xx_hal_dma.c **** 
 8826              		.loc 1 667 0 discriminator 7
 8827 08f0 02F58062 		add	r2, r2, #1024
 8828 08f4 9342     		cmp	r3, r2
 8829 08f6 28D0     		beq	.L1342
 667:../Drivers/STM32F4xx_HAL_Driver/Src/stm32f4xx_hal_dma.c **** 
 8830              		.loc 1 667 0 discriminator 9
 8831 08f8 A2F58962 		sub	r2, r2, #1096
 8832 08fc 9342     		cmp	r3, r2
 8833 08fe 26D0     		beq	.L1343
 667:../Drivers/STM32F4xx_HAL_Driver/Src/stm32f4xx_hal_dma.c **** 
 8834              		.loc 1 667 0 discriminator 11
 8835 0900 02F58062 		add	r2, r2, #1024
 8836 0904 9342     		cmp	r3, r2
 8837 0906 24D0     		beq	.L1344
 667:../Drivers/STM32F4xx_HAL_Driver/Src/stm32f4xx_hal_dma.c **** 
 8838              		.loc 1 667 0 discriminator 13
 8839 0908 A2F56872 		sub	r2, r2, #928
 8840 090c 9342     		cmp	r3, r2
 8841 090e 22D0     		beq	.L1345
 667:../Drivers/STM32F4xx_HAL_Driver/Src/stm32f4xx_hal_dma.c **** 
 8842              		.loc 1 667 0 discriminator 15
 8843 0910 02F58062 		add	r2, r2, #1024
 8844 0914 9342     		cmp	r3, r2
 8845 0916 20D0     		beq	.L1346
 667:../Drivers/STM32F4xx_HAL_Driver/Src/stm32f4xx_hal_dma.c **** 
 8846              		.loc 1 667 0 discriminator 17
 8847 0918 A2F58962 		sub	r2, r2, #1096
 8848 091c 9342     		cmp	r3, r2
 8849 091e 1ED0     		beq	.L1347
 667:../Drivers/STM32F4xx_HAL_Driver/Src/stm32f4xx_hal_dma.c **** 
 8850              		.loc 1 667 0 discriminator 19
 8851 0920 02F58062 		add	r2, r2, #1024
 8852 0924 9342     		cmp	r3, r2
 8853 0926 1DD0     		beq	.L1348
 667:../Drivers/STM32F4xx_HAL_Driver/Src/stm32f4xx_hal_dma.c **** 
 8854              		.loc 1 667 0 discriminator 21
 8855 0928 A2F56872 		sub	r2, r2, #928
 8856 092c 9342     		cmp	r3, r2
 8857 092e 1CD0     		beq	.L1349
 667:../Drivers/STM32F4xx_HAL_Driver/Src/stm32f4xx_hal_dma.c **** 
 8858              		.loc 1 667 0 discriminator 23
 8859 0930 02F58062 		add	r2, r2, #1024
 8860 0934 9342     		cmp	r3, r2
 8861 0936 1BD1     		bne	.L1350
 667:../Drivers/STM32F4xx_HAL_Driver/Src/stm32f4xx_hal_dma.c **** 
 8862              		.loc 1 667 0
 8863 0938 4FF48032 		mov	r2, #65536
 8864 093c 1AE0     		b	.L1108
 8865              	.L1339:
 8866 093e 884A     		ldr	r2, .L1778+4
ARM GAS  /tmp/ccIvKYQX.s 			page 196


 8867 0940 18E0     		b	.L1108
 8868              	.L1340:
 8869 0942 874A     		ldr	r2, .L1778+4
 8870 0944 16E0     		b	.L1108
 8871              	.L1341:
 8872 0946 864A     		ldr	r2, .L1778+4
 8873 0948 14E0     		b	.L1108
 8874              	.L1342:
 8875 094a 854A     		ldr	r2, .L1778+4
 8876 094c 12E0     		b	.L1108
 8877              	.L1343:
 8878 094e 4022     		movs	r2, #64
 8879 0950 10E0     		b	.L1108
 8880              	.L1344:
 8881 0952 4022     		movs	r2, #64
 8882 0954 0EE0     		b	.L1108
 8883              	.L1345:
 8884 0956 4022     		movs	r2, #64
 8885 0958 0CE0     		b	.L1108
 8886              	.L1346:
 8887 095a 4022     		movs	r2, #64
 8888 095c 0AE0     		b	.L1108
 8889              	.L1347:
 8890 095e 4FF48032 		mov	r2, #65536
 8891 0962 07E0     		b	.L1108
 8892              	.L1348:
 8893 0964 4FF48032 		mov	r2, #65536
 8894 0968 04E0     		b	.L1108
 8895              	.L1349:
 8896 096a 4FF48032 		mov	r2, #65536
 8897 096e 01E0     		b	.L1108
 8898              	.L1350:
 8899 0970 4FF48002 		mov	r2, #4194304
 8900              	.L1108:
 667:../Drivers/STM32F4xx_HAL_Driver/Src/stm32f4xx_hal_dma.c **** 
 8901              		.loc 1 667 0 discriminator 50
 8902 0974 7B4B     		ldr	r3, .L1778+8
 8903 0976 DA60     		str	r2, [r3, #12]
 8904 0978 02E1     		b	.L1109
 8905              	.L1107:
 667:../Drivers/STM32F4xx_HAL_Driver/Src/stm32f4xx_hal_dma.c **** 
 8906              		.loc 1 667 0 discriminator 2
 8907 097a 7B4A     		ldr	r2, .L1778+12
 8908 097c 9342     		cmp	r3, r2
 8909 097e 4FD9     		bls	.L1110
 667:../Drivers/STM32F4xx_HAL_Driver/Src/stm32f4xx_hal_dma.c **** 
 8910              		.loc 1 667 0 discriminator 51
 8911 0980 A83A     		subs	r2, r2, #168
 8912 0982 9342     		cmp	r3, r2
 8913 0984 2ED0     		beq	.L1351
 667:../Drivers/STM32F4xx_HAL_Driver/Src/stm32f4xx_hal_dma.c **** 
 8914              		.loc 1 667 0 discriminator 53
 8915 0986 02F58062 		add	r2, r2, #1024
 8916 098a 9342     		cmp	r3, r2
 8917 098c 2CD0     		beq	.L1352
 667:../Drivers/STM32F4xx_HAL_Driver/Src/stm32f4xx_hal_dma.c **** 
 8918              		.loc 1 667 0 discriminator 55
ARM GAS  /tmp/ccIvKYQX.s 			page 197


 8919 098e A2F56872 		sub	r2, r2, #928
 8920 0992 9342     		cmp	r3, r2
 8921 0994 2AD0     		beq	.L1353
 667:../Drivers/STM32F4xx_HAL_Driver/Src/stm32f4xx_hal_dma.c **** 
 8922              		.loc 1 667 0 discriminator 57
 8923 0996 02F58062 		add	r2, r2, #1024
 8924 099a 9342     		cmp	r3, r2
 8925 099c 28D0     		beq	.L1354
 667:../Drivers/STM32F4xx_HAL_Driver/Src/stm32f4xx_hal_dma.c **** 
 8926              		.loc 1 667 0 discriminator 59
 8927 099e A2F58962 		sub	r2, r2, #1096
 8928 09a2 9342     		cmp	r3, r2
 8929 09a4 26D0     		beq	.L1355
 667:../Drivers/STM32F4xx_HAL_Driver/Src/stm32f4xx_hal_dma.c **** 
 8930              		.loc 1 667 0 discriminator 61
 8931 09a6 02F58062 		add	r2, r2, #1024
 8932 09aa 9342     		cmp	r3, r2
 8933 09ac 24D0     		beq	.L1356
 667:../Drivers/STM32F4xx_HAL_Driver/Src/stm32f4xx_hal_dma.c **** 
 8934              		.loc 1 667 0 discriminator 63
 8935 09ae A2F56872 		sub	r2, r2, #928
 8936 09b2 9342     		cmp	r3, r2
 8937 09b4 22D0     		beq	.L1357
 667:../Drivers/STM32F4xx_HAL_Driver/Src/stm32f4xx_hal_dma.c **** 
 8938              		.loc 1 667 0 discriminator 65
 8939 09b6 02F58062 		add	r2, r2, #1024
 8940 09ba 9342     		cmp	r3, r2
 8941 09bc 20D0     		beq	.L1358
 667:../Drivers/STM32F4xx_HAL_Driver/Src/stm32f4xx_hal_dma.c **** 
 8942              		.loc 1 667 0 discriminator 67
 8943 09be A2F58962 		sub	r2, r2, #1096
 8944 09c2 9342     		cmp	r3, r2
 8945 09c4 1ED0     		beq	.L1359
 667:../Drivers/STM32F4xx_HAL_Driver/Src/stm32f4xx_hal_dma.c **** 
 8946              		.loc 1 667 0 discriminator 69
 8947 09c6 02F58062 		add	r2, r2, #1024
 8948 09ca 9342     		cmp	r3, r2
 8949 09cc 1DD0     		beq	.L1360
 667:../Drivers/STM32F4xx_HAL_Driver/Src/stm32f4xx_hal_dma.c **** 
 8950              		.loc 1 667 0 discriminator 71
 8951 09ce A2F56872 		sub	r2, r2, #928
 8952 09d2 9342     		cmp	r3, r2
 8953 09d4 1CD0     		beq	.L1361
 667:../Drivers/STM32F4xx_HAL_Driver/Src/stm32f4xx_hal_dma.c **** 
 8954              		.loc 1 667 0 discriminator 73
 8955 09d6 02F58062 		add	r2, r2, #1024
 8956 09da 9342     		cmp	r3, r2
 8957 09dc 1BD1     		bne	.L1362
 667:../Drivers/STM32F4xx_HAL_Driver/Src/stm32f4xx_hal_dma.c **** 
 8958              		.loc 1 667 0
 8959 09de 4FF48032 		mov	r2, #65536
 8960 09e2 1AE0     		b	.L1111
 8961              	.L1351:
 8962 09e4 5E4A     		ldr	r2, .L1778+4
 8963 09e6 18E0     		b	.L1111
 8964              	.L1352:
 8965 09e8 5D4A     		ldr	r2, .L1778+4
ARM GAS  /tmp/ccIvKYQX.s 			page 198


 8966 09ea 16E0     		b	.L1111
 8967              	.L1353:
 8968 09ec 5C4A     		ldr	r2, .L1778+4
 8969 09ee 14E0     		b	.L1111
 8970              	.L1354:
 8971 09f0 5B4A     		ldr	r2, .L1778+4
 8972 09f2 12E0     		b	.L1111
 8973              	.L1355:
 8974 09f4 4022     		movs	r2, #64
 8975 09f6 10E0     		b	.L1111
 8976              	.L1356:
 8977 09f8 4022     		movs	r2, #64
 8978 09fa 0EE0     		b	.L1111
 8979              	.L1357:
 8980 09fc 4022     		movs	r2, #64
 8981 09fe 0CE0     		b	.L1111
 8982              	.L1358:
 8983 0a00 4022     		movs	r2, #64
 8984 0a02 0AE0     		b	.L1111
 8985              	.L1359:
 8986 0a04 4FF48032 		mov	r2, #65536
 8987 0a08 07E0     		b	.L1111
 8988              	.L1360:
 8989 0a0a 4FF48032 		mov	r2, #65536
 8990 0a0e 04E0     		b	.L1111
 8991              	.L1361:
 8992 0a10 4FF48032 		mov	r2, #65536
 8993 0a14 01E0     		b	.L1111
 8994              	.L1362:
 8995 0a16 4FF48002 		mov	r2, #4194304
 8996              	.L1111:
 667:../Drivers/STM32F4xx_HAL_Driver/Src/stm32f4xx_hal_dma.c **** 
 8997              		.loc 1 667 0 discriminator 100
 8998 0a1a 524B     		ldr	r3, .L1778+8
 8999 0a1c 9A60     		str	r2, [r3, #8]
 9000 0a1e AFE0     		b	.L1109
 9001              	.L1110:
 667:../Drivers/STM32F4xx_HAL_Driver/Src/stm32f4xx_hal_dma.c **** 
 9002              		.loc 1 667 0 discriminator 52
 9003 0a20 524A     		ldr	r2, .L1778+16
 9004 0a22 9342     		cmp	r3, r2
 9005 0a24 4FD9     		bls	.L1113
 667:../Drivers/STM32F4xx_HAL_Driver/Src/stm32f4xx_hal_dma.c **** 
 9006              		.loc 1 667 0 discriminator 102
 9007 0a26 483A     		subs	r2, r2, #72
 9008 0a28 9342     		cmp	r3, r2
 9009 0a2a 2ED0     		beq	.L1363
 667:../Drivers/STM32F4xx_HAL_Driver/Src/stm32f4xx_hal_dma.c **** 
 9010              		.loc 1 667 0 discriminator 104
 9011 0a2c 02F58062 		add	r2, r2, #1024
 9012 0a30 9342     		cmp	r3, r2
 9013 0a32 2CD0     		beq	.L1364
 667:../Drivers/STM32F4xx_HAL_Driver/Src/stm32f4xx_hal_dma.c **** 
 9014              		.loc 1 667 0 discriminator 106
 9015 0a34 A2F56872 		sub	r2, r2, #928
 9016 0a38 9342     		cmp	r3, r2
 9017 0a3a 2AD0     		beq	.L1365
ARM GAS  /tmp/ccIvKYQX.s 			page 199


 667:../Drivers/STM32F4xx_HAL_Driver/Src/stm32f4xx_hal_dma.c **** 
 9018              		.loc 1 667 0 discriminator 108
 9019 0a3c 02F58062 		add	r2, r2, #1024
 9020 0a40 9342     		cmp	r3, r2
 9021 0a42 28D0     		beq	.L1366
 667:../Drivers/STM32F4xx_HAL_Driver/Src/stm32f4xx_hal_dma.c **** 
 9022              		.loc 1 667 0 discriminator 110
 9023 0a44 A2F58962 		sub	r2, r2, #1096
 9024 0a48 9342     		cmp	r3, r2
 9025 0a4a 26D0     		beq	.L1367
 667:../Drivers/STM32F4xx_HAL_Driver/Src/stm32f4xx_hal_dma.c **** 
 9026              		.loc 1 667 0 discriminator 112
 9027 0a4c 02F58062 		add	r2, r2, #1024
 9028 0a50 9342     		cmp	r3, r2
 9029 0a52 24D0     		beq	.L1368
 667:../Drivers/STM32F4xx_HAL_Driver/Src/stm32f4xx_hal_dma.c **** 
 9030              		.loc 1 667 0 discriminator 114
 9031 0a54 A2F56872 		sub	r2, r2, #928
 9032 0a58 9342     		cmp	r3, r2
 9033 0a5a 22D0     		beq	.L1369
 667:../Drivers/STM32F4xx_HAL_Driver/Src/stm32f4xx_hal_dma.c **** 
 9034              		.loc 1 667 0 discriminator 116
 9035 0a5c 02F58062 		add	r2, r2, #1024
 9036 0a60 9342     		cmp	r3, r2
 9037 0a62 20D0     		beq	.L1370
 667:../Drivers/STM32F4xx_HAL_Driver/Src/stm32f4xx_hal_dma.c **** 
 9038              		.loc 1 667 0 discriminator 118
 9039 0a64 A2F58962 		sub	r2, r2, #1096
 9040 0a68 9342     		cmp	r3, r2
 9041 0a6a 1ED0     		beq	.L1371
 667:../Drivers/STM32F4xx_HAL_Driver/Src/stm32f4xx_hal_dma.c **** 
 9042              		.loc 1 667 0 discriminator 120
 9043 0a6c 02F58062 		add	r2, r2, #1024
 9044 0a70 9342     		cmp	r3, r2
 9045 0a72 1DD0     		beq	.L1372
 667:../Drivers/STM32F4xx_HAL_Driver/Src/stm32f4xx_hal_dma.c **** 
 9046              		.loc 1 667 0 discriminator 122
 9047 0a74 A2F56872 		sub	r2, r2, #928
 9048 0a78 9342     		cmp	r3, r2
 9049 0a7a 1CD0     		beq	.L1373
 667:../Drivers/STM32F4xx_HAL_Driver/Src/stm32f4xx_hal_dma.c **** 
 9050              		.loc 1 667 0 discriminator 124
 9051 0a7c 02F58062 		add	r2, r2, #1024
 9052 0a80 9342     		cmp	r3, r2
 9053 0a82 1BD1     		bne	.L1374
 667:../Drivers/STM32F4xx_HAL_Driver/Src/stm32f4xx_hal_dma.c **** 
 9054              		.loc 1 667 0
 9055 0a84 4FF48032 		mov	r2, #65536
 9056 0a88 1AE0     		b	.L1114
 9057              	.L1363:
 9058 0a8a 354A     		ldr	r2, .L1778+4
 9059 0a8c 18E0     		b	.L1114
 9060              	.L1364:
 9061 0a8e 344A     		ldr	r2, .L1778+4
 9062 0a90 16E0     		b	.L1114
 9063              	.L1365:
 9064 0a92 334A     		ldr	r2, .L1778+4
ARM GAS  /tmp/ccIvKYQX.s 			page 200


 9065 0a94 14E0     		b	.L1114
 9066              	.L1366:
 9067 0a96 324A     		ldr	r2, .L1778+4
 9068 0a98 12E0     		b	.L1114
 9069              	.L1367:
 9070 0a9a 4022     		movs	r2, #64
 9071 0a9c 10E0     		b	.L1114
 9072              	.L1368:
 9073 0a9e 4022     		movs	r2, #64
 9074 0aa0 0EE0     		b	.L1114
 9075              	.L1369:
 9076 0aa2 4022     		movs	r2, #64
 9077 0aa4 0CE0     		b	.L1114
 9078              	.L1370:
 9079 0aa6 4022     		movs	r2, #64
 9080 0aa8 0AE0     		b	.L1114
 9081              	.L1371:
 9082 0aaa 4FF48032 		mov	r2, #65536
 9083 0aae 07E0     		b	.L1114
 9084              	.L1372:
 9085 0ab0 4FF48032 		mov	r2, #65536
 9086 0ab4 04E0     		b	.L1114
 9087              	.L1373:
 9088 0ab6 4FF48032 		mov	r2, #65536
 9089 0aba 01E0     		b	.L1114
 9090              	.L1374:
 9091 0abc 4FF48002 		mov	r2, #4194304
 9092              	.L1114:
 667:../Drivers/STM32F4xx_HAL_Driver/Src/stm32f4xx_hal_dma.c **** 
 9093              		.loc 1 667 0 discriminator 151
 9094 0ac0 2B4B     		ldr	r3, .L1778+20
 9095 0ac2 DA60     		str	r2, [r3, #12]
 9096 0ac4 5CE0     		b	.L1109
 9097              	.L1113:
 667:../Drivers/STM32F4xx_HAL_Driver/Src/stm32f4xx_hal_dma.c **** 
 9098              		.loc 1 667 0 discriminator 103
 9099 0ac6 2B4A     		ldr	r2, .L1778+24
 9100 0ac8 9342     		cmp	r3, r2
 9101 0aca 2ED0     		beq	.L1375
 667:../Drivers/STM32F4xx_HAL_Driver/Src/stm32f4xx_hal_dma.c **** 
 9102              		.loc 1 667 0 discriminator 153
 9103 0acc 02F58062 		add	r2, r2, #1024
 9104 0ad0 9342     		cmp	r3, r2
 9105 0ad2 2CD0     		beq	.L1376
 667:../Drivers/STM32F4xx_HAL_Driver/Src/stm32f4xx_hal_dma.c **** 
 9106              		.loc 1 667 0 discriminator 155
 9107 0ad4 A2F56872 		sub	r2, r2, #928
 9108 0ad8 9342     		cmp	r3, r2
 9109 0ada 2AD0     		beq	.L1377
 667:../Drivers/STM32F4xx_HAL_Driver/Src/stm32f4xx_hal_dma.c **** 
 9110              		.loc 1 667 0 discriminator 157
 9111 0adc 02F58062 		add	r2, r2, #1024
 9112 0ae0 9342     		cmp	r3, r2
 9113 0ae2 28D0     		beq	.L1378
 667:../Drivers/STM32F4xx_HAL_Driver/Src/stm32f4xx_hal_dma.c **** 
 9114              		.loc 1 667 0 discriminator 159
 9115 0ae4 A2F58962 		sub	r2, r2, #1096
ARM GAS  /tmp/ccIvKYQX.s 			page 201


 9116 0ae8 9342     		cmp	r3, r2
 9117 0aea 26D0     		beq	.L1379
 667:../Drivers/STM32F4xx_HAL_Driver/Src/stm32f4xx_hal_dma.c **** 
 9118              		.loc 1 667 0 discriminator 161
 9119 0aec 02F58062 		add	r2, r2, #1024
 9120 0af0 9342     		cmp	r3, r2
 9121 0af2 24D0     		beq	.L1380
 667:../Drivers/STM32F4xx_HAL_Driver/Src/stm32f4xx_hal_dma.c **** 
 9122              		.loc 1 667 0 discriminator 163
 9123 0af4 A2F56872 		sub	r2, r2, #928
 9124 0af8 9342     		cmp	r3, r2
 9125 0afa 22D0     		beq	.L1381
 667:../Drivers/STM32F4xx_HAL_Driver/Src/stm32f4xx_hal_dma.c **** 
 9126              		.loc 1 667 0 discriminator 165
 9127 0afc 02F58062 		add	r2, r2, #1024
 9128 0b00 9342     		cmp	r3, r2
 9129 0b02 20D0     		beq	.L1382
 667:../Drivers/STM32F4xx_HAL_Driver/Src/stm32f4xx_hal_dma.c **** 
 9130              		.loc 1 667 0 discriminator 167
 9131 0b04 A2F58962 		sub	r2, r2, #1096
 9132 0b08 9342     		cmp	r3, r2
 9133 0b0a 1ED0     		beq	.L1383
 667:../Drivers/STM32F4xx_HAL_Driver/Src/stm32f4xx_hal_dma.c **** 
 9134              		.loc 1 667 0 discriminator 169
 9135 0b0c 02F58062 		add	r2, r2, #1024
 9136 0b10 9342     		cmp	r3, r2
 9137 0b12 1DD0     		beq	.L1384
 667:../Drivers/STM32F4xx_HAL_Driver/Src/stm32f4xx_hal_dma.c **** 
 9138              		.loc 1 667 0 discriminator 171
 9139 0b14 A2F56872 		sub	r2, r2, #928
 9140 0b18 9342     		cmp	r3, r2
 9141 0b1a 1CD0     		beq	.L1385
 667:../Drivers/STM32F4xx_HAL_Driver/Src/stm32f4xx_hal_dma.c **** 
 9142              		.loc 1 667 0 discriminator 173
 9143 0b1c 02F58062 		add	r2, r2, #1024
 9144 0b20 9342     		cmp	r3, r2
 9145 0b22 29D1     		bne	.L1386
 667:../Drivers/STM32F4xx_HAL_Driver/Src/stm32f4xx_hal_dma.c **** 
 9146              		.loc 1 667 0
 9147 0b24 4FF48032 		mov	r2, #65536
 9148 0b28 28E0     		b	.L1115
 9149              	.L1375:
 9150 0b2a 0D4A     		ldr	r2, .L1778+4
 9151 0b2c 26E0     		b	.L1115
 9152              	.L1376:
 9153 0b2e 0C4A     		ldr	r2, .L1778+4
 9154 0b30 24E0     		b	.L1115
 9155              	.L1377:
 9156 0b32 0B4A     		ldr	r2, .L1778+4
 9157 0b34 22E0     		b	.L1115
 9158              	.L1378:
 9159 0b36 0A4A     		ldr	r2, .L1778+4
 9160 0b38 20E0     		b	.L1115
 9161              	.L1379:
 9162 0b3a 4022     		movs	r2, #64
 9163 0b3c 1EE0     		b	.L1115
 9164              	.L1380:
ARM GAS  /tmp/ccIvKYQX.s 			page 202


 9165 0b3e 4022     		movs	r2, #64
 9166 0b40 1CE0     		b	.L1115
 9167              	.L1381:
 9168 0b42 4022     		movs	r2, #64
 9169 0b44 1AE0     		b	.L1115
 9170              	.L1382:
 9171 0b46 4022     		movs	r2, #64
 9172 0b48 18E0     		b	.L1115
 9173              	.L1383:
 9174 0b4a 4FF48032 		mov	r2, #65536
 9175 0b4e 15E0     		b	.L1115
 9176              	.L1384:
 9177 0b50 4FF48032 		mov	r2, #65536
 9178 0b54 12E0     		b	.L1115
 9179              	.L1385:
 9180 0b56 4FF48032 		mov	r2, #65536
 9181 0b5a 0FE0     		b	.L1115
 9182              	.L1779:
 9183              		.align	2
 9184              	.L1778:
 9185 0b5c 58640240 		.word	1073898584
 9186 0b60 01008000 		.word	8388609
 9187 0b64 00640240 		.word	1073898496
 9188 0b68 B8600240 		.word	1073897656
 9189 0b6c 58600240 		.word	1073897560
 9190 0b70 00600240 		.word	1073897472
 9191 0b74 10600240 		.word	1073897488
 9192              	.L1386:
 9193 0b78 4FF48002 		mov	r2, #4194304
 9194              	.L1115:
 667:../Drivers/STM32F4xx_HAL_Driver/Src/stm32f4xx_hal_dma.c **** 
 9195              		.loc 1 667 0 discriminator 200
 9196 0b7c B34B     		ldr	r3, .L1780
 9197 0b7e 9A60     		str	r2, [r3, #8]
 9198              	.L1109:
 670:../Drivers/STM32F4xx_HAL_Driver/Src/stm32f4xx_hal_dma.c **** 
 9199              		.loc 1 670 0 is_stmt 1
 9200 0b80 E36C     		ldr	r3, [r4, #76]
 9201 0b82 43F00203 		orr	r3, r3, #2
 9202 0b86 E364     		str	r3, [r4, #76]
 673:../Drivers/STM32F4xx_HAL_Driver/Src/stm32f4xx_hal_dma.c **** 
 9203              		.loc 1 673 0
 9204 0b88 0423     		movs	r3, #4
 9205 0b8a 84F83530 		strb	r3, [r4, #53]
 676:../Drivers/STM32F4xx_HAL_Driver/Src/stm32f4xx_hal_dma.c **** 
 9206              		.loc 1 676 0
 9207 0b8e 0023     		movs	r3, #0
 9208 0b90 84F83430 		strb	r3, [r4, #52]
 678:../Drivers/STM32F4xx_HAL_Driver/Src/stm32f4xx_hal_dma.c ****       {
 9209              		.loc 1 678 0
 9210 0b94 A36C     		ldr	r3, [r4, #72]
 9211 0b96 0BB1     		cbz	r3, .L1106
 681:../Drivers/STM32F4xx_HAL_Driver/Src/stm32f4xx_hal_dma.c ****       }
 9212              		.loc 1 681 0
 9213 0b98 2046     		mov	r0, r4
 9214 0b9a 9847     		blx	r3
 9215              	.LVL68:
ARM GAS  /tmp/ccIvKYQX.s 			page 203


 9216              	.L1106:
 686:../Drivers/STM32F4xx_HAL_Driver/Src/stm32f4xx_hal_dma.c ****   {
 9217              		.loc 1 686 0
 9218 0b9c 2368     		ldr	r3, [r4]
 9219 0b9e AC4A     		ldr	r2, .L1780+4
 9220 0ba0 9342     		cmp	r3, r2
 9221 0ba2 57D9     		bls	.L1116
 686:../Drivers/STM32F4xx_HAL_Driver/Src/stm32f4xx_hal_dma.c ****   {
 9222              		.loc 1 686 0 is_stmt 0 discriminator 1
 9223 0ba4 583A     		subs	r2, r2, #88
 9224 0ba6 5268     		ldr	r2, [r2, #4]
 9225 0ba8 AA49     		ldr	r1, .L1780+8
 9226 0baa 8B42     		cmp	r3, r1
 9227 0bac 2ED0     		beq	.L1387
 686:../Drivers/STM32F4xx_HAL_Driver/Src/stm32f4xx_hal_dma.c ****   {
 9228              		.loc 1 686 0 discriminator 3
 9229 0bae 01F58061 		add	r1, r1, #1024
 9230 0bb2 8B42     		cmp	r3, r1
 9231 0bb4 2CD0     		beq	.L1388
 686:../Drivers/STM32F4xx_HAL_Driver/Src/stm32f4xx_hal_dma.c ****   {
 9232              		.loc 1 686 0 discriminator 5
 9233 0bb6 A1F56871 		sub	r1, r1, #928
 9234 0bba 8B42     		cmp	r3, r1
 9235 0bbc 2AD0     		beq	.L1389
 686:../Drivers/STM32F4xx_HAL_Driver/Src/stm32f4xx_hal_dma.c ****   {
 9236              		.loc 1 686 0 discriminator 7
 9237 0bbe 01F58061 		add	r1, r1, #1024
 9238 0bc2 8B42     		cmp	r3, r1
 9239 0bc4 28D0     		beq	.L1390
 686:../Drivers/STM32F4xx_HAL_Driver/Src/stm32f4xx_hal_dma.c ****   {
 9240              		.loc 1 686 0 discriminator 9
 9241 0bc6 A1F58961 		sub	r1, r1, #1096
 9242 0bca 8B42     		cmp	r3, r1
 9243 0bcc 26D0     		beq	.L1391
 686:../Drivers/STM32F4xx_HAL_Driver/Src/stm32f4xx_hal_dma.c ****   {
 9244              		.loc 1 686 0 discriminator 11
 9245 0bce 01F58061 		add	r1, r1, #1024
 9246 0bd2 8B42     		cmp	r3, r1
 9247 0bd4 25D0     		beq	.L1392
 686:../Drivers/STM32F4xx_HAL_Driver/Src/stm32f4xx_hal_dma.c ****   {
 9248              		.loc 1 686 0 discriminator 13
 9249 0bd6 A1F56871 		sub	r1, r1, #928
 9250 0bda 8B42     		cmp	r3, r1
 9251 0bdc 24D0     		beq	.L1393
 686:../Drivers/STM32F4xx_HAL_Driver/Src/stm32f4xx_hal_dma.c ****   {
 9252              		.loc 1 686 0 discriminator 15
 9253 0bde 01F58061 		add	r1, r1, #1024
 9254 0be2 8B42     		cmp	r3, r1
 9255 0be4 23D0     		beq	.L1394
 686:../Drivers/STM32F4xx_HAL_Driver/Src/stm32f4xx_hal_dma.c ****   {
 9256              		.loc 1 686 0 discriminator 17
 9257 0be6 A1F58961 		sub	r1, r1, #1096
 9258 0bea 8B42     		cmp	r3, r1
 9259 0bec 22D0     		beq	.L1395
 686:../Drivers/STM32F4xx_HAL_Driver/Src/stm32f4xx_hal_dma.c ****   {
 9260              		.loc 1 686 0 discriminator 19
 9261 0bee 01F58061 		add	r1, r1, #1024
ARM GAS  /tmp/ccIvKYQX.s 			page 204


 9262 0bf2 8B42     		cmp	r3, r1
 9263 0bf4 21D0     		beq	.L1396
 686:../Drivers/STM32F4xx_HAL_Driver/Src/stm32f4xx_hal_dma.c ****   {
 9264              		.loc 1 686 0 discriminator 21
 9265 0bf6 A1F56871 		sub	r1, r1, #928
 9266 0bfa 8B42     		cmp	r3, r1
 9267 0bfc 20D0     		beq	.L1397
 686:../Drivers/STM32F4xx_HAL_Driver/Src/stm32f4xx_hal_dma.c ****   {
 9268              		.loc 1 686 0 discriminator 23
 9269 0bfe 01F58061 		add	r1, r1, #1024
 9270 0c02 8B42     		cmp	r3, r1
 9271 0c04 1FD1     		bne	.L1398
 686:../Drivers/STM32F4xx_HAL_Driver/Src/stm32f4xx_hal_dma.c ****   {
 9272              		.loc 1 686 0
 9273 0c06 4FF48021 		mov	r1, #262144
 9274 0c0a 1EE0     		b	.L1117
 9275              	.L1387:
 9276 0c0c 9249     		ldr	r1, .L1780+12
 9277 0c0e 1CE0     		b	.L1117
 9278              	.L1388:
 9279 0c10 9149     		ldr	r1, .L1780+12
 9280 0c12 1AE0     		b	.L1117
 9281              	.L1389:
 9282 0c14 9049     		ldr	r1, .L1780+12
 9283 0c16 18E0     		b	.L1117
 9284              	.L1390:
 9285 0c18 8F49     		ldr	r1, .L1780+12
 9286 0c1a 16E0     		b	.L1117
 9287              	.L1391:
 9288 0c1c 4FF48071 		mov	r1, #256
 9289 0c20 13E0     		b	.L1117
 9290              	.L1392:
 9291 0c22 4FF48071 		mov	r1, #256
 9292 0c26 10E0     		b	.L1117
 9293              	.L1393:
 9294 0c28 4FF48071 		mov	r1, #256
 9295 0c2c 0DE0     		b	.L1117
 9296              	.L1394:
 9297 0c2e 4FF48071 		mov	r1, #256
 9298 0c32 0AE0     		b	.L1117
 9299              	.L1395:
 9300 0c34 4FF48021 		mov	r1, #262144
 9301 0c38 07E0     		b	.L1117
 9302              	.L1396:
 9303 0c3a 4FF48021 		mov	r1, #262144
 9304 0c3e 04E0     		b	.L1117
 9305              	.L1397:
 9306 0c40 4FF48021 		mov	r1, #262144
 9307 0c44 01E0     		b	.L1117
 9308              	.L1398:
 9309 0c46 4FF08071 		mov	r1, #16777216
 9310              	.L1117:
 686:../Drivers/STM32F4xx_HAL_Driver/Src/stm32f4xx_hal_dma.c ****   {
 9311              		.loc 1 686 0 discriminator 50
 9312 0c4a 1142     		tst	r1, r2
 9313 0c4c 14BF     		ite	ne
 9314 0c4e 0122     		movne	r2, #1
ARM GAS  /tmp/ccIvKYQX.s 			page 205


 9315 0c50 0022     		moveq	r2, #0
 9316 0c52 19E1     		b	.L1118
 9317              	.L1116:
 686:../Drivers/STM32F4xx_HAL_Driver/Src/stm32f4xx_hal_dma.c ****   {
 9318              		.loc 1 686 0 discriminator 2
 9319 0c54 814A     		ldr	r2, .L1780+16
 9320 0c56 9342     		cmp	r3, r2
 9321 0c58 58D9     		bls	.L1119
 686:../Drivers/STM32F4xx_HAL_Driver/Src/stm32f4xx_hal_dma.c ****   {
 9322              		.loc 1 686 0 discriminator 52
 9323 0c5a 02F55272 		add	r2, r2, #840
 9324 0c5e 1268     		ldr	r2, [r2]
 9325 0c60 7C49     		ldr	r1, .L1780+8
 9326 0c62 8B42     		cmp	r3, r1
 9327 0c64 2ED0     		beq	.L1399
 686:../Drivers/STM32F4xx_HAL_Driver/Src/stm32f4xx_hal_dma.c ****   {
 9328              		.loc 1 686 0 discriminator 54
 9329 0c66 01F58061 		add	r1, r1, #1024
 9330 0c6a 8B42     		cmp	r3, r1
 9331 0c6c 2CD0     		beq	.L1400
 686:../Drivers/STM32F4xx_HAL_Driver/Src/stm32f4xx_hal_dma.c ****   {
 9332              		.loc 1 686 0 discriminator 56
 9333 0c6e A1F56871 		sub	r1, r1, #928
 9334 0c72 8B42     		cmp	r3, r1
 9335 0c74 2AD0     		beq	.L1401
 686:../Drivers/STM32F4xx_HAL_Driver/Src/stm32f4xx_hal_dma.c ****   {
 9336              		.loc 1 686 0 discriminator 58
 9337 0c76 01F58061 		add	r1, r1, #1024
 9338 0c7a 8B42     		cmp	r3, r1
 9339 0c7c 28D0     		beq	.L1402
 686:../Drivers/STM32F4xx_HAL_Driver/Src/stm32f4xx_hal_dma.c ****   {
 9340              		.loc 1 686 0 discriminator 60
 9341 0c7e A1F58961 		sub	r1, r1, #1096
 9342 0c82 8B42     		cmp	r3, r1
 9343 0c84 26D0     		beq	.L1403
 686:../Drivers/STM32F4xx_HAL_Driver/Src/stm32f4xx_hal_dma.c ****   {
 9344              		.loc 1 686 0 discriminator 62
 9345 0c86 01F58061 		add	r1, r1, #1024
 9346 0c8a 8B42     		cmp	r3, r1
 9347 0c8c 25D0     		beq	.L1404
 686:../Drivers/STM32F4xx_HAL_Driver/Src/stm32f4xx_hal_dma.c ****   {
 9348              		.loc 1 686 0 discriminator 64
 9349 0c8e A1F56871 		sub	r1, r1, #928
 9350 0c92 8B42     		cmp	r3, r1
 9351 0c94 24D0     		beq	.L1405
 686:../Drivers/STM32F4xx_HAL_Driver/Src/stm32f4xx_hal_dma.c ****   {
 9352              		.loc 1 686 0 discriminator 66
 9353 0c96 01F58061 		add	r1, r1, #1024
 9354 0c9a 8B42     		cmp	r3, r1
 9355 0c9c 23D0     		beq	.L1406
 686:../Drivers/STM32F4xx_HAL_Driver/Src/stm32f4xx_hal_dma.c ****   {
 9356              		.loc 1 686 0 discriminator 68
 9357 0c9e A1F58961 		sub	r1, r1, #1096
 9358 0ca2 8B42     		cmp	r3, r1
 9359 0ca4 22D0     		beq	.L1407
 686:../Drivers/STM32F4xx_HAL_Driver/Src/stm32f4xx_hal_dma.c ****   {
 9360              		.loc 1 686 0 discriminator 70
ARM GAS  /tmp/ccIvKYQX.s 			page 206


 9361 0ca6 01F58061 		add	r1, r1, #1024
 9362 0caa 8B42     		cmp	r3, r1
 9363 0cac 21D0     		beq	.L1408
 686:../Drivers/STM32F4xx_HAL_Driver/Src/stm32f4xx_hal_dma.c ****   {
 9364              		.loc 1 686 0 discriminator 72
 9365 0cae A1F56871 		sub	r1, r1, #928
 9366 0cb2 8B42     		cmp	r3, r1
 9367 0cb4 20D0     		beq	.L1409
 686:../Drivers/STM32F4xx_HAL_Driver/Src/stm32f4xx_hal_dma.c ****   {
 9368              		.loc 1 686 0 discriminator 74
 9369 0cb6 01F58061 		add	r1, r1, #1024
 9370 0cba 8B42     		cmp	r3, r1
 9371 0cbc 1FD1     		bne	.L1410
 686:../Drivers/STM32F4xx_HAL_Driver/Src/stm32f4xx_hal_dma.c ****   {
 9372              		.loc 1 686 0
 9373 0cbe 4FF48021 		mov	r1, #262144
 9374 0cc2 1EE0     		b	.L1120
 9375              	.L1399:
 9376 0cc4 6449     		ldr	r1, .L1780+12
 9377 0cc6 1CE0     		b	.L1120
 9378              	.L1400:
 9379 0cc8 6349     		ldr	r1, .L1780+12
 9380 0cca 1AE0     		b	.L1120
 9381              	.L1401:
 9382 0ccc 6249     		ldr	r1, .L1780+12
 9383 0cce 18E0     		b	.L1120
 9384              	.L1402:
 9385 0cd0 6149     		ldr	r1, .L1780+12
 9386 0cd2 16E0     		b	.L1120
 9387              	.L1403:
 9388 0cd4 4FF48071 		mov	r1, #256
 9389 0cd8 13E0     		b	.L1120
 9390              	.L1404:
 9391 0cda 4FF48071 		mov	r1, #256
 9392 0cde 10E0     		b	.L1120
 9393              	.L1405:
 9394 0ce0 4FF48071 		mov	r1, #256
 9395 0ce4 0DE0     		b	.L1120
 9396              	.L1406:
 9397 0ce6 4FF48071 		mov	r1, #256
 9398 0cea 0AE0     		b	.L1120
 9399              	.L1407:
 9400 0cec 4FF48021 		mov	r1, #262144
 9401 0cf0 07E0     		b	.L1120
 9402              	.L1408:
 9403 0cf2 4FF48021 		mov	r1, #262144
 9404 0cf6 04E0     		b	.L1120
 9405              	.L1409:
 9406 0cf8 4FF48021 		mov	r1, #262144
 9407 0cfc 01E0     		b	.L1120
 9408              	.L1410:
 9409 0cfe 4FF08071 		mov	r1, #16777216
 9410              	.L1120:
 686:../Drivers/STM32F4xx_HAL_Driver/Src/stm32f4xx_hal_dma.c ****   {
 9411              		.loc 1 686 0 discriminator 101
 9412 0d02 1142     		tst	r1, r2
 9413 0d04 14BF     		ite	ne
ARM GAS  /tmp/ccIvKYQX.s 			page 207


 9414 0d06 0122     		movne	r2, #1
 9415 0d08 0022     		moveq	r2, #0
 9416 0d0a BDE0     		b	.L1118
 9417              	.L1119:
 686:../Drivers/STM32F4xx_HAL_Driver/Src/stm32f4xx_hal_dma.c ****   {
 9418              		.loc 1 686 0 discriminator 53
 9419 0d0c 544A     		ldr	r2, .L1780+20
 9420 0d0e 9342     		cmp	r3, r2
 9421 0d10 57D9     		bls	.L1121
 686:../Drivers/STM32F4xx_HAL_Driver/Src/stm32f4xx_hal_dma.c ****   {
 9422              		.loc 1 686 0 discriminator 103
 9423 0d12 583A     		subs	r2, r2, #88
 9424 0d14 5268     		ldr	r2, [r2, #4]
 9425 0d16 4F49     		ldr	r1, .L1780+8
 9426 0d18 8B42     		cmp	r3, r1
 9427 0d1a 2ED0     		beq	.L1411
 686:../Drivers/STM32F4xx_HAL_Driver/Src/stm32f4xx_hal_dma.c ****   {
 9428              		.loc 1 686 0 discriminator 105
 9429 0d1c 01F58061 		add	r1, r1, #1024
 9430 0d20 8B42     		cmp	r3, r1
 9431 0d22 2CD0     		beq	.L1412
 686:../Drivers/STM32F4xx_HAL_Driver/Src/stm32f4xx_hal_dma.c ****   {
 9432              		.loc 1 686 0 discriminator 107
 9433 0d24 A1F56871 		sub	r1, r1, #928
 9434 0d28 8B42     		cmp	r3, r1
 9435 0d2a 2AD0     		beq	.L1413
 686:../Drivers/STM32F4xx_HAL_Driver/Src/stm32f4xx_hal_dma.c ****   {
 9436              		.loc 1 686 0 discriminator 109
 9437 0d2c 01F58061 		add	r1, r1, #1024
 9438 0d30 8B42     		cmp	r3, r1
 9439 0d32 28D0     		beq	.L1414
 686:../Drivers/STM32F4xx_HAL_Driver/Src/stm32f4xx_hal_dma.c ****   {
 9440              		.loc 1 686 0 discriminator 111
 9441 0d34 A1F58961 		sub	r1, r1, #1096
 9442 0d38 8B42     		cmp	r3, r1
 9443 0d3a 26D0     		beq	.L1415
 686:../Drivers/STM32F4xx_HAL_Driver/Src/stm32f4xx_hal_dma.c ****   {
 9444              		.loc 1 686 0 discriminator 113
 9445 0d3c 01F58061 		add	r1, r1, #1024
 9446 0d40 8B42     		cmp	r3, r1
 9447 0d42 25D0     		beq	.L1416
 686:../Drivers/STM32F4xx_HAL_Driver/Src/stm32f4xx_hal_dma.c ****   {
 9448              		.loc 1 686 0 discriminator 115
 9449 0d44 A1F56871 		sub	r1, r1, #928
 9450 0d48 8B42     		cmp	r3, r1
 9451 0d4a 24D0     		beq	.L1417
 686:../Drivers/STM32F4xx_HAL_Driver/Src/stm32f4xx_hal_dma.c ****   {
 9452              		.loc 1 686 0 discriminator 117
 9453 0d4c 01F58061 		add	r1, r1, #1024
 9454 0d50 8B42     		cmp	r3, r1
 9455 0d52 23D0     		beq	.L1418
 686:../Drivers/STM32F4xx_HAL_Driver/Src/stm32f4xx_hal_dma.c ****   {
 9456              		.loc 1 686 0 discriminator 119
 9457 0d54 A1F58961 		sub	r1, r1, #1096
 9458 0d58 8B42     		cmp	r3, r1
 9459 0d5a 22D0     		beq	.L1419
 686:../Drivers/STM32F4xx_HAL_Driver/Src/stm32f4xx_hal_dma.c ****   {
ARM GAS  /tmp/ccIvKYQX.s 			page 208


 9460              		.loc 1 686 0 discriminator 121
 9461 0d5c 01F58061 		add	r1, r1, #1024
 9462 0d60 8B42     		cmp	r3, r1
 9463 0d62 21D0     		beq	.L1420
 686:../Drivers/STM32F4xx_HAL_Driver/Src/stm32f4xx_hal_dma.c ****   {
 9464              		.loc 1 686 0 discriminator 123
 9465 0d64 A1F56871 		sub	r1, r1, #928
 9466 0d68 8B42     		cmp	r3, r1
 9467 0d6a 20D0     		beq	.L1421
 686:../Drivers/STM32F4xx_HAL_Driver/Src/stm32f4xx_hal_dma.c ****   {
 9468              		.loc 1 686 0 discriminator 125
 9469 0d6c 01F58061 		add	r1, r1, #1024
 9470 0d70 8B42     		cmp	r3, r1
 9471 0d72 1FD1     		bne	.L1422
 686:../Drivers/STM32F4xx_HAL_Driver/Src/stm32f4xx_hal_dma.c ****   {
 9472              		.loc 1 686 0
 9473 0d74 4FF48021 		mov	r1, #262144
 9474 0d78 1EE0     		b	.L1122
 9475              	.L1411:
 9476 0d7a 3749     		ldr	r1, .L1780+12
 9477 0d7c 1CE0     		b	.L1122
 9478              	.L1412:
 9479 0d7e 3649     		ldr	r1, .L1780+12
 9480 0d80 1AE0     		b	.L1122
 9481              	.L1413:
 9482 0d82 3549     		ldr	r1, .L1780+12
 9483 0d84 18E0     		b	.L1122
 9484              	.L1414:
 9485 0d86 3449     		ldr	r1, .L1780+12
 9486 0d88 16E0     		b	.L1122
 9487              	.L1415:
 9488 0d8a 4FF48071 		mov	r1, #256
 9489 0d8e 13E0     		b	.L1122
 9490              	.L1416:
 9491 0d90 4FF48071 		mov	r1, #256
 9492 0d94 10E0     		b	.L1122
 9493              	.L1417:
 9494 0d96 4FF48071 		mov	r1, #256
 9495 0d9a 0DE0     		b	.L1122
 9496              	.L1418:
 9497 0d9c 4FF48071 		mov	r1, #256
 9498 0da0 0AE0     		b	.L1122
 9499              	.L1419:
 9500 0da2 4FF48021 		mov	r1, #262144
 9501 0da6 07E0     		b	.L1122
 9502              	.L1420:
 9503 0da8 4FF48021 		mov	r1, #262144
 9504 0dac 04E0     		b	.L1122
 9505              	.L1421:
 9506 0dae 4FF48021 		mov	r1, #262144
 9507 0db2 01E0     		b	.L1122
 9508              	.L1422:
 9509 0db4 4FF08071 		mov	r1, #16777216
 9510              	.L1122:
 686:../Drivers/STM32F4xx_HAL_Driver/Src/stm32f4xx_hal_dma.c ****   {
 9511              		.loc 1 686 0 discriminator 152
 9512 0db8 1142     		tst	r1, r2
ARM GAS  /tmp/ccIvKYQX.s 			page 209


 9513 0dba 14BF     		ite	ne
 9514 0dbc 0122     		movne	r2, #1
 9515 0dbe 0022     		moveq	r2, #0
 9516 0dc0 62E0     		b	.L1118
 9517              	.L1121:
 686:../Drivers/STM32F4xx_HAL_Driver/Src/stm32f4xx_hal_dma.c ****   {
 9518              		.loc 1 686 0 discriminator 104
 9519 0dc2 224A     		ldr	r2, .L1780
 9520 0dc4 1268     		ldr	r2, [r2]
 9521 0dc6 2349     		ldr	r1, .L1780+8
 9522 0dc8 8B42     		cmp	r3, r1
 9523 0dca 2ED0     		beq	.L1423
 686:../Drivers/STM32F4xx_HAL_Driver/Src/stm32f4xx_hal_dma.c ****   {
 9524              		.loc 1 686 0 discriminator 154
 9525 0dcc 01F58061 		add	r1, r1, #1024
 9526 0dd0 8B42     		cmp	r3, r1
 9527 0dd2 2CD0     		beq	.L1424
 686:../Drivers/STM32F4xx_HAL_Driver/Src/stm32f4xx_hal_dma.c ****   {
 9528              		.loc 1 686 0 discriminator 156
 9529 0dd4 A1F56871 		sub	r1, r1, #928
 9530 0dd8 8B42     		cmp	r3, r1
 9531 0dda 2AD0     		beq	.L1425
 686:../Drivers/STM32F4xx_HAL_Driver/Src/stm32f4xx_hal_dma.c ****   {
 9532              		.loc 1 686 0 discriminator 158
 9533 0ddc 01F58061 		add	r1, r1, #1024
 9534 0de0 8B42     		cmp	r3, r1
 9535 0de2 28D0     		beq	.L1426
 686:../Drivers/STM32F4xx_HAL_Driver/Src/stm32f4xx_hal_dma.c ****   {
 9536              		.loc 1 686 0 discriminator 160
 9537 0de4 A1F58961 		sub	r1, r1, #1096
 9538 0de8 8B42     		cmp	r3, r1
 9539 0dea 26D0     		beq	.L1427
 686:../Drivers/STM32F4xx_HAL_Driver/Src/stm32f4xx_hal_dma.c ****   {
 9540              		.loc 1 686 0 discriminator 162
 9541 0dec 01F58061 		add	r1, r1, #1024
 9542 0df0 8B42     		cmp	r3, r1
 9543 0df2 25D0     		beq	.L1428
 686:../Drivers/STM32F4xx_HAL_Driver/Src/stm32f4xx_hal_dma.c ****   {
 9544              		.loc 1 686 0 discriminator 164
 9545 0df4 A1F56871 		sub	r1, r1, #928
 9546 0df8 8B42     		cmp	r3, r1
 9547 0dfa 24D0     		beq	.L1429
 686:../Drivers/STM32F4xx_HAL_Driver/Src/stm32f4xx_hal_dma.c ****   {
 9548              		.loc 1 686 0 discriminator 166
 9549 0dfc 01F58061 		add	r1, r1, #1024
 9550 0e00 8B42     		cmp	r3, r1
 9551 0e02 2FD0     		beq	.L1430
 686:../Drivers/STM32F4xx_HAL_Driver/Src/stm32f4xx_hal_dma.c ****   {
 9552              		.loc 1 686 0 discriminator 168
 9553 0e04 A1F58961 		sub	r1, r1, #1096
 9554 0e08 8B42     		cmp	r3, r1
 9555 0e0a 2ED0     		beq	.L1431
 686:../Drivers/STM32F4xx_HAL_Driver/Src/stm32f4xx_hal_dma.c ****   {
 9556              		.loc 1 686 0 discriminator 170
 9557 0e0c 01F58061 		add	r1, r1, #1024
 9558 0e10 8B42     		cmp	r3, r1
 9559 0e12 2DD0     		beq	.L1432
ARM GAS  /tmp/ccIvKYQX.s 			page 210


 686:../Drivers/STM32F4xx_HAL_Driver/Src/stm32f4xx_hal_dma.c ****   {
 9560              		.loc 1 686 0 discriminator 172
 9561 0e14 A1F56871 		sub	r1, r1, #928
 9562 0e18 8B42     		cmp	r3, r1
 9563 0e1a 2CD0     		beq	.L1433
 686:../Drivers/STM32F4xx_HAL_Driver/Src/stm32f4xx_hal_dma.c ****   {
 9564              		.loc 1 686 0 discriminator 174
 9565 0e1c 01F58061 		add	r1, r1, #1024
 9566 0e20 8B42     		cmp	r3, r1
 9567 0e22 2BD1     		bne	.L1434
 686:../Drivers/STM32F4xx_HAL_Driver/Src/stm32f4xx_hal_dma.c ****   {
 9568              		.loc 1 686 0
 9569 0e24 4FF48021 		mov	r1, #262144
 9570 0e28 2AE0     		b	.L1123
 9571              	.L1423:
 9572 0e2a 0B49     		ldr	r1, .L1780+12
 9573 0e2c 28E0     		b	.L1123
 9574              	.L1424:
 9575 0e2e 0A49     		ldr	r1, .L1780+12
 9576 0e30 26E0     		b	.L1123
 9577              	.L1425:
 9578 0e32 0949     		ldr	r1, .L1780+12
 9579 0e34 24E0     		b	.L1123
 9580              	.L1426:
 9581 0e36 0849     		ldr	r1, .L1780+12
 9582 0e38 22E0     		b	.L1123
 9583              	.L1427:
 9584 0e3a 4FF48071 		mov	r1, #256
 9585 0e3e 1FE0     		b	.L1123
 9586              	.L1428:
 9587 0e40 4FF48071 		mov	r1, #256
 9588 0e44 1CE0     		b	.L1123
 9589              	.L1429:
 9590 0e46 4FF48071 		mov	r1, #256
 9591 0e4a 19E0     		b	.L1123
 9592              	.L1781:
 9593              		.align	2
 9594              	.L1780:
 9595 0e4c 00600240 		.word	1073897472
 9596 0e50 58640240 		.word	1073898584
 9597 0e54 10600240 		.word	1073897488
 9598 0e58 04008000 		.word	8388612
 9599 0e5c B8600240 		.word	1073897656
 9600 0e60 58600240 		.word	1073897560
 9601              	.L1430:
 9602 0e64 4FF48071 		mov	r1, #256
 9603 0e68 0AE0     		b	.L1123
 9604              	.L1431:
 9605 0e6a 4FF48021 		mov	r1, #262144
 9606 0e6e 07E0     		b	.L1123
 9607              	.L1432:
 9608 0e70 4FF48021 		mov	r1, #262144
 9609 0e74 04E0     		b	.L1123
 9610              	.L1433:
 9611 0e76 4FF48021 		mov	r1, #262144
 9612 0e7a 01E0     		b	.L1123
 9613              	.L1434:
ARM GAS  /tmp/ccIvKYQX.s 			page 211


 9614 0e7c 4FF08071 		mov	r1, #16777216
 9615              	.L1123:
 686:../Drivers/STM32F4xx_HAL_Driver/Src/stm32f4xx_hal_dma.c ****   {
 9616              		.loc 1 686 0 discriminator 201
 9617 0e80 1142     		tst	r1, r2
 9618 0e82 14BF     		ite	ne
 9619 0e84 0122     		movne	r2, #1
 9620 0e86 0022     		moveq	r2, #0
 9621              	.L1118:
 686:../Drivers/STM32F4xx_HAL_Driver/Src/stm32f4xx_hal_dma.c ****   {
 9622              		.loc 1 686 0 discriminator 204
 9623 0e88 002A     		cmp	r2, #0
 9624 0e8a 00F07F81 		beq	.L1124
 688:../Drivers/STM32F4xx_HAL_Driver/Src/stm32f4xx_hal_dma.c ****     {
 9625              		.loc 1 688 0 is_stmt 1
 9626 0e8e 1A68     		ldr	r2, [r3]
 9627 0e90 12F0020F 		tst	r2, #2
 9628 0e94 00F07A81 		beq	.L1124
 691:../Drivers/STM32F4xx_HAL_Driver/Src/stm32f4xx_hal_dma.c **** 
 9629              		.loc 1 691 0
 9630 0e98 1A68     		ldr	r2, [r3]
 9631 0e9a 22F00202 		bic	r2, r2, #2
 9632 0e9e 1A60     		str	r2, [r3]
 694:../Drivers/STM32F4xx_HAL_Driver/Src/stm32f4xx_hal_dma.c **** 
 9633              		.loc 1 694 0
 9634 0ea0 2368     		ldr	r3, [r4]
 9635 0ea2 AA4A     		ldr	r2, .L1782
 9636 0ea4 9342     		cmp	r3, r2
 9637 0ea6 54D9     		bls	.L1125
 694:../Drivers/STM32F4xx_HAL_Driver/Src/stm32f4xx_hal_dma.c **** 
 9638              		.loc 1 694 0 is_stmt 0 discriminator 1
 9639 0ea8 A2F58962 		sub	r2, r2, #1096
 9640 0eac 9342     		cmp	r3, r2
 9641 0eae 2ED0     		beq	.L1435
 694:../Drivers/STM32F4xx_HAL_Driver/Src/stm32f4xx_hal_dma.c **** 
 9642              		.loc 1 694 0 discriminator 3
 9643 0eb0 02F58062 		add	r2, r2, #1024
 9644 0eb4 9342     		cmp	r3, r2
 9645 0eb6 2CD0     		beq	.L1436
 694:../Drivers/STM32F4xx_HAL_Driver/Src/stm32f4xx_hal_dma.c **** 
 9646              		.loc 1 694 0 discriminator 5
 9647 0eb8 A2F56872 		sub	r2, r2, #928
 9648 0ebc 9342     		cmp	r3, r2
 9649 0ebe 2AD0     		beq	.L1437
 694:../Drivers/STM32F4xx_HAL_Driver/Src/stm32f4xx_hal_dma.c **** 
 9650              		.loc 1 694 0 discriminator 7
 9651 0ec0 02F58062 		add	r2, r2, #1024
 9652 0ec4 9342     		cmp	r3, r2
 9653 0ec6 28D0     		beq	.L1438
 694:../Drivers/STM32F4xx_HAL_Driver/Src/stm32f4xx_hal_dma.c **** 
 9654              		.loc 1 694 0 discriminator 9
 9655 0ec8 A2F58962 		sub	r2, r2, #1096
 9656 0ecc 9342     		cmp	r3, r2
 9657 0ece 26D0     		beq	.L1439
 694:../Drivers/STM32F4xx_HAL_Driver/Src/stm32f4xx_hal_dma.c **** 
 9658              		.loc 1 694 0 discriminator 11
 9659 0ed0 02F58062 		add	r2, r2, #1024
ARM GAS  /tmp/ccIvKYQX.s 			page 212


 9660 0ed4 9342     		cmp	r3, r2
 9661 0ed6 25D0     		beq	.L1440
 694:../Drivers/STM32F4xx_HAL_Driver/Src/stm32f4xx_hal_dma.c **** 
 9662              		.loc 1 694 0 discriminator 13
 9663 0ed8 A2F56872 		sub	r2, r2, #928
 9664 0edc 9342     		cmp	r3, r2
 9665 0ede 24D0     		beq	.L1441
 694:../Drivers/STM32F4xx_HAL_Driver/Src/stm32f4xx_hal_dma.c **** 
 9666              		.loc 1 694 0 discriminator 15
 9667 0ee0 02F58062 		add	r2, r2, #1024
 9668 0ee4 9342     		cmp	r3, r2
 9669 0ee6 23D0     		beq	.L1442
 694:../Drivers/STM32F4xx_HAL_Driver/Src/stm32f4xx_hal_dma.c **** 
 9670              		.loc 1 694 0 discriminator 17
 9671 0ee8 A2F58962 		sub	r2, r2, #1096
 9672 0eec 9342     		cmp	r3, r2
 9673 0eee 22D0     		beq	.L1443
 694:../Drivers/STM32F4xx_HAL_Driver/Src/stm32f4xx_hal_dma.c **** 
 9674              		.loc 1 694 0 discriminator 19
 9675 0ef0 02F58062 		add	r2, r2, #1024
 9676 0ef4 9342     		cmp	r3, r2
 9677 0ef6 21D0     		beq	.L1444
 694:../Drivers/STM32F4xx_HAL_Driver/Src/stm32f4xx_hal_dma.c **** 
 9678              		.loc 1 694 0 discriminator 21
 9679 0ef8 A2F56872 		sub	r2, r2, #928
 9680 0efc 9342     		cmp	r3, r2
 9681 0efe 20D0     		beq	.L1445
 694:../Drivers/STM32F4xx_HAL_Driver/Src/stm32f4xx_hal_dma.c **** 
 9682              		.loc 1 694 0 discriminator 23
 9683 0f00 02F58062 		add	r2, r2, #1024
 9684 0f04 9342     		cmp	r3, r2
 9685 0f06 1FD1     		bne	.L1446
 694:../Drivers/STM32F4xx_HAL_Driver/Src/stm32f4xx_hal_dma.c **** 
 9686              		.loc 1 694 0
 9687 0f08 4FF48022 		mov	r2, #262144
 9688 0f0c 1EE0     		b	.L1126
 9689              	.L1435:
 9690 0f0e 904A     		ldr	r2, .L1782+4
 9691 0f10 1CE0     		b	.L1126
 9692              	.L1436:
 9693 0f12 8F4A     		ldr	r2, .L1782+4
 9694 0f14 1AE0     		b	.L1126
 9695              	.L1437:
 9696 0f16 8E4A     		ldr	r2, .L1782+4
 9697 0f18 18E0     		b	.L1126
 9698              	.L1438:
 9699 0f1a 8D4A     		ldr	r2, .L1782+4
 9700 0f1c 16E0     		b	.L1126
 9701              	.L1439:
 9702 0f1e 4FF48072 		mov	r2, #256
 9703 0f22 13E0     		b	.L1126
 9704              	.L1440:
 9705 0f24 4FF48072 		mov	r2, #256
 9706 0f28 10E0     		b	.L1126
 9707              	.L1441:
 9708 0f2a 4FF48072 		mov	r2, #256
 9709 0f2e 0DE0     		b	.L1126
ARM GAS  /tmp/ccIvKYQX.s 			page 213


 9710              	.L1442:
 9711 0f30 4FF48072 		mov	r2, #256
 9712 0f34 0AE0     		b	.L1126
 9713              	.L1443:
 9714 0f36 4FF48022 		mov	r2, #262144
 9715 0f3a 07E0     		b	.L1126
 9716              	.L1444:
 9717 0f3c 4FF48022 		mov	r2, #262144
 9718 0f40 04E0     		b	.L1126
 9719              	.L1445:
 9720 0f42 4FF48022 		mov	r2, #262144
 9721 0f46 01E0     		b	.L1126
 9722              	.L1446:
 9723 0f48 4FF08072 		mov	r2, #16777216
 9724              	.L1126:
 694:../Drivers/STM32F4xx_HAL_Driver/Src/stm32f4xx_hal_dma.c **** 
 9725              		.loc 1 694 0 discriminator 50
 9726 0f4c 814B     		ldr	r3, .L1782+8
 9727 0f4e DA60     		str	r2, [r3, #12]
 9728 0f50 0EE1     		b	.L1127
 9729              	.L1125:
 694:../Drivers/STM32F4xx_HAL_Driver/Src/stm32f4xx_hal_dma.c **** 
 9730              		.loc 1 694 0 discriminator 2
 9731 0f52 814A     		ldr	r2, .L1782+12
 9732 0f54 9342     		cmp	r3, r2
 9733 0f56 53D9     		bls	.L1128
 694:../Drivers/STM32F4xx_HAL_Driver/Src/stm32f4xx_hal_dma.c **** 
 9734              		.loc 1 694 0 discriminator 51
 9735 0f58 A83A     		subs	r2, r2, #168
 9736 0f5a 9342     		cmp	r3, r2
 9737 0f5c 2ED0     		beq	.L1447
 694:../Drivers/STM32F4xx_HAL_Driver/Src/stm32f4xx_hal_dma.c **** 
 9738              		.loc 1 694 0 discriminator 53
 9739 0f5e 02F58062 		add	r2, r2, #1024
 9740 0f62 9342     		cmp	r3, r2
 9741 0f64 2CD0     		beq	.L1448
 694:../Drivers/STM32F4xx_HAL_Driver/Src/stm32f4xx_hal_dma.c **** 
 9742              		.loc 1 694 0 discriminator 55
 9743 0f66 A2F56872 		sub	r2, r2, #928
 9744 0f6a 9342     		cmp	r3, r2
 9745 0f6c 2AD0     		beq	.L1449
 694:../Drivers/STM32F4xx_HAL_Driver/Src/stm32f4xx_hal_dma.c **** 
 9746              		.loc 1 694 0 discriminator 57
 9747 0f6e 02F58062 		add	r2, r2, #1024
 9748 0f72 9342     		cmp	r3, r2
 9749 0f74 28D0     		beq	.L1450
 694:../Drivers/STM32F4xx_HAL_Driver/Src/stm32f4xx_hal_dma.c **** 
 9750              		.loc 1 694 0 discriminator 59
 9751 0f76 A2F58962 		sub	r2, r2, #1096
 9752 0f7a 9342     		cmp	r3, r2
 9753 0f7c 26D0     		beq	.L1451
 694:../Drivers/STM32F4xx_HAL_Driver/Src/stm32f4xx_hal_dma.c **** 
 9754              		.loc 1 694 0 discriminator 61
 9755 0f7e 02F58062 		add	r2, r2, #1024
 9756 0f82 9342     		cmp	r3, r2
 9757 0f84 25D0     		beq	.L1452
 694:../Drivers/STM32F4xx_HAL_Driver/Src/stm32f4xx_hal_dma.c **** 
ARM GAS  /tmp/ccIvKYQX.s 			page 214


 9758              		.loc 1 694 0 discriminator 63
 9759 0f86 A2F56872 		sub	r2, r2, #928
 9760 0f8a 9342     		cmp	r3, r2
 9761 0f8c 24D0     		beq	.L1453
 694:../Drivers/STM32F4xx_HAL_Driver/Src/stm32f4xx_hal_dma.c **** 
 9762              		.loc 1 694 0 discriminator 65
 9763 0f8e 02F58062 		add	r2, r2, #1024
 9764 0f92 9342     		cmp	r3, r2
 9765 0f94 23D0     		beq	.L1454
 694:../Drivers/STM32F4xx_HAL_Driver/Src/stm32f4xx_hal_dma.c **** 
 9766              		.loc 1 694 0 discriminator 67
 9767 0f96 A2F58962 		sub	r2, r2, #1096
 9768 0f9a 9342     		cmp	r3, r2
 9769 0f9c 22D0     		beq	.L1455
 694:../Drivers/STM32F4xx_HAL_Driver/Src/stm32f4xx_hal_dma.c **** 
 9770              		.loc 1 694 0 discriminator 69
 9771 0f9e 02F58062 		add	r2, r2, #1024
 9772 0fa2 9342     		cmp	r3, r2
 9773 0fa4 21D0     		beq	.L1456
 694:../Drivers/STM32F4xx_HAL_Driver/Src/stm32f4xx_hal_dma.c **** 
 9774              		.loc 1 694 0 discriminator 71
 9775 0fa6 A2F56872 		sub	r2, r2, #928
 9776 0faa 9342     		cmp	r3, r2
 9777 0fac 20D0     		beq	.L1457
 694:../Drivers/STM32F4xx_HAL_Driver/Src/stm32f4xx_hal_dma.c **** 
 9778              		.loc 1 694 0 discriminator 73
 9779 0fae 02F58062 		add	r2, r2, #1024
 9780 0fb2 9342     		cmp	r3, r2
 9781 0fb4 1FD1     		bne	.L1458
 694:../Drivers/STM32F4xx_HAL_Driver/Src/stm32f4xx_hal_dma.c **** 
 9782              		.loc 1 694 0
 9783 0fb6 4FF48022 		mov	r2, #262144
 9784 0fba 1EE0     		b	.L1129
 9785              	.L1447:
 9786 0fbc 644A     		ldr	r2, .L1782+4
 9787 0fbe 1CE0     		b	.L1129
 9788              	.L1448:
 9789 0fc0 634A     		ldr	r2, .L1782+4
 9790 0fc2 1AE0     		b	.L1129
 9791              	.L1449:
 9792 0fc4 624A     		ldr	r2, .L1782+4
 9793 0fc6 18E0     		b	.L1129
 9794              	.L1450:
 9795 0fc8 614A     		ldr	r2, .L1782+4
 9796 0fca 16E0     		b	.L1129
 9797              	.L1451:
 9798 0fcc 4FF48072 		mov	r2, #256
 9799 0fd0 13E0     		b	.L1129
 9800              	.L1452:
 9801 0fd2 4FF48072 		mov	r2, #256
 9802 0fd6 10E0     		b	.L1129
 9803              	.L1453:
 9804 0fd8 4FF48072 		mov	r2, #256
 9805 0fdc 0DE0     		b	.L1129
 9806              	.L1454:
 9807 0fde 4FF48072 		mov	r2, #256
 9808 0fe2 0AE0     		b	.L1129
ARM GAS  /tmp/ccIvKYQX.s 			page 215


 9809              	.L1455:
 9810 0fe4 4FF48022 		mov	r2, #262144
 9811 0fe8 07E0     		b	.L1129
 9812              	.L1456:
 9813 0fea 4FF48022 		mov	r2, #262144
 9814 0fee 04E0     		b	.L1129
 9815              	.L1457:
 9816 0ff0 4FF48022 		mov	r2, #262144
 9817 0ff4 01E0     		b	.L1129
 9818              	.L1458:
 9819 0ff6 4FF08072 		mov	r2, #16777216
 9820              	.L1129:
 694:../Drivers/STM32F4xx_HAL_Driver/Src/stm32f4xx_hal_dma.c **** 
 9821              		.loc 1 694 0 discriminator 100
 9822 0ffa 564B     		ldr	r3, .L1782+8
 9823 0ffc 9A60     		str	r2, [r3, #8]
 9824 0ffe B7E0     		b	.L1127
 9825              	.L1128:
 694:../Drivers/STM32F4xx_HAL_Driver/Src/stm32f4xx_hal_dma.c **** 
 9826              		.loc 1 694 0 discriminator 52
 9827 1000 564A     		ldr	r2, .L1782+16
 9828 1002 9342     		cmp	r3, r2
 9829 1004 53D9     		bls	.L1131
 694:../Drivers/STM32F4xx_HAL_Driver/Src/stm32f4xx_hal_dma.c **** 
 9830              		.loc 1 694 0 discriminator 102
 9831 1006 483A     		subs	r2, r2, #72
 9832 1008 9342     		cmp	r3, r2
 9833 100a 2ED0     		beq	.L1459
 694:../Drivers/STM32F4xx_HAL_Driver/Src/stm32f4xx_hal_dma.c **** 
 9834              		.loc 1 694 0 discriminator 104
 9835 100c 02F58062 		add	r2, r2, #1024
 9836 1010 9342     		cmp	r3, r2
 9837 1012 2CD0     		beq	.L1460
 694:../Drivers/STM32F4xx_HAL_Driver/Src/stm32f4xx_hal_dma.c **** 
 9838              		.loc 1 694 0 discriminator 106
 9839 1014 A2F56872 		sub	r2, r2, #928
 9840 1018 9342     		cmp	r3, r2
 9841 101a 2AD0     		beq	.L1461
 694:../Drivers/STM32F4xx_HAL_Driver/Src/stm32f4xx_hal_dma.c **** 
 9842              		.loc 1 694 0 discriminator 108
 9843 101c 02F58062 		add	r2, r2, #1024
 9844 1020 9342     		cmp	r3, r2
 9845 1022 28D0     		beq	.L1462
 694:../Drivers/STM32F4xx_HAL_Driver/Src/stm32f4xx_hal_dma.c **** 
 9846              		.loc 1 694 0 discriminator 110
 9847 1024 A2F58962 		sub	r2, r2, #1096
 9848 1028 9342     		cmp	r3, r2
 9849 102a 26D0     		beq	.L1463
 694:../Drivers/STM32F4xx_HAL_Driver/Src/stm32f4xx_hal_dma.c **** 
 9850              		.loc 1 694 0 discriminator 112
 9851 102c 02F58062 		add	r2, r2, #1024
 9852 1030 9342     		cmp	r3, r2
 9853 1032 25D0     		beq	.L1464
 694:../Drivers/STM32F4xx_HAL_Driver/Src/stm32f4xx_hal_dma.c **** 
 9854              		.loc 1 694 0 discriminator 114
 9855 1034 A2F56872 		sub	r2, r2, #928
 9856 1038 9342     		cmp	r3, r2
ARM GAS  /tmp/ccIvKYQX.s 			page 216


 9857 103a 24D0     		beq	.L1465
 694:../Drivers/STM32F4xx_HAL_Driver/Src/stm32f4xx_hal_dma.c **** 
 9858              		.loc 1 694 0 discriminator 116
 9859 103c 02F58062 		add	r2, r2, #1024
 9860 1040 9342     		cmp	r3, r2
 9861 1042 23D0     		beq	.L1466
 694:../Drivers/STM32F4xx_HAL_Driver/Src/stm32f4xx_hal_dma.c **** 
 9862              		.loc 1 694 0 discriminator 118
 9863 1044 A2F58962 		sub	r2, r2, #1096
 9864 1048 9342     		cmp	r3, r2
 9865 104a 22D0     		beq	.L1467
 694:../Drivers/STM32F4xx_HAL_Driver/Src/stm32f4xx_hal_dma.c **** 
 9866              		.loc 1 694 0 discriminator 120
 9867 104c 02F58062 		add	r2, r2, #1024
 9868 1050 9342     		cmp	r3, r2
 9869 1052 21D0     		beq	.L1468
 694:../Drivers/STM32F4xx_HAL_Driver/Src/stm32f4xx_hal_dma.c **** 
 9870              		.loc 1 694 0 discriminator 122
 9871 1054 A2F56872 		sub	r2, r2, #928
 9872 1058 9342     		cmp	r3, r2
 9873 105a 20D0     		beq	.L1469
 694:../Drivers/STM32F4xx_HAL_Driver/Src/stm32f4xx_hal_dma.c **** 
 9874              		.loc 1 694 0 discriminator 124
 9875 105c 02F58062 		add	r2, r2, #1024
 9876 1060 9342     		cmp	r3, r2
 9877 1062 1FD1     		bne	.L1470
 694:../Drivers/STM32F4xx_HAL_Driver/Src/stm32f4xx_hal_dma.c **** 
 9878              		.loc 1 694 0
 9879 1064 4FF48022 		mov	r2, #262144
 9880 1068 1EE0     		b	.L1132
 9881              	.L1459:
 9882 106a 394A     		ldr	r2, .L1782+4
 9883 106c 1CE0     		b	.L1132
 9884              	.L1460:
 9885 106e 384A     		ldr	r2, .L1782+4
 9886 1070 1AE0     		b	.L1132
 9887              	.L1461:
 9888 1072 374A     		ldr	r2, .L1782+4
 9889 1074 18E0     		b	.L1132
 9890              	.L1462:
 9891 1076 364A     		ldr	r2, .L1782+4
 9892 1078 16E0     		b	.L1132
 9893              	.L1463:
 9894 107a 4FF48072 		mov	r2, #256
 9895 107e 13E0     		b	.L1132
 9896              	.L1464:
 9897 1080 4FF48072 		mov	r2, #256
 9898 1084 10E0     		b	.L1132
 9899              	.L1465:
 9900 1086 4FF48072 		mov	r2, #256
 9901 108a 0DE0     		b	.L1132
 9902              	.L1466:
 9903 108c 4FF48072 		mov	r2, #256
 9904 1090 0AE0     		b	.L1132
 9905              	.L1467:
 9906 1092 4FF48022 		mov	r2, #262144
 9907 1096 07E0     		b	.L1132
ARM GAS  /tmp/ccIvKYQX.s 			page 217


 9908              	.L1468:
 9909 1098 4FF48022 		mov	r2, #262144
 9910 109c 04E0     		b	.L1132
 9911              	.L1469:
 9912 109e 4FF48022 		mov	r2, #262144
 9913 10a2 01E0     		b	.L1132
 9914              	.L1470:
 9915 10a4 4FF08072 		mov	r2, #16777216
 9916              	.L1132:
 694:../Drivers/STM32F4xx_HAL_Driver/Src/stm32f4xx_hal_dma.c **** 
 9917              		.loc 1 694 0 discriminator 151
 9918 10a8 2D4B     		ldr	r3, .L1782+20
 9919 10aa DA60     		str	r2, [r3, #12]
 9920 10ac 60E0     		b	.L1127
 9921              	.L1131:
 694:../Drivers/STM32F4xx_HAL_Driver/Src/stm32f4xx_hal_dma.c **** 
 9922              		.loc 1 694 0 discriminator 103
 9923 10ae 2D4A     		ldr	r2, .L1782+24
 9924 10b0 9342     		cmp	r3, r2
 9925 10b2 2ED0     		beq	.L1471
 694:../Drivers/STM32F4xx_HAL_Driver/Src/stm32f4xx_hal_dma.c **** 
 9926              		.loc 1 694 0 discriminator 153
 9927 10b4 02F58062 		add	r2, r2, #1024
 9928 10b8 9342     		cmp	r3, r2
 9929 10ba 2CD0     		beq	.L1472
 694:../Drivers/STM32F4xx_HAL_Driver/Src/stm32f4xx_hal_dma.c **** 
 9930              		.loc 1 694 0 discriminator 155
 9931 10bc A2F56872 		sub	r2, r2, #928
 9932 10c0 9342     		cmp	r3, r2
 9933 10c2 2AD0     		beq	.L1473
 694:../Drivers/STM32F4xx_HAL_Driver/Src/stm32f4xx_hal_dma.c **** 
 9934              		.loc 1 694 0 discriminator 157
 9935 10c4 02F58062 		add	r2, r2, #1024
 9936 10c8 9342     		cmp	r3, r2
 9937 10ca 28D0     		beq	.L1474
 694:../Drivers/STM32F4xx_HAL_Driver/Src/stm32f4xx_hal_dma.c **** 
 9938              		.loc 1 694 0 discriminator 159
 9939 10cc A2F58962 		sub	r2, r2, #1096
 9940 10d0 9342     		cmp	r3, r2
 9941 10d2 26D0     		beq	.L1475
 694:../Drivers/STM32F4xx_HAL_Driver/Src/stm32f4xx_hal_dma.c **** 
 9942              		.loc 1 694 0 discriminator 161
 9943 10d4 02F58062 		add	r2, r2, #1024
 9944 10d8 9342     		cmp	r3, r2
 9945 10da 25D0     		beq	.L1476
 694:../Drivers/STM32F4xx_HAL_Driver/Src/stm32f4xx_hal_dma.c **** 
 9946              		.loc 1 694 0 discriminator 163
 9947 10dc A2F56872 		sub	r2, r2, #928
 9948 10e0 9342     		cmp	r3, r2
 9949 10e2 24D0     		beq	.L1477
 694:../Drivers/STM32F4xx_HAL_Driver/Src/stm32f4xx_hal_dma.c **** 
 9950              		.loc 1 694 0 discriminator 165
 9951 10e4 02F58062 		add	r2, r2, #1024
 9952 10e8 9342     		cmp	r3, r2
 9953 10ea 23D0     		beq	.L1478
 694:../Drivers/STM32F4xx_HAL_Driver/Src/stm32f4xx_hal_dma.c **** 
 9954              		.loc 1 694 0 discriminator 167
ARM GAS  /tmp/ccIvKYQX.s 			page 218


 9955 10ec A2F58962 		sub	r2, r2, #1096
 9956 10f0 9342     		cmp	r3, r2
 9957 10f2 22D0     		beq	.L1479
 694:../Drivers/STM32F4xx_HAL_Driver/Src/stm32f4xx_hal_dma.c **** 
 9958              		.loc 1 694 0 discriminator 169
 9959 10f4 02F58062 		add	r2, r2, #1024
 9960 10f8 9342     		cmp	r3, r2
 9961 10fa 21D0     		beq	.L1480
 694:../Drivers/STM32F4xx_HAL_Driver/Src/stm32f4xx_hal_dma.c **** 
 9962              		.loc 1 694 0 discriminator 171
 9963 10fc A2F56872 		sub	r2, r2, #928
 9964 1100 9342     		cmp	r3, r2
 9965 1102 20D0     		beq	.L1481
 694:../Drivers/STM32F4xx_HAL_Driver/Src/stm32f4xx_hal_dma.c **** 
 9966              		.loc 1 694 0 discriminator 173
 9967 1104 02F58062 		add	r2, r2, #1024
 9968 1108 9342     		cmp	r3, r2
 9969 110a 2DD1     		bne	.L1482
 694:../Drivers/STM32F4xx_HAL_Driver/Src/stm32f4xx_hal_dma.c **** 
 9970              		.loc 1 694 0
 9971 110c 4FF48022 		mov	r2, #262144
 9972 1110 2CE0     		b	.L1133
 9973              	.L1471:
 9974 1112 0F4A     		ldr	r2, .L1782+4
 9975 1114 2AE0     		b	.L1133
 9976              	.L1472:
 9977 1116 0E4A     		ldr	r2, .L1782+4
 9978 1118 28E0     		b	.L1133
 9979              	.L1473:
 9980 111a 0D4A     		ldr	r2, .L1782+4
 9981 111c 26E0     		b	.L1133
 9982              	.L1474:
 9983 111e 0C4A     		ldr	r2, .L1782+4
 9984 1120 24E0     		b	.L1133
 9985              	.L1475:
 9986 1122 4FF48072 		mov	r2, #256
 9987 1126 21E0     		b	.L1133
 9988              	.L1476:
 9989 1128 4FF48072 		mov	r2, #256
 9990 112c 1EE0     		b	.L1133
 9991              	.L1477:
 9992 112e 4FF48072 		mov	r2, #256
 9993 1132 1BE0     		b	.L1133
 9994              	.L1478:
 9995 1134 4FF48072 		mov	r2, #256
 9996 1138 18E0     		b	.L1133
 9997              	.L1479:
 9998 113a 4FF48022 		mov	r2, #262144
 9999 113e 15E0     		b	.L1133
 10000              	.L1480:
 10001 1140 4FF48022 		mov	r2, #262144
 10002 1144 12E0     		b	.L1133
 10003              	.L1481:
 10004 1146 4FF48022 		mov	r2, #262144
 10005 114a 0FE0     		b	.L1133
 10006              	.L1783:
 10007              		.align	2
ARM GAS  /tmp/ccIvKYQX.s 			page 219


 10008              	.L1782:
 10009 114c 58640240 		.word	1073898584
 10010 1150 04008000 		.word	8388612
 10011 1154 00640240 		.word	1073898496
 10012 1158 B8600240 		.word	1073897656
 10013 115c 58600240 		.word	1073897560
 10014 1160 00600240 		.word	1073897472
 10015 1164 10600240 		.word	1073897488
 10016              	.L1482:
 10017 1168 4FF08072 		mov	r2, #16777216
 10018              	.L1133:
 694:../Drivers/STM32F4xx_HAL_Driver/Src/stm32f4xx_hal_dma.c **** 
 10019              		.loc 1 694 0 discriminator 200
 10020 116c B94B     		ldr	r3, .L1784
 10021 116e 9A60     		str	r2, [r3, #8]
 10022              	.L1127:
 697:../Drivers/STM32F4xx_HAL_Driver/Src/stm32f4xx_hal_dma.c **** 
 10023              		.loc 1 697 0 is_stmt 1
 10024 1170 E36C     		ldr	r3, [r4, #76]
 10025 1172 43F00403 		orr	r3, r3, #4
 10026 1176 E364     		str	r3, [r4, #76]
 700:../Drivers/STM32F4xx_HAL_Driver/Src/stm32f4xx_hal_dma.c **** 
 10027              		.loc 1 700 0
 10028 1178 0423     		movs	r3, #4
 10029 117a 84F83530 		strb	r3, [r4, #53]
 703:../Drivers/STM32F4xx_HAL_Driver/Src/stm32f4xx_hal_dma.c **** 
 10030              		.loc 1 703 0
 10031 117e 0023     		movs	r3, #0
 10032 1180 84F83430 		strb	r3, [r4, #52]
 705:../Drivers/STM32F4xx_HAL_Driver/Src/stm32f4xx_hal_dma.c ****       {
 10033              		.loc 1 705 0
 10034 1184 A36C     		ldr	r3, [r4, #72]
 10035 1186 0BB1     		cbz	r3, .L1124
 708:../Drivers/STM32F4xx_HAL_Driver/Src/stm32f4xx_hal_dma.c ****       }
 10036              		.loc 1 708 0
 10037 1188 2046     		mov	r0, r4
 10038 118a 9847     		blx	r3
 10039              	.LVL69:
 10040              	.L1124:
 713:../Drivers/STM32F4xx_HAL_Driver/Src/stm32f4xx_hal_dma.c ****   {
 10041              		.loc 1 713 0
 10042 118c 2368     		ldr	r3, [r4]
 10043 118e B24A     		ldr	r2, .L1784+4
 10044 1190 9342     		cmp	r3, r2
 10045 1192 57D9     		bls	.L1134
 713:../Drivers/STM32F4xx_HAL_Driver/Src/stm32f4xx_hal_dma.c ****   {
 10046              		.loc 1 713 0 is_stmt 0 discriminator 1
 10047 1194 583A     		subs	r2, r2, #88
 10048 1196 5268     		ldr	r2, [r2, #4]
 10049 1198 B049     		ldr	r1, .L1784+8
 10050 119a 8B42     		cmp	r3, r1
 10051 119c 2ED0     		beq	.L1483
 713:../Drivers/STM32F4xx_HAL_Driver/Src/stm32f4xx_hal_dma.c ****   {
 10052              		.loc 1 713 0 discriminator 3
 10053 119e 01F58061 		add	r1, r1, #1024
 10054 11a2 8B42     		cmp	r3, r1
 10055 11a4 2CD0     		beq	.L1484
ARM GAS  /tmp/ccIvKYQX.s 			page 220


 713:../Drivers/STM32F4xx_HAL_Driver/Src/stm32f4xx_hal_dma.c ****   {
 10056              		.loc 1 713 0 discriminator 5
 10057 11a6 A1F56871 		sub	r1, r1, #928
 10058 11aa 8B42     		cmp	r3, r1
 10059 11ac 2AD0     		beq	.L1485
 713:../Drivers/STM32F4xx_HAL_Driver/Src/stm32f4xx_hal_dma.c ****   {
 10060              		.loc 1 713 0 discriminator 7
 10061 11ae 01F58061 		add	r1, r1, #1024
 10062 11b2 8B42     		cmp	r3, r1
 10063 11b4 28D0     		beq	.L1486
 713:../Drivers/STM32F4xx_HAL_Driver/Src/stm32f4xx_hal_dma.c ****   {
 10064              		.loc 1 713 0 discriminator 9
 10065 11b6 A1F58961 		sub	r1, r1, #1096
 10066 11ba 8B42     		cmp	r3, r1
 10067 11bc 26D0     		beq	.L1487
 713:../Drivers/STM32F4xx_HAL_Driver/Src/stm32f4xx_hal_dma.c ****   {
 10068              		.loc 1 713 0 discriminator 11
 10069 11be 01F58061 		add	r1, r1, #1024
 10070 11c2 8B42     		cmp	r3, r1
 10071 11c4 25D0     		beq	.L1488
 713:../Drivers/STM32F4xx_HAL_Driver/Src/stm32f4xx_hal_dma.c ****   {
 10072              		.loc 1 713 0 discriminator 13
 10073 11c6 A1F56871 		sub	r1, r1, #928
 10074 11ca 8B42     		cmp	r3, r1
 10075 11cc 24D0     		beq	.L1489
 713:../Drivers/STM32F4xx_HAL_Driver/Src/stm32f4xx_hal_dma.c ****   {
 10076              		.loc 1 713 0 discriminator 15
 10077 11ce 01F58061 		add	r1, r1, #1024
 10078 11d2 8B42     		cmp	r3, r1
 10079 11d4 23D0     		beq	.L1490
 713:../Drivers/STM32F4xx_HAL_Driver/Src/stm32f4xx_hal_dma.c ****   {
 10080              		.loc 1 713 0 discriminator 17
 10081 11d6 A1F58961 		sub	r1, r1, #1096
 10082 11da 8B42     		cmp	r3, r1
 10083 11dc 22D0     		beq	.L1491
 713:../Drivers/STM32F4xx_HAL_Driver/Src/stm32f4xx_hal_dma.c ****   {
 10084              		.loc 1 713 0 discriminator 19
 10085 11de 01F58061 		add	r1, r1, #1024
 10086 11e2 8B42     		cmp	r3, r1
 10087 11e4 21D0     		beq	.L1492
 713:../Drivers/STM32F4xx_HAL_Driver/Src/stm32f4xx_hal_dma.c ****   {
 10088              		.loc 1 713 0 discriminator 21
 10089 11e6 A1F56871 		sub	r1, r1, #928
 10090 11ea 8B42     		cmp	r3, r1
 10091 11ec 20D0     		beq	.L1493
 713:../Drivers/STM32F4xx_HAL_Driver/Src/stm32f4xx_hal_dma.c ****   {
 10092              		.loc 1 713 0 discriminator 23
 10093 11ee 01F58061 		add	r1, r1, #1024
 10094 11f2 8B42     		cmp	r3, r1
 10095 11f4 1FD1     		bne	.L1494
 713:../Drivers/STM32F4xx_HAL_Driver/Src/stm32f4xx_hal_dma.c ****   {
 10096              		.loc 1 713 0
 10097 11f6 4FF48011 		mov	r1, #1048576
 10098 11fa 1EE0     		b	.L1135
 10099              	.L1483:
 10100 11fc 1021     		movs	r1, #16
 10101 11fe 1CE0     		b	.L1135
ARM GAS  /tmp/ccIvKYQX.s 			page 221


 10102              	.L1484:
 10103 1200 1021     		movs	r1, #16
 10104 1202 1AE0     		b	.L1135
 10105              	.L1485:
 10106 1204 1021     		movs	r1, #16
 10107 1206 18E0     		b	.L1135
 10108              	.L1486:
 10109 1208 1021     		movs	r1, #16
 10110 120a 16E0     		b	.L1135
 10111              	.L1487:
 10112 120c 4FF48061 		mov	r1, #1024
 10113 1210 13E0     		b	.L1135
 10114              	.L1488:
 10115 1212 4FF48061 		mov	r1, #1024
 10116 1216 10E0     		b	.L1135
 10117              	.L1489:
 10118 1218 4FF48061 		mov	r1, #1024
 10119 121c 0DE0     		b	.L1135
 10120              	.L1490:
 10121 121e 4FF48061 		mov	r1, #1024
 10122 1222 0AE0     		b	.L1135
 10123              	.L1491:
 10124 1224 4FF48011 		mov	r1, #1048576
 10125 1228 07E0     		b	.L1135
 10126              	.L1492:
 10127 122a 4FF48011 		mov	r1, #1048576
 10128 122e 04E0     		b	.L1135
 10129              	.L1493:
 10130 1230 4FF48011 		mov	r1, #1048576
 10131 1234 01E0     		b	.L1135
 10132              	.L1494:
 10133 1236 4FF08061 		mov	r1, #67108864
 10134              	.L1135:
 713:../Drivers/STM32F4xx_HAL_Driver/Src/stm32f4xx_hal_dma.c ****   {
 10135              		.loc 1 713 0 discriminator 50
 10136 123a 1142     		tst	r1, r2
 10137 123c 14BF     		ite	ne
 10138 123e 0122     		movne	r2, #1
 10139 1240 0022     		moveq	r2, #0
 10140 1242 17E1     		b	.L1136
 10141              	.L1134:
 713:../Drivers/STM32F4xx_HAL_Driver/Src/stm32f4xx_hal_dma.c ****   {
 10142              		.loc 1 713 0 discriminator 2
 10143 1244 864A     		ldr	r2, .L1784+12
 10144 1246 9342     		cmp	r3, r2
 10145 1248 58D9     		bls	.L1137
 713:../Drivers/STM32F4xx_HAL_Driver/Src/stm32f4xx_hal_dma.c ****   {
 10146              		.loc 1 713 0 discriminator 52
 10147 124a 02F55272 		add	r2, r2, #840
 10148 124e 1268     		ldr	r2, [r2]
 10149 1250 8249     		ldr	r1, .L1784+8
 10150 1252 8B42     		cmp	r3, r1
 10151 1254 2ED0     		beq	.L1495
 713:../Drivers/STM32F4xx_HAL_Driver/Src/stm32f4xx_hal_dma.c ****   {
 10152              		.loc 1 713 0 discriminator 54
 10153 1256 01F58061 		add	r1, r1, #1024
 10154 125a 8B42     		cmp	r3, r1
ARM GAS  /tmp/ccIvKYQX.s 			page 222


 10155 125c 2CD0     		beq	.L1496
 713:../Drivers/STM32F4xx_HAL_Driver/Src/stm32f4xx_hal_dma.c ****   {
 10156              		.loc 1 713 0 discriminator 56
 10157 125e A1F56871 		sub	r1, r1, #928
 10158 1262 8B42     		cmp	r3, r1
 10159 1264 2AD0     		beq	.L1497
 713:../Drivers/STM32F4xx_HAL_Driver/Src/stm32f4xx_hal_dma.c ****   {
 10160              		.loc 1 713 0 discriminator 58
 10161 1266 01F58061 		add	r1, r1, #1024
 10162 126a 8B42     		cmp	r3, r1
 10163 126c 28D0     		beq	.L1498
 713:../Drivers/STM32F4xx_HAL_Driver/Src/stm32f4xx_hal_dma.c ****   {
 10164              		.loc 1 713 0 discriminator 60
 10165 126e A1F58961 		sub	r1, r1, #1096
 10166 1272 8B42     		cmp	r3, r1
 10167 1274 26D0     		beq	.L1499
 713:../Drivers/STM32F4xx_HAL_Driver/Src/stm32f4xx_hal_dma.c ****   {
 10168              		.loc 1 713 0 discriminator 62
 10169 1276 01F58061 		add	r1, r1, #1024
 10170 127a 8B42     		cmp	r3, r1
 10171 127c 25D0     		beq	.L1500
 713:../Drivers/STM32F4xx_HAL_Driver/Src/stm32f4xx_hal_dma.c ****   {
 10172              		.loc 1 713 0 discriminator 64
 10173 127e A1F56871 		sub	r1, r1, #928
 10174 1282 8B42     		cmp	r3, r1
 10175 1284 24D0     		beq	.L1501
 713:../Drivers/STM32F4xx_HAL_Driver/Src/stm32f4xx_hal_dma.c ****   {
 10176              		.loc 1 713 0 discriminator 66
 10177 1286 01F58061 		add	r1, r1, #1024
 10178 128a 8B42     		cmp	r3, r1
 10179 128c 23D0     		beq	.L1502
 713:../Drivers/STM32F4xx_HAL_Driver/Src/stm32f4xx_hal_dma.c ****   {
 10180              		.loc 1 713 0 discriminator 68
 10181 128e A1F58961 		sub	r1, r1, #1096
 10182 1292 8B42     		cmp	r3, r1
 10183 1294 22D0     		beq	.L1503
 713:../Drivers/STM32F4xx_HAL_Driver/Src/stm32f4xx_hal_dma.c ****   {
 10184              		.loc 1 713 0 discriminator 70
 10185 1296 01F58061 		add	r1, r1, #1024
 10186 129a 8B42     		cmp	r3, r1
 10187 129c 21D0     		beq	.L1504
 713:../Drivers/STM32F4xx_HAL_Driver/Src/stm32f4xx_hal_dma.c ****   {
 10188              		.loc 1 713 0 discriminator 72
 10189 129e A1F56871 		sub	r1, r1, #928
 10190 12a2 8B42     		cmp	r3, r1
 10191 12a4 20D0     		beq	.L1505
 713:../Drivers/STM32F4xx_HAL_Driver/Src/stm32f4xx_hal_dma.c ****   {
 10192              		.loc 1 713 0 discriminator 74
 10193 12a6 01F58061 		add	r1, r1, #1024
 10194 12aa 8B42     		cmp	r3, r1
 10195 12ac 1FD1     		bne	.L1506
 713:../Drivers/STM32F4xx_HAL_Driver/Src/stm32f4xx_hal_dma.c ****   {
 10196              		.loc 1 713 0
 10197 12ae 4FF48011 		mov	r1, #1048576
 10198 12b2 1EE0     		b	.L1138
 10199              	.L1495:
 10200 12b4 1021     		movs	r1, #16
ARM GAS  /tmp/ccIvKYQX.s 			page 223


 10201 12b6 1CE0     		b	.L1138
 10202              	.L1496:
 10203 12b8 1021     		movs	r1, #16
 10204 12ba 1AE0     		b	.L1138
 10205              	.L1497:
 10206 12bc 1021     		movs	r1, #16
 10207 12be 18E0     		b	.L1138
 10208              	.L1498:
 10209 12c0 1021     		movs	r1, #16
 10210 12c2 16E0     		b	.L1138
 10211              	.L1499:
 10212 12c4 4FF48061 		mov	r1, #1024
 10213 12c8 13E0     		b	.L1138
 10214              	.L1500:
 10215 12ca 4FF48061 		mov	r1, #1024
 10216 12ce 10E0     		b	.L1138
 10217              	.L1501:
 10218 12d0 4FF48061 		mov	r1, #1024
 10219 12d4 0DE0     		b	.L1138
 10220              	.L1502:
 10221 12d6 4FF48061 		mov	r1, #1024
 10222 12da 0AE0     		b	.L1138
 10223              	.L1503:
 10224 12dc 4FF48011 		mov	r1, #1048576
 10225 12e0 07E0     		b	.L1138
 10226              	.L1504:
 10227 12e2 4FF48011 		mov	r1, #1048576
 10228 12e6 04E0     		b	.L1138
 10229              	.L1505:
 10230 12e8 4FF48011 		mov	r1, #1048576
 10231 12ec 01E0     		b	.L1138
 10232              	.L1506:
 10233 12ee 4FF08061 		mov	r1, #67108864
 10234              	.L1138:
 713:../Drivers/STM32F4xx_HAL_Driver/Src/stm32f4xx_hal_dma.c ****   {
 10235              		.loc 1 713 0 discriminator 101
 10236 12f2 1142     		tst	r1, r2
 10237 12f4 14BF     		ite	ne
 10238 12f6 0122     		movne	r2, #1
 10239 12f8 0022     		moveq	r2, #0
 10240 12fa BBE0     		b	.L1136
 10241              	.L1137:
 713:../Drivers/STM32F4xx_HAL_Driver/Src/stm32f4xx_hal_dma.c ****   {
 10242              		.loc 1 713 0 discriminator 53
 10243 12fc 594A     		ldr	r2, .L1784+16
 10244 12fe 9342     		cmp	r3, r2
 10245 1300 57D9     		bls	.L1139
 713:../Drivers/STM32F4xx_HAL_Driver/Src/stm32f4xx_hal_dma.c ****   {
 10246              		.loc 1 713 0 discriminator 103
 10247 1302 583A     		subs	r2, r2, #88
 10248 1304 5268     		ldr	r2, [r2, #4]
 10249 1306 5549     		ldr	r1, .L1784+8
 10250 1308 8B42     		cmp	r3, r1
 10251 130a 2ED0     		beq	.L1507
 713:../Drivers/STM32F4xx_HAL_Driver/Src/stm32f4xx_hal_dma.c ****   {
 10252              		.loc 1 713 0 discriminator 105
 10253 130c 01F58061 		add	r1, r1, #1024
ARM GAS  /tmp/ccIvKYQX.s 			page 224


 10254 1310 8B42     		cmp	r3, r1
 10255 1312 2CD0     		beq	.L1508
 713:../Drivers/STM32F4xx_HAL_Driver/Src/stm32f4xx_hal_dma.c ****   {
 10256              		.loc 1 713 0 discriminator 107
 10257 1314 A1F56871 		sub	r1, r1, #928
 10258 1318 8B42     		cmp	r3, r1
 10259 131a 2AD0     		beq	.L1509
 713:../Drivers/STM32F4xx_HAL_Driver/Src/stm32f4xx_hal_dma.c ****   {
 10260              		.loc 1 713 0 discriminator 109
 10261 131c 01F58061 		add	r1, r1, #1024
 10262 1320 8B42     		cmp	r3, r1
 10263 1322 28D0     		beq	.L1510
 713:../Drivers/STM32F4xx_HAL_Driver/Src/stm32f4xx_hal_dma.c ****   {
 10264              		.loc 1 713 0 discriminator 111
 10265 1324 A1F58961 		sub	r1, r1, #1096
 10266 1328 8B42     		cmp	r3, r1
 10267 132a 26D0     		beq	.L1511
 713:../Drivers/STM32F4xx_HAL_Driver/Src/stm32f4xx_hal_dma.c ****   {
 10268              		.loc 1 713 0 discriminator 113
 10269 132c 01F58061 		add	r1, r1, #1024
 10270 1330 8B42     		cmp	r3, r1
 10271 1332 25D0     		beq	.L1512
 713:../Drivers/STM32F4xx_HAL_Driver/Src/stm32f4xx_hal_dma.c ****   {
 10272              		.loc 1 713 0 discriminator 115
 10273 1334 A1F56871 		sub	r1, r1, #928
 10274 1338 8B42     		cmp	r3, r1
 10275 133a 24D0     		beq	.L1513
 713:../Drivers/STM32F4xx_HAL_Driver/Src/stm32f4xx_hal_dma.c ****   {
 10276              		.loc 1 713 0 discriminator 117
 10277 133c 01F58061 		add	r1, r1, #1024
 10278 1340 8B42     		cmp	r3, r1
 10279 1342 23D0     		beq	.L1514
 713:../Drivers/STM32F4xx_HAL_Driver/Src/stm32f4xx_hal_dma.c ****   {
 10280              		.loc 1 713 0 discriminator 119
 10281 1344 A1F58961 		sub	r1, r1, #1096
 10282 1348 8B42     		cmp	r3, r1
 10283 134a 22D0     		beq	.L1515
 713:../Drivers/STM32F4xx_HAL_Driver/Src/stm32f4xx_hal_dma.c ****   {
 10284              		.loc 1 713 0 discriminator 121
 10285 134c 01F58061 		add	r1, r1, #1024
 10286 1350 8B42     		cmp	r3, r1
 10287 1352 21D0     		beq	.L1516
 713:../Drivers/STM32F4xx_HAL_Driver/Src/stm32f4xx_hal_dma.c ****   {
 10288              		.loc 1 713 0 discriminator 123
 10289 1354 A1F56871 		sub	r1, r1, #928
 10290 1358 8B42     		cmp	r3, r1
 10291 135a 20D0     		beq	.L1517
 713:../Drivers/STM32F4xx_HAL_Driver/Src/stm32f4xx_hal_dma.c ****   {
 10292              		.loc 1 713 0 discriminator 125
 10293 135c 01F58061 		add	r1, r1, #1024
 10294 1360 8B42     		cmp	r3, r1
 10295 1362 1FD1     		bne	.L1518
 713:../Drivers/STM32F4xx_HAL_Driver/Src/stm32f4xx_hal_dma.c ****   {
 10296              		.loc 1 713 0
 10297 1364 4FF48011 		mov	r1, #1048576
 10298 1368 1EE0     		b	.L1140
 10299              	.L1507:
ARM GAS  /tmp/ccIvKYQX.s 			page 225


 10300 136a 1021     		movs	r1, #16
 10301 136c 1CE0     		b	.L1140
 10302              	.L1508:
 10303 136e 1021     		movs	r1, #16
 10304 1370 1AE0     		b	.L1140
 10305              	.L1509:
 10306 1372 1021     		movs	r1, #16
 10307 1374 18E0     		b	.L1140
 10308              	.L1510:
 10309 1376 1021     		movs	r1, #16
 10310 1378 16E0     		b	.L1140
 10311              	.L1511:
 10312 137a 4FF48061 		mov	r1, #1024
 10313 137e 13E0     		b	.L1140
 10314              	.L1512:
 10315 1380 4FF48061 		mov	r1, #1024
 10316 1384 10E0     		b	.L1140
 10317              	.L1513:
 10318 1386 4FF48061 		mov	r1, #1024
 10319 138a 0DE0     		b	.L1140
 10320              	.L1514:
 10321 138c 4FF48061 		mov	r1, #1024
 10322 1390 0AE0     		b	.L1140
 10323              	.L1515:
 10324 1392 4FF48011 		mov	r1, #1048576
 10325 1396 07E0     		b	.L1140
 10326              	.L1516:
 10327 1398 4FF48011 		mov	r1, #1048576
 10328 139c 04E0     		b	.L1140
 10329              	.L1517:
 10330 139e 4FF48011 		mov	r1, #1048576
 10331 13a2 01E0     		b	.L1140
 10332              	.L1518:
 10333 13a4 4FF08061 		mov	r1, #67108864
 10334              	.L1140:
 713:../Drivers/STM32F4xx_HAL_Driver/Src/stm32f4xx_hal_dma.c ****   {
 10335              		.loc 1 713 0 discriminator 152
 10336 13a8 1142     		tst	r1, r2
 10337 13aa 14BF     		ite	ne
 10338 13ac 0122     		movne	r2, #1
 10339 13ae 0022     		moveq	r2, #0
 10340 13b0 60E0     		b	.L1136
 10341              	.L1139:
 713:../Drivers/STM32F4xx_HAL_Driver/Src/stm32f4xx_hal_dma.c ****   {
 10342              		.loc 1 713 0 discriminator 104
 10343 13b2 284A     		ldr	r2, .L1784
 10344 13b4 1268     		ldr	r2, [r2]
 10345 13b6 2949     		ldr	r1, .L1784+8
 10346 13b8 8B42     		cmp	r3, r1
 10347 13ba 2ED0     		beq	.L1519
 713:../Drivers/STM32F4xx_HAL_Driver/Src/stm32f4xx_hal_dma.c ****   {
 10348              		.loc 1 713 0 discriminator 154
 10349 13bc 01F58061 		add	r1, r1, #1024
 10350 13c0 8B42     		cmp	r3, r1
 10351 13c2 2CD0     		beq	.L1520
 713:../Drivers/STM32F4xx_HAL_Driver/Src/stm32f4xx_hal_dma.c ****   {
 10352              		.loc 1 713 0 discriminator 156
ARM GAS  /tmp/ccIvKYQX.s 			page 226


 10353 13c4 A1F56871 		sub	r1, r1, #928
 10354 13c8 8B42     		cmp	r3, r1
 10355 13ca 2AD0     		beq	.L1521
 713:../Drivers/STM32F4xx_HAL_Driver/Src/stm32f4xx_hal_dma.c ****   {
 10356              		.loc 1 713 0 discriminator 158
 10357 13cc 01F58061 		add	r1, r1, #1024
 10358 13d0 8B42     		cmp	r3, r1
 10359 13d2 28D0     		beq	.L1522
 713:../Drivers/STM32F4xx_HAL_Driver/Src/stm32f4xx_hal_dma.c ****   {
 10360              		.loc 1 713 0 discriminator 160
 10361 13d4 A1F58961 		sub	r1, r1, #1096
 10362 13d8 8B42     		cmp	r3, r1
 10363 13da 26D0     		beq	.L1523
 713:../Drivers/STM32F4xx_HAL_Driver/Src/stm32f4xx_hal_dma.c ****   {
 10364              		.loc 1 713 0 discriminator 162
 10365 13dc 01F58061 		add	r1, r1, #1024
 10366 13e0 8B42     		cmp	r3, r1
 10367 13e2 25D0     		beq	.L1524
 713:../Drivers/STM32F4xx_HAL_Driver/Src/stm32f4xx_hal_dma.c ****   {
 10368              		.loc 1 713 0 discriminator 164
 10369 13e4 A1F56871 		sub	r1, r1, #928
 10370 13e8 8B42     		cmp	r3, r1
 10371 13ea 24D0     		beq	.L1525
 713:../Drivers/STM32F4xx_HAL_Driver/Src/stm32f4xx_hal_dma.c ****   {
 10372              		.loc 1 713 0 discriminator 166
 10373 13ec 01F58061 		add	r1, r1, #1024
 10374 13f0 8B42     		cmp	r3, r1
 10375 13f2 23D0     		beq	.L1526
 713:../Drivers/STM32F4xx_HAL_Driver/Src/stm32f4xx_hal_dma.c ****   {
 10376              		.loc 1 713 0 discriminator 168
 10377 13f4 A1F58961 		sub	r1, r1, #1096
 10378 13f8 8B42     		cmp	r3, r1
 10379 13fa 22D0     		beq	.L1527
 713:../Drivers/STM32F4xx_HAL_Driver/Src/stm32f4xx_hal_dma.c ****   {
 10380              		.loc 1 713 0 discriminator 170
 10381 13fc 01F58061 		add	r1, r1, #1024
 10382 1400 8B42     		cmp	r3, r1
 10383 1402 21D0     		beq	.L1528
 713:../Drivers/STM32F4xx_HAL_Driver/Src/stm32f4xx_hal_dma.c ****   {
 10384              		.loc 1 713 0 discriminator 172
 10385 1404 A1F56871 		sub	r1, r1, #928
 10386 1408 8B42     		cmp	r3, r1
 10387 140a 20D0     		beq	.L1529
 713:../Drivers/STM32F4xx_HAL_Driver/Src/stm32f4xx_hal_dma.c ****   {
 10388              		.loc 1 713 0 discriminator 174
 10389 140c 01F58061 		add	r1, r1, #1024
 10390 1410 8B42     		cmp	r3, r1
 10391 1412 29D1     		bne	.L1530
 713:../Drivers/STM32F4xx_HAL_Driver/Src/stm32f4xx_hal_dma.c ****   {
 10392              		.loc 1 713 0
 10393 1414 4FF48011 		mov	r1, #1048576
 10394 1418 28E0     		b	.L1141
 10395              	.L1519:
 10396 141a 1021     		movs	r1, #16
 10397 141c 26E0     		b	.L1141
 10398              	.L1520:
 10399 141e 1021     		movs	r1, #16
ARM GAS  /tmp/ccIvKYQX.s 			page 227


 10400 1420 24E0     		b	.L1141
 10401              	.L1521:
 10402 1422 1021     		movs	r1, #16
 10403 1424 22E0     		b	.L1141
 10404              	.L1522:
 10405 1426 1021     		movs	r1, #16
 10406 1428 20E0     		b	.L1141
 10407              	.L1523:
 10408 142a 4FF48061 		mov	r1, #1024
 10409 142e 1DE0     		b	.L1141
 10410              	.L1524:
 10411 1430 4FF48061 		mov	r1, #1024
 10412 1434 1AE0     		b	.L1141
 10413              	.L1525:
 10414 1436 4FF48061 		mov	r1, #1024
 10415 143a 17E0     		b	.L1141
 10416              	.L1526:
 10417 143c 4FF48061 		mov	r1, #1024
 10418 1440 14E0     		b	.L1141
 10419              	.L1527:
 10420 1442 4FF48011 		mov	r1, #1048576
 10421 1446 11E0     		b	.L1141
 10422              	.L1528:
 10423 1448 4FF48011 		mov	r1, #1048576
 10424 144c 0EE0     		b	.L1141
 10425              	.L1529:
 10426 144e 4FF48011 		mov	r1, #1048576
 10427 1452 0BE0     		b	.L1141
 10428              	.L1785:
 10429              		.align	2
 10430              	.L1784:
 10431 1454 00600240 		.word	1073897472
 10432 1458 58640240 		.word	1073898584
 10433 145c 10600240 		.word	1073897488
 10434 1460 B8600240 		.word	1073897656
 10435 1464 58600240 		.word	1073897560
 10436              	.L1530:
 10437 1468 4FF08061 		mov	r1, #67108864
 10438              	.L1141:
 713:../Drivers/STM32F4xx_HAL_Driver/Src/stm32f4xx_hal_dma.c ****   {
 10439              		.loc 1 713 0 discriminator 201
 10440 146c 1142     		tst	r1, r2
 10441 146e 14BF     		ite	ne
 10442 1470 0122     		movne	r2, #1
 10443 1472 0022     		moveq	r2, #0
 10444              	.L1136:
 713:../Drivers/STM32F4xx_HAL_Driver/Src/stm32f4xx_hal_dma.c ****   {
 10445              		.loc 1 713 0 discriminator 204
 10446 1474 002A     		cmp	r2, #0
 10447 1476 00F0F682 		beq	.L1142
 715:../Drivers/STM32F4xx_HAL_Driver/Src/stm32f4xx_hal_dma.c ****     { 
 10448              		.loc 1 715 0 is_stmt 1
 10449 147a 1A68     		ldr	r2, [r3]
 10450 147c 12F0080F 		tst	r2, #8
 10451 1480 00F0F182 		beq	.L1142
 718:../Drivers/STM32F4xx_HAL_Driver/Src/stm32f4xx_hal_dma.c ****       {
 10452              		.loc 1 718 0
ARM GAS  /tmp/ccIvKYQX.s 			page 228


 10453 1484 1A68     		ldr	r2, [r3]
 10454 1486 12F4802F 		tst	r2, #262144
 10455 148a 00F07781 		beq	.L1143
 721:../Drivers/STM32F4xx_HAL_Driver/Src/stm32f4xx_hal_dma.c **** 
 10456              		.loc 1 721 0
 10457 148e B54A     		ldr	r2, .L1786
 10458 1490 9342     		cmp	r3, r2
 10459 1492 54D9     		bls	.L1144
 721:../Drivers/STM32F4xx_HAL_Driver/Src/stm32f4xx_hal_dma.c **** 
 10460              		.loc 1 721 0 is_stmt 0 discriminator 1
 10461 1494 A2F58962 		sub	r2, r2, #1096
 10462 1498 9342     		cmp	r3, r2
 10463 149a 2ED0     		beq	.L1531
 721:../Drivers/STM32F4xx_HAL_Driver/Src/stm32f4xx_hal_dma.c **** 
 10464              		.loc 1 721 0 discriminator 3
 10465 149c 02F58062 		add	r2, r2, #1024
 10466 14a0 9342     		cmp	r3, r2
 10467 14a2 2CD0     		beq	.L1532
 721:../Drivers/STM32F4xx_HAL_Driver/Src/stm32f4xx_hal_dma.c **** 
 10468              		.loc 1 721 0 discriminator 5
 10469 14a4 A2F56872 		sub	r2, r2, #928
 10470 14a8 9342     		cmp	r3, r2
 10471 14aa 2AD0     		beq	.L1533
 721:../Drivers/STM32F4xx_HAL_Driver/Src/stm32f4xx_hal_dma.c **** 
 10472              		.loc 1 721 0 discriminator 7
 10473 14ac 02F58062 		add	r2, r2, #1024
 10474 14b0 9342     		cmp	r3, r2
 10475 14b2 28D0     		beq	.L1534
 721:../Drivers/STM32F4xx_HAL_Driver/Src/stm32f4xx_hal_dma.c **** 
 10476              		.loc 1 721 0 discriminator 9
 10477 14b4 A2F58962 		sub	r2, r2, #1096
 10478 14b8 9342     		cmp	r3, r2
 10479 14ba 26D0     		beq	.L1535
 721:../Drivers/STM32F4xx_HAL_Driver/Src/stm32f4xx_hal_dma.c **** 
 10480              		.loc 1 721 0 discriminator 11
 10481 14bc 02F58062 		add	r2, r2, #1024
 10482 14c0 9342     		cmp	r3, r2
 10483 14c2 25D0     		beq	.L1536
 721:../Drivers/STM32F4xx_HAL_Driver/Src/stm32f4xx_hal_dma.c **** 
 10484              		.loc 1 721 0 discriminator 13
 10485 14c4 A2F56872 		sub	r2, r2, #928
 10486 14c8 9342     		cmp	r3, r2
 10487 14ca 24D0     		beq	.L1537
 721:../Drivers/STM32F4xx_HAL_Driver/Src/stm32f4xx_hal_dma.c **** 
 10488              		.loc 1 721 0 discriminator 15
 10489 14cc 02F58062 		add	r2, r2, #1024
 10490 14d0 9342     		cmp	r3, r2
 10491 14d2 23D0     		beq	.L1538
 721:../Drivers/STM32F4xx_HAL_Driver/Src/stm32f4xx_hal_dma.c **** 
 10492              		.loc 1 721 0 discriminator 17
 10493 14d4 A2F58962 		sub	r2, r2, #1096
 10494 14d8 9342     		cmp	r3, r2
 10495 14da 22D0     		beq	.L1539
 721:../Drivers/STM32F4xx_HAL_Driver/Src/stm32f4xx_hal_dma.c **** 
 10496              		.loc 1 721 0 discriminator 19
 10497 14dc 02F58062 		add	r2, r2, #1024
 10498 14e0 9342     		cmp	r3, r2
ARM GAS  /tmp/ccIvKYQX.s 			page 229


 10499 14e2 21D0     		beq	.L1540
 721:../Drivers/STM32F4xx_HAL_Driver/Src/stm32f4xx_hal_dma.c **** 
 10500              		.loc 1 721 0 discriminator 21
 10501 14e4 A2F56872 		sub	r2, r2, #928
 10502 14e8 9342     		cmp	r3, r2
 10503 14ea 20D0     		beq	.L1541
 721:../Drivers/STM32F4xx_HAL_Driver/Src/stm32f4xx_hal_dma.c **** 
 10504              		.loc 1 721 0 discriminator 23
 10505 14ec 02F58062 		add	r2, r2, #1024
 10506 14f0 9342     		cmp	r3, r2
 10507 14f2 1FD1     		bne	.L1542
 721:../Drivers/STM32F4xx_HAL_Driver/Src/stm32f4xx_hal_dma.c **** 
 10508              		.loc 1 721 0
 10509 14f4 4FF48012 		mov	r2, #1048576
 10510 14f8 1EE0     		b	.L1145
 10511              	.L1531:
 10512 14fa 1022     		movs	r2, #16
 10513 14fc 1CE0     		b	.L1145
 10514              	.L1532:
 10515 14fe 1022     		movs	r2, #16
 10516 1500 1AE0     		b	.L1145
 10517              	.L1533:
 10518 1502 1022     		movs	r2, #16
 10519 1504 18E0     		b	.L1145
 10520              	.L1534:
 10521 1506 1022     		movs	r2, #16
 10522 1508 16E0     		b	.L1145
 10523              	.L1535:
 10524 150a 4FF48062 		mov	r2, #1024
 10525 150e 13E0     		b	.L1145
 10526              	.L1536:
 10527 1510 4FF48062 		mov	r2, #1024
 10528 1514 10E0     		b	.L1145
 10529              	.L1537:
 10530 1516 4FF48062 		mov	r2, #1024
 10531 151a 0DE0     		b	.L1145
 10532              	.L1538:
 10533 151c 4FF48062 		mov	r2, #1024
 10534 1520 0AE0     		b	.L1145
 10535              	.L1539:
 10536 1522 4FF48012 		mov	r2, #1048576
 10537 1526 07E0     		b	.L1145
 10538              	.L1540:
 10539 1528 4FF48012 		mov	r2, #1048576
 10540 152c 04E0     		b	.L1145
 10541              	.L1541:
 10542 152e 4FF48012 		mov	r2, #1048576
 10543 1532 01E0     		b	.L1145
 10544              	.L1542:
 10545 1534 4FF08062 		mov	r2, #67108864
 10546              	.L1145:
 721:../Drivers/STM32F4xx_HAL_Driver/Src/stm32f4xx_hal_dma.c **** 
 10547              		.loc 1 721 0 discriminator 50
 10548 1538 8B4B     		ldr	r3, .L1786+4
 10549 153a DA60     		str	r2, [r3, #12]
 10550 153c 00E1     		b	.L1146
 10551              	.L1144:
ARM GAS  /tmp/ccIvKYQX.s 			page 230


 721:../Drivers/STM32F4xx_HAL_Driver/Src/stm32f4xx_hal_dma.c **** 
 10552              		.loc 1 721 0 discriminator 2
 10553 153e 8B4A     		ldr	r2, .L1786+8
 10554 1540 9342     		cmp	r3, r2
 10555 1542 53D9     		bls	.L1147
 721:../Drivers/STM32F4xx_HAL_Driver/Src/stm32f4xx_hal_dma.c **** 
 10556              		.loc 1 721 0 discriminator 51
 10557 1544 A83A     		subs	r2, r2, #168
 10558 1546 9342     		cmp	r3, r2
 10559 1548 2ED0     		beq	.L1543
 721:../Drivers/STM32F4xx_HAL_Driver/Src/stm32f4xx_hal_dma.c **** 
 10560              		.loc 1 721 0 discriminator 53
 10561 154a 02F58062 		add	r2, r2, #1024
 10562 154e 9342     		cmp	r3, r2
 10563 1550 2CD0     		beq	.L1544
 721:../Drivers/STM32F4xx_HAL_Driver/Src/stm32f4xx_hal_dma.c **** 
 10564              		.loc 1 721 0 discriminator 55
 10565 1552 A2F56872 		sub	r2, r2, #928
 10566 1556 9342     		cmp	r3, r2
 10567 1558 2AD0     		beq	.L1545
 721:../Drivers/STM32F4xx_HAL_Driver/Src/stm32f4xx_hal_dma.c **** 
 10568              		.loc 1 721 0 discriminator 57
 10569 155a 02F58062 		add	r2, r2, #1024
 10570 155e 9342     		cmp	r3, r2
 10571 1560 28D0     		beq	.L1546
 721:../Drivers/STM32F4xx_HAL_Driver/Src/stm32f4xx_hal_dma.c **** 
 10572              		.loc 1 721 0 discriminator 59
 10573 1562 A2F58962 		sub	r2, r2, #1096
 10574 1566 9342     		cmp	r3, r2
 10575 1568 26D0     		beq	.L1547
 721:../Drivers/STM32F4xx_HAL_Driver/Src/stm32f4xx_hal_dma.c **** 
 10576              		.loc 1 721 0 discriminator 61
 10577 156a 02F58062 		add	r2, r2, #1024
 10578 156e 9342     		cmp	r3, r2
 10579 1570 25D0     		beq	.L1548
 721:../Drivers/STM32F4xx_HAL_Driver/Src/stm32f4xx_hal_dma.c **** 
 10580              		.loc 1 721 0 discriminator 63
 10581 1572 A2F56872 		sub	r2, r2, #928
 10582 1576 9342     		cmp	r3, r2
 10583 1578 24D0     		beq	.L1549
 721:../Drivers/STM32F4xx_HAL_Driver/Src/stm32f4xx_hal_dma.c **** 
 10584              		.loc 1 721 0 discriminator 65
 10585 157a 02F58062 		add	r2, r2, #1024
 10586 157e 9342     		cmp	r3, r2
 10587 1580 23D0     		beq	.L1550
 721:../Drivers/STM32F4xx_HAL_Driver/Src/stm32f4xx_hal_dma.c **** 
 10588              		.loc 1 721 0 discriminator 67
 10589 1582 A2F58962 		sub	r2, r2, #1096
 10590 1586 9342     		cmp	r3, r2
 10591 1588 22D0     		beq	.L1551
 721:../Drivers/STM32F4xx_HAL_Driver/Src/stm32f4xx_hal_dma.c **** 
 10592              		.loc 1 721 0 discriminator 69
 10593 158a 02F58062 		add	r2, r2, #1024
 10594 158e 9342     		cmp	r3, r2
 10595 1590 21D0     		beq	.L1552
 721:../Drivers/STM32F4xx_HAL_Driver/Src/stm32f4xx_hal_dma.c **** 
 10596              		.loc 1 721 0 discriminator 71
ARM GAS  /tmp/ccIvKYQX.s 			page 231


 10597 1592 A2F56872 		sub	r2, r2, #928
 10598 1596 9342     		cmp	r3, r2
 10599 1598 20D0     		beq	.L1553
 721:../Drivers/STM32F4xx_HAL_Driver/Src/stm32f4xx_hal_dma.c **** 
 10600              		.loc 1 721 0 discriminator 73
 10601 159a 02F58062 		add	r2, r2, #1024
 10602 159e 9342     		cmp	r3, r2
 10603 15a0 1FD1     		bne	.L1554
 721:../Drivers/STM32F4xx_HAL_Driver/Src/stm32f4xx_hal_dma.c **** 
 10604              		.loc 1 721 0
 10605 15a2 4FF48012 		mov	r2, #1048576
 10606 15a6 1EE0     		b	.L1148
 10607              	.L1543:
 10608 15a8 1022     		movs	r2, #16
 10609 15aa 1CE0     		b	.L1148
 10610              	.L1544:
 10611 15ac 1022     		movs	r2, #16
 10612 15ae 1AE0     		b	.L1148
 10613              	.L1545:
 10614 15b0 1022     		movs	r2, #16
 10615 15b2 18E0     		b	.L1148
 10616              	.L1546:
 10617 15b4 1022     		movs	r2, #16
 10618 15b6 16E0     		b	.L1148
 10619              	.L1547:
 10620 15b8 4FF48062 		mov	r2, #1024
 10621 15bc 13E0     		b	.L1148
 10622              	.L1548:
 10623 15be 4FF48062 		mov	r2, #1024
 10624 15c2 10E0     		b	.L1148
 10625              	.L1549:
 10626 15c4 4FF48062 		mov	r2, #1024
 10627 15c8 0DE0     		b	.L1148
 10628              	.L1550:
 10629 15ca 4FF48062 		mov	r2, #1024
 10630 15ce 0AE0     		b	.L1148
 10631              	.L1551:
 10632 15d0 4FF48012 		mov	r2, #1048576
 10633 15d4 07E0     		b	.L1148
 10634              	.L1552:
 10635 15d6 4FF48012 		mov	r2, #1048576
 10636 15da 04E0     		b	.L1148
 10637              	.L1553:
 10638 15dc 4FF48012 		mov	r2, #1048576
 10639 15e0 01E0     		b	.L1148
 10640              	.L1554:
 10641 15e2 4FF08062 		mov	r2, #67108864
 10642              	.L1148:
 721:../Drivers/STM32F4xx_HAL_Driver/Src/stm32f4xx_hal_dma.c **** 
 10643              		.loc 1 721 0 discriminator 100
 10644 15e6 604B     		ldr	r3, .L1786+4
 10645 15e8 9A60     		str	r2, [r3, #8]
 10646 15ea A9E0     		b	.L1146
 10647              	.L1147:
 721:../Drivers/STM32F4xx_HAL_Driver/Src/stm32f4xx_hal_dma.c **** 
 10648              		.loc 1 721 0 discriminator 52
 10649 15ec 604A     		ldr	r2, .L1786+12
ARM GAS  /tmp/ccIvKYQX.s 			page 232


 10650 15ee 9342     		cmp	r3, r2
 10651 15f0 53D9     		bls	.L1150
 721:../Drivers/STM32F4xx_HAL_Driver/Src/stm32f4xx_hal_dma.c **** 
 10652              		.loc 1 721 0 discriminator 102
 10653 15f2 483A     		subs	r2, r2, #72
 10654 15f4 9342     		cmp	r3, r2
 10655 15f6 2ED0     		beq	.L1555
 721:../Drivers/STM32F4xx_HAL_Driver/Src/stm32f4xx_hal_dma.c **** 
 10656              		.loc 1 721 0 discriminator 104
 10657 15f8 02F58062 		add	r2, r2, #1024
 10658 15fc 9342     		cmp	r3, r2
 10659 15fe 2CD0     		beq	.L1556
 721:../Drivers/STM32F4xx_HAL_Driver/Src/stm32f4xx_hal_dma.c **** 
 10660              		.loc 1 721 0 discriminator 106
 10661 1600 A2F56872 		sub	r2, r2, #928
 10662 1604 9342     		cmp	r3, r2
 10663 1606 2AD0     		beq	.L1557
 721:../Drivers/STM32F4xx_HAL_Driver/Src/stm32f4xx_hal_dma.c **** 
 10664              		.loc 1 721 0 discriminator 108
 10665 1608 02F58062 		add	r2, r2, #1024
 10666 160c 9342     		cmp	r3, r2
 10667 160e 28D0     		beq	.L1558
 721:../Drivers/STM32F4xx_HAL_Driver/Src/stm32f4xx_hal_dma.c **** 
 10668              		.loc 1 721 0 discriminator 110
 10669 1610 A2F58962 		sub	r2, r2, #1096
 10670 1614 9342     		cmp	r3, r2
 10671 1616 26D0     		beq	.L1559
 721:../Drivers/STM32F4xx_HAL_Driver/Src/stm32f4xx_hal_dma.c **** 
 10672              		.loc 1 721 0 discriminator 112
 10673 1618 02F58062 		add	r2, r2, #1024
 10674 161c 9342     		cmp	r3, r2
 10675 161e 25D0     		beq	.L1560
 721:../Drivers/STM32F4xx_HAL_Driver/Src/stm32f4xx_hal_dma.c **** 
 10676              		.loc 1 721 0 discriminator 114
 10677 1620 A2F56872 		sub	r2, r2, #928
 10678 1624 9342     		cmp	r3, r2
 10679 1626 24D0     		beq	.L1561
 721:../Drivers/STM32F4xx_HAL_Driver/Src/stm32f4xx_hal_dma.c **** 
 10680              		.loc 1 721 0 discriminator 116
 10681 1628 02F58062 		add	r2, r2, #1024
 10682 162c 9342     		cmp	r3, r2
 10683 162e 23D0     		beq	.L1562
 721:../Drivers/STM32F4xx_HAL_Driver/Src/stm32f4xx_hal_dma.c **** 
 10684              		.loc 1 721 0 discriminator 118
 10685 1630 A2F58962 		sub	r2, r2, #1096
 10686 1634 9342     		cmp	r3, r2
 10687 1636 22D0     		beq	.L1563
 721:../Drivers/STM32F4xx_HAL_Driver/Src/stm32f4xx_hal_dma.c **** 
 10688              		.loc 1 721 0 discriminator 120
 10689 1638 02F58062 		add	r2, r2, #1024
 10690 163c 9342     		cmp	r3, r2
 10691 163e 21D0     		beq	.L1564
 721:../Drivers/STM32F4xx_HAL_Driver/Src/stm32f4xx_hal_dma.c **** 
 10692              		.loc 1 721 0 discriminator 122
 10693 1640 A2F56872 		sub	r2, r2, #928
 10694 1644 9342     		cmp	r3, r2
 10695 1646 20D0     		beq	.L1565
ARM GAS  /tmp/ccIvKYQX.s 			page 233


 721:../Drivers/STM32F4xx_HAL_Driver/Src/stm32f4xx_hal_dma.c **** 
 10696              		.loc 1 721 0 discriminator 124
 10697 1648 02F58062 		add	r2, r2, #1024
 10698 164c 9342     		cmp	r3, r2
 10699 164e 1FD1     		bne	.L1566
 721:../Drivers/STM32F4xx_HAL_Driver/Src/stm32f4xx_hal_dma.c **** 
 10700              		.loc 1 721 0
 10701 1650 4FF48013 		mov	r3, #1048576
 10702 1654 1EE0     		b	.L1151
 10703              	.L1555:
 10704 1656 1023     		movs	r3, #16
 10705 1658 1CE0     		b	.L1151
 10706              	.L1556:
 10707 165a 1023     		movs	r3, #16
 10708 165c 1AE0     		b	.L1151
 10709              	.L1557:
 10710 165e 1023     		movs	r3, #16
 10711 1660 18E0     		b	.L1151
 10712              	.L1558:
 10713 1662 1023     		movs	r3, #16
 10714 1664 16E0     		b	.L1151
 10715              	.L1559:
 10716 1666 4FF48063 		mov	r3, #1024
 10717 166a 13E0     		b	.L1151
 10718              	.L1560:
 10719 166c 4FF48063 		mov	r3, #1024
 10720 1670 10E0     		b	.L1151
 10721              	.L1561:
 10722 1672 4FF48063 		mov	r3, #1024
 10723 1676 0DE0     		b	.L1151
 10724              	.L1562:
 10725 1678 4FF48063 		mov	r3, #1024
 10726 167c 0AE0     		b	.L1151
 10727              	.L1563:
 10728 167e 4FF48013 		mov	r3, #1048576
 10729 1682 07E0     		b	.L1151
 10730              	.L1564:
 10731 1684 4FF48013 		mov	r3, #1048576
 10732 1688 04E0     		b	.L1151
 10733              	.L1565:
 10734 168a 4FF48013 		mov	r3, #1048576
 10735 168e 01E0     		b	.L1151
 10736              	.L1566:
 10737 1690 4FF08063 		mov	r3, #67108864
 10738              	.L1151:
 721:../Drivers/STM32F4xx_HAL_Driver/Src/stm32f4xx_hal_dma.c **** 
 10739              		.loc 1 721 0 discriminator 151
 10740 1694 374A     		ldr	r2, .L1786+16
 10741 1696 D360     		str	r3, [r2, #12]
 10742 1698 52E0     		b	.L1146
 10743              	.L1150:
 721:../Drivers/STM32F4xx_HAL_Driver/Src/stm32f4xx_hal_dma.c **** 
 10744              		.loc 1 721 0 discriminator 103
 10745 169a 374A     		ldr	r2, .L1786+20
 10746 169c 9342     		cmp	r3, r2
 10747 169e 2ED0     		beq	.L1567
 721:../Drivers/STM32F4xx_HAL_Driver/Src/stm32f4xx_hal_dma.c **** 
ARM GAS  /tmp/ccIvKYQX.s 			page 234


 10748              		.loc 1 721 0 discriminator 153
 10749 16a0 02F58062 		add	r2, r2, #1024
 10750 16a4 9342     		cmp	r3, r2
 10751 16a6 2CD0     		beq	.L1568
 721:../Drivers/STM32F4xx_HAL_Driver/Src/stm32f4xx_hal_dma.c **** 
 10752              		.loc 1 721 0 discriminator 155
 10753 16a8 A2F56872 		sub	r2, r2, #928
 10754 16ac 9342     		cmp	r3, r2
 10755 16ae 2AD0     		beq	.L1569
 721:../Drivers/STM32F4xx_HAL_Driver/Src/stm32f4xx_hal_dma.c **** 
 10756              		.loc 1 721 0 discriminator 157
 10757 16b0 02F58062 		add	r2, r2, #1024
 10758 16b4 9342     		cmp	r3, r2
 10759 16b6 28D0     		beq	.L1570
 721:../Drivers/STM32F4xx_HAL_Driver/Src/stm32f4xx_hal_dma.c **** 
 10760              		.loc 1 721 0 discriminator 159
 10761 16b8 A2F58962 		sub	r2, r2, #1096
 10762 16bc 9342     		cmp	r3, r2
 10763 16be 26D0     		beq	.L1571
 721:../Drivers/STM32F4xx_HAL_Driver/Src/stm32f4xx_hal_dma.c **** 
 10764              		.loc 1 721 0 discriminator 161
 10765 16c0 02F58062 		add	r2, r2, #1024
 10766 16c4 9342     		cmp	r3, r2
 10767 16c6 25D0     		beq	.L1572
 721:../Drivers/STM32F4xx_HAL_Driver/Src/stm32f4xx_hal_dma.c **** 
 10768              		.loc 1 721 0 discriminator 163
 10769 16c8 A2F56872 		sub	r2, r2, #928
 10770 16cc 9342     		cmp	r3, r2
 10771 16ce 24D0     		beq	.L1573
 721:../Drivers/STM32F4xx_HAL_Driver/Src/stm32f4xx_hal_dma.c **** 
 10772              		.loc 1 721 0 discriminator 165
 10773 16d0 02F58062 		add	r2, r2, #1024
 10774 16d4 9342     		cmp	r3, r2
 10775 16d6 23D0     		beq	.L1574
 721:../Drivers/STM32F4xx_HAL_Driver/Src/stm32f4xx_hal_dma.c **** 
 10776              		.loc 1 721 0 discriminator 167
 10777 16d8 A2F58962 		sub	r2, r2, #1096
 10778 16dc 9342     		cmp	r3, r2
 10779 16de 22D0     		beq	.L1575
 721:../Drivers/STM32F4xx_HAL_Driver/Src/stm32f4xx_hal_dma.c **** 
 10780              		.loc 1 721 0 discriminator 169
 10781 16e0 02F58062 		add	r2, r2, #1024
 10782 16e4 9342     		cmp	r3, r2
 10783 16e6 21D0     		beq	.L1576
 721:../Drivers/STM32F4xx_HAL_Driver/Src/stm32f4xx_hal_dma.c **** 
 10784              		.loc 1 721 0 discriminator 171
 10785 16e8 A2F56872 		sub	r2, r2, #928
 10786 16ec 9342     		cmp	r3, r2
 10787 16ee 20D0     		beq	.L1577
 721:../Drivers/STM32F4xx_HAL_Driver/Src/stm32f4xx_hal_dma.c **** 
 10788              		.loc 1 721 0 discriminator 173
 10789 16f0 02F58062 		add	r2, r2, #1024
 10790 16f4 9342     		cmp	r3, r2
 10791 16f6 1FD1     		bne	.L1578
 721:../Drivers/STM32F4xx_HAL_Driver/Src/stm32f4xx_hal_dma.c **** 
 10792              		.loc 1 721 0
 10793 16f8 4FF48013 		mov	r3, #1048576
ARM GAS  /tmp/ccIvKYQX.s 			page 235


 10794 16fc 1EE0     		b	.L1152
 10795              	.L1567:
 10796 16fe 1023     		movs	r3, #16
 10797 1700 1CE0     		b	.L1152
 10798              	.L1568:
 10799 1702 1023     		movs	r3, #16
 10800 1704 1AE0     		b	.L1152
 10801              	.L1569:
 10802 1706 1023     		movs	r3, #16
 10803 1708 18E0     		b	.L1152
 10804              	.L1570:
 10805 170a 1023     		movs	r3, #16
 10806 170c 16E0     		b	.L1152
 10807              	.L1571:
 10808 170e 4FF48063 		mov	r3, #1024
 10809 1712 13E0     		b	.L1152
 10810              	.L1572:
 10811 1714 4FF48063 		mov	r3, #1024
 10812 1718 10E0     		b	.L1152
 10813              	.L1573:
 10814 171a 4FF48063 		mov	r3, #1024
 10815 171e 0DE0     		b	.L1152
 10816              	.L1574:
 10817 1720 4FF48063 		mov	r3, #1024
 10818 1724 0AE0     		b	.L1152
 10819              	.L1575:
 10820 1726 4FF48013 		mov	r3, #1048576
 10821 172a 07E0     		b	.L1152
 10822              	.L1576:
 10823 172c 4FF48013 		mov	r3, #1048576
 10824 1730 04E0     		b	.L1152
 10825              	.L1577:
 10826 1732 4FF48013 		mov	r3, #1048576
 10827 1736 01E0     		b	.L1152
 10828              	.L1578:
 10829 1738 4FF08063 		mov	r3, #67108864
 10830              	.L1152:
 721:../Drivers/STM32F4xx_HAL_Driver/Src/stm32f4xx_hal_dma.c **** 
 10831              		.loc 1 721 0 discriminator 200
 10832 173c 0D4A     		ldr	r2, .L1786+16
 10833 173e 9360     		str	r3, [r2, #8]
 10834              	.L1146:
 724:../Drivers/STM32F4xx_HAL_Driver/Src/stm32f4xx_hal_dma.c ****         {
 10835              		.loc 1 724 0 is_stmt 1
 10836 1740 2368     		ldr	r3, [r4]
 10837 1742 1A68     		ldr	r2, [r3]
 10838 1744 12F4002F 		tst	r2, #524288
 10839 1748 03D1     		bne	.L1153
 727:../Drivers/STM32F4xx_HAL_Driver/Src/stm32f4xx_hal_dma.c ****         }
 10840              		.loc 1 727 0
 10841 174a 3123     		movs	r3, #49
 10842 174c 84F83530 		strb	r3, [r4, #53]
 10843 1750 85E1     		b	.L1154
 10844              	.L1153:
 730:../Drivers/STM32F4xx_HAL_Driver/Src/stm32f4xx_hal_dma.c ****         {
 10845              		.loc 1 730 0
 10846 1752 1B68     		ldr	r3, [r3]
ARM GAS  /tmp/ccIvKYQX.s 			page 236


 10847 1754 13F4002F 		tst	r3, #524288
 10848 1758 00F08181 		beq	.L1154
 733:../Drivers/STM32F4xx_HAL_Driver/Src/stm32f4xx_hal_dma.c ****         }
 10849              		.loc 1 733 0
 10850 175c 4123     		movs	r3, #65
 10851 175e 84F83530 		strb	r3, [r4, #53]
 10852 1762 7CE1     		b	.L1154
 10853              	.L1787:
 10854              		.align	2
 10855              	.L1786:
 10856 1764 58640240 		.word	1073898584
 10857 1768 00640240 		.word	1073898496
 10858 176c B8600240 		.word	1073897656
 10859 1770 58600240 		.word	1073897560
 10860 1774 00600240 		.word	1073897472
 10861 1778 10600240 		.word	1073897488
 10862              	.L1143:
 739:../Drivers/STM32F4xx_HAL_Driver/Src/stm32f4xx_hal_dma.c ****         {
 10863              		.loc 1 739 0
 10864 177c 1A68     		ldr	r2, [r3]
 10865 177e 12F4807F 		tst	r2, #256
 10866 1782 03D1     		bne	.L1155
 742:../Drivers/STM32F4xx_HAL_Driver/Src/stm32f4xx_hal_dma.c ****         }
 10867              		.loc 1 742 0
 10868 1784 1A68     		ldr	r2, [r3]
 10869 1786 22F00802 		bic	r2, r2, #8
 10870 178a 1A60     		str	r2, [r3]
 10871              	.L1155:
 745:../Drivers/STM32F4xx_HAL_Driver/Src/stm32f4xx_hal_dma.c **** 
 10872              		.loc 1 745 0
 10873 178c 2368     		ldr	r3, [r4]
 10874 178e AA4A     		ldr	r2, .L1788
 10875 1790 9342     		cmp	r3, r2
 10876 1792 54D9     		bls	.L1156
 745:../Drivers/STM32F4xx_HAL_Driver/Src/stm32f4xx_hal_dma.c **** 
 10877              		.loc 1 745 0 is_stmt 0 discriminator 1
 10878 1794 A2F58962 		sub	r2, r2, #1096
 10879 1798 9342     		cmp	r3, r2
 10880 179a 2ED0     		beq	.L1579
 745:../Drivers/STM32F4xx_HAL_Driver/Src/stm32f4xx_hal_dma.c **** 
 10881              		.loc 1 745 0 discriminator 3
 10882 179c 02F58062 		add	r2, r2, #1024
 10883 17a0 9342     		cmp	r3, r2
 10884 17a2 2CD0     		beq	.L1580
 745:../Drivers/STM32F4xx_HAL_Driver/Src/stm32f4xx_hal_dma.c **** 
 10885              		.loc 1 745 0 discriminator 5
 10886 17a4 A2F56872 		sub	r2, r2, #928
 10887 17a8 9342     		cmp	r3, r2
 10888 17aa 2AD0     		beq	.L1581
 745:../Drivers/STM32F4xx_HAL_Driver/Src/stm32f4xx_hal_dma.c **** 
 10889              		.loc 1 745 0 discriminator 7
 10890 17ac 02F58062 		add	r2, r2, #1024
 10891 17b0 9342     		cmp	r3, r2
 10892 17b2 28D0     		beq	.L1582
 745:../Drivers/STM32F4xx_HAL_Driver/Src/stm32f4xx_hal_dma.c **** 
 10893              		.loc 1 745 0 discriminator 9
 10894 17b4 A2F58962 		sub	r2, r2, #1096
ARM GAS  /tmp/ccIvKYQX.s 			page 237


 10895 17b8 9342     		cmp	r3, r2
 10896 17ba 26D0     		beq	.L1583
 745:../Drivers/STM32F4xx_HAL_Driver/Src/stm32f4xx_hal_dma.c **** 
 10897              		.loc 1 745 0 discriminator 11
 10898 17bc 02F58062 		add	r2, r2, #1024
 10899 17c0 9342     		cmp	r3, r2
 10900 17c2 25D0     		beq	.L1584
 745:../Drivers/STM32F4xx_HAL_Driver/Src/stm32f4xx_hal_dma.c **** 
 10901              		.loc 1 745 0 discriminator 13
 10902 17c4 A2F56872 		sub	r2, r2, #928
 10903 17c8 9342     		cmp	r3, r2
 10904 17ca 24D0     		beq	.L1585
 745:../Drivers/STM32F4xx_HAL_Driver/Src/stm32f4xx_hal_dma.c **** 
 10905              		.loc 1 745 0 discriminator 15
 10906 17cc 02F58062 		add	r2, r2, #1024
 10907 17d0 9342     		cmp	r3, r2
 10908 17d2 23D0     		beq	.L1586
 745:../Drivers/STM32F4xx_HAL_Driver/Src/stm32f4xx_hal_dma.c **** 
 10909              		.loc 1 745 0 discriminator 17
 10910 17d4 A2F58962 		sub	r2, r2, #1096
 10911 17d8 9342     		cmp	r3, r2
 10912 17da 22D0     		beq	.L1587
 745:../Drivers/STM32F4xx_HAL_Driver/Src/stm32f4xx_hal_dma.c **** 
 10913              		.loc 1 745 0 discriminator 19
 10914 17dc 02F58062 		add	r2, r2, #1024
 10915 17e0 9342     		cmp	r3, r2
 10916 17e2 21D0     		beq	.L1588
 745:../Drivers/STM32F4xx_HAL_Driver/Src/stm32f4xx_hal_dma.c **** 
 10917              		.loc 1 745 0 discriminator 21
 10918 17e4 A2F56872 		sub	r2, r2, #928
 10919 17e8 9342     		cmp	r3, r2
 10920 17ea 20D0     		beq	.L1589
 745:../Drivers/STM32F4xx_HAL_Driver/Src/stm32f4xx_hal_dma.c **** 
 10921              		.loc 1 745 0 discriminator 23
 10922 17ec 02F58062 		add	r2, r2, #1024
 10923 17f0 9342     		cmp	r3, r2
 10924 17f2 1FD1     		bne	.L1590
 745:../Drivers/STM32F4xx_HAL_Driver/Src/stm32f4xx_hal_dma.c **** 
 10925              		.loc 1 745 0
 10926 17f4 4FF48012 		mov	r2, #1048576
 10927 17f8 1EE0     		b	.L1157
 10928              	.L1579:
 10929 17fa 1022     		movs	r2, #16
 10930 17fc 1CE0     		b	.L1157
 10931              	.L1580:
 10932 17fe 1022     		movs	r2, #16
 10933 1800 1AE0     		b	.L1157
 10934              	.L1581:
 10935 1802 1022     		movs	r2, #16
 10936 1804 18E0     		b	.L1157
 10937              	.L1582:
 10938 1806 1022     		movs	r2, #16
 10939 1808 16E0     		b	.L1157
 10940              	.L1583:
 10941 180a 4FF48062 		mov	r2, #1024
 10942 180e 13E0     		b	.L1157
 10943              	.L1584:
ARM GAS  /tmp/ccIvKYQX.s 			page 238


 10944 1810 4FF48062 		mov	r2, #1024
 10945 1814 10E0     		b	.L1157
 10946              	.L1585:
 10947 1816 4FF48062 		mov	r2, #1024
 10948 181a 0DE0     		b	.L1157
 10949              	.L1586:
 10950 181c 4FF48062 		mov	r2, #1024
 10951 1820 0AE0     		b	.L1157
 10952              	.L1587:
 10953 1822 4FF48012 		mov	r2, #1048576
 10954 1826 07E0     		b	.L1157
 10955              	.L1588:
 10956 1828 4FF48012 		mov	r2, #1048576
 10957 182c 04E0     		b	.L1157
 10958              	.L1589:
 10959 182e 4FF48012 		mov	r2, #1048576
 10960 1832 01E0     		b	.L1157
 10961              	.L1590:
 10962 1834 4FF08062 		mov	r2, #67108864
 10963              	.L1157:
 745:../Drivers/STM32F4xx_HAL_Driver/Src/stm32f4xx_hal_dma.c **** 
 10964              		.loc 1 745 0 discriminator 50
 10965 1838 804B     		ldr	r3, .L1788+4
 10966 183a DA60     		str	r2, [r3, #12]
 10967 183c 0CE1     		b	.L1158
 10968              	.L1156:
 745:../Drivers/STM32F4xx_HAL_Driver/Src/stm32f4xx_hal_dma.c **** 
 10969              		.loc 1 745 0 discriminator 2
 10970 183e 804A     		ldr	r2, .L1788+8
 10971 1840 9342     		cmp	r3, r2
 10972 1842 53D9     		bls	.L1159
 745:../Drivers/STM32F4xx_HAL_Driver/Src/stm32f4xx_hal_dma.c **** 
 10973              		.loc 1 745 0 discriminator 51
 10974 1844 A83A     		subs	r2, r2, #168
 10975 1846 9342     		cmp	r3, r2
 10976 1848 2ED0     		beq	.L1591
 745:../Drivers/STM32F4xx_HAL_Driver/Src/stm32f4xx_hal_dma.c **** 
 10977              		.loc 1 745 0 discriminator 53
 10978 184a 02F58062 		add	r2, r2, #1024
 10979 184e 9342     		cmp	r3, r2
 10980 1850 2CD0     		beq	.L1592
 745:../Drivers/STM32F4xx_HAL_Driver/Src/stm32f4xx_hal_dma.c **** 
 10981              		.loc 1 745 0 discriminator 55
 10982 1852 A2F56872 		sub	r2, r2, #928
 10983 1856 9342     		cmp	r3, r2
 10984 1858 2AD0     		beq	.L1593
 745:../Drivers/STM32F4xx_HAL_Driver/Src/stm32f4xx_hal_dma.c **** 
 10985              		.loc 1 745 0 discriminator 57
 10986 185a 02F58062 		add	r2, r2, #1024
 10987 185e 9342     		cmp	r3, r2
 10988 1860 28D0     		beq	.L1594
 745:../Drivers/STM32F4xx_HAL_Driver/Src/stm32f4xx_hal_dma.c **** 
 10989              		.loc 1 745 0 discriminator 59
 10990 1862 A2F58962 		sub	r2, r2, #1096
 10991 1866 9342     		cmp	r3, r2
 10992 1868 26D0     		beq	.L1595
 745:../Drivers/STM32F4xx_HAL_Driver/Src/stm32f4xx_hal_dma.c **** 
ARM GAS  /tmp/ccIvKYQX.s 			page 239


 10993              		.loc 1 745 0 discriminator 61
 10994 186a 02F58062 		add	r2, r2, #1024
 10995 186e 9342     		cmp	r3, r2
 10996 1870 25D0     		beq	.L1596
 745:../Drivers/STM32F4xx_HAL_Driver/Src/stm32f4xx_hal_dma.c **** 
 10997              		.loc 1 745 0 discriminator 63
 10998 1872 A2F56872 		sub	r2, r2, #928
 10999 1876 9342     		cmp	r3, r2
 11000 1878 24D0     		beq	.L1597
 745:../Drivers/STM32F4xx_HAL_Driver/Src/stm32f4xx_hal_dma.c **** 
 11001              		.loc 1 745 0 discriminator 65
 11002 187a 02F58062 		add	r2, r2, #1024
 11003 187e 9342     		cmp	r3, r2
 11004 1880 23D0     		beq	.L1598
 745:../Drivers/STM32F4xx_HAL_Driver/Src/stm32f4xx_hal_dma.c **** 
 11005              		.loc 1 745 0 discriminator 67
 11006 1882 A2F58962 		sub	r2, r2, #1096
 11007 1886 9342     		cmp	r3, r2
 11008 1888 22D0     		beq	.L1599
 745:../Drivers/STM32F4xx_HAL_Driver/Src/stm32f4xx_hal_dma.c **** 
 11009              		.loc 1 745 0 discriminator 69
 11010 188a 02F58062 		add	r2, r2, #1024
 11011 188e 9342     		cmp	r3, r2
 11012 1890 21D0     		beq	.L1600
 745:../Drivers/STM32F4xx_HAL_Driver/Src/stm32f4xx_hal_dma.c **** 
 11013              		.loc 1 745 0 discriminator 71
 11014 1892 A2F56872 		sub	r2, r2, #928
 11015 1896 9342     		cmp	r3, r2
 11016 1898 20D0     		beq	.L1601
 745:../Drivers/STM32F4xx_HAL_Driver/Src/stm32f4xx_hal_dma.c **** 
 11017              		.loc 1 745 0 discriminator 73
 11018 189a 02F58062 		add	r2, r2, #1024
 11019 189e 9342     		cmp	r3, r2
 11020 18a0 1FD1     		bne	.L1602
 745:../Drivers/STM32F4xx_HAL_Driver/Src/stm32f4xx_hal_dma.c **** 
 11021              		.loc 1 745 0
 11022 18a2 4FF48012 		mov	r2, #1048576
 11023 18a6 1EE0     		b	.L1160
 11024              	.L1591:
 11025 18a8 1022     		movs	r2, #16
 11026 18aa 1CE0     		b	.L1160
 11027              	.L1592:
 11028 18ac 1022     		movs	r2, #16
 11029 18ae 1AE0     		b	.L1160
 11030              	.L1593:
 11031 18b0 1022     		movs	r2, #16
 11032 18b2 18E0     		b	.L1160
 11033              	.L1594:
 11034 18b4 1022     		movs	r2, #16
 11035 18b6 16E0     		b	.L1160
 11036              	.L1595:
 11037 18b8 4FF48062 		mov	r2, #1024
 11038 18bc 13E0     		b	.L1160
 11039              	.L1596:
 11040 18be 4FF48062 		mov	r2, #1024
 11041 18c2 10E0     		b	.L1160
 11042              	.L1597:
ARM GAS  /tmp/ccIvKYQX.s 			page 240


 11043 18c4 4FF48062 		mov	r2, #1024
 11044 18c8 0DE0     		b	.L1160
 11045              	.L1598:
 11046 18ca 4FF48062 		mov	r2, #1024
 11047 18ce 0AE0     		b	.L1160
 11048              	.L1599:
 11049 18d0 4FF48012 		mov	r2, #1048576
 11050 18d4 07E0     		b	.L1160
 11051              	.L1600:
 11052 18d6 4FF48012 		mov	r2, #1048576
 11053 18da 04E0     		b	.L1160
 11054              	.L1601:
 11055 18dc 4FF48012 		mov	r2, #1048576
 11056 18e0 01E0     		b	.L1160
 11057              	.L1602:
 11058 18e2 4FF08062 		mov	r2, #67108864
 11059              	.L1160:
 745:../Drivers/STM32F4xx_HAL_Driver/Src/stm32f4xx_hal_dma.c **** 
 11060              		.loc 1 745 0 discriminator 100
 11061 18e6 554B     		ldr	r3, .L1788+4
 11062 18e8 9A60     		str	r2, [r3, #8]
 11063 18ea B5E0     		b	.L1158
 11064              	.L1159:
 745:../Drivers/STM32F4xx_HAL_Driver/Src/stm32f4xx_hal_dma.c **** 
 11065              		.loc 1 745 0 discriminator 52
 11066 18ec 554A     		ldr	r2, .L1788+12
 11067 18ee 9342     		cmp	r3, r2
 11068 18f0 53D9     		bls	.L1162
 745:../Drivers/STM32F4xx_HAL_Driver/Src/stm32f4xx_hal_dma.c **** 
 11069              		.loc 1 745 0 discriminator 102
 11070 18f2 483A     		subs	r2, r2, #72
 11071 18f4 9342     		cmp	r3, r2
 11072 18f6 2ED0     		beq	.L1603
 745:../Drivers/STM32F4xx_HAL_Driver/Src/stm32f4xx_hal_dma.c **** 
 11073              		.loc 1 745 0 discriminator 104
 11074 18f8 02F58062 		add	r2, r2, #1024
 11075 18fc 9342     		cmp	r3, r2
 11076 18fe 2CD0     		beq	.L1604
 745:../Drivers/STM32F4xx_HAL_Driver/Src/stm32f4xx_hal_dma.c **** 
 11077              		.loc 1 745 0 discriminator 106
 11078 1900 A2F56872 		sub	r2, r2, #928
 11079 1904 9342     		cmp	r3, r2
 11080 1906 2AD0     		beq	.L1605
 745:../Drivers/STM32F4xx_HAL_Driver/Src/stm32f4xx_hal_dma.c **** 
 11081              		.loc 1 745 0 discriminator 108
 11082 1908 02F58062 		add	r2, r2, #1024
 11083 190c 9342     		cmp	r3, r2
 11084 190e 28D0     		beq	.L1606
 745:../Drivers/STM32F4xx_HAL_Driver/Src/stm32f4xx_hal_dma.c **** 
 11085              		.loc 1 745 0 discriminator 110
 11086 1910 A2F58962 		sub	r2, r2, #1096
 11087 1914 9342     		cmp	r3, r2
 11088 1916 26D0     		beq	.L1607
 745:../Drivers/STM32F4xx_HAL_Driver/Src/stm32f4xx_hal_dma.c **** 
 11089              		.loc 1 745 0 discriminator 112
 11090 1918 02F58062 		add	r2, r2, #1024
 11091 191c 9342     		cmp	r3, r2
ARM GAS  /tmp/ccIvKYQX.s 			page 241


 11092 191e 25D0     		beq	.L1608
 745:../Drivers/STM32F4xx_HAL_Driver/Src/stm32f4xx_hal_dma.c **** 
 11093              		.loc 1 745 0 discriminator 114
 11094 1920 A2F56872 		sub	r2, r2, #928
 11095 1924 9342     		cmp	r3, r2
 11096 1926 24D0     		beq	.L1609
 745:../Drivers/STM32F4xx_HAL_Driver/Src/stm32f4xx_hal_dma.c **** 
 11097              		.loc 1 745 0 discriminator 116
 11098 1928 02F58062 		add	r2, r2, #1024
 11099 192c 9342     		cmp	r3, r2
 11100 192e 23D0     		beq	.L1610
 745:../Drivers/STM32F4xx_HAL_Driver/Src/stm32f4xx_hal_dma.c **** 
 11101              		.loc 1 745 0 discriminator 118
 11102 1930 A2F58962 		sub	r2, r2, #1096
 11103 1934 9342     		cmp	r3, r2
 11104 1936 22D0     		beq	.L1611
 745:../Drivers/STM32F4xx_HAL_Driver/Src/stm32f4xx_hal_dma.c **** 
 11105              		.loc 1 745 0 discriminator 120
 11106 1938 02F58062 		add	r2, r2, #1024
 11107 193c 9342     		cmp	r3, r2
 11108 193e 21D0     		beq	.L1612
 745:../Drivers/STM32F4xx_HAL_Driver/Src/stm32f4xx_hal_dma.c **** 
 11109              		.loc 1 745 0 discriminator 122
 11110 1940 A2F56872 		sub	r2, r2, #928
 11111 1944 9342     		cmp	r3, r2
 11112 1946 20D0     		beq	.L1613
 745:../Drivers/STM32F4xx_HAL_Driver/Src/stm32f4xx_hal_dma.c **** 
 11113              		.loc 1 745 0 discriminator 124
 11114 1948 02F58062 		add	r2, r2, #1024
 11115 194c 9342     		cmp	r3, r2
 11116 194e 1FD1     		bne	.L1614
 745:../Drivers/STM32F4xx_HAL_Driver/Src/stm32f4xx_hal_dma.c **** 
 11117              		.loc 1 745 0
 11118 1950 4FF48013 		mov	r3, #1048576
 11119 1954 1EE0     		b	.L1163
 11120              	.L1603:
 11121 1956 1023     		movs	r3, #16
 11122 1958 1CE0     		b	.L1163
 11123              	.L1604:
 11124 195a 1023     		movs	r3, #16
 11125 195c 1AE0     		b	.L1163
 11126              	.L1605:
 11127 195e 1023     		movs	r3, #16
 11128 1960 18E0     		b	.L1163
 11129              	.L1606:
 11130 1962 1023     		movs	r3, #16
 11131 1964 16E0     		b	.L1163
 11132              	.L1607:
 11133 1966 4FF48063 		mov	r3, #1024
 11134 196a 13E0     		b	.L1163
 11135              	.L1608:
 11136 196c 4FF48063 		mov	r3, #1024
 11137 1970 10E0     		b	.L1163
 11138              	.L1609:
 11139 1972 4FF48063 		mov	r3, #1024
 11140 1976 0DE0     		b	.L1163
 11141              	.L1610:
ARM GAS  /tmp/ccIvKYQX.s 			page 242


 11142 1978 4FF48063 		mov	r3, #1024
 11143 197c 0AE0     		b	.L1163
 11144              	.L1611:
 11145 197e 4FF48013 		mov	r3, #1048576
 11146 1982 07E0     		b	.L1163
 11147              	.L1612:
 11148 1984 4FF48013 		mov	r3, #1048576
 11149 1988 04E0     		b	.L1163
 11150              	.L1613:
 11151 198a 4FF48013 		mov	r3, #1048576
 11152 198e 01E0     		b	.L1163
 11153              	.L1614:
 11154 1990 4FF08063 		mov	r3, #67108864
 11155              	.L1163:
 745:../Drivers/STM32F4xx_HAL_Driver/Src/stm32f4xx_hal_dma.c **** 
 11156              		.loc 1 745 0 discriminator 151
 11157 1994 2C4A     		ldr	r2, .L1788+16
 11158 1996 D360     		str	r3, [r2, #12]
 11159 1998 5EE0     		b	.L1158
 11160              	.L1162:
 745:../Drivers/STM32F4xx_HAL_Driver/Src/stm32f4xx_hal_dma.c **** 
 11161              		.loc 1 745 0 discriminator 103
 11162 199a 2C4A     		ldr	r2, .L1788+20
 11163 199c 9342     		cmp	r3, r2
 11164 199e 2ED0     		beq	.L1615
 745:../Drivers/STM32F4xx_HAL_Driver/Src/stm32f4xx_hal_dma.c **** 
 11165              		.loc 1 745 0 discriminator 153
 11166 19a0 02F58062 		add	r2, r2, #1024
 11167 19a4 9342     		cmp	r3, r2
 11168 19a6 2CD0     		beq	.L1616
 745:../Drivers/STM32F4xx_HAL_Driver/Src/stm32f4xx_hal_dma.c **** 
 11169              		.loc 1 745 0 discriminator 155
 11170 19a8 A2F56872 		sub	r2, r2, #928
 11171 19ac 9342     		cmp	r3, r2
 11172 19ae 2AD0     		beq	.L1617
 745:../Drivers/STM32F4xx_HAL_Driver/Src/stm32f4xx_hal_dma.c **** 
 11173              		.loc 1 745 0 discriminator 157
 11174 19b0 02F58062 		add	r2, r2, #1024
 11175 19b4 9342     		cmp	r3, r2
 11176 19b6 28D0     		beq	.L1618
 745:../Drivers/STM32F4xx_HAL_Driver/Src/stm32f4xx_hal_dma.c **** 
 11177              		.loc 1 745 0 discriminator 159
 11178 19b8 A2F58962 		sub	r2, r2, #1096
 11179 19bc 9342     		cmp	r3, r2
 11180 19be 26D0     		beq	.L1619
 745:../Drivers/STM32F4xx_HAL_Driver/Src/stm32f4xx_hal_dma.c **** 
 11181              		.loc 1 745 0 discriminator 161
 11182 19c0 02F58062 		add	r2, r2, #1024
 11183 19c4 9342     		cmp	r3, r2
 11184 19c6 25D0     		beq	.L1620
 745:../Drivers/STM32F4xx_HAL_Driver/Src/stm32f4xx_hal_dma.c **** 
 11185              		.loc 1 745 0 discriminator 163
 11186 19c8 A2F56872 		sub	r2, r2, #928
 11187 19cc 9342     		cmp	r3, r2
 11188 19ce 24D0     		beq	.L1621
 745:../Drivers/STM32F4xx_HAL_Driver/Src/stm32f4xx_hal_dma.c **** 
 11189              		.loc 1 745 0 discriminator 165
ARM GAS  /tmp/ccIvKYQX.s 			page 243


 11190 19d0 02F58062 		add	r2, r2, #1024
 11191 19d4 9342     		cmp	r3, r2
 11192 19d6 23D0     		beq	.L1622
 745:../Drivers/STM32F4xx_HAL_Driver/Src/stm32f4xx_hal_dma.c **** 
 11193              		.loc 1 745 0 discriminator 167
 11194 19d8 A2F58962 		sub	r2, r2, #1096
 11195 19dc 9342     		cmp	r3, r2
 11196 19de 22D0     		beq	.L1623
 745:../Drivers/STM32F4xx_HAL_Driver/Src/stm32f4xx_hal_dma.c **** 
 11197              		.loc 1 745 0 discriminator 169
 11198 19e0 02F58062 		add	r2, r2, #1024
 11199 19e4 9342     		cmp	r3, r2
 11200 19e6 21D0     		beq	.L1624
 745:../Drivers/STM32F4xx_HAL_Driver/Src/stm32f4xx_hal_dma.c **** 
 11201              		.loc 1 745 0 discriminator 171
 11202 19e8 A2F56872 		sub	r2, r2, #928
 11203 19ec 9342     		cmp	r3, r2
 11204 19ee 20D0     		beq	.L1625
 745:../Drivers/STM32F4xx_HAL_Driver/Src/stm32f4xx_hal_dma.c **** 
 11205              		.loc 1 745 0 discriminator 173
 11206 19f0 02F58062 		add	r2, r2, #1024
 11207 19f4 9342     		cmp	r3, r2
 11208 19f6 2BD1     		bne	.L1626
 745:../Drivers/STM32F4xx_HAL_Driver/Src/stm32f4xx_hal_dma.c **** 
 11209              		.loc 1 745 0
 11210 19f8 4FF48013 		mov	r3, #1048576
 11211 19fc 2AE0     		b	.L1164
 11212              	.L1615:
 11213 19fe 1023     		movs	r3, #16
 11214 1a00 28E0     		b	.L1164
 11215              	.L1616:
 11216 1a02 1023     		movs	r3, #16
 11217 1a04 26E0     		b	.L1164
 11218              	.L1617:
 11219 1a06 1023     		movs	r3, #16
 11220 1a08 24E0     		b	.L1164
 11221              	.L1618:
 11222 1a0a 1023     		movs	r3, #16
 11223 1a0c 22E0     		b	.L1164
 11224              	.L1619:
 11225 1a0e 4FF48063 		mov	r3, #1024
 11226 1a12 1FE0     		b	.L1164
 11227              	.L1620:
 11228 1a14 4FF48063 		mov	r3, #1024
 11229 1a18 1CE0     		b	.L1164
 11230              	.L1621:
 11231 1a1a 4FF48063 		mov	r3, #1024
 11232 1a1e 19E0     		b	.L1164
 11233              	.L1622:
 11234 1a20 4FF48063 		mov	r3, #1024
 11235 1a24 16E0     		b	.L1164
 11236              	.L1623:
 11237 1a26 4FF48013 		mov	r3, #1048576
 11238 1a2a 13E0     		b	.L1164
 11239              	.L1624:
 11240 1a2c 4FF48013 		mov	r3, #1048576
 11241 1a30 10E0     		b	.L1164
ARM GAS  /tmp/ccIvKYQX.s 			page 244


 11242              	.L1625:
 11243 1a32 4FF48013 		mov	r3, #1048576
 11244 1a36 0DE0     		b	.L1164
 11245              	.L1789:
 11246              		.align	2
 11247              	.L1788:
 11248 1a38 58640240 		.word	1073898584
 11249 1a3c 00640240 		.word	1073898496
 11250 1a40 B8600240 		.word	1073897656
 11251 1a44 58600240 		.word	1073897560
 11252 1a48 00600240 		.word	1073897472
 11253 1a4c 10600240 		.word	1073897488
 11254              	.L1626:
 11255 1a50 4FF08063 		mov	r3, #67108864
 11256              	.L1164:
 745:../Drivers/STM32F4xx_HAL_Driver/Src/stm32f4xx_hal_dma.c **** 
 11257              		.loc 1 745 0 discriminator 200
 11258 1a54 B64A     		ldr	r2, .L1790
 11259 1a56 9360     		str	r3, [r2, #8]
 11260              	.L1158:
 748:../Drivers/STM32F4xx_HAL_Driver/Src/stm32f4xx_hal_dma.c ****       }
 11261              		.loc 1 748 0 is_stmt 1
 11262 1a58 3123     		movs	r3, #49
 11263 1a5a 84F83530 		strb	r3, [r4, #53]
 11264              	.L1154:
 751:../Drivers/STM32F4xx_HAL_Driver/Src/stm32f4xx_hal_dma.c ****       {
 11265              		.loc 1 751 0
 11266 1a5e 236C     		ldr	r3, [r4, #64]
 11267 1a60 0BB1     		cbz	r3, .L1142
 754:../Drivers/STM32F4xx_HAL_Driver/Src/stm32f4xx_hal_dma.c ****       }
 11268              		.loc 1 754 0
 11269 1a62 2046     		mov	r0, r4
 11270 1a64 9847     		blx	r3
 11271              	.LVL70:
 11272              	.L1142:
 759:../Drivers/STM32F4xx_HAL_Driver/Src/stm32f4xx_hal_dma.c ****   {
 11273              		.loc 1 759 0
 11274 1a66 2368     		ldr	r3, [r4]
 11275 1a68 B24A     		ldr	r2, .L1790+4
 11276 1a6a 9342     		cmp	r3, r2
 11277 1a6c 57D9     		bls	.L1165
 759:../Drivers/STM32F4xx_HAL_Driver/Src/stm32f4xx_hal_dma.c ****   {
 11278              		.loc 1 759 0 is_stmt 0 discriminator 1
 11279 1a6e 583A     		subs	r2, r2, #88
 11280 1a70 5268     		ldr	r2, [r2, #4]
 11281 1a72 B149     		ldr	r1, .L1790+8
 11282 1a74 8B42     		cmp	r3, r1
 11283 1a76 2ED0     		beq	.L1627
 759:../Drivers/STM32F4xx_HAL_Driver/Src/stm32f4xx_hal_dma.c ****   {
 11284              		.loc 1 759 0 discriminator 3
 11285 1a78 01F58061 		add	r1, r1, #1024
 11286 1a7c 8B42     		cmp	r3, r1
 11287 1a7e 2CD0     		beq	.L1628
 759:../Drivers/STM32F4xx_HAL_Driver/Src/stm32f4xx_hal_dma.c ****   {
 11288              		.loc 1 759 0 discriminator 5
 11289 1a80 A1F56871 		sub	r1, r1, #928
 11290 1a84 8B42     		cmp	r3, r1
ARM GAS  /tmp/ccIvKYQX.s 			page 245


 11291 1a86 2AD0     		beq	.L1629
 759:../Drivers/STM32F4xx_HAL_Driver/Src/stm32f4xx_hal_dma.c ****   {
 11292              		.loc 1 759 0 discriminator 7
 11293 1a88 01F58061 		add	r1, r1, #1024
 11294 1a8c 8B42     		cmp	r3, r1
 11295 1a8e 28D0     		beq	.L1630
 759:../Drivers/STM32F4xx_HAL_Driver/Src/stm32f4xx_hal_dma.c ****   {
 11296              		.loc 1 759 0 discriminator 9
 11297 1a90 A1F58961 		sub	r1, r1, #1096
 11298 1a94 8B42     		cmp	r3, r1
 11299 1a96 26D0     		beq	.L1631
 759:../Drivers/STM32F4xx_HAL_Driver/Src/stm32f4xx_hal_dma.c ****   {
 11300              		.loc 1 759 0 discriminator 11
 11301 1a98 01F58061 		add	r1, r1, #1024
 11302 1a9c 8B42     		cmp	r3, r1
 11303 1a9e 25D0     		beq	.L1632
 759:../Drivers/STM32F4xx_HAL_Driver/Src/stm32f4xx_hal_dma.c ****   {
 11304              		.loc 1 759 0 discriminator 13
 11305 1aa0 A1F56871 		sub	r1, r1, #928
 11306 1aa4 8B42     		cmp	r3, r1
 11307 1aa6 24D0     		beq	.L1633
 759:../Drivers/STM32F4xx_HAL_Driver/Src/stm32f4xx_hal_dma.c ****   {
 11308              		.loc 1 759 0 discriminator 15
 11309 1aa8 01F58061 		add	r1, r1, #1024
 11310 1aac 8B42     		cmp	r3, r1
 11311 1aae 23D0     		beq	.L1634
 759:../Drivers/STM32F4xx_HAL_Driver/Src/stm32f4xx_hal_dma.c ****   {
 11312              		.loc 1 759 0 discriminator 17
 11313 1ab0 A1F58961 		sub	r1, r1, #1096
 11314 1ab4 8B42     		cmp	r3, r1
 11315 1ab6 22D0     		beq	.L1635
 759:../Drivers/STM32F4xx_HAL_Driver/Src/stm32f4xx_hal_dma.c ****   {
 11316              		.loc 1 759 0 discriminator 19
 11317 1ab8 01F58061 		add	r1, r1, #1024
 11318 1abc 8B42     		cmp	r3, r1
 11319 1abe 21D0     		beq	.L1636
 759:../Drivers/STM32F4xx_HAL_Driver/Src/stm32f4xx_hal_dma.c ****   {
 11320              		.loc 1 759 0 discriminator 21
 11321 1ac0 A1F56871 		sub	r1, r1, #928
 11322 1ac4 8B42     		cmp	r3, r1
 11323 1ac6 20D0     		beq	.L1637
 759:../Drivers/STM32F4xx_HAL_Driver/Src/stm32f4xx_hal_dma.c ****   {
 11324              		.loc 1 759 0 discriminator 23
 11325 1ac8 01F58061 		add	r1, r1, #1024
 11326 1acc 8B42     		cmp	r3, r1
 11327 1ace 1FD1     		bne	.L1638
 759:../Drivers/STM32F4xx_HAL_Driver/Src/stm32f4xx_hal_dma.c ****   {
 11328              		.loc 1 759 0
 11329 1ad0 4FF40011 		mov	r1, #2097152
 11330 1ad4 1EE0     		b	.L1166
 11331              	.L1627:
 11332 1ad6 2021     		movs	r1, #32
 11333 1ad8 1CE0     		b	.L1166
 11334              	.L1628:
 11335 1ada 2021     		movs	r1, #32
 11336 1adc 1AE0     		b	.L1166
 11337              	.L1629:
ARM GAS  /tmp/ccIvKYQX.s 			page 246


 11338 1ade 2021     		movs	r1, #32
 11339 1ae0 18E0     		b	.L1166
 11340              	.L1630:
 11341 1ae2 2021     		movs	r1, #32
 11342 1ae4 16E0     		b	.L1166
 11343              	.L1631:
 11344 1ae6 4FF40061 		mov	r1, #2048
 11345 1aea 13E0     		b	.L1166
 11346              	.L1632:
 11347 1aec 4FF40061 		mov	r1, #2048
 11348 1af0 10E0     		b	.L1166
 11349              	.L1633:
 11350 1af2 4FF40061 		mov	r1, #2048
 11351 1af6 0DE0     		b	.L1166
 11352              	.L1634:
 11353 1af8 4FF40061 		mov	r1, #2048
 11354 1afc 0AE0     		b	.L1166
 11355              	.L1635:
 11356 1afe 4FF40011 		mov	r1, #2097152
 11357 1b02 07E0     		b	.L1166
 11358              	.L1636:
 11359 1b04 4FF40011 		mov	r1, #2097152
 11360 1b08 04E0     		b	.L1166
 11361              	.L1637:
 11362 1b0a 4FF40011 		mov	r1, #2097152
 11363 1b0e 01E0     		b	.L1166
 11364              	.L1638:
 11365 1b10 4FF00061 		mov	r1, #134217728
 11366              	.L1166:
 759:../Drivers/STM32F4xx_HAL_Driver/Src/stm32f4xx_hal_dma.c ****   {
 11367              		.loc 1 759 0 discriminator 50
 11368 1b14 1142     		tst	r1, r2
 11369 1b16 14BF     		ite	ne
 11370 1b18 0122     		movne	r2, #1
 11371 1b1a 0022     		moveq	r2, #0
 11372 1b1c 18E1     		b	.L1167
 11373              	.L1165:
 759:../Drivers/STM32F4xx_HAL_Driver/Src/stm32f4xx_hal_dma.c ****   {
 11374              		.loc 1 759 0 discriminator 2
 11375 1b1e 874A     		ldr	r2, .L1790+12
 11376 1b20 9342     		cmp	r3, r2
 11377 1b22 58D9     		bls	.L1168
 759:../Drivers/STM32F4xx_HAL_Driver/Src/stm32f4xx_hal_dma.c ****   {
 11378              		.loc 1 759 0 discriminator 52
 11379 1b24 02F55272 		add	r2, r2, #840
 11380 1b28 1268     		ldr	r2, [r2]
 11381 1b2a 8349     		ldr	r1, .L1790+8
 11382 1b2c 8B42     		cmp	r3, r1
 11383 1b2e 2ED0     		beq	.L1639
 759:../Drivers/STM32F4xx_HAL_Driver/Src/stm32f4xx_hal_dma.c ****   {
 11384              		.loc 1 759 0 discriminator 54
 11385 1b30 01F58061 		add	r1, r1, #1024
 11386 1b34 8B42     		cmp	r3, r1
 11387 1b36 2CD0     		beq	.L1640
 759:../Drivers/STM32F4xx_HAL_Driver/Src/stm32f4xx_hal_dma.c ****   {
 11388              		.loc 1 759 0 discriminator 56
 11389 1b38 A1F56871 		sub	r1, r1, #928
ARM GAS  /tmp/ccIvKYQX.s 			page 247


 11390 1b3c 8B42     		cmp	r3, r1
 11391 1b3e 2AD0     		beq	.L1641
 759:../Drivers/STM32F4xx_HAL_Driver/Src/stm32f4xx_hal_dma.c ****   {
 11392              		.loc 1 759 0 discriminator 58
 11393 1b40 01F58061 		add	r1, r1, #1024
 11394 1b44 8B42     		cmp	r3, r1
 11395 1b46 28D0     		beq	.L1642
 759:../Drivers/STM32F4xx_HAL_Driver/Src/stm32f4xx_hal_dma.c ****   {
 11396              		.loc 1 759 0 discriminator 60
 11397 1b48 A1F58961 		sub	r1, r1, #1096
 11398 1b4c 8B42     		cmp	r3, r1
 11399 1b4e 26D0     		beq	.L1643
 759:../Drivers/STM32F4xx_HAL_Driver/Src/stm32f4xx_hal_dma.c ****   {
 11400              		.loc 1 759 0 discriminator 62
 11401 1b50 01F58061 		add	r1, r1, #1024
 11402 1b54 8B42     		cmp	r3, r1
 11403 1b56 25D0     		beq	.L1644
 759:../Drivers/STM32F4xx_HAL_Driver/Src/stm32f4xx_hal_dma.c ****   {
 11404              		.loc 1 759 0 discriminator 64
 11405 1b58 A1F56871 		sub	r1, r1, #928
 11406 1b5c 8B42     		cmp	r3, r1
 11407 1b5e 24D0     		beq	.L1645
 759:../Drivers/STM32F4xx_HAL_Driver/Src/stm32f4xx_hal_dma.c ****   {
 11408              		.loc 1 759 0 discriminator 66
 11409 1b60 01F58061 		add	r1, r1, #1024
 11410 1b64 8B42     		cmp	r3, r1
 11411 1b66 23D0     		beq	.L1646
 759:../Drivers/STM32F4xx_HAL_Driver/Src/stm32f4xx_hal_dma.c ****   {
 11412              		.loc 1 759 0 discriminator 68
 11413 1b68 A1F58961 		sub	r1, r1, #1096
 11414 1b6c 8B42     		cmp	r3, r1
 11415 1b6e 22D0     		beq	.L1647
 759:../Drivers/STM32F4xx_HAL_Driver/Src/stm32f4xx_hal_dma.c ****   {
 11416              		.loc 1 759 0 discriminator 70
 11417 1b70 01F58061 		add	r1, r1, #1024
 11418 1b74 8B42     		cmp	r3, r1
 11419 1b76 21D0     		beq	.L1648
 759:../Drivers/STM32F4xx_HAL_Driver/Src/stm32f4xx_hal_dma.c ****   {
 11420              		.loc 1 759 0 discriminator 72
 11421 1b78 A1F56871 		sub	r1, r1, #928
 11422 1b7c 8B42     		cmp	r3, r1
 11423 1b7e 20D0     		beq	.L1649
 759:../Drivers/STM32F4xx_HAL_Driver/Src/stm32f4xx_hal_dma.c ****   {
 11424              		.loc 1 759 0 discriminator 74
 11425 1b80 01F58061 		add	r1, r1, #1024
 11426 1b84 8B42     		cmp	r3, r1
 11427 1b86 1FD1     		bne	.L1650
 759:../Drivers/STM32F4xx_HAL_Driver/Src/stm32f4xx_hal_dma.c ****   {
 11428              		.loc 1 759 0
 11429 1b88 4FF40011 		mov	r1, #2097152
 11430 1b8c 1EE0     		b	.L1169
 11431              	.L1639:
 11432 1b8e 2021     		movs	r1, #32
 11433 1b90 1CE0     		b	.L1169
 11434              	.L1640:
 11435 1b92 2021     		movs	r1, #32
 11436 1b94 1AE0     		b	.L1169
ARM GAS  /tmp/ccIvKYQX.s 			page 248


 11437              	.L1641:
 11438 1b96 2021     		movs	r1, #32
 11439 1b98 18E0     		b	.L1169
 11440              	.L1642:
 11441 1b9a 2021     		movs	r1, #32
 11442 1b9c 16E0     		b	.L1169
 11443              	.L1643:
 11444 1b9e 4FF40061 		mov	r1, #2048
 11445 1ba2 13E0     		b	.L1169
 11446              	.L1644:
 11447 1ba4 4FF40061 		mov	r1, #2048
 11448 1ba8 10E0     		b	.L1169
 11449              	.L1645:
 11450 1baa 4FF40061 		mov	r1, #2048
 11451 1bae 0DE0     		b	.L1169
 11452              	.L1646:
 11453 1bb0 4FF40061 		mov	r1, #2048
 11454 1bb4 0AE0     		b	.L1169
 11455              	.L1647:
 11456 1bb6 4FF40011 		mov	r1, #2097152
 11457 1bba 07E0     		b	.L1169
 11458              	.L1648:
 11459 1bbc 4FF40011 		mov	r1, #2097152
 11460 1bc0 04E0     		b	.L1169
 11461              	.L1649:
 11462 1bc2 4FF40011 		mov	r1, #2097152
 11463 1bc6 01E0     		b	.L1169
 11464              	.L1650:
 11465 1bc8 4FF00061 		mov	r1, #134217728
 11466              	.L1169:
 759:../Drivers/STM32F4xx_HAL_Driver/Src/stm32f4xx_hal_dma.c ****   {
 11467              		.loc 1 759 0 discriminator 101
 11468 1bcc 1142     		tst	r1, r2
 11469 1bce 14BF     		ite	ne
 11470 1bd0 0122     		movne	r2, #1
 11471 1bd2 0022     		moveq	r2, #0
 11472 1bd4 BCE0     		b	.L1167
 11473              	.L1168:
 759:../Drivers/STM32F4xx_HAL_Driver/Src/stm32f4xx_hal_dma.c ****   {
 11474              		.loc 1 759 0 discriminator 53
 11475 1bd6 5A4A     		ldr	r2, .L1790+16
 11476 1bd8 9342     		cmp	r3, r2
 11477 1bda 57D9     		bls	.L1170
 759:../Drivers/STM32F4xx_HAL_Driver/Src/stm32f4xx_hal_dma.c ****   {
 11478              		.loc 1 759 0 discriminator 103
 11479 1bdc 583A     		subs	r2, r2, #88
 11480 1bde 5268     		ldr	r2, [r2, #4]
 11481 1be0 5549     		ldr	r1, .L1790+8
 11482 1be2 8B42     		cmp	r3, r1
 11483 1be4 2ED0     		beq	.L1651
 759:../Drivers/STM32F4xx_HAL_Driver/Src/stm32f4xx_hal_dma.c ****   {
 11484              		.loc 1 759 0 discriminator 105
 11485 1be6 01F58061 		add	r1, r1, #1024
 11486 1bea 8B42     		cmp	r3, r1
 11487 1bec 2CD0     		beq	.L1652
 759:../Drivers/STM32F4xx_HAL_Driver/Src/stm32f4xx_hal_dma.c ****   {
 11488              		.loc 1 759 0 discriminator 107
ARM GAS  /tmp/ccIvKYQX.s 			page 249


 11489 1bee A1F56871 		sub	r1, r1, #928
 11490 1bf2 8B42     		cmp	r3, r1
 11491 1bf4 2AD0     		beq	.L1653
 759:../Drivers/STM32F4xx_HAL_Driver/Src/stm32f4xx_hal_dma.c ****   {
 11492              		.loc 1 759 0 discriminator 109
 11493 1bf6 01F58061 		add	r1, r1, #1024
 11494 1bfa 8B42     		cmp	r3, r1
 11495 1bfc 28D0     		beq	.L1654
 759:../Drivers/STM32F4xx_HAL_Driver/Src/stm32f4xx_hal_dma.c ****   {
 11496              		.loc 1 759 0 discriminator 111
 11497 1bfe A1F58961 		sub	r1, r1, #1096
 11498 1c02 8B42     		cmp	r3, r1
 11499 1c04 26D0     		beq	.L1655
 759:../Drivers/STM32F4xx_HAL_Driver/Src/stm32f4xx_hal_dma.c ****   {
 11500              		.loc 1 759 0 discriminator 113
 11501 1c06 01F58061 		add	r1, r1, #1024
 11502 1c0a 8B42     		cmp	r3, r1
 11503 1c0c 25D0     		beq	.L1656
 759:../Drivers/STM32F4xx_HAL_Driver/Src/stm32f4xx_hal_dma.c ****   {
 11504              		.loc 1 759 0 discriminator 115
 11505 1c0e A1F56871 		sub	r1, r1, #928
 11506 1c12 8B42     		cmp	r3, r1
 11507 1c14 24D0     		beq	.L1657
 759:../Drivers/STM32F4xx_HAL_Driver/Src/stm32f4xx_hal_dma.c ****   {
 11508              		.loc 1 759 0 discriminator 117
 11509 1c16 01F58061 		add	r1, r1, #1024
 11510 1c1a 8B42     		cmp	r3, r1
 11511 1c1c 23D0     		beq	.L1658
 759:../Drivers/STM32F4xx_HAL_Driver/Src/stm32f4xx_hal_dma.c ****   {
 11512              		.loc 1 759 0 discriminator 119
 11513 1c1e A1F58961 		sub	r1, r1, #1096
 11514 1c22 8B42     		cmp	r3, r1
 11515 1c24 22D0     		beq	.L1659
 759:../Drivers/STM32F4xx_HAL_Driver/Src/stm32f4xx_hal_dma.c ****   {
 11516              		.loc 1 759 0 discriminator 121
 11517 1c26 01F58061 		add	r1, r1, #1024
 11518 1c2a 8B42     		cmp	r3, r1
 11519 1c2c 21D0     		beq	.L1660
 759:../Drivers/STM32F4xx_HAL_Driver/Src/stm32f4xx_hal_dma.c ****   {
 11520              		.loc 1 759 0 discriminator 123
 11521 1c2e A1F56871 		sub	r1, r1, #928
 11522 1c32 8B42     		cmp	r3, r1
 11523 1c34 20D0     		beq	.L1661
 759:../Drivers/STM32F4xx_HAL_Driver/Src/stm32f4xx_hal_dma.c ****   {
 11524              		.loc 1 759 0 discriminator 125
 11525 1c36 01F58061 		add	r1, r1, #1024
 11526 1c3a 8B42     		cmp	r3, r1
 11527 1c3c 1FD1     		bne	.L1662
 759:../Drivers/STM32F4xx_HAL_Driver/Src/stm32f4xx_hal_dma.c ****   {
 11528              		.loc 1 759 0
 11529 1c3e 4FF40011 		mov	r1, #2097152
 11530 1c42 1EE0     		b	.L1171
 11531              	.L1651:
 11532 1c44 2021     		movs	r1, #32
 11533 1c46 1CE0     		b	.L1171
 11534              	.L1652:
 11535 1c48 2021     		movs	r1, #32
ARM GAS  /tmp/ccIvKYQX.s 			page 250


 11536 1c4a 1AE0     		b	.L1171
 11537              	.L1653:
 11538 1c4c 2021     		movs	r1, #32
 11539 1c4e 18E0     		b	.L1171
 11540              	.L1654:
 11541 1c50 2021     		movs	r1, #32
 11542 1c52 16E0     		b	.L1171
 11543              	.L1655:
 11544 1c54 4FF40061 		mov	r1, #2048
 11545 1c58 13E0     		b	.L1171
 11546              	.L1656:
 11547 1c5a 4FF40061 		mov	r1, #2048
 11548 1c5e 10E0     		b	.L1171
 11549              	.L1657:
 11550 1c60 4FF40061 		mov	r1, #2048
 11551 1c64 0DE0     		b	.L1171
 11552              	.L1658:
 11553 1c66 4FF40061 		mov	r1, #2048
 11554 1c6a 0AE0     		b	.L1171
 11555              	.L1659:
 11556 1c6c 4FF40011 		mov	r1, #2097152
 11557 1c70 07E0     		b	.L1171
 11558              	.L1660:
 11559 1c72 4FF40011 		mov	r1, #2097152
 11560 1c76 04E0     		b	.L1171
 11561              	.L1661:
 11562 1c78 4FF40011 		mov	r1, #2097152
 11563 1c7c 01E0     		b	.L1171
 11564              	.L1662:
 11565 1c7e 4FF00061 		mov	r1, #134217728
 11566              	.L1171:
 759:../Drivers/STM32F4xx_HAL_Driver/Src/stm32f4xx_hal_dma.c ****   {
 11567              		.loc 1 759 0 discriminator 152
 11568 1c82 1142     		tst	r1, r2
 11569 1c84 14BF     		ite	ne
 11570 1c86 0122     		movne	r2, #1
 11571 1c88 0022     		moveq	r2, #0
 11572 1c8a 61E0     		b	.L1167
 11573              	.L1170:
 759:../Drivers/STM32F4xx_HAL_Driver/Src/stm32f4xx_hal_dma.c ****   {
 11574              		.loc 1 759 0 discriminator 104
 11575 1c8c 284A     		ldr	r2, .L1790
 11576 1c8e 1268     		ldr	r2, [r2]
 11577 1c90 2949     		ldr	r1, .L1790+8
 11578 1c92 8B42     		cmp	r3, r1
 11579 1c94 2ED0     		beq	.L1663
 759:../Drivers/STM32F4xx_HAL_Driver/Src/stm32f4xx_hal_dma.c ****   {
 11580              		.loc 1 759 0 discriminator 154
 11581 1c96 01F58061 		add	r1, r1, #1024
 11582 1c9a 8B42     		cmp	r3, r1
 11583 1c9c 2CD0     		beq	.L1664
 759:../Drivers/STM32F4xx_HAL_Driver/Src/stm32f4xx_hal_dma.c ****   {
 11584              		.loc 1 759 0 discriminator 156
 11585 1c9e A1F56871 		sub	r1, r1, #928
 11586 1ca2 8B42     		cmp	r3, r1
 11587 1ca4 2AD0     		beq	.L1665
 759:../Drivers/STM32F4xx_HAL_Driver/Src/stm32f4xx_hal_dma.c ****   {
ARM GAS  /tmp/ccIvKYQX.s 			page 251


 11588              		.loc 1 759 0 discriminator 158
 11589 1ca6 01F58061 		add	r1, r1, #1024
 11590 1caa 8B42     		cmp	r3, r1
 11591 1cac 28D0     		beq	.L1666
 759:../Drivers/STM32F4xx_HAL_Driver/Src/stm32f4xx_hal_dma.c ****   {
 11592              		.loc 1 759 0 discriminator 160
 11593 1cae A1F58961 		sub	r1, r1, #1096
 11594 1cb2 8B42     		cmp	r3, r1
 11595 1cb4 26D0     		beq	.L1667
 759:../Drivers/STM32F4xx_HAL_Driver/Src/stm32f4xx_hal_dma.c ****   {
 11596              		.loc 1 759 0 discriminator 162
 11597 1cb6 01F58061 		add	r1, r1, #1024
 11598 1cba 8B42     		cmp	r3, r1
 11599 1cbc 25D0     		beq	.L1668
 759:../Drivers/STM32F4xx_HAL_Driver/Src/stm32f4xx_hal_dma.c ****   {
 11600              		.loc 1 759 0 discriminator 164
 11601 1cbe A1F56871 		sub	r1, r1, #928
 11602 1cc2 8B42     		cmp	r3, r1
 11603 1cc4 24D0     		beq	.L1669
 759:../Drivers/STM32F4xx_HAL_Driver/Src/stm32f4xx_hal_dma.c ****   {
 11604              		.loc 1 759 0 discriminator 166
 11605 1cc6 01F58061 		add	r1, r1, #1024
 11606 1cca 8B42     		cmp	r3, r1
 11607 1ccc 23D0     		beq	.L1670
 759:../Drivers/STM32F4xx_HAL_Driver/Src/stm32f4xx_hal_dma.c ****   {
 11608              		.loc 1 759 0 discriminator 168
 11609 1cce A1F58961 		sub	r1, r1, #1096
 11610 1cd2 8B42     		cmp	r3, r1
 11611 1cd4 22D0     		beq	.L1671
 759:../Drivers/STM32F4xx_HAL_Driver/Src/stm32f4xx_hal_dma.c ****   {
 11612              		.loc 1 759 0 discriminator 170
 11613 1cd6 01F58061 		add	r1, r1, #1024
 11614 1cda 8B42     		cmp	r3, r1
 11615 1cdc 21D0     		beq	.L1672
 759:../Drivers/STM32F4xx_HAL_Driver/Src/stm32f4xx_hal_dma.c ****   {
 11616              		.loc 1 759 0 discriminator 172
 11617 1cde A1F56871 		sub	r1, r1, #928
 11618 1ce2 8B42     		cmp	r3, r1
 11619 1ce4 20D0     		beq	.L1673
 759:../Drivers/STM32F4xx_HAL_Driver/Src/stm32f4xx_hal_dma.c ****   {
 11620              		.loc 1 759 0 discriminator 174
 11621 1ce6 01F58061 		add	r1, r1, #1024
 11622 1cea 8B42     		cmp	r3, r1
 11623 1cec 2AD1     		bne	.L1674
 759:../Drivers/STM32F4xx_HAL_Driver/Src/stm32f4xx_hal_dma.c ****   {
 11624              		.loc 1 759 0
 11625 1cee 4FF40011 		mov	r1, #2097152
 11626 1cf2 29E0     		b	.L1172
 11627              	.L1663:
 11628 1cf4 2021     		movs	r1, #32
 11629 1cf6 27E0     		b	.L1172
 11630              	.L1664:
 11631 1cf8 2021     		movs	r1, #32
 11632 1cfa 25E0     		b	.L1172
 11633              	.L1665:
 11634 1cfc 2021     		movs	r1, #32
 11635 1cfe 23E0     		b	.L1172
ARM GAS  /tmp/ccIvKYQX.s 			page 252


 11636              	.L1666:
 11637 1d00 2021     		movs	r1, #32
 11638 1d02 21E0     		b	.L1172
 11639              	.L1667:
 11640 1d04 4FF40061 		mov	r1, #2048
 11641 1d08 1EE0     		b	.L1172
 11642              	.L1668:
 11643 1d0a 4FF40061 		mov	r1, #2048
 11644 1d0e 1BE0     		b	.L1172
 11645              	.L1669:
 11646 1d10 4FF40061 		mov	r1, #2048
 11647 1d14 18E0     		b	.L1172
 11648              	.L1670:
 11649 1d16 4FF40061 		mov	r1, #2048
 11650 1d1a 15E0     		b	.L1172
 11651              	.L1671:
 11652 1d1c 4FF40011 		mov	r1, #2097152
 11653 1d20 12E0     		b	.L1172
 11654              	.L1672:
 11655 1d22 4FF40011 		mov	r1, #2097152
 11656 1d26 0FE0     		b	.L1172
 11657              	.L1673:
 11658 1d28 4FF40011 		mov	r1, #2097152
 11659 1d2c 0CE0     		b	.L1172
 11660              	.L1791:
 11661 1d2e 00BF     		.align	2
 11662              	.L1790:
 11663 1d30 00600240 		.word	1073897472
 11664 1d34 58640240 		.word	1073898584
 11665 1d38 10600240 		.word	1073897488
 11666 1d3c B8600240 		.word	1073897656
 11667 1d40 58600240 		.word	1073897560
 11668              	.L1674:
 11669 1d44 4FF00061 		mov	r1, #134217728
 11670              	.L1172:
 759:../Drivers/STM32F4xx_HAL_Driver/Src/stm32f4xx_hal_dma.c ****   {
 11671              		.loc 1 759 0 discriminator 201
 11672 1d48 1142     		tst	r1, r2
 11673 1d4a 14BF     		ite	ne
 11674 1d4c 0122     		movne	r2, #1
 11675 1d4e 0022     		moveq	r2, #0
 11676              	.L1167:
 759:../Drivers/STM32F4xx_HAL_Driver/Src/stm32f4xx_hal_dma.c ****   {
 11677              		.loc 1 759 0 discriminator 204
 11678 1d50 002A     		cmp	r2, #0
 11679 1d52 00F0F582 		beq	.L1079
 761:../Drivers/STM32F4xx_HAL_Driver/Src/stm32f4xx_hal_dma.c ****     {
 11680              		.loc 1 761 0 is_stmt 1
 11681 1d56 1A68     		ldr	r2, [r3]
 11682 1d58 12F0100F 		tst	r2, #16
 11683 1d5c 00F0F082 		beq	.L1079
 763:../Drivers/STM32F4xx_HAL_Driver/Src/stm32f4xx_hal_dma.c ****       {
 11684              		.loc 1 763 0
 11685 1d60 1A68     		ldr	r2, [r3]
 11686 1d62 12F4802F 		tst	r2, #262144
 11687 1d66 00F07D81 		beq	.L1174
 766:../Drivers/STM32F4xx_HAL_Driver/Src/stm32f4xx_hal_dma.c **** 
ARM GAS  /tmp/ccIvKYQX.s 			page 253


 11688              		.loc 1 766 0
 11689 1d6a B84A     		ldr	r2, .L1792
 11690 1d6c 9342     		cmp	r3, r2
 11691 1d6e 54D9     		bls	.L1175
 766:../Drivers/STM32F4xx_HAL_Driver/Src/stm32f4xx_hal_dma.c **** 
 11692              		.loc 1 766 0 is_stmt 0 discriminator 1
 11693 1d70 A2F58962 		sub	r2, r2, #1096
 11694 1d74 9342     		cmp	r3, r2
 11695 1d76 2ED0     		beq	.L1675
 766:../Drivers/STM32F4xx_HAL_Driver/Src/stm32f4xx_hal_dma.c **** 
 11696              		.loc 1 766 0 discriminator 3
 11697 1d78 02F58062 		add	r2, r2, #1024
 11698 1d7c 9342     		cmp	r3, r2
 11699 1d7e 2CD0     		beq	.L1676
 766:../Drivers/STM32F4xx_HAL_Driver/Src/stm32f4xx_hal_dma.c **** 
 11700              		.loc 1 766 0 discriminator 5
 11701 1d80 A2F56872 		sub	r2, r2, #928
 11702 1d84 9342     		cmp	r3, r2
 11703 1d86 2AD0     		beq	.L1677
 766:../Drivers/STM32F4xx_HAL_Driver/Src/stm32f4xx_hal_dma.c **** 
 11704              		.loc 1 766 0 discriminator 7
 11705 1d88 02F58062 		add	r2, r2, #1024
 11706 1d8c 9342     		cmp	r3, r2
 11707 1d8e 28D0     		beq	.L1678
 766:../Drivers/STM32F4xx_HAL_Driver/Src/stm32f4xx_hal_dma.c **** 
 11708              		.loc 1 766 0 discriminator 9
 11709 1d90 A2F58962 		sub	r2, r2, #1096
 11710 1d94 9342     		cmp	r3, r2
 11711 1d96 26D0     		beq	.L1679
 766:../Drivers/STM32F4xx_HAL_Driver/Src/stm32f4xx_hal_dma.c **** 
 11712              		.loc 1 766 0 discriminator 11
 11713 1d98 02F58062 		add	r2, r2, #1024
 11714 1d9c 9342     		cmp	r3, r2
 11715 1d9e 25D0     		beq	.L1680
 766:../Drivers/STM32F4xx_HAL_Driver/Src/stm32f4xx_hal_dma.c **** 
 11716              		.loc 1 766 0 discriminator 13
 11717 1da0 A2F56872 		sub	r2, r2, #928
 11718 1da4 9342     		cmp	r3, r2
 11719 1da6 24D0     		beq	.L1681
 766:../Drivers/STM32F4xx_HAL_Driver/Src/stm32f4xx_hal_dma.c **** 
 11720              		.loc 1 766 0 discriminator 15
 11721 1da8 02F58062 		add	r2, r2, #1024
 11722 1dac 9342     		cmp	r3, r2
 11723 1dae 23D0     		beq	.L1682
 766:../Drivers/STM32F4xx_HAL_Driver/Src/stm32f4xx_hal_dma.c **** 
 11724              		.loc 1 766 0 discriminator 17
 11725 1db0 A2F58962 		sub	r2, r2, #1096
 11726 1db4 9342     		cmp	r3, r2
 11727 1db6 22D0     		beq	.L1683
 766:../Drivers/STM32F4xx_HAL_Driver/Src/stm32f4xx_hal_dma.c **** 
 11728              		.loc 1 766 0 discriminator 19
 11729 1db8 02F58062 		add	r2, r2, #1024
 11730 1dbc 9342     		cmp	r3, r2
 11731 1dbe 21D0     		beq	.L1684
 766:../Drivers/STM32F4xx_HAL_Driver/Src/stm32f4xx_hal_dma.c **** 
 11732              		.loc 1 766 0 discriminator 21
 11733 1dc0 A2F56872 		sub	r2, r2, #928
ARM GAS  /tmp/ccIvKYQX.s 			page 254


 11734 1dc4 9342     		cmp	r3, r2
 11735 1dc6 20D0     		beq	.L1685
 766:../Drivers/STM32F4xx_HAL_Driver/Src/stm32f4xx_hal_dma.c **** 
 11736              		.loc 1 766 0 discriminator 23
 11737 1dc8 02F58062 		add	r2, r2, #1024
 11738 1dcc 9342     		cmp	r3, r2
 11739 1dce 1FD1     		bne	.L1686
 766:../Drivers/STM32F4xx_HAL_Driver/Src/stm32f4xx_hal_dma.c **** 
 11740              		.loc 1 766 0
 11741 1dd0 4FF40012 		mov	r2, #2097152
 11742 1dd4 1EE0     		b	.L1176
 11743              	.L1675:
 11744 1dd6 2022     		movs	r2, #32
 11745 1dd8 1CE0     		b	.L1176
 11746              	.L1676:
 11747 1dda 2022     		movs	r2, #32
 11748 1ddc 1AE0     		b	.L1176
 11749              	.L1677:
 11750 1dde 2022     		movs	r2, #32
 11751 1de0 18E0     		b	.L1176
 11752              	.L1678:
 11753 1de2 2022     		movs	r2, #32
 11754 1de4 16E0     		b	.L1176
 11755              	.L1679:
 11756 1de6 4FF40062 		mov	r2, #2048
 11757 1dea 13E0     		b	.L1176
 11758              	.L1680:
 11759 1dec 4FF40062 		mov	r2, #2048
 11760 1df0 10E0     		b	.L1176
 11761              	.L1681:
 11762 1df2 4FF40062 		mov	r2, #2048
 11763 1df6 0DE0     		b	.L1176
 11764              	.L1682:
 11765 1df8 4FF40062 		mov	r2, #2048
 11766 1dfc 0AE0     		b	.L1176
 11767              	.L1683:
 11768 1dfe 4FF40012 		mov	r2, #2097152
 11769 1e02 07E0     		b	.L1176
 11770              	.L1684:
 11771 1e04 4FF40012 		mov	r2, #2097152
 11772 1e08 04E0     		b	.L1176
 11773              	.L1685:
 11774 1e0a 4FF40012 		mov	r2, #2097152
 11775 1e0e 01E0     		b	.L1176
 11776              	.L1686:
 11777 1e10 4FF00062 		mov	r2, #134217728
 11778              	.L1176:
 766:../Drivers/STM32F4xx_HAL_Driver/Src/stm32f4xx_hal_dma.c **** 
 11779              		.loc 1 766 0 discriminator 50
 11780 1e14 8E4B     		ldr	r3, .L1792+4
 11781 1e16 DA60     		str	r2, [r3, #12]
 11782 1e18 00E1     		b	.L1177
 11783              	.L1175:
 766:../Drivers/STM32F4xx_HAL_Driver/Src/stm32f4xx_hal_dma.c **** 
 11784              		.loc 1 766 0 discriminator 2
 11785 1e1a 8E4A     		ldr	r2, .L1792+8
 11786 1e1c 9342     		cmp	r3, r2
ARM GAS  /tmp/ccIvKYQX.s 			page 255


 11787 1e1e 53D9     		bls	.L1178
 766:../Drivers/STM32F4xx_HAL_Driver/Src/stm32f4xx_hal_dma.c **** 
 11788              		.loc 1 766 0 discriminator 51
 11789 1e20 A83A     		subs	r2, r2, #168
 11790 1e22 9342     		cmp	r3, r2
 11791 1e24 2ED0     		beq	.L1687
 766:../Drivers/STM32F4xx_HAL_Driver/Src/stm32f4xx_hal_dma.c **** 
 11792              		.loc 1 766 0 discriminator 53
 11793 1e26 02F58062 		add	r2, r2, #1024
 11794 1e2a 9342     		cmp	r3, r2
 11795 1e2c 2CD0     		beq	.L1688
 766:../Drivers/STM32F4xx_HAL_Driver/Src/stm32f4xx_hal_dma.c **** 
 11796              		.loc 1 766 0 discriminator 55
 11797 1e2e A2F56872 		sub	r2, r2, #928
 11798 1e32 9342     		cmp	r3, r2
 11799 1e34 2AD0     		beq	.L1689
 766:../Drivers/STM32F4xx_HAL_Driver/Src/stm32f4xx_hal_dma.c **** 
 11800              		.loc 1 766 0 discriminator 57
 11801 1e36 02F58062 		add	r2, r2, #1024
 11802 1e3a 9342     		cmp	r3, r2
 11803 1e3c 28D0     		beq	.L1690
 766:../Drivers/STM32F4xx_HAL_Driver/Src/stm32f4xx_hal_dma.c **** 
 11804              		.loc 1 766 0 discriminator 59
 11805 1e3e A2F58962 		sub	r2, r2, #1096
 11806 1e42 9342     		cmp	r3, r2
 11807 1e44 26D0     		beq	.L1691
 766:../Drivers/STM32F4xx_HAL_Driver/Src/stm32f4xx_hal_dma.c **** 
 11808              		.loc 1 766 0 discriminator 61
 11809 1e46 02F58062 		add	r2, r2, #1024
 11810 1e4a 9342     		cmp	r3, r2
 11811 1e4c 25D0     		beq	.L1692
 766:../Drivers/STM32F4xx_HAL_Driver/Src/stm32f4xx_hal_dma.c **** 
 11812              		.loc 1 766 0 discriminator 63
 11813 1e4e A2F56872 		sub	r2, r2, #928
 11814 1e52 9342     		cmp	r3, r2
 11815 1e54 24D0     		beq	.L1693
 766:../Drivers/STM32F4xx_HAL_Driver/Src/stm32f4xx_hal_dma.c **** 
 11816              		.loc 1 766 0 discriminator 65
 11817 1e56 02F58062 		add	r2, r2, #1024
 11818 1e5a 9342     		cmp	r3, r2
 11819 1e5c 23D0     		beq	.L1694
 766:../Drivers/STM32F4xx_HAL_Driver/Src/stm32f4xx_hal_dma.c **** 
 11820              		.loc 1 766 0 discriminator 67
 11821 1e5e A2F58962 		sub	r2, r2, #1096
 11822 1e62 9342     		cmp	r3, r2
 11823 1e64 22D0     		beq	.L1695
 766:../Drivers/STM32F4xx_HAL_Driver/Src/stm32f4xx_hal_dma.c **** 
 11824              		.loc 1 766 0 discriminator 69
 11825 1e66 02F58062 		add	r2, r2, #1024
 11826 1e6a 9342     		cmp	r3, r2
 11827 1e6c 21D0     		beq	.L1696
 766:../Drivers/STM32F4xx_HAL_Driver/Src/stm32f4xx_hal_dma.c **** 
 11828              		.loc 1 766 0 discriminator 71
 11829 1e6e A2F56872 		sub	r2, r2, #928
 11830 1e72 9342     		cmp	r3, r2
 11831 1e74 20D0     		beq	.L1697
 766:../Drivers/STM32F4xx_HAL_Driver/Src/stm32f4xx_hal_dma.c **** 
ARM GAS  /tmp/ccIvKYQX.s 			page 256


 11832              		.loc 1 766 0 discriminator 73
 11833 1e76 02F58062 		add	r2, r2, #1024
 11834 1e7a 9342     		cmp	r3, r2
 11835 1e7c 1FD1     		bne	.L1698
 766:../Drivers/STM32F4xx_HAL_Driver/Src/stm32f4xx_hal_dma.c **** 
 11836              		.loc 1 766 0
 11837 1e7e 4FF40012 		mov	r2, #2097152
 11838 1e82 1EE0     		b	.L1179
 11839              	.L1687:
 11840 1e84 2022     		movs	r2, #32
 11841 1e86 1CE0     		b	.L1179
 11842              	.L1688:
 11843 1e88 2022     		movs	r2, #32
 11844 1e8a 1AE0     		b	.L1179
 11845              	.L1689:
 11846 1e8c 2022     		movs	r2, #32
 11847 1e8e 18E0     		b	.L1179
 11848              	.L1690:
 11849 1e90 2022     		movs	r2, #32
 11850 1e92 16E0     		b	.L1179
 11851              	.L1691:
 11852 1e94 4FF40062 		mov	r2, #2048
 11853 1e98 13E0     		b	.L1179
 11854              	.L1692:
 11855 1e9a 4FF40062 		mov	r2, #2048
 11856 1e9e 10E0     		b	.L1179
 11857              	.L1693:
 11858 1ea0 4FF40062 		mov	r2, #2048
 11859 1ea4 0DE0     		b	.L1179
 11860              	.L1694:
 11861 1ea6 4FF40062 		mov	r2, #2048
 11862 1eaa 0AE0     		b	.L1179
 11863              	.L1695:
 11864 1eac 4FF40012 		mov	r2, #2097152
 11865 1eb0 07E0     		b	.L1179
 11866              	.L1696:
 11867 1eb2 4FF40012 		mov	r2, #2097152
 11868 1eb6 04E0     		b	.L1179
 11869              	.L1697:
 11870 1eb8 4FF40012 		mov	r2, #2097152
 11871 1ebc 01E0     		b	.L1179
 11872              	.L1698:
 11873 1ebe 4FF00062 		mov	r2, #134217728
 11874              	.L1179:
 766:../Drivers/STM32F4xx_HAL_Driver/Src/stm32f4xx_hal_dma.c **** 
 11875              		.loc 1 766 0 discriminator 100
 11876 1ec2 634B     		ldr	r3, .L1792+4
 11877 1ec4 9A60     		str	r2, [r3, #8]
 11878 1ec6 A9E0     		b	.L1177
 11879              	.L1178:
 766:../Drivers/STM32F4xx_HAL_Driver/Src/stm32f4xx_hal_dma.c **** 
 11880              		.loc 1 766 0 discriminator 52
 11881 1ec8 634A     		ldr	r2, .L1792+12
 11882 1eca 9342     		cmp	r3, r2
 11883 1ecc 53D9     		bls	.L1181
 766:../Drivers/STM32F4xx_HAL_Driver/Src/stm32f4xx_hal_dma.c **** 
 11884              		.loc 1 766 0 discriminator 102
ARM GAS  /tmp/ccIvKYQX.s 			page 257


 11885 1ece 483A     		subs	r2, r2, #72
 11886 1ed0 9342     		cmp	r3, r2
 11887 1ed2 2ED0     		beq	.L1699
 766:../Drivers/STM32F4xx_HAL_Driver/Src/stm32f4xx_hal_dma.c **** 
 11888              		.loc 1 766 0 discriminator 104
 11889 1ed4 02F58062 		add	r2, r2, #1024
 11890 1ed8 9342     		cmp	r3, r2
 11891 1eda 2CD0     		beq	.L1700
 766:../Drivers/STM32F4xx_HAL_Driver/Src/stm32f4xx_hal_dma.c **** 
 11892              		.loc 1 766 0 discriminator 106
 11893 1edc A2F56872 		sub	r2, r2, #928
 11894 1ee0 9342     		cmp	r3, r2
 11895 1ee2 2AD0     		beq	.L1701
 766:../Drivers/STM32F4xx_HAL_Driver/Src/stm32f4xx_hal_dma.c **** 
 11896              		.loc 1 766 0 discriminator 108
 11897 1ee4 02F58062 		add	r2, r2, #1024
 11898 1ee8 9342     		cmp	r3, r2
 11899 1eea 28D0     		beq	.L1702
 766:../Drivers/STM32F4xx_HAL_Driver/Src/stm32f4xx_hal_dma.c **** 
 11900              		.loc 1 766 0 discriminator 110
 11901 1eec A2F58962 		sub	r2, r2, #1096
 11902 1ef0 9342     		cmp	r3, r2
 11903 1ef2 26D0     		beq	.L1703
 766:../Drivers/STM32F4xx_HAL_Driver/Src/stm32f4xx_hal_dma.c **** 
 11904              		.loc 1 766 0 discriminator 112
 11905 1ef4 02F58062 		add	r2, r2, #1024
 11906 1ef8 9342     		cmp	r3, r2
 11907 1efa 25D0     		beq	.L1704
 766:../Drivers/STM32F4xx_HAL_Driver/Src/stm32f4xx_hal_dma.c **** 
 11908              		.loc 1 766 0 discriminator 114
 11909 1efc A2F56872 		sub	r2, r2, #928
 11910 1f00 9342     		cmp	r3, r2
 11911 1f02 24D0     		beq	.L1705
 766:../Drivers/STM32F4xx_HAL_Driver/Src/stm32f4xx_hal_dma.c **** 
 11912              		.loc 1 766 0 discriminator 116
 11913 1f04 02F58062 		add	r2, r2, #1024
 11914 1f08 9342     		cmp	r3, r2
 11915 1f0a 23D0     		beq	.L1706
 766:../Drivers/STM32F4xx_HAL_Driver/Src/stm32f4xx_hal_dma.c **** 
 11916              		.loc 1 766 0 discriminator 118
 11917 1f0c A2F58962 		sub	r2, r2, #1096
 11918 1f10 9342     		cmp	r3, r2
 11919 1f12 22D0     		beq	.L1707
 766:../Drivers/STM32F4xx_HAL_Driver/Src/stm32f4xx_hal_dma.c **** 
 11920              		.loc 1 766 0 discriminator 120
 11921 1f14 02F58062 		add	r2, r2, #1024
 11922 1f18 9342     		cmp	r3, r2
 11923 1f1a 21D0     		beq	.L1708
 766:../Drivers/STM32F4xx_HAL_Driver/Src/stm32f4xx_hal_dma.c **** 
 11924              		.loc 1 766 0 discriminator 122
 11925 1f1c A2F56872 		sub	r2, r2, #928
 11926 1f20 9342     		cmp	r3, r2
 11927 1f22 20D0     		beq	.L1709
 766:../Drivers/STM32F4xx_HAL_Driver/Src/stm32f4xx_hal_dma.c **** 
 11928              		.loc 1 766 0 discriminator 124
 11929 1f24 02F58062 		add	r2, r2, #1024
 11930 1f28 9342     		cmp	r3, r2
ARM GAS  /tmp/ccIvKYQX.s 			page 258


 11931 1f2a 1FD1     		bne	.L1710
 766:../Drivers/STM32F4xx_HAL_Driver/Src/stm32f4xx_hal_dma.c **** 
 11932              		.loc 1 766 0
 11933 1f2c 4FF40013 		mov	r3, #2097152
 11934 1f30 1EE0     		b	.L1182
 11935              	.L1699:
 11936 1f32 2023     		movs	r3, #32
 11937 1f34 1CE0     		b	.L1182
 11938              	.L1700:
 11939 1f36 2023     		movs	r3, #32
 11940 1f38 1AE0     		b	.L1182
 11941              	.L1701:
 11942 1f3a 2023     		movs	r3, #32
 11943 1f3c 18E0     		b	.L1182
 11944              	.L1702:
 11945 1f3e 2023     		movs	r3, #32
 11946 1f40 16E0     		b	.L1182
 11947              	.L1703:
 11948 1f42 4FF40063 		mov	r3, #2048
 11949 1f46 13E0     		b	.L1182
 11950              	.L1704:
 11951 1f48 4FF40063 		mov	r3, #2048
 11952 1f4c 10E0     		b	.L1182
 11953              	.L1705:
 11954 1f4e 4FF40063 		mov	r3, #2048
 11955 1f52 0DE0     		b	.L1182
 11956              	.L1706:
 11957 1f54 4FF40063 		mov	r3, #2048
 11958 1f58 0AE0     		b	.L1182
 11959              	.L1707:
 11960 1f5a 4FF40013 		mov	r3, #2097152
 11961 1f5e 07E0     		b	.L1182
 11962              	.L1708:
 11963 1f60 4FF40013 		mov	r3, #2097152
 11964 1f64 04E0     		b	.L1182
 11965              	.L1709:
 11966 1f66 4FF40013 		mov	r3, #2097152
 11967 1f6a 01E0     		b	.L1182
 11968              	.L1710:
 11969 1f6c 4FF00063 		mov	r3, #134217728
 11970              	.L1182:
 766:../Drivers/STM32F4xx_HAL_Driver/Src/stm32f4xx_hal_dma.c **** 
 11971              		.loc 1 766 0 discriminator 151
 11972 1f70 3A4A     		ldr	r2, .L1792+16
 11973 1f72 D360     		str	r3, [r2, #12]
 11974 1f74 52E0     		b	.L1177
 11975              	.L1181:
 766:../Drivers/STM32F4xx_HAL_Driver/Src/stm32f4xx_hal_dma.c **** 
 11976              		.loc 1 766 0 discriminator 103
 11977 1f76 3A4A     		ldr	r2, .L1792+20
 11978 1f78 9342     		cmp	r3, r2
 11979 1f7a 2ED0     		beq	.L1711
 766:../Drivers/STM32F4xx_HAL_Driver/Src/stm32f4xx_hal_dma.c **** 
 11980              		.loc 1 766 0 discriminator 153
 11981 1f7c 02F58062 		add	r2, r2, #1024
 11982 1f80 9342     		cmp	r3, r2
 11983 1f82 2CD0     		beq	.L1712
ARM GAS  /tmp/ccIvKYQX.s 			page 259


 766:../Drivers/STM32F4xx_HAL_Driver/Src/stm32f4xx_hal_dma.c **** 
 11984              		.loc 1 766 0 discriminator 155
 11985 1f84 A2F56872 		sub	r2, r2, #928
 11986 1f88 9342     		cmp	r3, r2
 11987 1f8a 2AD0     		beq	.L1713
 766:../Drivers/STM32F4xx_HAL_Driver/Src/stm32f4xx_hal_dma.c **** 
 11988              		.loc 1 766 0 discriminator 157
 11989 1f8c 02F58062 		add	r2, r2, #1024
 11990 1f90 9342     		cmp	r3, r2
 11991 1f92 28D0     		beq	.L1714
 766:../Drivers/STM32F4xx_HAL_Driver/Src/stm32f4xx_hal_dma.c **** 
 11992              		.loc 1 766 0 discriminator 159
 11993 1f94 A2F58962 		sub	r2, r2, #1096
 11994 1f98 9342     		cmp	r3, r2
 11995 1f9a 26D0     		beq	.L1715
 766:../Drivers/STM32F4xx_HAL_Driver/Src/stm32f4xx_hal_dma.c **** 
 11996              		.loc 1 766 0 discriminator 161
 11997 1f9c 02F58062 		add	r2, r2, #1024
 11998 1fa0 9342     		cmp	r3, r2
 11999 1fa2 25D0     		beq	.L1716
 766:../Drivers/STM32F4xx_HAL_Driver/Src/stm32f4xx_hal_dma.c **** 
 12000              		.loc 1 766 0 discriminator 163
 12001 1fa4 A2F56872 		sub	r2, r2, #928
 12002 1fa8 9342     		cmp	r3, r2
 12003 1faa 24D0     		beq	.L1717
 766:../Drivers/STM32F4xx_HAL_Driver/Src/stm32f4xx_hal_dma.c **** 
 12004              		.loc 1 766 0 discriminator 165
 12005 1fac 02F58062 		add	r2, r2, #1024
 12006 1fb0 9342     		cmp	r3, r2
 12007 1fb2 23D0     		beq	.L1718
 766:../Drivers/STM32F4xx_HAL_Driver/Src/stm32f4xx_hal_dma.c **** 
 12008              		.loc 1 766 0 discriminator 167
 12009 1fb4 A2F58962 		sub	r2, r2, #1096
 12010 1fb8 9342     		cmp	r3, r2
 12011 1fba 22D0     		beq	.L1719
 766:../Drivers/STM32F4xx_HAL_Driver/Src/stm32f4xx_hal_dma.c **** 
 12012              		.loc 1 766 0 discriminator 169
 12013 1fbc 02F58062 		add	r2, r2, #1024
 12014 1fc0 9342     		cmp	r3, r2
 12015 1fc2 21D0     		beq	.L1720
 766:../Drivers/STM32F4xx_HAL_Driver/Src/stm32f4xx_hal_dma.c **** 
 12016              		.loc 1 766 0 discriminator 171
 12017 1fc4 A2F56872 		sub	r2, r2, #928
 12018 1fc8 9342     		cmp	r3, r2
 12019 1fca 20D0     		beq	.L1721
 766:../Drivers/STM32F4xx_HAL_Driver/Src/stm32f4xx_hal_dma.c **** 
 12020              		.loc 1 766 0 discriminator 173
 12021 1fcc 02F58062 		add	r2, r2, #1024
 12022 1fd0 9342     		cmp	r3, r2
 12023 1fd2 1FD1     		bne	.L1722
 766:../Drivers/STM32F4xx_HAL_Driver/Src/stm32f4xx_hal_dma.c **** 
 12024              		.loc 1 766 0
 12025 1fd4 4FF40013 		mov	r3, #2097152
 12026 1fd8 1EE0     		b	.L1183
 12027              	.L1711:
 12028 1fda 2023     		movs	r3, #32
 12029 1fdc 1CE0     		b	.L1183
ARM GAS  /tmp/ccIvKYQX.s 			page 260


 12030              	.L1712:
 12031 1fde 2023     		movs	r3, #32
 12032 1fe0 1AE0     		b	.L1183
 12033              	.L1713:
 12034 1fe2 2023     		movs	r3, #32
 12035 1fe4 18E0     		b	.L1183
 12036              	.L1714:
 12037 1fe6 2023     		movs	r3, #32
 12038 1fe8 16E0     		b	.L1183
 12039              	.L1715:
 12040 1fea 4FF40063 		mov	r3, #2048
 12041 1fee 13E0     		b	.L1183
 12042              	.L1716:
 12043 1ff0 4FF40063 		mov	r3, #2048
 12044 1ff4 10E0     		b	.L1183
 12045              	.L1717:
 12046 1ff6 4FF40063 		mov	r3, #2048
 12047 1ffa 0DE0     		b	.L1183
 12048              	.L1718:
 12049 1ffc 4FF40063 		mov	r3, #2048
 12050 2000 0AE0     		b	.L1183
 12051              	.L1719:
 12052 2002 4FF40013 		mov	r3, #2097152
 12053 2006 07E0     		b	.L1183
 12054              	.L1720:
 12055 2008 4FF40013 		mov	r3, #2097152
 12056 200c 04E0     		b	.L1183
 12057              	.L1721:
 12058 200e 4FF40013 		mov	r3, #2097152
 12059 2012 01E0     		b	.L1183
 12060              	.L1722:
 12061 2014 4FF00063 		mov	r3, #134217728
 12062              	.L1183:
 766:../Drivers/STM32F4xx_HAL_Driver/Src/stm32f4xx_hal_dma.c **** 
 12063              		.loc 1 766 0 discriminator 200
 12064 2018 104A     		ldr	r2, .L1792+16
 12065 201a 9360     		str	r3, [r2, #8]
 12066              	.L1177:
 769:../Drivers/STM32F4xx_HAL_Driver/Src/stm32f4xx_hal_dma.c ****         {
 12067              		.loc 1 769 0 is_stmt 1
 12068 201c 2368     		ldr	r3, [r4]
 12069 201e 1A68     		ldr	r2, [r3]
 12070 2020 12F4002F 		tst	r2, #524288
 12071 2024 06D1     		bne	.L1184
 771:../Drivers/STM32F4xx_HAL_Driver/Src/stm32f4xx_hal_dma.c ****           {
 12072              		.loc 1 771 0
 12073 2026 636C     		ldr	r3, [r4, #68]
 12074 2028 002B     		cmp	r3, #0
 12075 202a 00F08981 		beq	.L1079
 774:../Drivers/STM32F4xx_HAL_Driver/Src/stm32f4xx_hal_dma.c ****           }
 12076              		.loc 1 774 0
 12077 202e 2046     		mov	r0, r4
 12078 2030 9847     		blx	r3
 12079              	.LVL71:
 12080 2032 10BD     		pop	{r4, pc}
 12081              	.LVL72:
 12082              	.L1184:
ARM GAS  /tmp/ccIvKYQX.s 			page 261


 778:../Drivers/STM32F4xx_HAL_Driver/Src/stm32f4xx_hal_dma.c ****         {
 12083              		.loc 1 778 0
 12084 2034 1B68     		ldr	r3, [r3]
 12085 2036 13F4002F 		tst	r3, #524288
 12086 203a 00F08181 		beq	.L1079
 780:../Drivers/STM32F4xx_HAL_Driver/Src/stm32f4xx_hal_dma.c ****           {
 12087              		.loc 1 780 0
 12088 203e E36B     		ldr	r3, [r4, #60]
 12089 2040 002B     		cmp	r3, #0
 12090 2042 00F07D81 		beq	.L1079
 783:../Drivers/STM32F4xx_HAL_Driver/Src/stm32f4xx_hal_dma.c ****           }
 12091              		.loc 1 783 0
 12092 2046 2046     		mov	r0, r4
 12093 2048 9847     		blx	r3
 12094              	.LVL73:
 12095 204a 10BD     		pop	{r4, pc}
 12096              	.LVL74:
 12097              	.L1793:
 12098              		.align	2
 12099              	.L1792:
 12100 204c 58640240 		.word	1073898584
 12101 2050 00640240 		.word	1073898496
 12102 2054 B8600240 		.word	1073897656
 12103 2058 58600240 		.word	1073897560
 12104 205c 00600240 		.word	1073897472
 12105 2060 10600240 		.word	1073897488
 12106              	.LVL75:
 12107              	.L1174:
 790:../Drivers/STM32F4xx_HAL_Driver/Src/stm32f4xx_hal_dma.c ****         {
 12108              		.loc 1 790 0
 12109 2064 1A68     		ldr	r2, [r3]
 12110 2066 12F4807F 		tst	r2, #256
 12111 206a 03D1     		bne	.L1185
 793:../Drivers/STM32F4xx_HAL_Driver/Src/stm32f4xx_hal_dma.c ****         }
 12112              		.loc 1 793 0
 12113 206c 1A68     		ldr	r2, [r3]
 12114 206e 22F01002 		bic	r2, r2, #16
 12115 2072 1A60     		str	r2, [r3]
 12116              	.L1185:
 796:../Drivers/STM32F4xx_HAL_Driver/Src/stm32f4xx_hal_dma.c **** 
 12117              		.loc 1 796 0
 12118 2074 2368     		ldr	r3, [r4]
 12119 2076 B34A     		ldr	r2, .L1794
 12120 2078 9342     		cmp	r3, r2
 12121 207a 54D9     		bls	.L1186
 796:../Drivers/STM32F4xx_HAL_Driver/Src/stm32f4xx_hal_dma.c **** 
 12122              		.loc 1 796 0 is_stmt 0 discriminator 1
 12123 207c A2F58962 		sub	r2, r2, #1096
 12124 2080 9342     		cmp	r3, r2
 12125 2082 2ED0     		beq	.L1723
 796:../Drivers/STM32F4xx_HAL_Driver/Src/stm32f4xx_hal_dma.c **** 
 12126              		.loc 1 796 0 discriminator 3
 12127 2084 02F58062 		add	r2, r2, #1024
 12128 2088 9342     		cmp	r3, r2
 12129 208a 2CD0     		beq	.L1724
 796:../Drivers/STM32F4xx_HAL_Driver/Src/stm32f4xx_hal_dma.c **** 
 12130              		.loc 1 796 0 discriminator 5
ARM GAS  /tmp/ccIvKYQX.s 			page 262


 12131 208c A2F56872 		sub	r2, r2, #928
 12132 2090 9342     		cmp	r3, r2
 12133 2092 2AD0     		beq	.L1725
 796:../Drivers/STM32F4xx_HAL_Driver/Src/stm32f4xx_hal_dma.c **** 
 12134              		.loc 1 796 0 discriminator 7
 12135 2094 02F58062 		add	r2, r2, #1024
 12136 2098 9342     		cmp	r3, r2
 12137 209a 28D0     		beq	.L1726
 796:../Drivers/STM32F4xx_HAL_Driver/Src/stm32f4xx_hal_dma.c **** 
 12138              		.loc 1 796 0 discriminator 9
 12139 209c A2F58962 		sub	r2, r2, #1096
 12140 20a0 9342     		cmp	r3, r2
 12141 20a2 26D0     		beq	.L1727
 796:../Drivers/STM32F4xx_HAL_Driver/Src/stm32f4xx_hal_dma.c **** 
 12142              		.loc 1 796 0 discriminator 11
 12143 20a4 02F58062 		add	r2, r2, #1024
 12144 20a8 9342     		cmp	r3, r2
 12145 20aa 25D0     		beq	.L1728
 796:../Drivers/STM32F4xx_HAL_Driver/Src/stm32f4xx_hal_dma.c **** 
 12146              		.loc 1 796 0 discriminator 13
 12147 20ac A2F56872 		sub	r2, r2, #928
 12148 20b0 9342     		cmp	r3, r2
 12149 20b2 24D0     		beq	.L1729
 796:../Drivers/STM32F4xx_HAL_Driver/Src/stm32f4xx_hal_dma.c **** 
 12150              		.loc 1 796 0 discriminator 15
 12151 20b4 02F58062 		add	r2, r2, #1024
 12152 20b8 9342     		cmp	r3, r2
 12153 20ba 23D0     		beq	.L1730
 796:../Drivers/STM32F4xx_HAL_Driver/Src/stm32f4xx_hal_dma.c **** 
 12154              		.loc 1 796 0 discriminator 17
 12155 20bc A2F58962 		sub	r2, r2, #1096
 12156 20c0 9342     		cmp	r3, r2
 12157 20c2 22D0     		beq	.L1731
 796:../Drivers/STM32F4xx_HAL_Driver/Src/stm32f4xx_hal_dma.c **** 
 12158              		.loc 1 796 0 discriminator 19
 12159 20c4 02F58062 		add	r2, r2, #1024
 12160 20c8 9342     		cmp	r3, r2
 12161 20ca 21D0     		beq	.L1732
 796:../Drivers/STM32F4xx_HAL_Driver/Src/stm32f4xx_hal_dma.c **** 
 12162              		.loc 1 796 0 discriminator 21
 12163 20cc A2F56872 		sub	r2, r2, #928
 12164 20d0 9342     		cmp	r3, r2
 12165 20d2 20D0     		beq	.L1733
 796:../Drivers/STM32F4xx_HAL_Driver/Src/stm32f4xx_hal_dma.c **** 
 12166              		.loc 1 796 0 discriminator 23
 12167 20d4 02F58062 		add	r2, r2, #1024
 12168 20d8 9342     		cmp	r3, r2
 12169 20da 1FD1     		bne	.L1734
 796:../Drivers/STM32F4xx_HAL_Driver/Src/stm32f4xx_hal_dma.c **** 
 12170              		.loc 1 796 0
 12171 20dc 4FF40012 		mov	r2, #2097152
 12172 20e0 1EE0     		b	.L1187
 12173              	.L1723:
 12174 20e2 2022     		movs	r2, #32
 12175 20e4 1CE0     		b	.L1187
 12176              	.L1724:
 12177 20e6 2022     		movs	r2, #32
ARM GAS  /tmp/ccIvKYQX.s 			page 263


 12178 20e8 1AE0     		b	.L1187
 12179              	.L1725:
 12180 20ea 2022     		movs	r2, #32
 12181 20ec 18E0     		b	.L1187
 12182              	.L1726:
 12183 20ee 2022     		movs	r2, #32
 12184 20f0 16E0     		b	.L1187
 12185              	.L1727:
 12186 20f2 4FF40062 		mov	r2, #2048
 12187 20f6 13E0     		b	.L1187
 12188              	.L1728:
 12189 20f8 4FF40062 		mov	r2, #2048
 12190 20fc 10E0     		b	.L1187
 12191              	.L1729:
 12192 20fe 4FF40062 		mov	r2, #2048
 12193 2102 0DE0     		b	.L1187
 12194              	.L1730:
 12195 2104 4FF40062 		mov	r2, #2048
 12196 2108 0AE0     		b	.L1187
 12197              	.L1731:
 12198 210a 4FF40012 		mov	r2, #2097152
 12199 210e 07E0     		b	.L1187
 12200              	.L1732:
 12201 2110 4FF40012 		mov	r2, #2097152
 12202 2114 04E0     		b	.L1187
 12203              	.L1733:
 12204 2116 4FF40012 		mov	r2, #2097152
 12205 211a 01E0     		b	.L1187
 12206              	.L1734:
 12207 211c 4FF00062 		mov	r2, #134217728
 12208              	.L1187:
 796:../Drivers/STM32F4xx_HAL_Driver/Src/stm32f4xx_hal_dma.c **** 
 12209              		.loc 1 796 0 discriminator 50
 12210 2120 894B     		ldr	r3, .L1794+4
 12211 2122 DA60     		str	r2, [r3, #12]
 12212 2124 00E1     		b	.L1188
 12213              	.L1186:
 796:../Drivers/STM32F4xx_HAL_Driver/Src/stm32f4xx_hal_dma.c **** 
 12214              		.loc 1 796 0 discriminator 2
 12215 2126 894A     		ldr	r2, .L1794+8
 12216 2128 9342     		cmp	r3, r2
 12217 212a 53D9     		bls	.L1189
 796:../Drivers/STM32F4xx_HAL_Driver/Src/stm32f4xx_hal_dma.c **** 
 12218              		.loc 1 796 0 discriminator 51
 12219 212c A83A     		subs	r2, r2, #168
 12220 212e 9342     		cmp	r3, r2
 12221 2130 2ED0     		beq	.L1735
 796:../Drivers/STM32F4xx_HAL_Driver/Src/stm32f4xx_hal_dma.c **** 
 12222              		.loc 1 796 0 discriminator 53
 12223 2132 02F58062 		add	r2, r2, #1024
 12224 2136 9342     		cmp	r3, r2
 12225 2138 2CD0     		beq	.L1736
 796:../Drivers/STM32F4xx_HAL_Driver/Src/stm32f4xx_hal_dma.c **** 
 12226              		.loc 1 796 0 discriminator 55
 12227 213a A2F56872 		sub	r2, r2, #928
 12228 213e 9342     		cmp	r3, r2
 12229 2140 2AD0     		beq	.L1737
ARM GAS  /tmp/ccIvKYQX.s 			page 264


 796:../Drivers/STM32F4xx_HAL_Driver/Src/stm32f4xx_hal_dma.c **** 
 12230              		.loc 1 796 0 discriminator 57
 12231 2142 02F58062 		add	r2, r2, #1024
 12232 2146 9342     		cmp	r3, r2
 12233 2148 28D0     		beq	.L1738
 796:../Drivers/STM32F4xx_HAL_Driver/Src/stm32f4xx_hal_dma.c **** 
 12234              		.loc 1 796 0 discriminator 59
 12235 214a A2F58962 		sub	r2, r2, #1096
 12236 214e 9342     		cmp	r3, r2
 12237 2150 26D0     		beq	.L1739
 796:../Drivers/STM32F4xx_HAL_Driver/Src/stm32f4xx_hal_dma.c **** 
 12238              		.loc 1 796 0 discriminator 61
 12239 2152 02F58062 		add	r2, r2, #1024
 12240 2156 9342     		cmp	r3, r2
 12241 2158 25D0     		beq	.L1740
 796:../Drivers/STM32F4xx_HAL_Driver/Src/stm32f4xx_hal_dma.c **** 
 12242              		.loc 1 796 0 discriminator 63
 12243 215a A2F56872 		sub	r2, r2, #928
 12244 215e 9342     		cmp	r3, r2
 12245 2160 24D0     		beq	.L1741
 796:../Drivers/STM32F4xx_HAL_Driver/Src/stm32f4xx_hal_dma.c **** 
 12246              		.loc 1 796 0 discriminator 65
 12247 2162 02F58062 		add	r2, r2, #1024
 12248 2166 9342     		cmp	r3, r2
 12249 2168 23D0     		beq	.L1742
 796:../Drivers/STM32F4xx_HAL_Driver/Src/stm32f4xx_hal_dma.c **** 
 12250              		.loc 1 796 0 discriminator 67
 12251 216a A2F58962 		sub	r2, r2, #1096
 12252 216e 9342     		cmp	r3, r2
 12253 2170 22D0     		beq	.L1743
 796:../Drivers/STM32F4xx_HAL_Driver/Src/stm32f4xx_hal_dma.c **** 
 12254              		.loc 1 796 0 discriminator 69
 12255 2172 02F58062 		add	r2, r2, #1024
 12256 2176 9342     		cmp	r3, r2
 12257 2178 21D0     		beq	.L1744
 796:../Drivers/STM32F4xx_HAL_Driver/Src/stm32f4xx_hal_dma.c **** 
 12258              		.loc 1 796 0 discriminator 71
 12259 217a A2F56872 		sub	r2, r2, #928
 12260 217e 9342     		cmp	r3, r2
 12261 2180 20D0     		beq	.L1745
 796:../Drivers/STM32F4xx_HAL_Driver/Src/stm32f4xx_hal_dma.c **** 
 12262              		.loc 1 796 0 discriminator 73
 12263 2182 02F58062 		add	r2, r2, #1024
 12264 2186 9342     		cmp	r3, r2
 12265 2188 1FD1     		bne	.L1746
 796:../Drivers/STM32F4xx_HAL_Driver/Src/stm32f4xx_hal_dma.c **** 
 12266              		.loc 1 796 0
 12267 218a 4FF40012 		mov	r2, #2097152
 12268 218e 1EE0     		b	.L1190
 12269              	.L1735:
 12270 2190 2022     		movs	r2, #32
 12271 2192 1CE0     		b	.L1190
 12272              	.L1736:
 12273 2194 2022     		movs	r2, #32
 12274 2196 1AE0     		b	.L1190
 12275              	.L1737:
 12276 2198 2022     		movs	r2, #32
ARM GAS  /tmp/ccIvKYQX.s 			page 265


 12277 219a 18E0     		b	.L1190
 12278              	.L1738:
 12279 219c 2022     		movs	r2, #32
 12280 219e 16E0     		b	.L1190
 12281              	.L1739:
 12282 21a0 4FF40062 		mov	r2, #2048
 12283 21a4 13E0     		b	.L1190
 12284              	.L1740:
 12285 21a6 4FF40062 		mov	r2, #2048
 12286 21aa 10E0     		b	.L1190
 12287              	.L1741:
 12288 21ac 4FF40062 		mov	r2, #2048
 12289 21b0 0DE0     		b	.L1190
 12290              	.L1742:
 12291 21b2 4FF40062 		mov	r2, #2048
 12292 21b6 0AE0     		b	.L1190
 12293              	.L1743:
 12294 21b8 4FF40012 		mov	r2, #2097152
 12295 21bc 07E0     		b	.L1190
 12296              	.L1744:
 12297 21be 4FF40012 		mov	r2, #2097152
 12298 21c2 04E0     		b	.L1190
 12299              	.L1745:
 12300 21c4 4FF40012 		mov	r2, #2097152
 12301 21c8 01E0     		b	.L1190
 12302              	.L1746:
 12303 21ca 4FF00062 		mov	r2, #134217728
 12304              	.L1190:
 796:../Drivers/STM32F4xx_HAL_Driver/Src/stm32f4xx_hal_dma.c **** 
 12305              		.loc 1 796 0 discriminator 100
 12306 21ce 5E4B     		ldr	r3, .L1794+4
 12307 21d0 9A60     		str	r2, [r3, #8]
 12308 21d2 A9E0     		b	.L1188
 12309              	.L1189:
 796:../Drivers/STM32F4xx_HAL_Driver/Src/stm32f4xx_hal_dma.c **** 
 12310              		.loc 1 796 0 discriminator 52
 12311 21d4 5E4A     		ldr	r2, .L1794+12
 12312 21d6 9342     		cmp	r3, r2
 12313 21d8 53D9     		bls	.L1192
 796:../Drivers/STM32F4xx_HAL_Driver/Src/stm32f4xx_hal_dma.c **** 
 12314              		.loc 1 796 0 discriminator 102
 12315 21da 483A     		subs	r2, r2, #72
 12316 21dc 9342     		cmp	r3, r2
 12317 21de 2ED0     		beq	.L1747
 796:../Drivers/STM32F4xx_HAL_Driver/Src/stm32f4xx_hal_dma.c **** 
 12318              		.loc 1 796 0 discriminator 104
 12319 21e0 02F58062 		add	r2, r2, #1024
 12320 21e4 9342     		cmp	r3, r2
 12321 21e6 2CD0     		beq	.L1748
 796:../Drivers/STM32F4xx_HAL_Driver/Src/stm32f4xx_hal_dma.c **** 
 12322              		.loc 1 796 0 discriminator 106
 12323 21e8 A2F56872 		sub	r2, r2, #928
 12324 21ec 9342     		cmp	r3, r2
 12325 21ee 2AD0     		beq	.L1749
 796:../Drivers/STM32F4xx_HAL_Driver/Src/stm32f4xx_hal_dma.c **** 
 12326              		.loc 1 796 0 discriminator 108
 12327 21f0 02F58062 		add	r2, r2, #1024
ARM GAS  /tmp/ccIvKYQX.s 			page 266


 12328 21f4 9342     		cmp	r3, r2
 12329 21f6 28D0     		beq	.L1750
 796:../Drivers/STM32F4xx_HAL_Driver/Src/stm32f4xx_hal_dma.c **** 
 12330              		.loc 1 796 0 discriminator 110
 12331 21f8 A2F58962 		sub	r2, r2, #1096
 12332 21fc 9342     		cmp	r3, r2
 12333 21fe 26D0     		beq	.L1751
 796:../Drivers/STM32F4xx_HAL_Driver/Src/stm32f4xx_hal_dma.c **** 
 12334              		.loc 1 796 0 discriminator 112
 12335 2200 02F58062 		add	r2, r2, #1024
 12336 2204 9342     		cmp	r3, r2
 12337 2206 25D0     		beq	.L1752
 796:../Drivers/STM32F4xx_HAL_Driver/Src/stm32f4xx_hal_dma.c **** 
 12338              		.loc 1 796 0 discriminator 114
 12339 2208 A2F56872 		sub	r2, r2, #928
 12340 220c 9342     		cmp	r3, r2
 12341 220e 24D0     		beq	.L1753
 796:../Drivers/STM32F4xx_HAL_Driver/Src/stm32f4xx_hal_dma.c **** 
 12342              		.loc 1 796 0 discriminator 116
 12343 2210 02F58062 		add	r2, r2, #1024
 12344 2214 9342     		cmp	r3, r2
 12345 2216 23D0     		beq	.L1754
 796:../Drivers/STM32F4xx_HAL_Driver/Src/stm32f4xx_hal_dma.c **** 
 12346              		.loc 1 796 0 discriminator 118
 12347 2218 A2F58962 		sub	r2, r2, #1096
 12348 221c 9342     		cmp	r3, r2
 12349 221e 22D0     		beq	.L1755
 796:../Drivers/STM32F4xx_HAL_Driver/Src/stm32f4xx_hal_dma.c **** 
 12350              		.loc 1 796 0 discriminator 120
 12351 2220 02F58062 		add	r2, r2, #1024
 12352 2224 9342     		cmp	r3, r2
 12353 2226 21D0     		beq	.L1756
 796:../Drivers/STM32F4xx_HAL_Driver/Src/stm32f4xx_hal_dma.c **** 
 12354              		.loc 1 796 0 discriminator 122
 12355 2228 A2F56872 		sub	r2, r2, #928
 12356 222c 9342     		cmp	r3, r2
 12357 222e 20D0     		beq	.L1757
 796:../Drivers/STM32F4xx_HAL_Driver/Src/stm32f4xx_hal_dma.c **** 
 12358              		.loc 1 796 0 discriminator 124
 12359 2230 02F58062 		add	r2, r2, #1024
 12360 2234 9342     		cmp	r3, r2
 12361 2236 1FD1     		bne	.L1758
 796:../Drivers/STM32F4xx_HAL_Driver/Src/stm32f4xx_hal_dma.c **** 
 12362              		.loc 1 796 0
 12363 2238 4FF40013 		mov	r3, #2097152
 12364 223c 1EE0     		b	.L1193
 12365              	.L1747:
 12366 223e 2023     		movs	r3, #32
 12367 2240 1CE0     		b	.L1193
 12368              	.L1748:
 12369 2242 2023     		movs	r3, #32
 12370 2244 1AE0     		b	.L1193
 12371              	.L1749:
 12372 2246 2023     		movs	r3, #32
 12373 2248 18E0     		b	.L1193
 12374              	.L1750:
 12375 224a 2023     		movs	r3, #32
ARM GAS  /tmp/ccIvKYQX.s 			page 267


 12376 224c 16E0     		b	.L1193
 12377              	.L1751:
 12378 224e 4FF40063 		mov	r3, #2048
 12379 2252 13E0     		b	.L1193
 12380              	.L1752:
 12381 2254 4FF40063 		mov	r3, #2048
 12382 2258 10E0     		b	.L1193
 12383              	.L1753:
 12384 225a 4FF40063 		mov	r3, #2048
 12385 225e 0DE0     		b	.L1193
 12386              	.L1754:
 12387 2260 4FF40063 		mov	r3, #2048
 12388 2264 0AE0     		b	.L1193
 12389              	.L1755:
 12390 2266 4FF40013 		mov	r3, #2097152
 12391 226a 07E0     		b	.L1193
 12392              	.L1756:
 12393 226c 4FF40013 		mov	r3, #2097152
 12394 2270 04E0     		b	.L1193
 12395              	.L1757:
 12396 2272 4FF40013 		mov	r3, #2097152
 12397 2276 01E0     		b	.L1193
 12398              	.L1758:
 12399 2278 4FF00063 		mov	r3, #134217728
 12400              	.L1193:
 796:../Drivers/STM32F4xx_HAL_Driver/Src/stm32f4xx_hal_dma.c **** 
 12401              		.loc 1 796 0 discriminator 151
 12402 227c 354A     		ldr	r2, .L1794+16
 12403 227e D360     		str	r3, [r2, #12]
 12404 2280 52E0     		b	.L1188
 12405              	.L1192:
 796:../Drivers/STM32F4xx_HAL_Driver/Src/stm32f4xx_hal_dma.c **** 
 12406              		.loc 1 796 0 discriminator 103
 12407 2282 354A     		ldr	r2, .L1794+20
 12408 2284 9342     		cmp	r3, r2
 12409 2286 2ED0     		beq	.L1759
 796:../Drivers/STM32F4xx_HAL_Driver/Src/stm32f4xx_hal_dma.c **** 
 12410              		.loc 1 796 0 discriminator 153
 12411 2288 02F58062 		add	r2, r2, #1024
 12412 228c 9342     		cmp	r3, r2
 12413 228e 2CD0     		beq	.L1760
 796:../Drivers/STM32F4xx_HAL_Driver/Src/stm32f4xx_hal_dma.c **** 
 12414              		.loc 1 796 0 discriminator 155
 12415 2290 A2F56872 		sub	r2, r2, #928
 12416 2294 9342     		cmp	r3, r2
 12417 2296 2AD0     		beq	.L1761
 796:../Drivers/STM32F4xx_HAL_Driver/Src/stm32f4xx_hal_dma.c **** 
 12418              		.loc 1 796 0 discriminator 157
 12419 2298 02F58062 		add	r2, r2, #1024
 12420 229c 9342     		cmp	r3, r2
 12421 229e 28D0     		beq	.L1762
 796:../Drivers/STM32F4xx_HAL_Driver/Src/stm32f4xx_hal_dma.c **** 
 12422              		.loc 1 796 0 discriminator 159
 12423 22a0 A2F58962 		sub	r2, r2, #1096
 12424 22a4 9342     		cmp	r3, r2
 12425 22a6 26D0     		beq	.L1763
 796:../Drivers/STM32F4xx_HAL_Driver/Src/stm32f4xx_hal_dma.c **** 
ARM GAS  /tmp/ccIvKYQX.s 			page 268


 12426              		.loc 1 796 0 discriminator 161
 12427 22a8 02F58062 		add	r2, r2, #1024
 12428 22ac 9342     		cmp	r3, r2
 12429 22ae 25D0     		beq	.L1764
 796:../Drivers/STM32F4xx_HAL_Driver/Src/stm32f4xx_hal_dma.c **** 
 12430              		.loc 1 796 0 discriminator 163
 12431 22b0 A2F56872 		sub	r2, r2, #928
 12432 22b4 9342     		cmp	r3, r2
 12433 22b6 24D0     		beq	.L1765
 796:../Drivers/STM32F4xx_HAL_Driver/Src/stm32f4xx_hal_dma.c **** 
 12434              		.loc 1 796 0 discriminator 165
 12435 22b8 02F58062 		add	r2, r2, #1024
 12436 22bc 9342     		cmp	r3, r2
 12437 22be 23D0     		beq	.L1766
 796:../Drivers/STM32F4xx_HAL_Driver/Src/stm32f4xx_hal_dma.c **** 
 12438              		.loc 1 796 0 discriminator 167
 12439 22c0 A2F58962 		sub	r2, r2, #1096
 12440 22c4 9342     		cmp	r3, r2
 12441 22c6 22D0     		beq	.L1767
 796:../Drivers/STM32F4xx_HAL_Driver/Src/stm32f4xx_hal_dma.c **** 
 12442              		.loc 1 796 0 discriminator 169
 12443 22c8 02F58062 		add	r2, r2, #1024
 12444 22cc 9342     		cmp	r3, r2
 12445 22ce 21D0     		beq	.L1768
 796:../Drivers/STM32F4xx_HAL_Driver/Src/stm32f4xx_hal_dma.c **** 
 12446              		.loc 1 796 0 discriminator 171
 12447 22d0 A2F56872 		sub	r2, r2, #928
 12448 22d4 9342     		cmp	r3, r2
 12449 22d6 20D0     		beq	.L1769
 796:../Drivers/STM32F4xx_HAL_Driver/Src/stm32f4xx_hal_dma.c **** 
 12450              		.loc 1 796 0 discriminator 173
 12451 22d8 02F58062 		add	r2, r2, #1024
 12452 22dc 9342     		cmp	r3, r2
 12453 22de 1FD1     		bne	.L1770
 796:../Drivers/STM32F4xx_HAL_Driver/Src/stm32f4xx_hal_dma.c **** 
 12454              		.loc 1 796 0
 12455 22e0 4FF40013 		mov	r3, #2097152
 12456 22e4 1EE0     		b	.L1194
 12457              	.L1759:
 12458 22e6 2023     		movs	r3, #32
 12459 22e8 1CE0     		b	.L1194
 12460              	.L1760:
 12461 22ea 2023     		movs	r3, #32
 12462 22ec 1AE0     		b	.L1194
 12463              	.L1761:
 12464 22ee 2023     		movs	r3, #32
 12465 22f0 18E0     		b	.L1194
 12466              	.L1762:
 12467 22f2 2023     		movs	r3, #32
 12468 22f4 16E0     		b	.L1194
 12469              	.L1763:
 12470 22f6 4FF40063 		mov	r3, #2048
 12471 22fa 13E0     		b	.L1194
 12472              	.L1764:
 12473 22fc 4FF40063 		mov	r3, #2048
 12474 2300 10E0     		b	.L1194
 12475              	.L1765:
ARM GAS  /tmp/ccIvKYQX.s 			page 269


 12476 2302 4FF40063 		mov	r3, #2048
 12477 2306 0DE0     		b	.L1194
 12478              	.L1766:
 12479 2308 4FF40063 		mov	r3, #2048
 12480 230c 0AE0     		b	.L1194
 12481              	.L1767:
 12482 230e 4FF40013 		mov	r3, #2097152
 12483 2312 07E0     		b	.L1194
 12484              	.L1768:
 12485 2314 4FF40013 		mov	r3, #2097152
 12486 2318 04E0     		b	.L1194
 12487              	.L1769:
 12488 231a 4FF40013 		mov	r3, #2097152
 12489 231e 01E0     		b	.L1194
 12490              	.L1770:
 12491 2320 4FF00063 		mov	r3, #134217728
 12492              	.L1194:
 796:../Drivers/STM32F4xx_HAL_Driver/Src/stm32f4xx_hal_dma.c **** 
 12493              		.loc 1 796 0 discriminator 200
 12494 2324 0B4A     		ldr	r2, .L1794+16
 12495 2326 9360     		str	r3, [r2, #8]
 12496              	.L1188:
 799:../Drivers/STM32F4xx_HAL_Driver/Src/stm32f4xx_hal_dma.c **** 
 12497              		.loc 1 799 0 is_stmt 1
 12498 2328 E36C     		ldr	r3, [r4, #76]
 12499 232a E364     		str	r3, [r4, #76]
 802:../Drivers/STM32F4xx_HAL_Driver/Src/stm32f4xx_hal_dma.c **** 
 12500              		.loc 1 802 0
 12501 232c 1123     		movs	r3, #17
 12502 232e 84F83530 		strb	r3, [r4, #53]
 805:../Drivers/STM32F4xx_HAL_Driver/Src/stm32f4xx_hal_dma.c **** 
 12503              		.loc 1 805 0
 12504 2332 0023     		movs	r3, #0
 12505 2334 84F83430 		strb	r3, [r4, #52]
 807:../Drivers/STM32F4xx_HAL_Driver/Src/stm32f4xx_hal_dma.c ****         {
 12506              		.loc 1 807 0
 12507 2338 E36B     		ldr	r3, [r4, #60]
 12508 233a 0BB1     		cbz	r3, .L1079
 810:../Drivers/STM32F4xx_HAL_Driver/Src/stm32f4xx_hal_dma.c ****         }
 12509              		.loc 1 810 0
 12510 233c 2046     		mov	r0, r4
 12511 233e 9847     		blx	r3
 12512              	.LVL76:
 12513              	.L1079:
 12514 2340 10BD     		pop	{r4, pc}
 12515              	.LVL77:
 12516              	.L1795:
 12517 2342 00BF     		.align	2
 12518              	.L1794:
 12519 2344 58640240 		.word	1073898584
 12520 2348 00640240 		.word	1073898496
 12521 234c B8600240 		.word	1073897656
 12522 2350 58600240 		.word	1073897560
 12523 2354 00600240 		.word	1073897472
 12524 2358 10600240 		.word	1073897488
 12525              		.cfi_endproc
 12526              	.LFE118:
ARM GAS  /tmp/ccIvKYQX.s 			page 270


 12528              		.section	.text.HAL_DMA_GetState,"ax",%progbits
 12529              		.align	2
 12530              		.global	HAL_DMA_GetState
 12531              		.thumb
 12532              		.thumb_func
 12534              	HAL_DMA_GetState:
 12535              	.LFB119:
 844:../Drivers/STM32F4xx_HAL_Driver/Src/stm32f4xx_hal_dma.c ****   return hdma->State;
 12536              		.loc 1 844 0
 12537              		.cfi_startproc
 12538              		@ args = 0, pretend = 0, frame = 0
 12539              		@ frame_needed = 0, uses_anonymous_args = 0
 12540              		@ link register save eliminated.
 12541              	.LVL78:
 845:../Drivers/STM32F4xx_HAL_Driver/Src/stm32f4xx_hal_dma.c **** }
 12542              		.loc 1 845 0
 12543 0000 90F83500 		ldrb	r0, [r0, #53]	@ zero_extendqisi2
 12544              	.LVL79:
 846:../Drivers/STM32F4xx_HAL_Driver/Src/stm32f4xx_hal_dma.c **** 
 12545              		.loc 1 846 0
 12546 0004 7047     		bx	lr
 12547              		.cfi_endproc
 12548              	.LFE119:
 12550 0006 00BF     		.section	.text.HAL_DMA_GetError,"ax",%progbits
 12551              		.align	2
 12552              		.global	HAL_DMA_GetError
 12553              		.thumb
 12554              		.thumb_func
 12556              	HAL_DMA_GetError:
 12557              	.LFB120:
 855:../Drivers/STM32F4xx_HAL_Driver/Src/stm32f4xx_hal_dma.c ****   return hdma->ErrorCode;
 12558              		.loc 1 855 0
 12559              		.cfi_startproc
 12560              		@ args = 0, pretend = 0, frame = 0
 12561              		@ frame_needed = 0, uses_anonymous_args = 0
 12562              		@ link register save eliminated.
 12563              	.LVL80:
 856:../Drivers/STM32F4xx_HAL_Driver/Src/stm32f4xx_hal_dma.c **** }
 12564              		.loc 1 856 0
 12565 0000 C06C     		ldr	r0, [r0, #76]
 12566              	.LVL81:
 857:../Drivers/STM32F4xx_HAL_Driver/Src/stm32f4xx_hal_dma.c **** 
 12567              		.loc 1 857 0
 12568 0002 7047     		bx	lr
 12569              		.cfi_endproc
 12570              	.LFE120:
 12572              		.text
 12573              	.Letext0:
 12574              		.file 2 "/usr/include/newlib/machine/_default_types.h"
 12575              		.file 3 "/usr/include/newlib/sys/_stdint.h"
 12576              		.file 4 "../Drivers/CMSIS/Device/ST/STM32F4xx/Include/stm32f401xe.h"
 12577              		.file 5 "../Drivers/CMSIS/Device/ST/STM32F4xx/Include/stm32f4xx.h"
 12578              		.file 6 "../Drivers/STM32F4xx_HAL_Driver/Inc/stm32f4xx_hal_def.h"
 12579              		.file 7 "../Drivers/STM32F4xx_HAL_Driver/Inc/stm32f4xx_hal_dma.h"
 12580              		.file 8 "../Drivers/CMSIS/Include/core_cm4.h"
 12581              		.file 9 "../Drivers/STM32F4xx_HAL_Driver/Inc/stm32f4xx_hal.h"
ARM GAS  /tmp/ccIvKYQX.s 			page 271


DEFINED SYMBOLS
                            *ABS*:00000000 stm32f4xx_hal_dma.c
     /tmp/ccIvKYQX.s:22     .text.DMA_SetConfig:00000000 $t
     /tmp/ccIvKYQX.s:26     .text.DMA_SetConfig:00000000 DMA_SetConfig
     /tmp/ccIvKYQX.s:75     .text.HAL_DMA_Init:00000000 $t
     /tmp/ccIvKYQX.s:80     .text.HAL_DMA_Init:00000000 HAL_DMA_Init
     /tmp/ccIvKYQX.s:203    .text.HAL_DMA_Init:00000074 $d
     /tmp/ccIvKYQX.s:208    .text.HAL_DMA_DeInit:00000000 $t
     /tmp/ccIvKYQX.s:213    .text.HAL_DMA_DeInit:00000000 HAL_DMA_DeInit
     /tmp/ccIvKYQX.s:631    .text.HAL_DMA_DeInit:000002e8 $d
     /tmp/ccIvKYQX.s:639    .text.HAL_DMA_DeInit:00000304 $t
     /tmp/ccIvKYQX.s:1021   .text.HAL_DMA_DeInit:000005b8 $d
     /tmp/ccIvKYQX.s:1028   .text.HAL_DMA_DeInit:000005d0 $t
     /tmp/ccIvKYQX.s:1410   .text.HAL_DMA_DeInit:00000884 $d
     /tmp/ccIvKYQX.s:1417   .text.HAL_DMA_DeInit:0000089c $t
     /tmp/ccIvKYQX.s:1799   .text.HAL_DMA_DeInit:00000b30 $d
     /tmp/ccIvKYQX.s:1807   .text.HAL_DMA_DeInit:00000b4c $t
     /tmp/ccIvKYQX.s:2219   .text.HAL_DMA_DeInit:00000e20 $d
     /tmp/ccIvKYQX.s:2229   .text.HAL_DMA_Start:00000000 $t
     /tmp/ccIvKYQX.s:2234   .text.HAL_DMA_Start:00000000 HAL_DMA_Start
     /tmp/ccIvKYQX.s:2288   .text.HAL_DMA_Start_IT:00000000 $t
     /tmp/ccIvKYQX.s:2293   .text.HAL_DMA_Start_IT:00000000 HAL_DMA_Start_IT
     /tmp/ccIvKYQX.s:2372   .text.HAL_DMA_Abort:00000000 $t
     /tmp/ccIvKYQX.s:2377   .text.HAL_DMA_Abort:00000000 HAL_DMA_Abort
     /tmp/ccIvKYQX.s:2444   .text.HAL_DMA_PollForTransfer:00000000 $t
     /tmp/ccIvKYQX.s:2449   .text.HAL_DMA_PollForTransfer:00000000 HAL_DMA_PollForTransfer
     /tmp/ccIvKYQX.s:2861   .text.HAL_DMA_PollForTransfer:000002c0 $d
     /tmp/ccIvKYQX.s:2866   .text.HAL_DMA_PollForTransfer:000002cc $t
     /tmp/ccIvKYQX.s:3251   .text.HAL_DMA_PollForTransfer:00000574 $d
     /tmp/ccIvKYQX.s:3259   .text.HAL_DMA_PollForTransfer:0000058c $t
     /tmp/ccIvKYQX.s:3644   .text.HAL_DMA_PollForTransfer:0000083c $d
     /tmp/ccIvKYQX.s:3653   .text.HAL_DMA_PollForTransfer:00000858 $t
     /tmp/ccIvKYQX.s:4052   .text.HAL_DMA_PollForTransfer:00000b30 $d
     /tmp/ccIvKYQX.s:4060   .text.HAL_DMA_PollForTransfer:00000b48 $t
     /tmp/ccIvKYQX.s:4449   .text.HAL_DMA_PollForTransfer:00000dfc $d
     /tmp/ccIvKYQX.s:4458   .text.HAL_DMA_PollForTransfer:00000e18 $t
     /tmp/ccIvKYQX.s:4847   .text.HAL_DMA_PollForTransfer:000010cc $d
     /tmp/ccIvKYQX.s:4857   .text.HAL_DMA_PollForTransfer:000010ec $t
     /tmp/ccIvKYQX.s:5237   .text.HAL_DMA_PollForTransfer:00001394 $d
     /tmp/ccIvKYQX.s:5246   .text.HAL_DMA_PollForTransfer:000013b0 $t
     /tmp/ccIvKYQX.s:5627   .text.HAL_DMA_PollForTransfer:00001664 $d
     /tmp/ccIvKYQX.s:5635   .text.HAL_DMA_PollForTransfer:0000167c $t
     /tmp/ccIvKYQX.s:6034   .text.HAL_DMA_PollForTransfer:00001954 $d
     /tmp/ccIvKYQX.s:6042   .text.HAL_DMA_PollForTransfer:0000196c $t
     /tmp/ccIvKYQX.s:6423   .text.HAL_DMA_PollForTransfer:00001c20 $d
     /tmp/ccIvKYQX.s:6431   .text.HAL_DMA_PollForTransfer:00001c38 $t
     /tmp/ccIvKYQX.s:6825   .text.HAL_DMA_PollForTransfer:00001f04 $d
     /tmp/ccIvKYQX.s:6833   .text.HAL_DMA_PollForTransfer:00001f1c $t
     /tmp/ccIvKYQX.s:7238   .text.HAL_DMA_PollForTransfer:000021fc $d
     /tmp/ccIvKYQX.s:7246   .text.HAL_DMA_PollForTransfer:00002214 $t
     /tmp/ccIvKYQX.s:7543   .text.HAL_DMA_PollForTransfer:00002428 $d
     /tmp/ccIvKYQX.s:7552   .text.HAL_DMA_IRQHandler:00000000 $t
     /tmp/ccIvKYQX.s:7557   .text.HAL_DMA_IRQHandler:00000000 HAL_DMA_IRQHandler
     /tmp/ccIvKYQX.s:7960   .text.HAL_DMA_IRQHandler:000002cc $d
     /tmp/ccIvKYQX.s:7966   .text.HAL_DMA_IRQHandler:000002e0 $t
     /tmp/ccIvKYQX.s:8361   .text.HAL_DMA_IRQHandler:000005b0 $d
     /tmp/ccIvKYQX.s:8368   .text.HAL_DMA_IRQHandler:000005c8 $t
ARM GAS  /tmp/ccIvKYQX.s 			page 272


     /tmp/ccIvKYQX.s:8783   .text.HAL_DMA_IRQHandler:00000894 $d
     /tmp/ccIvKYQX.s:8790   .text.HAL_DMA_IRQHandler:000008ac $t
     /tmp/ccIvKYQX.s:9185   .text.HAL_DMA_IRQHandler:00000b5c $d
     /tmp/ccIvKYQX.s:9193   .text.HAL_DMA_IRQHandler:00000b78 $t
     /tmp/ccIvKYQX.s:9595   .text.HAL_DMA_IRQHandler:00000e4c $d
     /tmp/ccIvKYQX.s:9602   .text.HAL_DMA_IRQHandler:00000e64 $t
     /tmp/ccIvKYQX.s:10009  .text.HAL_DMA_IRQHandler:0000114c $d
     /tmp/ccIvKYQX.s:10017  .text.HAL_DMA_IRQHandler:00001168 $t
     /tmp/ccIvKYQX.s:10431  .text.HAL_DMA_IRQHandler:00001454 $d
     /tmp/ccIvKYQX.s:10437  .text.HAL_DMA_IRQHandler:00001468 $t
     /tmp/ccIvKYQX.s:10856  .text.HAL_DMA_IRQHandler:00001764 $d
     /tmp/ccIvKYQX.s:10864  .text.HAL_DMA_IRQHandler:0000177c $t
     /tmp/ccIvKYQX.s:11248  .text.HAL_DMA_IRQHandler:00001a38 $d
     /tmp/ccIvKYQX.s:11255  .text.HAL_DMA_IRQHandler:00001a50 $t
     /tmp/ccIvKYQX.s:11663  .text.HAL_DMA_IRQHandler:00001d30 $d
     /tmp/ccIvKYQX.s:11669  .text.HAL_DMA_IRQHandler:00001d44 $t
     /tmp/ccIvKYQX.s:12100  .text.HAL_DMA_IRQHandler:0000204c $d
     /tmp/ccIvKYQX.s:12109  .text.HAL_DMA_IRQHandler:00002064 $t
     /tmp/ccIvKYQX.s:12519  .text.HAL_DMA_IRQHandler:00002344 $d
     /tmp/ccIvKYQX.s:12529  .text.HAL_DMA_GetState:00000000 $t
     /tmp/ccIvKYQX.s:12534  .text.HAL_DMA_GetState:00000000 HAL_DMA_GetState
     /tmp/ccIvKYQX.s:12551  .text.HAL_DMA_GetError:00000000 $t
     /tmp/ccIvKYQX.s:12556  .text.HAL_DMA_GetError:00000000 HAL_DMA_GetError
                     .debug_frame:00000010 $d

UNDEFINED SYMBOLS
HAL_GetTick
