ARM GAS  /tmp/ccAPlzty.s 			page 1


   1              		.syntax unified
   2              		.cpu cortex-m4
   3              		.eabi_attribute 27, 1
   4              		.eabi_attribute 28, 1
   5              		.fpu fpv4-sp-d16
   6              		.eabi_attribute 20, 1
   7              		.eabi_attribute 21, 1
   8              		.eabi_attribute 23, 3
   9              		.eabi_attribute 24, 1
  10              		.eabi_attribute 25, 1
  11              		.eabi_attribute 26, 1
  12              		.eabi_attribute 30, 1
  13              		.eabi_attribute 34, 1
  14              		.eabi_attribute 18, 4
  15              		.thumb
  16              		.file	"stm32f4xx_hal_dma.c"
  17              		.text
  18              	.Ltext0:
  19              		.cfi_sections	.debug_frame
  20              		.section	.text.DMA_SetConfig,"ax",%progbits
  21              		.align	2
  22              		.thumb
  23              		.thumb_func
  25              	DMA_SetConfig:
  26              	.LFB121:
  27              		.file 1 "../Drivers/STM32F4xx_HAL_Driver/Src/stm32f4xx_hal_dma.c"
   1:../Drivers/STM32F4xx_HAL_Driver/Src/stm32f4xx_hal_dma.c **** /**
   2:../Drivers/STM32F4xx_HAL_Driver/Src/stm32f4xx_hal_dma.c ****   ******************************************************************************
   3:../Drivers/STM32F4xx_HAL_Driver/Src/stm32f4xx_hal_dma.c ****   * @file    stm32f4xx_hal_dma.c
   4:../Drivers/STM32F4xx_HAL_Driver/Src/stm32f4xx_hal_dma.c ****   * @author  MCD Application Team
   5:../Drivers/STM32F4xx_HAL_Driver/Src/stm32f4xx_hal_dma.c ****   * @version V1.1.0
   6:../Drivers/STM32F4xx_HAL_Driver/Src/stm32f4xx_hal_dma.c ****   * @date    19-June-2014
   7:../Drivers/STM32F4xx_HAL_Driver/Src/stm32f4xx_hal_dma.c ****   * @brief   DMA HAL module driver.
   8:../Drivers/STM32F4xx_HAL_Driver/Src/stm32f4xx_hal_dma.c ****   *    
   9:../Drivers/STM32F4xx_HAL_Driver/Src/stm32f4xx_hal_dma.c ****   *          This file provides firmware functions to manage the following 
  10:../Drivers/STM32F4xx_HAL_Driver/Src/stm32f4xx_hal_dma.c ****   *          functionalities of the Direct Memory Access (DMA) peripheral:
  11:../Drivers/STM32F4xx_HAL_Driver/Src/stm32f4xx_hal_dma.c ****   *           + Initialization and de-initialization functions
  12:../Drivers/STM32F4xx_HAL_Driver/Src/stm32f4xx_hal_dma.c ****   *           + IO operation functions
  13:../Drivers/STM32F4xx_HAL_Driver/Src/stm32f4xx_hal_dma.c ****   *           + Peripheral State and errors functions
  14:../Drivers/STM32F4xx_HAL_Driver/Src/stm32f4xx_hal_dma.c ****   @verbatim     
  15:../Drivers/STM32F4xx_HAL_Driver/Src/stm32f4xx_hal_dma.c ****   ==============================================================================      
  16:../Drivers/STM32F4xx_HAL_Driver/Src/stm32f4xx_hal_dma.c ****                         ##### How to use this driver #####
  17:../Drivers/STM32F4xx_HAL_Driver/Src/stm32f4xx_hal_dma.c ****   ============================================================================== 
  18:../Drivers/STM32F4xx_HAL_Driver/Src/stm32f4xx_hal_dma.c ****   [..]
  19:../Drivers/STM32F4xx_HAL_Driver/Src/stm32f4xx_hal_dma.c ****    (#) Enable and configure the peripheral to be connected to the DMA Stream
  20:../Drivers/STM32F4xx_HAL_Driver/Src/stm32f4xx_hal_dma.c ****        (except for internal SRAM/FLASH memories: no initialization is 
  21:../Drivers/STM32F4xx_HAL_Driver/Src/stm32f4xx_hal_dma.c ****        necessary) please refer to Reference manual for connection between peripherals
  22:../Drivers/STM32F4xx_HAL_Driver/Src/stm32f4xx_hal_dma.c ****        and DMA requests . 
  23:../Drivers/STM32F4xx_HAL_Driver/Src/stm32f4xx_hal_dma.c ****           
  24:../Drivers/STM32F4xx_HAL_Driver/Src/stm32f4xx_hal_dma.c ****    (#) For a given Stream, program the required configuration through the following parameters:   
  25:../Drivers/STM32F4xx_HAL_Driver/Src/stm32f4xx_hal_dma.c ****        Transfer Direction, Source and Destination data formats, 
  26:../Drivers/STM32F4xx_HAL_Driver/Src/stm32f4xx_hal_dma.c ****        Circular, Normal or peripheral flow control mode, Stream Priority level, 
  27:../Drivers/STM32F4xx_HAL_Driver/Src/stm32f4xx_hal_dma.c ****        Source and Destination Increment mode, FIFO mode and its Threshold (if needed), 
  28:../Drivers/STM32F4xx_HAL_Driver/Src/stm32f4xx_hal_dma.c ****        Burst mode for Source and/or Destination (if needed) using HAL_DMA_Init() function.
  29:../Drivers/STM32F4xx_HAL_Driver/Src/stm32f4xx_hal_dma.c ****                      
  30:../Drivers/STM32F4xx_HAL_Driver/Src/stm32f4xx_hal_dma.c ****      *** Polling mode IO operation ***
  31:../Drivers/STM32F4xx_HAL_Driver/Src/stm32f4xx_hal_dma.c ****      =================================   
ARM GAS  /tmp/ccAPlzty.s 			page 2


  32:../Drivers/STM32F4xx_HAL_Driver/Src/stm32f4xx_hal_dma.c ****     [..] 
  33:../Drivers/STM32F4xx_HAL_Driver/Src/stm32f4xx_hal_dma.c ****           (+) Use HAL_DMA_Start() to start DMA transfer after the configuration of Source 
  34:../Drivers/STM32F4xx_HAL_Driver/Src/stm32f4xx_hal_dma.c ****               address and destination address and the Length of data to be transferred
  35:../Drivers/STM32F4xx_HAL_Driver/Src/stm32f4xx_hal_dma.c ****           (+) Use HAL_DMA_PollForTransfer() to poll for the end of current transfer, in this  
  36:../Drivers/STM32F4xx_HAL_Driver/Src/stm32f4xx_hal_dma.c ****               case a fixed Timeout can be configured by User depending from his application.
  37:../Drivers/STM32F4xx_HAL_Driver/Src/stm32f4xx_hal_dma.c ****                
  38:../Drivers/STM32F4xx_HAL_Driver/Src/stm32f4xx_hal_dma.c ****      *** Interrupt mode IO operation ***    
  39:../Drivers/STM32F4xx_HAL_Driver/Src/stm32f4xx_hal_dma.c ****      =================================== 
  40:../Drivers/STM32F4xx_HAL_Driver/Src/stm32f4xx_hal_dma.c ****     [..]     
  41:../Drivers/STM32F4xx_HAL_Driver/Src/stm32f4xx_hal_dma.c ****           (+) Configure the DMA interrupt priority using HAL_NVIC_SetPriority()
  42:../Drivers/STM32F4xx_HAL_Driver/Src/stm32f4xx_hal_dma.c ****           (+) Enable the DMA IRQ handler using HAL_NVIC_EnableIRQ() 
  43:../Drivers/STM32F4xx_HAL_Driver/Src/stm32f4xx_hal_dma.c ****           (+) Use HAL_DMA_Start_IT() to start DMA transfer after the configuration of  
  44:../Drivers/STM32F4xx_HAL_Driver/Src/stm32f4xx_hal_dma.c ****               Source address and destination address and the Length of data to be transferred. In t
  45:../Drivers/STM32F4xx_HAL_Driver/Src/stm32f4xx_hal_dma.c ****               case the DMA interrupt is configured 
  46:../Drivers/STM32F4xx_HAL_Driver/Src/stm32f4xx_hal_dma.c ****           (+) Use HAL_DMA_IRQHandler() called under DMA_IRQHandler() Interrupt subroutine
  47:../Drivers/STM32F4xx_HAL_Driver/Src/stm32f4xx_hal_dma.c ****           (+) At the end of data transfer HAL_DMA_IRQHandler() function is executed and user can 
  48:../Drivers/STM32F4xx_HAL_Driver/Src/stm32f4xx_hal_dma.c ****               add his own function by customization of function pointer XferCpltCallback and 
  49:../Drivers/STM32F4xx_HAL_Driver/Src/stm32f4xx_hal_dma.c ****               XferErrorCallback (i.e a member of DMA handle structure). 
  50:../Drivers/STM32F4xx_HAL_Driver/Src/stm32f4xx_hal_dma.c ****     [..]                
  51:../Drivers/STM32F4xx_HAL_Driver/Src/stm32f4xx_hal_dma.c ****      (#) Use HAL_DMA_GetState() function to return the DMA state and HAL_DMA_GetError() in case of 
  52:../Drivers/STM32F4xx_HAL_Driver/Src/stm32f4xx_hal_dma.c ****          detection.
  53:../Drivers/STM32F4xx_HAL_Driver/Src/stm32f4xx_hal_dma.c ****          
  54:../Drivers/STM32F4xx_HAL_Driver/Src/stm32f4xx_hal_dma.c ****      (#) Use HAL_DMA_Abort() function to abort the current transfer
  55:../Drivers/STM32F4xx_HAL_Driver/Src/stm32f4xx_hal_dma.c ****      
  56:../Drivers/STM32F4xx_HAL_Driver/Src/stm32f4xx_hal_dma.c ****      -@-   In Memory-to-Memory transfer mode, Circular mode is not allowed.
  57:../Drivers/STM32F4xx_HAL_Driver/Src/stm32f4xx_hal_dma.c ****     
  58:../Drivers/STM32F4xx_HAL_Driver/Src/stm32f4xx_hal_dma.c ****      -@-   The FIFO is used mainly to reduce bus usage and to allow data packing/unpacking: it is
  59:../Drivers/STM32F4xx_HAL_Driver/Src/stm32f4xx_hal_dma.c ****            possible to set different Data Sizes for the Peripheral and the Memory (ie. you can set
  60:../Drivers/STM32F4xx_HAL_Driver/Src/stm32f4xx_hal_dma.c ****            Half-Word data size for the peripheral to access its data register and set Word data siz
  61:../Drivers/STM32F4xx_HAL_Driver/Src/stm32f4xx_hal_dma.c ****            for the Memory to gain in access time. Each two half words will be packed and written in
  62:../Drivers/STM32F4xx_HAL_Driver/Src/stm32f4xx_hal_dma.c ****            a single access to a Word in the Memory).
  63:../Drivers/STM32F4xx_HAL_Driver/Src/stm32f4xx_hal_dma.c ****       
  64:../Drivers/STM32F4xx_HAL_Driver/Src/stm32f4xx_hal_dma.c ****      -@-   When FIFO is disabled, it is not allowed to configure different Data Sizes for Source
  65:../Drivers/STM32F4xx_HAL_Driver/Src/stm32f4xx_hal_dma.c ****            and Destination. In this case the Peripheral Data Size will be applied to both Source
  66:../Drivers/STM32F4xx_HAL_Driver/Src/stm32f4xx_hal_dma.c ****            and Destination.               
  67:../Drivers/STM32F4xx_HAL_Driver/Src/stm32f4xx_hal_dma.c ****   
  68:../Drivers/STM32F4xx_HAL_Driver/Src/stm32f4xx_hal_dma.c ****      *** DMA HAL driver macros list ***
  69:../Drivers/STM32F4xx_HAL_Driver/Src/stm32f4xx_hal_dma.c ****      ============================================= 
  70:../Drivers/STM32F4xx_HAL_Driver/Src/stm32f4xx_hal_dma.c ****      [..]
  71:../Drivers/STM32F4xx_HAL_Driver/Src/stm32f4xx_hal_dma.c ****        Below the list of most used macros in DMA HAL driver.
  72:../Drivers/STM32F4xx_HAL_Driver/Src/stm32f4xx_hal_dma.c ****        
  73:../Drivers/STM32F4xx_HAL_Driver/Src/stm32f4xx_hal_dma.c ****       (+) __HAL_DMA_ENABLE: Enable the specified DMA Stream.
  74:../Drivers/STM32F4xx_HAL_Driver/Src/stm32f4xx_hal_dma.c ****       (+) __HAL_DMA_DISABLE: Disable the specified DMA Stream.
  75:../Drivers/STM32F4xx_HAL_Driver/Src/stm32f4xx_hal_dma.c ****       (+) __HAL_DMA_GET_FS: Return the current DMA Stream FIFO filled level.
  76:../Drivers/STM32F4xx_HAL_Driver/Src/stm32f4xx_hal_dma.c ****       (+) __HAL_DMA_GET_FLAG: Get the DMA Stream pending flags.
  77:../Drivers/STM32F4xx_HAL_Driver/Src/stm32f4xx_hal_dma.c ****       (+) __HAL_DMA_CLEAR_FLAG: Clear the DMA Stream pending flags.
  78:../Drivers/STM32F4xx_HAL_Driver/Src/stm32f4xx_hal_dma.c ****       (+) __HAL_DMA_ENABLE_IT: Enable the specified DMA Stream interrupts.
  79:../Drivers/STM32F4xx_HAL_Driver/Src/stm32f4xx_hal_dma.c ****       (+) __HAL_DMA_DISABLE_IT: Disable the specified DMA Stream interrupts.
  80:../Drivers/STM32F4xx_HAL_Driver/Src/stm32f4xx_hal_dma.c ****       (+) __HAL_DMA_GET_IT_SOURCE: Check whether the specified DMA Stream interrupt has occurred or
  81:../Drivers/STM32F4xx_HAL_Driver/Src/stm32f4xx_hal_dma.c ****      
  82:../Drivers/STM32F4xx_HAL_Driver/Src/stm32f4xx_hal_dma.c ****      [..] 
  83:../Drivers/STM32F4xx_HAL_Driver/Src/stm32f4xx_hal_dma.c ****       (@) You can refer to the DMA HAL driver header file for more useful macros  
  84:../Drivers/STM32F4xx_HAL_Driver/Src/stm32f4xx_hal_dma.c ****   
  85:../Drivers/STM32F4xx_HAL_Driver/Src/stm32f4xx_hal_dma.c ****   @endverbatim
  86:../Drivers/STM32F4xx_HAL_Driver/Src/stm32f4xx_hal_dma.c ****   ******************************************************************************
  87:../Drivers/STM32F4xx_HAL_Driver/Src/stm32f4xx_hal_dma.c ****   * @attention
  88:../Drivers/STM32F4xx_HAL_Driver/Src/stm32f4xx_hal_dma.c ****   *
ARM GAS  /tmp/ccAPlzty.s 			page 3


  89:../Drivers/STM32F4xx_HAL_Driver/Src/stm32f4xx_hal_dma.c ****   * <h2><center>&copy; COPYRIGHT(c) 2014 STMicroelectronics</center></h2>
  90:../Drivers/STM32F4xx_HAL_Driver/Src/stm32f4xx_hal_dma.c ****   *
  91:../Drivers/STM32F4xx_HAL_Driver/Src/stm32f4xx_hal_dma.c ****   * Redistribution and use in source and binary forms, with or without modification,
  92:../Drivers/STM32F4xx_HAL_Driver/Src/stm32f4xx_hal_dma.c ****   * are permitted provided that the following conditions are met:
  93:../Drivers/STM32F4xx_HAL_Driver/Src/stm32f4xx_hal_dma.c ****   *   1. Redistributions of source code must retain the above copyright notice,
  94:../Drivers/STM32F4xx_HAL_Driver/Src/stm32f4xx_hal_dma.c ****   *      this list of conditions and the following disclaimer.
  95:../Drivers/STM32F4xx_HAL_Driver/Src/stm32f4xx_hal_dma.c ****   *   2. Redistributions in binary form must reproduce the above copyright notice,
  96:../Drivers/STM32F4xx_HAL_Driver/Src/stm32f4xx_hal_dma.c ****   *      this list of conditions and the following disclaimer in the documentation
  97:../Drivers/STM32F4xx_HAL_Driver/Src/stm32f4xx_hal_dma.c ****   *      and/or other materials provided with the distribution.
  98:../Drivers/STM32F4xx_HAL_Driver/Src/stm32f4xx_hal_dma.c ****   *   3. Neither the name of STMicroelectronics nor the names of its contributors
  99:../Drivers/STM32F4xx_HAL_Driver/Src/stm32f4xx_hal_dma.c ****   *      may be used to endorse or promote products derived from this software
 100:../Drivers/STM32F4xx_HAL_Driver/Src/stm32f4xx_hal_dma.c ****   *      without specific prior written permission.
 101:../Drivers/STM32F4xx_HAL_Driver/Src/stm32f4xx_hal_dma.c ****   *
 102:../Drivers/STM32F4xx_HAL_Driver/Src/stm32f4xx_hal_dma.c ****   * THIS SOFTWARE IS PROVIDED BY THE COPYRIGHT HOLDERS AND CONTRIBUTORS "AS IS"
 103:../Drivers/STM32F4xx_HAL_Driver/Src/stm32f4xx_hal_dma.c ****   * AND ANY EXPRESS OR IMPLIED WARRANTIES, INCLUDING, BUT NOT LIMITED TO, THE
 104:../Drivers/STM32F4xx_HAL_Driver/Src/stm32f4xx_hal_dma.c ****   * IMPLIED WARRANTIES OF MERCHANTABILITY AND FITNESS FOR A PARTICULAR PURPOSE ARE
 105:../Drivers/STM32F4xx_HAL_Driver/Src/stm32f4xx_hal_dma.c ****   * DISCLAIMED. IN NO EVENT SHALL THE COPYRIGHT HOLDER OR CONTRIBUTORS BE LIABLE
 106:../Drivers/STM32F4xx_HAL_Driver/Src/stm32f4xx_hal_dma.c ****   * FOR ANY DIRECT, INDIRECT, INCIDENTAL, SPECIAL, EXEMPLARY, OR CONSEQUENTIAL
 107:../Drivers/STM32F4xx_HAL_Driver/Src/stm32f4xx_hal_dma.c ****   * DAMAGES (INCLUDING, BUT NOT LIMITED TO, PROCUREMENT OF SUBSTITUTE GOODS OR
 108:../Drivers/STM32F4xx_HAL_Driver/Src/stm32f4xx_hal_dma.c ****   * SERVICES; LOSS OF USE, DATA, OR PROFITS; OR BUSINESS INTERRUPTION) HOWEVER
 109:../Drivers/STM32F4xx_HAL_Driver/Src/stm32f4xx_hal_dma.c ****   * CAUSED AND ON ANY THEORY OF LIABILITY, WHETHER IN CONTRACT, STRICT LIABILITY,
 110:../Drivers/STM32F4xx_HAL_Driver/Src/stm32f4xx_hal_dma.c ****   * OR TORT (INCLUDING NEGLIGENCE OR OTHERWISE) ARISING IN ANY WAY OUT OF THE USE
 111:../Drivers/STM32F4xx_HAL_Driver/Src/stm32f4xx_hal_dma.c ****   * OF THIS SOFTWARE, EVEN IF ADVISED OF THE POSSIBILITY OF SUCH DAMAGE.
 112:../Drivers/STM32F4xx_HAL_Driver/Src/stm32f4xx_hal_dma.c ****   *
 113:../Drivers/STM32F4xx_HAL_Driver/Src/stm32f4xx_hal_dma.c ****   ******************************************************************************
 114:../Drivers/STM32F4xx_HAL_Driver/Src/stm32f4xx_hal_dma.c ****   */ 
 115:../Drivers/STM32F4xx_HAL_Driver/Src/stm32f4xx_hal_dma.c **** 
 116:../Drivers/STM32F4xx_HAL_Driver/Src/stm32f4xx_hal_dma.c **** /* Includes ------------------------------------------------------------------*/
 117:../Drivers/STM32F4xx_HAL_Driver/Src/stm32f4xx_hal_dma.c **** #include "stm32f4xx_hal.h"
 118:../Drivers/STM32F4xx_HAL_Driver/Src/stm32f4xx_hal_dma.c **** 
 119:../Drivers/STM32F4xx_HAL_Driver/Src/stm32f4xx_hal_dma.c **** /** @addtogroup STM32F4xx_HAL_Driver
 120:../Drivers/STM32F4xx_HAL_Driver/Src/stm32f4xx_hal_dma.c ****   * @{
 121:../Drivers/STM32F4xx_HAL_Driver/Src/stm32f4xx_hal_dma.c ****   */
 122:../Drivers/STM32F4xx_HAL_Driver/Src/stm32f4xx_hal_dma.c **** 
 123:../Drivers/STM32F4xx_HAL_Driver/Src/stm32f4xx_hal_dma.c **** /** @defgroup DMA 
 124:../Drivers/STM32F4xx_HAL_Driver/Src/stm32f4xx_hal_dma.c ****   * @brief DMA HAL module driver
 125:../Drivers/STM32F4xx_HAL_Driver/Src/stm32f4xx_hal_dma.c ****   * @{
 126:../Drivers/STM32F4xx_HAL_Driver/Src/stm32f4xx_hal_dma.c ****   */
 127:../Drivers/STM32F4xx_HAL_Driver/Src/stm32f4xx_hal_dma.c **** 
 128:../Drivers/STM32F4xx_HAL_Driver/Src/stm32f4xx_hal_dma.c **** #ifdef HAL_DMA_MODULE_ENABLED
 129:../Drivers/STM32F4xx_HAL_Driver/Src/stm32f4xx_hal_dma.c **** 
 130:../Drivers/STM32F4xx_HAL_Driver/Src/stm32f4xx_hal_dma.c **** /* Private typedef -----------------------------------------------------------*/
 131:../Drivers/STM32F4xx_HAL_Driver/Src/stm32f4xx_hal_dma.c **** /* Private define ------------------------------------------------------------*/
 132:../Drivers/STM32F4xx_HAL_Driver/Src/stm32f4xx_hal_dma.c **** #define HAL_TIMEOUT_DMA_ABORT    ((uint32_t)1000)  /* 1s  */
 133:../Drivers/STM32F4xx_HAL_Driver/Src/stm32f4xx_hal_dma.c **** /* Private macro -------------------------------------------------------------*/
 134:../Drivers/STM32F4xx_HAL_Driver/Src/stm32f4xx_hal_dma.c **** /* Private variables ---------------------------------------------------------*/
 135:../Drivers/STM32F4xx_HAL_Driver/Src/stm32f4xx_hal_dma.c **** /* Private function prototypes -----------------------------------------------*/
 136:../Drivers/STM32F4xx_HAL_Driver/Src/stm32f4xx_hal_dma.c **** static void DMA_SetConfig(DMA_HandleTypeDef *hdma, uint32_t SrcAddress, uint32_t DstAddress, uint32
 137:../Drivers/STM32F4xx_HAL_Driver/Src/stm32f4xx_hal_dma.c **** 
 138:../Drivers/STM32F4xx_HAL_Driver/Src/stm32f4xx_hal_dma.c **** /* Private functions ---------------------------------------------------------*/
 139:../Drivers/STM32F4xx_HAL_Driver/Src/stm32f4xx_hal_dma.c **** 
 140:../Drivers/STM32F4xx_HAL_Driver/Src/stm32f4xx_hal_dma.c **** /** @defgroup DMA_Private_Functions
 141:../Drivers/STM32F4xx_HAL_Driver/Src/stm32f4xx_hal_dma.c ****   * @{
 142:../Drivers/STM32F4xx_HAL_Driver/Src/stm32f4xx_hal_dma.c ****   */
 143:../Drivers/STM32F4xx_HAL_Driver/Src/stm32f4xx_hal_dma.c **** 
 144:../Drivers/STM32F4xx_HAL_Driver/Src/stm32f4xx_hal_dma.c **** /** @defgroup DMA_Group1 Initialization and de-initialization functions 
 145:../Drivers/STM32F4xx_HAL_Driver/Src/stm32f4xx_hal_dma.c ****  *  @brief   Initialization and de-initialization functions 
ARM GAS  /tmp/ccAPlzty.s 			page 4


 146:../Drivers/STM32F4xx_HAL_Driver/Src/stm32f4xx_hal_dma.c ****  *
 147:../Drivers/STM32F4xx_HAL_Driver/Src/stm32f4xx_hal_dma.c **** @verbatim   
 148:../Drivers/STM32F4xx_HAL_Driver/Src/stm32f4xx_hal_dma.c ****  ===============================================================================
 149:../Drivers/STM32F4xx_HAL_Driver/Src/stm32f4xx_hal_dma.c ****              ##### Initialization and de-initialization functions  #####
 150:../Drivers/STM32F4xx_HAL_Driver/Src/stm32f4xx_hal_dma.c ****  ===============================================================================  
 151:../Drivers/STM32F4xx_HAL_Driver/Src/stm32f4xx_hal_dma.c ****     [..]
 152:../Drivers/STM32F4xx_HAL_Driver/Src/stm32f4xx_hal_dma.c ****     This section provides functions allowing to initialize the DMA Stream source
 153:../Drivers/STM32F4xx_HAL_Driver/Src/stm32f4xx_hal_dma.c ****     and destination addresses, incrementation and data sizes, transfer direction, 
 154:../Drivers/STM32F4xx_HAL_Driver/Src/stm32f4xx_hal_dma.c ****     circular/normal mode selection, memory-to-memory mode selection and Stream priority value.
 155:../Drivers/STM32F4xx_HAL_Driver/Src/stm32f4xx_hal_dma.c ****     [..]
 156:../Drivers/STM32F4xx_HAL_Driver/Src/stm32f4xx_hal_dma.c ****     The HAL_DMA_Init() function follows the DMA configuration procedures as described in
 157:../Drivers/STM32F4xx_HAL_Driver/Src/stm32f4xx_hal_dma.c ****     reference manual.  
 158:../Drivers/STM32F4xx_HAL_Driver/Src/stm32f4xx_hal_dma.c **** 
 159:../Drivers/STM32F4xx_HAL_Driver/Src/stm32f4xx_hal_dma.c **** @endverbatim
 160:../Drivers/STM32F4xx_HAL_Driver/Src/stm32f4xx_hal_dma.c ****   * @{
 161:../Drivers/STM32F4xx_HAL_Driver/Src/stm32f4xx_hal_dma.c ****   */
 162:../Drivers/STM32F4xx_HAL_Driver/Src/stm32f4xx_hal_dma.c ****   
 163:../Drivers/STM32F4xx_HAL_Driver/Src/stm32f4xx_hal_dma.c **** /**
 164:../Drivers/STM32F4xx_HAL_Driver/Src/stm32f4xx_hal_dma.c ****   * @brief  Initializes the DMA according to the specified
 165:../Drivers/STM32F4xx_HAL_Driver/Src/stm32f4xx_hal_dma.c ****   *         parameters in the DMA_InitTypeDef and create the associated handle.
 166:../Drivers/STM32F4xx_HAL_Driver/Src/stm32f4xx_hal_dma.c ****   * @param  hdma: Pointer to a DMA_HandleTypeDef structure that contains
 167:../Drivers/STM32F4xx_HAL_Driver/Src/stm32f4xx_hal_dma.c ****   *               the configuration information for the specified DMA Stream.  
 168:../Drivers/STM32F4xx_HAL_Driver/Src/stm32f4xx_hal_dma.c ****   * @retval HAL status
 169:../Drivers/STM32F4xx_HAL_Driver/Src/stm32f4xx_hal_dma.c ****   */
 170:../Drivers/STM32F4xx_HAL_Driver/Src/stm32f4xx_hal_dma.c **** HAL_StatusTypeDef HAL_DMA_Init(DMA_HandleTypeDef *hdma)
 171:../Drivers/STM32F4xx_HAL_Driver/Src/stm32f4xx_hal_dma.c **** { 
 172:../Drivers/STM32F4xx_HAL_Driver/Src/stm32f4xx_hal_dma.c ****   uint32_t tmp = 0;
 173:../Drivers/STM32F4xx_HAL_Driver/Src/stm32f4xx_hal_dma.c ****   
 174:../Drivers/STM32F4xx_HAL_Driver/Src/stm32f4xx_hal_dma.c ****   /* Check the DMA peripheral state */
 175:../Drivers/STM32F4xx_HAL_Driver/Src/stm32f4xx_hal_dma.c ****   if(hdma == NULL)
 176:../Drivers/STM32F4xx_HAL_Driver/Src/stm32f4xx_hal_dma.c ****   {
 177:../Drivers/STM32F4xx_HAL_Driver/Src/stm32f4xx_hal_dma.c ****     return HAL_ERROR;
 178:../Drivers/STM32F4xx_HAL_Driver/Src/stm32f4xx_hal_dma.c ****   }
 179:../Drivers/STM32F4xx_HAL_Driver/Src/stm32f4xx_hal_dma.c **** 
 180:../Drivers/STM32F4xx_HAL_Driver/Src/stm32f4xx_hal_dma.c ****   /* Check the parameters */
 181:../Drivers/STM32F4xx_HAL_Driver/Src/stm32f4xx_hal_dma.c ****   assert_param(IS_DMA_STREAM_ALL_INSTANCE(hdma->Instance));
 182:../Drivers/STM32F4xx_HAL_Driver/Src/stm32f4xx_hal_dma.c ****   assert_param(IS_DMA_CHANNEL(hdma->Init.Channel));
 183:../Drivers/STM32F4xx_HAL_Driver/Src/stm32f4xx_hal_dma.c ****   assert_param(IS_DMA_DIRECTION(hdma->Init.Direction));
 184:../Drivers/STM32F4xx_HAL_Driver/Src/stm32f4xx_hal_dma.c ****   assert_param(IS_DMA_PERIPHERAL_INC_STATE(hdma->Init.PeriphInc));
 185:../Drivers/STM32F4xx_HAL_Driver/Src/stm32f4xx_hal_dma.c ****   assert_param(IS_DMA_MEMORY_INC_STATE(hdma->Init.MemInc));
 186:../Drivers/STM32F4xx_HAL_Driver/Src/stm32f4xx_hal_dma.c ****   assert_param(IS_DMA_PERIPHERAL_DATA_SIZE(hdma->Init.PeriphDataAlignment));
 187:../Drivers/STM32F4xx_HAL_Driver/Src/stm32f4xx_hal_dma.c ****   assert_param(IS_DMA_MEMORY_DATA_SIZE(hdma->Init.MemDataAlignment));
 188:../Drivers/STM32F4xx_HAL_Driver/Src/stm32f4xx_hal_dma.c ****   assert_param(IS_DMA_MODE(hdma->Init.Mode));
 189:../Drivers/STM32F4xx_HAL_Driver/Src/stm32f4xx_hal_dma.c ****   assert_param(IS_DMA_PRIORITY(hdma->Init.Priority));
 190:../Drivers/STM32F4xx_HAL_Driver/Src/stm32f4xx_hal_dma.c ****   assert_param(IS_DMA_FIFO_MODE_STATE(hdma->Init.FIFOMode));
 191:../Drivers/STM32F4xx_HAL_Driver/Src/stm32f4xx_hal_dma.c ****   /* Check the memory burst, peripheral burst and FIFO threshold parameters only
 192:../Drivers/STM32F4xx_HAL_Driver/Src/stm32f4xx_hal_dma.c ****      when FIFO mode is enabled */
 193:../Drivers/STM32F4xx_HAL_Driver/Src/stm32f4xx_hal_dma.c ****   if(hdma->Init.FIFOMode != DMA_FIFOMODE_DISABLE)
 194:../Drivers/STM32F4xx_HAL_Driver/Src/stm32f4xx_hal_dma.c ****   {
 195:../Drivers/STM32F4xx_HAL_Driver/Src/stm32f4xx_hal_dma.c ****     assert_param(IS_DMA_FIFO_THRESHOLD(hdma->Init.FIFOThreshold));
 196:../Drivers/STM32F4xx_HAL_Driver/Src/stm32f4xx_hal_dma.c ****     assert_param(IS_DMA_MEMORY_BURST(hdma->Init.MemBurst));
 197:../Drivers/STM32F4xx_HAL_Driver/Src/stm32f4xx_hal_dma.c ****     assert_param(IS_DMA_PERIPHERAL_BURST(hdma->Init.PeriphBurst));
 198:../Drivers/STM32F4xx_HAL_Driver/Src/stm32f4xx_hal_dma.c ****   }
 199:../Drivers/STM32F4xx_HAL_Driver/Src/stm32f4xx_hal_dma.c **** 
 200:../Drivers/STM32F4xx_HAL_Driver/Src/stm32f4xx_hal_dma.c ****   /* Change DMA peripheral state */
 201:../Drivers/STM32F4xx_HAL_Driver/Src/stm32f4xx_hal_dma.c ****   hdma->State = HAL_DMA_STATE_BUSY;
 202:../Drivers/STM32F4xx_HAL_Driver/Src/stm32f4xx_hal_dma.c **** 
ARM GAS  /tmp/ccAPlzty.s 			page 5


 203:../Drivers/STM32F4xx_HAL_Driver/Src/stm32f4xx_hal_dma.c ****   /* Get the CR register value */
 204:../Drivers/STM32F4xx_HAL_Driver/Src/stm32f4xx_hal_dma.c ****   tmp = hdma->Instance->CR;
 205:../Drivers/STM32F4xx_HAL_Driver/Src/stm32f4xx_hal_dma.c **** 
 206:../Drivers/STM32F4xx_HAL_Driver/Src/stm32f4xx_hal_dma.c ****   /* Clear CHSEL, MBURST, PBURST, PL, MSIZE, PSIZE, MINC, PINC, CIRC, DIR and CT bits */
 207:../Drivers/STM32F4xx_HAL_Driver/Src/stm32f4xx_hal_dma.c ****   tmp &= ((uint32_t)~(DMA_SxCR_CHSEL | DMA_SxCR_MBURST | DMA_SxCR_PBURST | \
 208:../Drivers/STM32F4xx_HAL_Driver/Src/stm32f4xx_hal_dma.c ****                       DMA_SxCR_PL    | DMA_SxCR_MSIZE  | DMA_SxCR_PSIZE  | \
 209:../Drivers/STM32F4xx_HAL_Driver/Src/stm32f4xx_hal_dma.c ****                       DMA_SxCR_MINC  | DMA_SxCR_PINC   | DMA_SxCR_CIRC   | \
 210:../Drivers/STM32F4xx_HAL_Driver/Src/stm32f4xx_hal_dma.c ****                       DMA_SxCR_DIR   | DMA_SxCR_CT  ));
 211:../Drivers/STM32F4xx_HAL_Driver/Src/stm32f4xx_hal_dma.c **** 
 212:../Drivers/STM32F4xx_HAL_Driver/Src/stm32f4xx_hal_dma.c ****   /* Prepare the DMA Stream configuration */
 213:../Drivers/STM32F4xx_HAL_Driver/Src/stm32f4xx_hal_dma.c ****   tmp |=  hdma->Init.Channel             | hdma->Init.Direction        |
 214:../Drivers/STM32F4xx_HAL_Driver/Src/stm32f4xx_hal_dma.c ****           hdma->Init.PeriphInc           | hdma->Init.MemInc           |
 215:../Drivers/STM32F4xx_HAL_Driver/Src/stm32f4xx_hal_dma.c ****           hdma->Init.PeriphDataAlignment | hdma->Init.MemDataAlignment |
 216:../Drivers/STM32F4xx_HAL_Driver/Src/stm32f4xx_hal_dma.c ****           hdma->Init.Mode                | hdma->Init.Priority;
 217:../Drivers/STM32F4xx_HAL_Driver/Src/stm32f4xx_hal_dma.c **** 
 218:../Drivers/STM32F4xx_HAL_Driver/Src/stm32f4xx_hal_dma.c ****   /* the Memory burst and peripheral burst are not used when the FIFO is disabled */
 219:../Drivers/STM32F4xx_HAL_Driver/Src/stm32f4xx_hal_dma.c ****   if(hdma->Init.FIFOMode == DMA_FIFOMODE_ENABLE)
 220:../Drivers/STM32F4xx_HAL_Driver/Src/stm32f4xx_hal_dma.c ****   {
 221:../Drivers/STM32F4xx_HAL_Driver/Src/stm32f4xx_hal_dma.c ****     /* Get memory burst and peripheral burst */
 222:../Drivers/STM32F4xx_HAL_Driver/Src/stm32f4xx_hal_dma.c ****     tmp |=  hdma->Init.MemBurst | hdma->Init.PeriphBurst;
 223:../Drivers/STM32F4xx_HAL_Driver/Src/stm32f4xx_hal_dma.c ****   }
 224:../Drivers/STM32F4xx_HAL_Driver/Src/stm32f4xx_hal_dma.c ****   
 225:../Drivers/STM32F4xx_HAL_Driver/Src/stm32f4xx_hal_dma.c ****   /* Write to DMA Stream CR register */
 226:../Drivers/STM32F4xx_HAL_Driver/Src/stm32f4xx_hal_dma.c ****   hdma->Instance->CR = tmp;  
 227:../Drivers/STM32F4xx_HAL_Driver/Src/stm32f4xx_hal_dma.c **** 
 228:../Drivers/STM32F4xx_HAL_Driver/Src/stm32f4xx_hal_dma.c ****   /* Get the FCR register value */
 229:../Drivers/STM32F4xx_HAL_Driver/Src/stm32f4xx_hal_dma.c ****   tmp = hdma->Instance->FCR;
 230:../Drivers/STM32F4xx_HAL_Driver/Src/stm32f4xx_hal_dma.c **** 
 231:../Drivers/STM32F4xx_HAL_Driver/Src/stm32f4xx_hal_dma.c ****   /* Clear Direct mode and FIFO threshold bits */
 232:../Drivers/STM32F4xx_HAL_Driver/Src/stm32f4xx_hal_dma.c ****   tmp &= (uint32_t)~(DMA_SxFCR_DMDIS | DMA_SxFCR_FTH);
 233:../Drivers/STM32F4xx_HAL_Driver/Src/stm32f4xx_hal_dma.c **** 
 234:../Drivers/STM32F4xx_HAL_Driver/Src/stm32f4xx_hal_dma.c ****   /* Prepare the DMA Stream FIFO configuration */
 235:../Drivers/STM32F4xx_HAL_Driver/Src/stm32f4xx_hal_dma.c ****   tmp |= hdma->Init.FIFOMode;
 236:../Drivers/STM32F4xx_HAL_Driver/Src/stm32f4xx_hal_dma.c **** 
 237:../Drivers/STM32F4xx_HAL_Driver/Src/stm32f4xx_hal_dma.c ****   /* the FIFO threshold is not used when the FIFO mode is disabled */
 238:../Drivers/STM32F4xx_HAL_Driver/Src/stm32f4xx_hal_dma.c ****   if(hdma->Init.FIFOMode == DMA_FIFOMODE_ENABLE)
 239:../Drivers/STM32F4xx_HAL_Driver/Src/stm32f4xx_hal_dma.c ****   {
 240:../Drivers/STM32F4xx_HAL_Driver/Src/stm32f4xx_hal_dma.c ****     /* Get the FIFO threshold */
 241:../Drivers/STM32F4xx_HAL_Driver/Src/stm32f4xx_hal_dma.c ****     tmp |= hdma->Init.FIFOThreshold;
 242:../Drivers/STM32F4xx_HAL_Driver/Src/stm32f4xx_hal_dma.c ****   }
 243:../Drivers/STM32F4xx_HAL_Driver/Src/stm32f4xx_hal_dma.c ****   
 244:../Drivers/STM32F4xx_HAL_Driver/Src/stm32f4xx_hal_dma.c ****   /* Write to DMA Stream FCR */
 245:../Drivers/STM32F4xx_HAL_Driver/Src/stm32f4xx_hal_dma.c ****   hdma->Instance->FCR = tmp;
 246:../Drivers/STM32F4xx_HAL_Driver/Src/stm32f4xx_hal_dma.c **** 
 247:../Drivers/STM32F4xx_HAL_Driver/Src/stm32f4xx_hal_dma.c ****   /* Initialise the error code */
 248:../Drivers/STM32F4xx_HAL_Driver/Src/stm32f4xx_hal_dma.c ****   hdma->ErrorCode = HAL_DMA_ERROR_NONE;
 249:../Drivers/STM32F4xx_HAL_Driver/Src/stm32f4xx_hal_dma.c **** 
 250:../Drivers/STM32F4xx_HAL_Driver/Src/stm32f4xx_hal_dma.c ****   /* Initialize the DMA state */
 251:../Drivers/STM32F4xx_HAL_Driver/Src/stm32f4xx_hal_dma.c ****   hdma->State = HAL_DMA_STATE_READY;
 252:../Drivers/STM32F4xx_HAL_Driver/Src/stm32f4xx_hal_dma.c **** 
 253:../Drivers/STM32F4xx_HAL_Driver/Src/stm32f4xx_hal_dma.c ****   return HAL_OK;
 254:../Drivers/STM32F4xx_HAL_Driver/Src/stm32f4xx_hal_dma.c **** }
 255:../Drivers/STM32F4xx_HAL_Driver/Src/stm32f4xx_hal_dma.c **** 
 256:../Drivers/STM32F4xx_HAL_Driver/Src/stm32f4xx_hal_dma.c **** /**
 257:../Drivers/STM32F4xx_HAL_Driver/Src/stm32f4xx_hal_dma.c ****   * @brief  DeInitializes the DMA peripheral 
 258:../Drivers/STM32F4xx_HAL_Driver/Src/stm32f4xx_hal_dma.c ****   * @param  hdma: pointer to a DMA_HandleTypeDef structure that contains
 259:../Drivers/STM32F4xx_HAL_Driver/Src/stm32f4xx_hal_dma.c ****   *               the configuration information for the specified DMA Stream.  
ARM GAS  /tmp/ccAPlzty.s 			page 6


 260:../Drivers/STM32F4xx_HAL_Driver/Src/stm32f4xx_hal_dma.c ****   * @retval HAL status
 261:../Drivers/STM32F4xx_HAL_Driver/Src/stm32f4xx_hal_dma.c ****   */
 262:../Drivers/STM32F4xx_HAL_Driver/Src/stm32f4xx_hal_dma.c **** HAL_StatusTypeDef HAL_DMA_DeInit(DMA_HandleTypeDef *hdma)
 263:../Drivers/STM32F4xx_HAL_Driver/Src/stm32f4xx_hal_dma.c **** {
 264:../Drivers/STM32F4xx_HAL_Driver/Src/stm32f4xx_hal_dma.c ****   /* Check the DMA peripheral state */
 265:../Drivers/STM32F4xx_HAL_Driver/Src/stm32f4xx_hal_dma.c ****   if(hdma == NULL)
 266:../Drivers/STM32F4xx_HAL_Driver/Src/stm32f4xx_hal_dma.c ****   {
 267:../Drivers/STM32F4xx_HAL_Driver/Src/stm32f4xx_hal_dma.c ****     return HAL_ERROR;
 268:../Drivers/STM32F4xx_HAL_Driver/Src/stm32f4xx_hal_dma.c ****   }
 269:../Drivers/STM32F4xx_HAL_Driver/Src/stm32f4xx_hal_dma.c ****   
 270:../Drivers/STM32F4xx_HAL_Driver/Src/stm32f4xx_hal_dma.c ****   /* Check the DMA peripheral state */
 271:../Drivers/STM32F4xx_HAL_Driver/Src/stm32f4xx_hal_dma.c ****   if(hdma->State == HAL_DMA_STATE_BUSY)
 272:../Drivers/STM32F4xx_HAL_Driver/Src/stm32f4xx_hal_dma.c ****   {
 273:../Drivers/STM32F4xx_HAL_Driver/Src/stm32f4xx_hal_dma.c ****      return HAL_ERROR;
 274:../Drivers/STM32F4xx_HAL_Driver/Src/stm32f4xx_hal_dma.c ****   }
 275:../Drivers/STM32F4xx_HAL_Driver/Src/stm32f4xx_hal_dma.c **** 
 276:../Drivers/STM32F4xx_HAL_Driver/Src/stm32f4xx_hal_dma.c ****   /* Disable the selected DMA Streamx */
 277:../Drivers/STM32F4xx_HAL_Driver/Src/stm32f4xx_hal_dma.c ****   __HAL_DMA_DISABLE(hdma);
 278:../Drivers/STM32F4xx_HAL_Driver/Src/stm32f4xx_hal_dma.c **** 
 279:../Drivers/STM32F4xx_HAL_Driver/Src/stm32f4xx_hal_dma.c ****   /* Reset DMA Streamx control register */
 280:../Drivers/STM32F4xx_HAL_Driver/Src/stm32f4xx_hal_dma.c ****   hdma->Instance->CR   = 0;
 281:../Drivers/STM32F4xx_HAL_Driver/Src/stm32f4xx_hal_dma.c **** 
 282:../Drivers/STM32F4xx_HAL_Driver/Src/stm32f4xx_hal_dma.c ****   /* Reset DMA Streamx number of data to transfer register */
 283:../Drivers/STM32F4xx_HAL_Driver/Src/stm32f4xx_hal_dma.c ****   hdma->Instance->NDTR = 0;
 284:../Drivers/STM32F4xx_HAL_Driver/Src/stm32f4xx_hal_dma.c **** 
 285:../Drivers/STM32F4xx_HAL_Driver/Src/stm32f4xx_hal_dma.c ****   /* Reset DMA Streamx peripheral address register */
 286:../Drivers/STM32F4xx_HAL_Driver/Src/stm32f4xx_hal_dma.c ****   hdma->Instance->PAR  = 0;
 287:../Drivers/STM32F4xx_HAL_Driver/Src/stm32f4xx_hal_dma.c **** 
 288:../Drivers/STM32F4xx_HAL_Driver/Src/stm32f4xx_hal_dma.c ****   /* Reset DMA Streamx memory 0 address register */
 289:../Drivers/STM32F4xx_HAL_Driver/Src/stm32f4xx_hal_dma.c ****   hdma->Instance->M0AR = 0;
 290:../Drivers/STM32F4xx_HAL_Driver/Src/stm32f4xx_hal_dma.c **** 
 291:../Drivers/STM32F4xx_HAL_Driver/Src/stm32f4xx_hal_dma.c ****   /* Reset DMA Streamx memory 1 address register */
 292:../Drivers/STM32F4xx_HAL_Driver/Src/stm32f4xx_hal_dma.c ****   hdma->Instance->M1AR = 0;
 293:../Drivers/STM32F4xx_HAL_Driver/Src/stm32f4xx_hal_dma.c **** 
 294:../Drivers/STM32F4xx_HAL_Driver/Src/stm32f4xx_hal_dma.c ****   /* Reset DMA Streamx FIFO control register */
 295:../Drivers/STM32F4xx_HAL_Driver/Src/stm32f4xx_hal_dma.c ****   hdma->Instance->FCR  = (uint32_t)0x00000021;
 296:../Drivers/STM32F4xx_HAL_Driver/Src/stm32f4xx_hal_dma.c **** 
 297:../Drivers/STM32F4xx_HAL_Driver/Src/stm32f4xx_hal_dma.c ****   /* Clear all flags */
 298:../Drivers/STM32F4xx_HAL_Driver/Src/stm32f4xx_hal_dma.c ****   __HAL_DMA_CLEAR_FLAG(hdma, __HAL_DMA_GET_DME_FLAG_INDEX(hdma));
 299:../Drivers/STM32F4xx_HAL_Driver/Src/stm32f4xx_hal_dma.c ****   __HAL_DMA_CLEAR_FLAG(hdma, __HAL_DMA_GET_TC_FLAG_INDEX(hdma));
 300:../Drivers/STM32F4xx_HAL_Driver/Src/stm32f4xx_hal_dma.c ****   __HAL_DMA_CLEAR_FLAG(hdma, __HAL_DMA_GET_TE_FLAG_INDEX(hdma));
 301:../Drivers/STM32F4xx_HAL_Driver/Src/stm32f4xx_hal_dma.c ****   __HAL_DMA_CLEAR_FLAG(hdma, __HAL_DMA_GET_FE_FLAG_INDEX(hdma));
 302:../Drivers/STM32F4xx_HAL_Driver/Src/stm32f4xx_hal_dma.c ****   __HAL_DMA_CLEAR_FLAG(hdma, __HAL_DMA_GET_HT_FLAG_INDEX(hdma));
 303:../Drivers/STM32F4xx_HAL_Driver/Src/stm32f4xx_hal_dma.c **** 
 304:../Drivers/STM32F4xx_HAL_Driver/Src/stm32f4xx_hal_dma.c ****   /* Initialise the error code */
 305:../Drivers/STM32F4xx_HAL_Driver/Src/stm32f4xx_hal_dma.c ****   hdma->ErrorCode = HAL_DMA_ERROR_NONE;
 306:../Drivers/STM32F4xx_HAL_Driver/Src/stm32f4xx_hal_dma.c **** 
 307:../Drivers/STM32F4xx_HAL_Driver/Src/stm32f4xx_hal_dma.c ****   /* Initialize the DMA state */
 308:../Drivers/STM32F4xx_HAL_Driver/Src/stm32f4xx_hal_dma.c ****   hdma->State = HAL_DMA_STATE_RESET;
 309:../Drivers/STM32F4xx_HAL_Driver/Src/stm32f4xx_hal_dma.c **** 
 310:../Drivers/STM32F4xx_HAL_Driver/Src/stm32f4xx_hal_dma.c ****   /* Release Lock */
 311:../Drivers/STM32F4xx_HAL_Driver/Src/stm32f4xx_hal_dma.c ****   __HAL_UNLOCK(hdma);
 312:../Drivers/STM32F4xx_HAL_Driver/Src/stm32f4xx_hal_dma.c **** 
 313:../Drivers/STM32F4xx_HAL_Driver/Src/stm32f4xx_hal_dma.c ****   return HAL_OK;
 314:../Drivers/STM32F4xx_HAL_Driver/Src/stm32f4xx_hal_dma.c **** }
 315:../Drivers/STM32F4xx_HAL_Driver/Src/stm32f4xx_hal_dma.c **** 
 316:../Drivers/STM32F4xx_HAL_Driver/Src/stm32f4xx_hal_dma.c **** /**
ARM GAS  /tmp/ccAPlzty.s 			page 7


 317:../Drivers/STM32F4xx_HAL_Driver/Src/stm32f4xx_hal_dma.c ****   * @}
 318:../Drivers/STM32F4xx_HAL_Driver/Src/stm32f4xx_hal_dma.c ****   */
 319:../Drivers/STM32F4xx_HAL_Driver/Src/stm32f4xx_hal_dma.c **** 
 320:../Drivers/STM32F4xx_HAL_Driver/Src/stm32f4xx_hal_dma.c **** /** @defgroup DMA_Group2 I/O operation functions 
 321:../Drivers/STM32F4xx_HAL_Driver/Src/stm32f4xx_hal_dma.c ****  *  @brief   I/O operation functions  
 322:../Drivers/STM32F4xx_HAL_Driver/Src/stm32f4xx_hal_dma.c ****  *
 323:../Drivers/STM32F4xx_HAL_Driver/Src/stm32f4xx_hal_dma.c **** @verbatim   
 324:../Drivers/STM32F4xx_HAL_Driver/Src/stm32f4xx_hal_dma.c ****  ===============================================================================
 325:../Drivers/STM32F4xx_HAL_Driver/Src/stm32f4xx_hal_dma.c ****                       #####  IO operation functions  #####
 326:../Drivers/STM32F4xx_HAL_Driver/Src/stm32f4xx_hal_dma.c ****  ===============================================================================  
 327:../Drivers/STM32F4xx_HAL_Driver/Src/stm32f4xx_hal_dma.c ****     [..]  This section provides functions allowing to:
 328:../Drivers/STM32F4xx_HAL_Driver/Src/stm32f4xx_hal_dma.c ****       (+) Configure the source, destination address and data length and Start DMA transfer
 329:../Drivers/STM32F4xx_HAL_Driver/Src/stm32f4xx_hal_dma.c ****       (+) Configure the source, destination address and data length and 
 330:../Drivers/STM32F4xx_HAL_Driver/Src/stm32f4xx_hal_dma.c ****           Start DMA transfer with interrupt
 331:../Drivers/STM32F4xx_HAL_Driver/Src/stm32f4xx_hal_dma.c ****       (+) Abort DMA transfer
 332:../Drivers/STM32F4xx_HAL_Driver/Src/stm32f4xx_hal_dma.c ****       (+) Poll for transfer complete
 333:../Drivers/STM32F4xx_HAL_Driver/Src/stm32f4xx_hal_dma.c ****       (+) Handle DMA interrupt request  
 334:../Drivers/STM32F4xx_HAL_Driver/Src/stm32f4xx_hal_dma.c **** 
 335:../Drivers/STM32F4xx_HAL_Driver/Src/stm32f4xx_hal_dma.c **** @endverbatim
 336:../Drivers/STM32F4xx_HAL_Driver/Src/stm32f4xx_hal_dma.c ****   * @{
 337:../Drivers/STM32F4xx_HAL_Driver/Src/stm32f4xx_hal_dma.c ****   */
 338:../Drivers/STM32F4xx_HAL_Driver/Src/stm32f4xx_hal_dma.c **** 
 339:../Drivers/STM32F4xx_HAL_Driver/Src/stm32f4xx_hal_dma.c **** /**
 340:../Drivers/STM32F4xx_HAL_Driver/Src/stm32f4xx_hal_dma.c ****   * @brief  Starts the DMA Transfer.
 341:../Drivers/STM32F4xx_HAL_Driver/Src/stm32f4xx_hal_dma.c ****   * @param  hdma      : pointer to a DMA_HandleTypeDef structure that contains
 342:../Drivers/STM32F4xx_HAL_Driver/Src/stm32f4xx_hal_dma.c ****   *                     the configuration information for the specified DMA Stream.  
 343:../Drivers/STM32F4xx_HAL_Driver/Src/stm32f4xx_hal_dma.c ****   * @param  SrcAddress: The source memory Buffer address
 344:../Drivers/STM32F4xx_HAL_Driver/Src/stm32f4xx_hal_dma.c ****   * @param  DstAddress: The destination memory Buffer address
 345:../Drivers/STM32F4xx_HAL_Driver/Src/stm32f4xx_hal_dma.c ****   * @param  DataLength: The length of data to be transferred from source to destination
 346:../Drivers/STM32F4xx_HAL_Driver/Src/stm32f4xx_hal_dma.c ****   * @retval HAL status
 347:../Drivers/STM32F4xx_HAL_Driver/Src/stm32f4xx_hal_dma.c ****   */
 348:../Drivers/STM32F4xx_HAL_Driver/Src/stm32f4xx_hal_dma.c **** HAL_StatusTypeDef HAL_DMA_Start(DMA_HandleTypeDef *hdma, uint32_t SrcAddress, uint32_t DstAddress, 
 349:../Drivers/STM32F4xx_HAL_Driver/Src/stm32f4xx_hal_dma.c **** {
 350:../Drivers/STM32F4xx_HAL_Driver/Src/stm32f4xx_hal_dma.c ****   /* Process locked */
 351:../Drivers/STM32F4xx_HAL_Driver/Src/stm32f4xx_hal_dma.c ****   __HAL_LOCK(hdma);
 352:../Drivers/STM32F4xx_HAL_Driver/Src/stm32f4xx_hal_dma.c **** 
 353:../Drivers/STM32F4xx_HAL_Driver/Src/stm32f4xx_hal_dma.c ****   /* Change DMA peripheral state */
 354:../Drivers/STM32F4xx_HAL_Driver/Src/stm32f4xx_hal_dma.c ****   hdma->State = HAL_DMA_STATE_BUSY;
 355:../Drivers/STM32F4xx_HAL_Driver/Src/stm32f4xx_hal_dma.c **** 
 356:../Drivers/STM32F4xx_HAL_Driver/Src/stm32f4xx_hal_dma.c ****    /* Check the parameters */
 357:../Drivers/STM32F4xx_HAL_Driver/Src/stm32f4xx_hal_dma.c ****   assert_param(IS_DMA_BUFFER_SIZE(DataLength));
 358:../Drivers/STM32F4xx_HAL_Driver/Src/stm32f4xx_hal_dma.c **** 
 359:../Drivers/STM32F4xx_HAL_Driver/Src/stm32f4xx_hal_dma.c ****   /* Disable the peripheral */
 360:../Drivers/STM32F4xx_HAL_Driver/Src/stm32f4xx_hal_dma.c ****   __HAL_DMA_DISABLE(hdma);
 361:../Drivers/STM32F4xx_HAL_Driver/Src/stm32f4xx_hal_dma.c **** 
 362:../Drivers/STM32F4xx_HAL_Driver/Src/stm32f4xx_hal_dma.c ****   /* Configure the source, destination address and the data length */
 363:../Drivers/STM32F4xx_HAL_Driver/Src/stm32f4xx_hal_dma.c ****   DMA_SetConfig(hdma, SrcAddress, DstAddress, DataLength);
 364:../Drivers/STM32F4xx_HAL_Driver/Src/stm32f4xx_hal_dma.c **** 
 365:../Drivers/STM32F4xx_HAL_Driver/Src/stm32f4xx_hal_dma.c ****   /* Enable the Peripheral */
 366:../Drivers/STM32F4xx_HAL_Driver/Src/stm32f4xx_hal_dma.c ****   __HAL_DMA_ENABLE(hdma);
 367:../Drivers/STM32F4xx_HAL_Driver/Src/stm32f4xx_hal_dma.c **** 
 368:../Drivers/STM32F4xx_HAL_Driver/Src/stm32f4xx_hal_dma.c ****   return HAL_OK; 
 369:../Drivers/STM32F4xx_HAL_Driver/Src/stm32f4xx_hal_dma.c **** }
 370:../Drivers/STM32F4xx_HAL_Driver/Src/stm32f4xx_hal_dma.c **** 
 371:../Drivers/STM32F4xx_HAL_Driver/Src/stm32f4xx_hal_dma.c **** /**
 372:../Drivers/STM32F4xx_HAL_Driver/Src/stm32f4xx_hal_dma.c ****   * @brief  Start the DMA Transfer with interrupt enabled.
 373:../Drivers/STM32F4xx_HAL_Driver/Src/stm32f4xx_hal_dma.c ****   * @param  hdma:       pointer to a DMA_HandleTypeDef structure that contains
ARM GAS  /tmp/ccAPlzty.s 			page 8


 374:../Drivers/STM32F4xx_HAL_Driver/Src/stm32f4xx_hal_dma.c ****   *                     the configuration information for the specified DMA Stream.  
 375:../Drivers/STM32F4xx_HAL_Driver/Src/stm32f4xx_hal_dma.c ****   * @param  SrcAddress: The source memory Buffer address
 376:../Drivers/STM32F4xx_HAL_Driver/Src/stm32f4xx_hal_dma.c ****   * @param  DstAddress: The destination memory Buffer address
 377:../Drivers/STM32F4xx_HAL_Driver/Src/stm32f4xx_hal_dma.c ****   * @param  DataLength: The length of data to be transferred from source to destination
 378:../Drivers/STM32F4xx_HAL_Driver/Src/stm32f4xx_hal_dma.c ****   * @retval HAL status
 379:../Drivers/STM32F4xx_HAL_Driver/Src/stm32f4xx_hal_dma.c ****   */
 380:../Drivers/STM32F4xx_HAL_Driver/Src/stm32f4xx_hal_dma.c **** HAL_StatusTypeDef HAL_DMA_Start_IT(DMA_HandleTypeDef *hdma, uint32_t SrcAddress, uint32_t DstAddres
 381:../Drivers/STM32F4xx_HAL_Driver/Src/stm32f4xx_hal_dma.c **** {
 382:../Drivers/STM32F4xx_HAL_Driver/Src/stm32f4xx_hal_dma.c ****   /* Process locked */
 383:../Drivers/STM32F4xx_HAL_Driver/Src/stm32f4xx_hal_dma.c ****   __HAL_LOCK(hdma);
 384:../Drivers/STM32F4xx_HAL_Driver/Src/stm32f4xx_hal_dma.c **** 
 385:../Drivers/STM32F4xx_HAL_Driver/Src/stm32f4xx_hal_dma.c ****   /* Change DMA peripheral state */
 386:../Drivers/STM32F4xx_HAL_Driver/Src/stm32f4xx_hal_dma.c ****   hdma->State = HAL_DMA_STATE_BUSY;
 387:../Drivers/STM32F4xx_HAL_Driver/Src/stm32f4xx_hal_dma.c **** 
 388:../Drivers/STM32F4xx_HAL_Driver/Src/stm32f4xx_hal_dma.c ****    /* Check the parameters */
 389:../Drivers/STM32F4xx_HAL_Driver/Src/stm32f4xx_hal_dma.c ****   assert_param(IS_DMA_BUFFER_SIZE(DataLength));
 390:../Drivers/STM32F4xx_HAL_Driver/Src/stm32f4xx_hal_dma.c **** 
 391:../Drivers/STM32F4xx_HAL_Driver/Src/stm32f4xx_hal_dma.c ****   /* Disable the peripheral */
 392:../Drivers/STM32F4xx_HAL_Driver/Src/stm32f4xx_hal_dma.c ****   __HAL_DMA_DISABLE(hdma);
 393:../Drivers/STM32F4xx_HAL_Driver/Src/stm32f4xx_hal_dma.c **** 
 394:../Drivers/STM32F4xx_HAL_Driver/Src/stm32f4xx_hal_dma.c ****   /* Configure the source, destination address and the data length */
 395:../Drivers/STM32F4xx_HAL_Driver/Src/stm32f4xx_hal_dma.c ****   DMA_SetConfig(hdma, SrcAddress, DstAddress, DataLength);
 396:../Drivers/STM32F4xx_HAL_Driver/Src/stm32f4xx_hal_dma.c **** 
 397:../Drivers/STM32F4xx_HAL_Driver/Src/stm32f4xx_hal_dma.c ****   /* Enable the transfer complete interrupt */
 398:../Drivers/STM32F4xx_HAL_Driver/Src/stm32f4xx_hal_dma.c ****   __HAL_DMA_ENABLE_IT(hdma, DMA_IT_TC);
 399:../Drivers/STM32F4xx_HAL_Driver/Src/stm32f4xx_hal_dma.c **** 
 400:../Drivers/STM32F4xx_HAL_Driver/Src/stm32f4xx_hal_dma.c ****   /* Enable the Half transfer complete interrupt */
 401:../Drivers/STM32F4xx_HAL_Driver/Src/stm32f4xx_hal_dma.c ****   __HAL_DMA_ENABLE_IT(hdma, DMA_IT_HT);  
 402:../Drivers/STM32F4xx_HAL_Driver/Src/stm32f4xx_hal_dma.c **** 
 403:../Drivers/STM32F4xx_HAL_Driver/Src/stm32f4xx_hal_dma.c ****   /* Enable the transfer Error interrupt */
 404:../Drivers/STM32F4xx_HAL_Driver/Src/stm32f4xx_hal_dma.c ****   __HAL_DMA_ENABLE_IT(hdma, DMA_IT_TE);
 405:../Drivers/STM32F4xx_HAL_Driver/Src/stm32f4xx_hal_dma.c **** 
 406:../Drivers/STM32F4xx_HAL_Driver/Src/stm32f4xx_hal_dma.c ****   /* Enable the FIFO Error interrupt */
 407:../Drivers/STM32F4xx_HAL_Driver/Src/stm32f4xx_hal_dma.c ****   __HAL_DMA_ENABLE_IT(hdma, DMA_IT_FE);
 408:../Drivers/STM32F4xx_HAL_Driver/Src/stm32f4xx_hal_dma.c **** 
 409:../Drivers/STM32F4xx_HAL_Driver/Src/stm32f4xx_hal_dma.c ****   /* Enable the direct mode Error interrupt */
 410:../Drivers/STM32F4xx_HAL_Driver/Src/stm32f4xx_hal_dma.c ****   __HAL_DMA_ENABLE_IT(hdma, DMA_IT_DME);
 411:../Drivers/STM32F4xx_HAL_Driver/Src/stm32f4xx_hal_dma.c **** 
 412:../Drivers/STM32F4xx_HAL_Driver/Src/stm32f4xx_hal_dma.c ****    /* Enable the Peripheral */
 413:../Drivers/STM32F4xx_HAL_Driver/Src/stm32f4xx_hal_dma.c ****   __HAL_DMA_ENABLE(hdma);
 414:../Drivers/STM32F4xx_HAL_Driver/Src/stm32f4xx_hal_dma.c **** 
 415:../Drivers/STM32F4xx_HAL_Driver/Src/stm32f4xx_hal_dma.c ****   return HAL_OK;
 416:../Drivers/STM32F4xx_HAL_Driver/Src/stm32f4xx_hal_dma.c **** } 
 417:../Drivers/STM32F4xx_HAL_Driver/Src/stm32f4xx_hal_dma.c **** 
 418:../Drivers/STM32F4xx_HAL_Driver/Src/stm32f4xx_hal_dma.c **** /**
 419:../Drivers/STM32F4xx_HAL_Driver/Src/stm32f4xx_hal_dma.c ****   * @brief  Aborts the DMA Transfer.
 420:../Drivers/STM32F4xx_HAL_Driver/Src/stm32f4xx_hal_dma.c ****   * @param  hdma  : pointer to a DMA_HandleTypeDef structure that contains
 421:../Drivers/STM32F4xx_HAL_Driver/Src/stm32f4xx_hal_dma.c ****   *                 the configuration information for the specified DMA Stream.
 422:../Drivers/STM32F4xx_HAL_Driver/Src/stm32f4xx_hal_dma.c ****   *                   
 423:../Drivers/STM32F4xx_HAL_Driver/Src/stm32f4xx_hal_dma.c ****   * @note  After disabling a DMA Stream, a check for wait until the DMA Stream is 
 424:../Drivers/STM32F4xx_HAL_Driver/Src/stm32f4xx_hal_dma.c ****   *        effectively disabled is added. If a Stream is disabled 
 425:../Drivers/STM32F4xx_HAL_Driver/Src/stm32f4xx_hal_dma.c ****   *        while a data transfer is ongoing, the current data will be transferred
 426:../Drivers/STM32F4xx_HAL_Driver/Src/stm32f4xx_hal_dma.c ****   *        and the Stream will be effectively disabled only after the transfer of
 427:../Drivers/STM32F4xx_HAL_Driver/Src/stm32f4xx_hal_dma.c ****   *        this single data is finished.  
 428:../Drivers/STM32F4xx_HAL_Driver/Src/stm32f4xx_hal_dma.c ****   * @retval HAL status
 429:../Drivers/STM32F4xx_HAL_Driver/Src/stm32f4xx_hal_dma.c ****   */
 430:../Drivers/STM32F4xx_HAL_Driver/Src/stm32f4xx_hal_dma.c **** HAL_StatusTypeDef HAL_DMA_Abort(DMA_HandleTypeDef *hdma)
ARM GAS  /tmp/ccAPlzty.s 			page 9


 431:../Drivers/STM32F4xx_HAL_Driver/Src/stm32f4xx_hal_dma.c **** {
 432:../Drivers/STM32F4xx_HAL_Driver/Src/stm32f4xx_hal_dma.c ****   uint32_t tickstart = 0;
 433:../Drivers/STM32F4xx_HAL_Driver/Src/stm32f4xx_hal_dma.c **** 
 434:../Drivers/STM32F4xx_HAL_Driver/Src/stm32f4xx_hal_dma.c ****   /* Disable the stream */
 435:../Drivers/STM32F4xx_HAL_Driver/Src/stm32f4xx_hal_dma.c ****   __HAL_DMA_DISABLE(hdma);
 436:../Drivers/STM32F4xx_HAL_Driver/Src/stm32f4xx_hal_dma.c **** 
 437:../Drivers/STM32F4xx_HAL_Driver/Src/stm32f4xx_hal_dma.c ****   /* Get tick */
 438:../Drivers/STM32F4xx_HAL_Driver/Src/stm32f4xx_hal_dma.c ****   tickstart = HAL_GetTick();
 439:../Drivers/STM32F4xx_HAL_Driver/Src/stm32f4xx_hal_dma.c **** 
 440:../Drivers/STM32F4xx_HAL_Driver/Src/stm32f4xx_hal_dma.c ****   /* Check if the DMA Stream is effectively disabled */
 441:../Drivers/STM32F4xx_HAL_Driver/Src/stm32f4xx_hal_dma.c ****   while((hdma->Instance->CR & DMA_SxCR_EN) != 0)
 442:../Drivers/STM32F4xx_HAL_Driver/Src/stm32f4xx_hal_dma.c ****   {
 443:../Drivers/STM32F4xx_HAL_Driver/Src/stm32f4xx_hal_dma.c ****     /* Check for the Timeout */
 444:../Drivers/STM32F4xx_HAL_Driver/Src/stm32f4xx_hal_dma.c ****     if((HAL_GetTick() - tickstart ) > HAL_TIMEOUT_DMA_ABORT)
 445:../Drivers/STM32F4xx_HAL_Driver/Src/stm32f4xx_hal_dma.c ****     {
 446:../Drivers/STM32F4xx_HAL_Driver/Src/stm32f4xx_hal_dma.c ****       /* Update error code */
 447:../Drivers/STM32F4xx_HAL_Driver/Src/stm32f4xx_hal_dma.c ****       hdma->ErrorCode |= HAL_DMA_ERROR_TIMEOUT;
 448:../Drivers/STM32F4xx_HAL_Driver/Src/stm32f4xx_hal_dma.c ****       
 449:../Drivers/STM32F4xx_HAL_Driver/Src/stm32f4xx_hal_dma.c ****       /* Process Unlocked */
 450:../Drivers/STM32F4xx_HAL_Driver/Src/stm32f4xx_hal_dma.c ****       __HAL_UNLOCK(hdma);
 451:../Drivers/STM32F4xx_HAL_Driver/Src/stm32f4xx_hal_dma.c ****       
 452:../Drivers/STM32F4xx_HAL_Driver/Src/stm32f4xx_hal_dma.c ****       /* Change the DMA state */
 453:../Drivers/STM32F4xx_HAL_Driver/Src/stm32f4xx_hal_dma.c ****       hdma->State = HAL_DMA_STATE_TIMEOUT;
 454:../Drivers/STM32F4xx_HAL_Driver/Src/stm32f4xx_hal_dma.c ****       
 455:../Drivers/STM32F4xx_HAL_Driver/Src/stm32f4xx_hal_dma.c ****       return HAL_TIMEOUT;
 456:../Drivers/STM32F4xx_HAL_Driver/Src/stm32f4xx_hal_dma.c ****     }
 457:../Drivers/STM32F4xx_HAL_Driver/Src/stm32f4xx_hal_dma.c ****   }
 458:../Drivers/STM32F4xx_HAL_Driver/Src/stm32f4xx_hal_dma.c ****   /* Process Unlocked */
 459:../Drivers/STM32F4xx_HAL_Driver/Src/stm32f4xx_hal_dma.c ****   __HAL_UNLOCK(hdma);
 460:../Drivers/STM32F4xx_HAL_Driver/Src/stm32f4xx_hal_dma.c **** 
 461:../Drivers/STM32F4xx_HAL_Driver/Src/stm32f4xx_hal_dma.c ****   /* Change the DMA state*/
 462:../Drivers/STM32F4xx_HAL_Driver/Src/stm32f4xx_hal_dma.c ****   hdma->State = HAL_DMA_STATE_READY;
 463:../Drivers/STM32F4xx_HAL_Driver/Src/stm32f4xx_hal_dma.c **** 
 464:../Drivers/STM32F4xx_HAL_Driver/Src/stm32f4xx_hal_dma.c ****   return HAL_OK;
 465:../Drivers/STM32F4xx_HAL_Driver/Src/stm32f4xx_hal_dma.c **** }
 466:../Drivers/STM32F4xx_HAL_Driver/Src/stm32f4xx_hal_dma.c **** 
 467:../Drivers/STM32F4xx_HAL_Driver/Src/stm32f4xx_hal_dma.c **** /**
 468:../Drivers/STM32F4xx_HAL_Driver/Src/stm32f4xx_hal_dma.c ****   * @brief  Polling for transfer complete.
 469:../Drivers/STM32F4xx_HAL_Driver/Src/stm32f4xx_hal_dma.c ****   * @param  hdma:          pointer to a DMA_HandleTypeDef structure that contains
 470:../Drivers/STM32F4xx_HAL_Driver/Src/stm32f4xx_hal_dma.c ****   *                        the configuration information for the specified DMA Stream.
 471:../Drivers/STM32F4xx_HAL_Driver/Src/stm32f4xx_hal_dma.c ****   * @param  CompleteLevel: Specifies the DMA level complete.  
 472:../Drivers/STM32F4xx_HAL_Driver/Src/stm32f4xx_hal_dma.c ****   * @param  Timeout:       Timeout duration.
 473:../Drivers/STM32F4xx_HAL_Driver/Src/stm32f4xx_hal_dma.c ****   * @retval HAL status
 474:../Drivers/STM32F4xx_HAL_Driver/Src/stm32f4xx_hal_dma.c ****   */
 475:../Drivers/STM32F4xx_HAL_Driver/Src/stm32f4xx_hal_dma.c **** HAL_StatusTypeDef HAL_DMA_PollForTransfer(DMA_HandleTypeDef *hdma, uint32_t CompleteLevel, uint32_t
 476:../Drivers/STM32F4xx_HAL_Driver/Src/stm32f4xx_hal_dma.c **** {
 477:../Drivers/STM32F4xx_HAL_Driver/Src/stm32f4xx_hal_dma.c ****   uint32_t temp, tmp, tmp1, tmp2;
 478:../Drivers/STM32F4xx_HAL_Driver/Src/stm32f4xx_hal_dma.c ****   uint32_t tickstart = 0; 
 479:../Drivers/STM32F4xx_HAL_Driver/Src/stm32f4xx_hal_dma.c **** 
 480:../Drivers/STM32F4xx_HAL_Driver/Src/stm32f4xx_hal_dma.c ****   /* Get the level transfer complete flag */
 481:../Drivers/STM32F4xx_HAL_Driver/Src/stm32f4xx_hal_dma.c ****   if(CompleteLevel == HAL_DMA_FULL_TRANSFER)
 482:../Drivers/STM32F4xx_HAL_Driver/Src/stm32f4xx_hal_dma.c ****   {
 483:../Drivers/STM32F4xx_HAL_Driver/Src/stm32f4xx_hal_dma.c ****     /* Transfer Complete flag */
 484:../Drivers/STM32F4xx_HAL_Driver/Src/stm32f4xx_hal_dma.c ****     temp = __HAL_DMA_GET_TC_FLAG_INDEX(hdma);
 485:../Drivers/STM32F4xx_HAL_Driver/Src/stm32f4xx_hal_dma.c ****   }
 486:../Drivers/STM32F4xx_HAL_Driver/Src/stm32f4xx_hal_dma.c ****   else
 487:../Drivers/STM32F4xx_HAL_Driver/Src/stm32f4xx_hal_dma.c ****   {
ARM GAS  /tmp/ccAPlzty.s 			page 10


 488:../Drivers/STM32F4xx_HAL_Driver/Src/stm32f4xx_hal_dma.c ****     /* Half Transfer Complete flag */
 489:../Drivers/STM32F4xx_HAL_Driver/Src/stm32f4xx_hal_dma.c ****     temp = __HAL_DMA_GET_HT_FLAG_INDEX(hdma);
 490:../Drivers/STM32F4xx_HAL_Driver/Src/stm32f4xx_hal_dma.c ****   }
 491:../Drivers/STM32F4xx_HAL_Driver/Src/stm32f4xx_hal_dma.c **** 
 492:../Drivers/STM32F4xx_HAL_Driver/Src/stm32f4xx_hal_dma.c ****   /* Get tick */
 493:../Drivers/STM32F4xx_HAL_Driver/Src/stm32f4xx_hal_dma.c ****   tickstart = HAL_GetTick();
 494:../Drivers/STM32F4xx_HAL_Driver/Src/stm32f4xx_hal_dma.c **** 
 495:../Drivers/STM32F4xx_HAL_Driver/Src/stm32f4xx_hal_dma.c ****   while(__HAL_DMA_GET_FLAG(hdma, temp) == RESET)
 496:../Drivers/STM32F4xx_HAL_Driver/Src/stm32f4xx_hal_dma.c ****   {
 497:../Drivers/STM32F4xx_HAL_Driver/Src/stm32f4xx_hal_dma.c ****     tmp  = __HAL_DMA_GET_FLAG(hdma, __HAL_DMA_GET_TE_FLAG_INDEX(hdma));
 498:../Drivers/STM32F4xx_HAL_Driver/Src/stm32f4xx_hal_dma.c ****     tmp1 = __HAL_DMA_GET_FLAG(hdma, __HAL_DMA_GET_FE_FLAG_INDEX(hdma));
 499:../Drivers/STM32F4xx_HAL_Driver/Src/stm32f4xx_hal_dma.c ****     tmp2 = __HAL_DMA_GET_FLAG(hdma, __HAL_DMA_GET_DME_FLAG_INDEX(hdma));
 500:../Drivers/STM32F4xx_HAL_Driver/Src/stm32f4xx_hal_dma.c ****     if((tmp != RESET) || (tmp1 != RESET) || (tmp2 != RESET))
 501:../Drivers/STM32F4xx_HAL_Driver/Src/stm32f4xx_hal_dma.c ****     {
 502:../Drivers/STM32F4xx_HAL_Driver/Src/stm32f4xx_hal_dma.c ****       if(tmp != RESET)
 503:../Drivers/STM32F4xx_HAL_Driver/Src/stm32f4xx_hal_dma.c ****       {
 504:../Drivers/STM32F4xx_HAL_Driver/Src/stm32f4xx_hal_dma.c ****         /* Update error code */
 505:../Drivers/STM32F4xx_HAL_Driver/Src/stm32f4xx_hal_dma.c ****         hdma->ErrorCode |= HAL_DMA_ERROR_TE;
 506:../Drivers/STM32F4xx_HAL_Driver/Src/stm32f4xx_hal_dma.c **** 
 507:../Drivers/STM32F4xx_HAL_Driver/Src/stm32f4xx_hal_dma.c ****         /* Clear the transfer error flag */
 508:../Drivers/STM32F4xx_HAL_Driver/Src/stm32f4xx_hal_dma.c ****         __HAL_DMA_CLEAR_FLAG(hdma, __HAL_DMA_GET_TE_FLAG_INDEX(hdma));
 509:../Drivers/STM32F4xx_HAL_Driver/Src/stm32f4xx_hal_dma.c ****       }
 510:../Drivers/STM32F4xx_HAL_Driver/Src/stm32f4xx_hal_dma.c ****       if(tmp1 != RESET)
 511:../Drivers/STM32F4xx_HAL_Driver/Src/stm32f4xx_hal_dma.c ****       {
 512:../Drivers/STM32F4xx_HAL_Driver/Src/stm32f4xx_hal_dma.c ****         /* Update error code */
 513:../Drivers/STM32F4xx_HAL_Driver/Src/stm32f4xx_hal_dma.c ****         hdma->ErrorCode |= HAL_DMA_ERROR_FE;
 514:../Drivers/STM32F4xx_HAL_Driver/Src/stm32f4xx_hal_dma.c ****  
 515:../Drivers/STM32F4xx_HAL_Driver/Src/stm32f4xx_hal_dma.c ****         /* Clear the FIFO error flag */
 516:../Drivers/STM32F4xx_HAL_Driver/Src/stm32f4xx_hal_dma.c ****         __HAL_DMA_CLEAR_FLAG(hdma, __HAL_DMA_GET_FE_FLAG_INDEX(hdma));
 517:../Drivers/STM32F4xx_HAL_Driver/Src/stm32f4xx_hal_dma.c ****       }
 518:../Drivers/STM32F4xx_HAL_Driver/Src/stm32f4xx_hal_dma.c ****       if(tmp2 != RESET)
 519:../Drivers/STM32F4xx_HAL_Driver/Src/stm32f4xx_hal_dma.c ****       {
 520:../Drivers/STM32F4xx_HAL_Driver/Src/stm32f4xx_hal_dma.c ****         /* Update error code */
 521:../Drivers/STM32F4xx_HAL_Driver/Src/stm32f4xx_hal_dma.c ****         hdma->ErrorCode |= HAL_DMA_ERROR_DME;
 522:../Drivers/STM32F4xx_HAL_Driver/Src/stm32f4xx_hal_dma.c **** 
 523:../Drivers/STM32F4xx_HAL_Driver/Src/stm32f4xx_hal_dma.c ****         /* Clear the Direct Mode error flag */
 524:../Drivers/STM32F4xx_HAL_Driver/Src/stm32f4xx_hal_dma.c ****         __HAL_DMA_CLEAR_FLAG(hdma, __HAL_DMA_GET_DME_FLAG_INDEX(hdma));
 525:../Drivers/STM32F4xx_HAL_Driver/Src/stm32f4xx_hal_dma.c ****       }
 526:../Drivers/STM32F4xx_HAL_Driver/Src/stm32f4xx_hal_dma.c ****       /* Change the DMA state */
 527:../Drivers/STM32F4xx_HAL_Driver/Src/stm32f4xx_hal_dma.c ****       hdma->State= HAL_DMA_STATE_ERROR;
 528:../Drivers/STM32F4xx_HAL_Driver/Src/stm32f4xx_hal_dma.c ****       
 529:../Drivers/STM32F4xx_HAL_Driver/Src/stm32f4xx_hal_dma.c ****       /* Process Unlocked */
 530:../Drivers/STM32F4xx_HAL_Driver/Src/stm32f4xx_hal_dma.c ****       __HAL_UNLOCK(hdma);
 531:../Drivers/STM32F4xx_HAL_Driver/Src/stm32f4xx_hal_dma.c **** 
 532:../Drivers/STM32F4xx_HAL_Driver/Src/stm32f4xx_hal_dma.c ****       return HAL_ERROR;
 533:../Drivers/STM32F4xx_HAL_Driver/Src/stm32f4xx_hal_dma.c ****     }  
 534:../Drivers/STM32F4xx_HAL_Driver/Src/stm32f4xx_hal_dma.c ****     /* Check for the Timeout */
 535:../Drivers/STM32F4xx_HAL_Driver/Src/stm32f4xx_hal_dma.c ****     if(Timeout != HAL_MAX_DELAY)
 536:../Drivers/STM32F4xx_HAL_Driver/Src/stm32f4xx_hal_dma.c ****     {
 537:../Drivers/STM32F4xx_HAL_Driver/Src/stm32f4xx_hal_dma.c ****       if((Timeout == 0)||((HAL_GetTick() - tickstart ) > Timeout))
 538:../Drivers/STM32F4xx_HAL_Driver/Src/stm32f4xx_hal_dma.c ****       {
 539:../Drivers/STM32F4xx_HAL_Driver/Src/stm32f4xx_hal_dma.c ****         /* Update error code */
 540:../Drivers/STM32F4xx_HAL_Driver/Src/stm32f4xx_hal_dma.c ****         hdma->ErrorCode |= HAL_DMA_ERROR_TIMEOUT;
 541:../Drivers/STM32F4xx_HAL_Driver/Src/stm32f4xx_hal_dma.c **** 
 542:../Drivers/STM32F4xx_HAL_Driver/Src/stm32f4xx_hal_dma.c ****         /* Change the DMA state */
 543:../Drivers/STM32F4xx_HAL_Driver/Src/stm32f4xx_hal_dma.c ****         hdma->State = HAL_DMA_STATE_TIMEOUT;
 544:../Drivers/STM32F4xx_HAL_Driver/Src/stm32f4xx_hal_dma.c **** 
ARM GAS  /tmp/ccAPlzty.s 			page 11


 545:../Drivers/STM32F4xx_HAL_Driver/Src/stm32f4xx_hal_dma.c ****         /* Process Unlocked */
 546:../Drivers/STM32F4xx_HAL_Driver/Src/stm32f4xx_hal_dma.c ****         __HAL_UNLOCK(hdma);
 547:../Drivers/STM32F4xx_HAL_Driver/Src/stm32f4xx_hal_dma.c ****         
 548:../Drivers/STM32F4xx_HAL_Driver/Src/stm32f4xx_hal_dma.c ****         return HAL_TIMEOUT;
 549:../Drivers/STM32F4xx_HAL_Driver/Src/stm32f4xx_hal_dma.c ****       }
 550:../Drivers/STM32F4xx_HAL_Driver/Src/stm32f4xx_hal_dma.c ****     }
 551:../Drivers/STM32F4xx_HAL_Driver/Src/stm32f4xx_hal_dma.c ****   }
 552:../Drivers/STM32F4xx_HAL_Driver/Src/stm32f4xx_hal_dma.c **** 
 553:../Drivers/STM32F4xx_HAL_Driver/Src/stm32f4xx_hal_dma.c ****   if(CompleteLevel == HAL_DMA_FULL_TRANSFER)
 554:../Drivers/STM32F4xx_HAL_Driver/Src/stm32f4xx_hal_dma.c ****   {
 555:../Drivers/STM32F4xx_HAL_Driver/Src/stm32f4xx_hal_dma.c ****     /* Multi_Buffering mode enabled */
 556:../Drivers/STM32F4xx_HAL_Driver/Src/stm32f4xx_hal_dma.c ****     if(((hdma->Instance->CR) & (uint32_t)(DMA_SxCR_DBM)) != 0)
 557:../Drivers/STM32F4xx_HAL_Driver/Src/stm32f4xx_hal_dma.c ****     {
 558:../Drivers/STM32F4xx_HAL_Driver/Src/stm32f4xx_hal_dma.c ****       /* Clear the half transfer complete flag */
 559:../Drivers/STM32F4xx_HAL_Driver/Src/stm32f4xx_hal_dma.c ****       __HAL_DMA_CLEAR_FLAG(hdma, __HAL_DMA_GET_HT_FLAG_INDEX(hdma));
 560:../Drivers/STM32F4xx_HAL_Driver/Src/stm32f4xx_hal_dma.c ****       /* Clear the transfer complete flag */
 561:../Drivers/STM32F4xx_HAL_Driver/Src/stm32f4xx_hal_dma.c ****       __HAL_DMA_CLEAR_FLAG(hdma, __HAL_DMA_GET_TC_FLAG_INDEX(hdma));
 562:../Drivers/STM32F4xx_HAL_Driver/Src/stm32f4xx_hal_dma.c **** 
 563:../Drivers/STM32F4xx_HAL_Driver/Src/stm32f4xx_hal_dma.c ****       /* Current memory buffer used is Memory 0 */
 564:../Drivers/STM32F4xx_HAL_Driver/Src/stm32f4xx_hal_dma.c ****       if((hdma->Instance->CR & DMA_SxCR_CT) == 0)
 565:../Drivers/STM32F4xx_HAL_Driver/Src/stm32f4xx_hal_dma.c ****       {
 566:../Drivers/STM32F4xx_HAL_Driver/Src/stm32f4xx_hal_dma.c ****         /* Change DMA peripheral state */
 567:../Drivers/STM32F4xx_HAL_Driver/Src/stm32f4xx_hal_dma.c ****         hdma->State = HAL_DMA_STATE_READY_MEM0;
 568:../Drivers/STM32F4xx_HAL_Driver/Src/stm32f4xx_hal_dma.c ****       }
 569:../Drivers/STM32F4xx_HAL_Driver/Src/stm32f4xx_hal_dma.c ****       /* Current memory buffer used is Memory 1 */
 570:../Drivers/STM32F4xx_HAL_Driver/Src/stm32f4xx_hal_dma.c ****       else if((hdma->Instance->CR & DMA_SxCR_CT) != 0)
 571:../Drivers/STM32F4xx_HAL_Driver/Src/stm32f4xx_hal_dma.c ****       {
 572:../Drivers/STM32F4xx_HAL_Driver/Src/stm32f4xx_hal_dma.c ****         /* Change DMA peripheral state */
 573:../Drivers/STM32F4xx_HAL_Driver/Src/stm32f4xx_hal_dma.c ****         hdma->State = HAL_DMA_STATE_READY_MEM1;
 574:../Drivers/STM32F4xx_HAL_Driver/Src/stm32f4xx_hal_dma.c ****       }
 575:../Drivers/STM32F4xx_HAL_Driver/Src/stm32f4xx_hal_dma.c ****     }
 576:../Drivers/STM32F4xx_HAL_Driver/Src/stm32f4xx_hal_dma.c ****     else
 577:../Drivers/STM32F4xx_HAL_Driver/Src/stm32f4xx_hal_dma.c ****     {
 578:../Drivers/STM32F4xx_HAL_Driver/Src/stm32f4xx_hal_dma.c ****       /* Clear the half transfer complete flag */
 579:../Drivers/STM32F4xx_HAL_Driver/Src/stm32f4xx_hal_dma.c ****       __HAL_DMA_CLEAR_FLAG(hdma, __HAL_DMA_GET_HT_FLAG_INDEX(hdma));
 580:../Drivers/STM32F4xx_HAL_Driver/Src/stm32f4xx_hal_dma.c ****       /* Clear the transfer complete flag */
 581:../Drivers/STM32F4xx_HAL_Driver/Src/stm32f4xx_hal_dma.c ****       __HAL_DMA_CLEAR_FLAG(hdma, __HAL_DMA_GET_TC_FLAG_INDEX(hdma)); 
 582:../Drivers/STM32F4xx_HAL_Driver/Src/stm32f4xx_hal_dma.c **** 
 583:../Drivers/STM32F4xx_HAL_Driver/Src/stm32f4xx_hal_dma.c ****       /* The selected Streamx EN bit is cleared (DMA is disabled and all transfers
 584:../Drivers/STM32F4xx_HAL_Driver/Src/stm32f4xx_hal_dma.c ****          are complete) */
 585:../Drivers/STM32F4xx_HAL_Driver/Src/stm32f4xx_hal_dma.c ****       hdma->State = HAL_DMA_STATE_READY_MEM0;
 586:../Drivers/STM32F4xx_HAL_Driver/Src/stm32f4xx_hal_dma.c ****     }
 587:../Drivers/STM32F4xx_HAL_Driver/Src/stm32f4xx_hal_dma.c ****     /* Process Unlocked */
 588:../Drivers/STM32F4xx_HAL_Driver/Src/stm32f4xx_hal_dma.c ****     __HAL_UNLOCK(hdma);
 589:../Drivers/STM32F4xx_HAL_Driver/Src/stm32f4xx_hal_dma.c ****   }
 590:../Drivers/STM32F4xx_HAL_Driver/Src/stm32f4xx_hal_dma.c ****   else
 591:../Drivers/STM32F4xx_HAL_Driver/Src/stm32f4xx_hal_dma.c ****   { 
 592:../Drivers/STM32F4xx_HAL_Driver/Src/stm32f4xx_hal_dma.c ****     /* Multi_Buffering mode enabled */
 593:../Drivers/STM32F4xx_HAL_Driver/Src/stm32f4xx_hal_dma.c ****     if(((hdma->Instance->CR) & (uint32_t)(DMA_SxCR_DBM)) != 0)
 594:../Drivers/STM32F4xx_HAL_Driver/Src/stm32f4xx_hal_dma.c ****     {
 595:../Drivers/STM32F4xx_HAL_Driver/Src/stm32f4xx_hal_dma.c ****       /* Clear the half transfer complete flag */
 596:../Drivers/STM32F4xx_HAL_Driver/Src/stm32f4xx_hal_dma.c ****       __HAL_DMA_CLEAR_FLAG(hdma, __HAL_DMA_GET_HT_FLAG_INDEX(hdma));
 597:../Drivers/STM32F4xx_HAL_Driver/Src/stm32f4xx_hal_dma.c **** 
 598:../Drivers/STM32F4xx_HAL_Driver/Src/stm32f4xx_hal_dma.c ****       /* Current memory buffer used is Memory 0 */
 599:../Drivers/STM32F4xx_HAL_Driver/Src/stm32f4xx_hal_dma.c ****       if((hdma->Instance->CR & DMA_SxCR_CT) == 0)
 600:../Drivers/STM32F4xx_HAL_Driver/Src/stm32f4xx_hal_dma.c ****       {
 601:../Drivers/STM32F4xx_HAL_Driver/Src/stm32f4xx_hal_dma.c ****         /* Change DMA peripheral state */
ARM GAS  /tmp/ccAPlzty.s 			page 12


 602:../Drivers/STM32F4xx_HAL_Driver/Src/stm32f4xx_hal_dma.c ****         hdma->State = HAL_DMA_STATE_READY_HALF_MEM0;
 603:../Drivers/STM32F4xx_HAL_Driver/Src/stm32f4xx_hal_dma.c ****       }
 604:../Drivers/STM32F4xx_HAL_Driver/Src/stm32f4xx_hal_dma.c ****       /* Current memory buffer used is Memory 1 */
 605:../Drivers/STM32F4xx_HAL_Driver/Src/stm32f4xx_hal_dma.c ****       else if((hdma->Instance->CR & DMA_SxCR_CT) != 0)
 606:../Drivers/STM32F4xx_HAL_Driver/Src/stm32f4xx_hal_dma.c ****       {
 607:../Drivers/STM32F4xx_HAL_Driver/Src/stm32f4xx_hal_dma.c ****         /* Change DMA peripheral state */
 608:../Drivers/STM32F4xx_HAL_Driver/Src/stm32f4xx_hal_dma.c ****         hdma->State = HAL_DMA_STATE_READY_HALF_MEM1;
 609:../Drivers/STM32F4xx_HAL_Driver/Src/stm32f4xx_hal_dma.c ****       }
 610:../Drivers/STM32F4xx_HAL_Driver/Src/stm32f4xx_hal_dma.c ****     }
 611:../Drivers/STM32F4xx_HAL_Driver/Src/stm32f4xx_hal_dma.c ****     else
 612:../Drivers/STM32F4xx_HAL_Driver/Src/stm32f4xx_hal_dma.c ****     {
 613:../Drivers/STM32F4xx_HAL_Driver/Src/stm32f4xx_hal_dma.c ****       /* Clear the half transfer complete flag */
 614:../Drivers/STM32F4xx_HAL_Driver/Src/stm32f4xx_hal_dma.c ****       __HAL_DMA_CLEAR_FLAG(hdma, __HAL_DMA_GET_HT_FLAG_INDEX(hdma));
 615:../Drivers/STM32F4xx_HAL_Driver/Src/stm32f4xx_hal_dma.c **** 
 616:../Drivers/STM32F4xx_HAL_Driver/Src/stm32f4xx_hal_dma.c ****       /* Change DMA peripheral state */
 617:../Drivers/STM32F4xx_HAL_Driver/Src/stm32f4xx_hal_dma.c ****       hdma->State = HAL_DMA_STATE_READY_HALF_MEM0;
 618:../Drivers/STM32F4xx_HAL_Driver/Src/stm32f4xx_hal_dma.c ****     }
 619:../Drivers/STM32F4xx_HAL_Driver/Src/stm32f4xx_hal_dma.c ****   }
 620:../Drivers/STM32F4xx_HAL_Driver/Src/stm32f4xx_hal_dma.c ****   return HAL_OK;
 621:../Drivers/STM32F4xx_HAL_Driver/Src/stm32f4xx_hal_dma.c **** }
 622:../Drivers/STM32F4xx_HAL_Driver/Src/stm32f4xx_hal_dma.c **** 
 623:../Drivers/STM32F4xx_HAL_Driver/Src/stm32f4xx_hal_dma.c **** /**
 624:../Drivers/STM32F4xx_HAL_Driver/Src/stm32f4xx_hal_dma.c ****   * @brief  Handles DMA interrupt request.
 625:../Drivers/STM32F4xx_HAL_Driver/Src/stm32f4xx_hal_dma.c ****   * @param  hdma: pointer to a DMA_HandleTypeDef structure that contains
 626:../Drivers/STM32F4xx_HAL_Driver/Src/stm32f4xx_hal_dma.c ****   *               the configuration information for the specified DMA Stream.  
 627:../Drivers/STM32F4xx_HAL_Driver/Src/stm32f4xx_hal_dma.c ****   * @retval None
 628:../Drivers/STM32F4xx_HAL_Driver/Src/stm32f4xx_hal_dma.c ****   */
 629:../Drivers/STM32F4xx_HAL_Driver/Src/stm32f4xx_hal_dma.c **** void HAL_DMA_IRQHandler(DMA_HandleTypeDef *hdma)
 630:../Drivers/STM32F4xx_HAL_Driver/Src/stm32f4xx_hal_dma.c **** {
 631:../Drivers/STM32F4xx_HAL_Driver/Src/stm32f4xx_hal_dma.c ****   /* Transfer Error Interrupt management ***************************************/
 632:../Drivers/STM32F4xx_HAL_Driver/Src/stm32f4xx_hal_dma.c ****   if(__HAL_DMA_GET_FLAG(hdma, __HAL_DMA_GET_TE_FLAG_INDEX(hdma)) != RESET)
 633:../Drivers/STM32F4xx_HAL_Driver/Src/stm32f4xx_hal_dma.c ****   {
 634:../Drivers/STM32F4xx_HAL_Driver/Src/stm32f4xx_hal_dma.c ****     if(__HAL_DMA_GET_IT_SOURCE(hdma, DMA_IT_TE) != RESET)
 635:../Drivers/STM32F4xx_HAL_Driver/Src/stm32f4xx_hal_dma.c ****     {
 636:../Drivers/STM32F4xx_HAL_Driver/Src/stm32f4xx_hal_dma.c ****       /* Disable the transfer error interrupt */
 637:../Drivers/STM32F4xx_HAL_Driver/Src/stm32f4xx_hal_dma.c ****       __HAL_DMA_DISABLE_IT(hdma, DMA_IT_TE);
 638:../Drivers/STM32F4xx_HAL_Driver/Src/stm32f4xx_hal_dma.c **** 
 639:../Drivers/STM32F4xx_HAL_Driver/Src/stm32f4xx_hal_dma.c ****       /* Clear the transfer error flag */
 640:../Drivers/STM32F4xx_HAL_Driver/Src/stm32f4xx_hal_dma.c ****       __HAL_DMA_CLEAR_FLAG(hdma, __HAL_DMA_GET_TE_FLAG_INDEX(hdma));
 641:../Drivers/STM32F4xx_HAL_Driver/Src/stm32f4xx_hal_dma.c **** 
 642:../Drivers/STM32F4xx_HAL_Driver/Src/stm32f4xx_hal_dma.c ****       /* Update error code */
 643:../Drivers/STM32F4xx_HAL_Driver/Src/stm32f4xx_hal_dma.c ****       hdma->ErrorCode |= HAL_DMA_ERROR_TE;
 644:../Drivers/STM32F4xx_HAL_Driver/Src/stm32f4xx_hal_dma.c **** 
 645:../Drivers/STM32F4xx_HAL_Driver/Src/stm32f4xx_hal_dma.c ****       /* Change the DMA state */
 646:../Drivers/STM32F4xx_HAL_Driver/Src/stm32f4xx_hal_dma.c ****       hdma->State = HAL_DMA_STATE_ERROR;
 647:../Drivers/STM32F4xx_HAL_Driver/Src/stm32f4xx_hal_dma.c **** 
 648:../Drivers/STM32F4xx_HAL_Driver/Src/stm32f4xx_hal_dma.c ****       /* Process Unlocked */
 649:../Drivers/STM32F4xx_HAL_Driver/Src/stm32f4xx_hal_dma.c ****       __HAL_UNLOCK(hdma); 
 650:../Drivers/STM32F4xx_HAL_Driver/Src/stm32f4xx_hal_dma.c **** 
 651:../Drivers/STM32F4xx_HAL_Driver/Src/stm32f4xx_hal_dma.c ****       if(hdma->XferErrorCallback != NULL)
 652:../Drivers/STM32F4xx_HAL_Driver/Src/stm32f4xx_hal_dma.c ****       {
 653:../Drivers/STM32F4xx_HAL_Driver/Src/stm32f4xx_hal_dma.c ****         /* Transfer error callback */
 654:../Drivers/STM32F4xx_HAL_Driver/Src/stm32f4xx_hal_dma.c ****         hdma->XferErrorCallback(hdma);
 655:../Drivers/STM32F4xx_HAL_Driver/Src/stm32f4xx_hal_dma.c ****       }
 656:../Drivers/STM32F4xx_HAL_Driver/Src/stm32f4xx_hal_dma.c ****     }
 657:../Drivers/STM32F4xx_HAL_Driver/Src/stm32f4xx_hal_dma.c ****   }
 658:../Drivers/STM32F4xx_HAL_Driver/Src/stm32f4xx_hal_dma.c ****   /* FIFO Error Interrupt management ******************************************/
ARM GAS  /tmp/ccAPlzty.s 			page 13


 659:../Drivers/STM32F4xx_HAL_Driver/Src/stm32f4xx_hal_dma.c ****   if(__HAL_DMA_GET_FLAG(hdma, __HAL_DMA_GET_FE_FLAG_INDEX(hdma)) != RESET)
 660:../Drivers/STM32F4xx_HAL_Driver/Src/stm32f4xx_hal_dma.c ****   {
 661:../Drivers/STM32F4xx_HAL_Driver/Src/stm32f4xx_hal_dma.c ****     if(__HAL_DMA_GET_IT_SOURCE(hdma, DMA_IT_FE) != RESET)
 662:../Drivers/STM32F4xx_HAL_Driver/Src/stm32f4xx_hal_dma.c ****     {
 663:../Drivers/STM32F4xx_HAL_Driver/Src/stm32f4xx_hal_dma.c ****       /* Disable the FIFO Error interrupt */
 664:../Drivers/STM32F4xx_HAL_Driver/Src/stm32f4xx_hal_dma.c ****       __HAL_DMA_DISABLE_IT(hdma, DMA_IT_FE);
 665:../Drivers/STM32F4xx_HAL_Driver/Src/stm32f4xx_hal_dma.c **** 
 666:../Drivers/STM32F4xx_HAL_Driver/Src/stm32f4xx_hal_dma.c ****       /* Clear the FIFO error flag */
 667:../Drivers/STM32F4xx_HAL_Driver/Src/stm32f4xx_hal_dma.c ****       __HAL_DMA_CLEAR_FLAG(hdma, __HAL_DMA_GET_FE_FLAG_INDEX(hdma));
 668:../Drivers/STM32F4xx_HAL_Driver/Src/stm32f4xx_hal_dma.c **** 
 669:../Drivers/STM32F4xx_HAL_Driver/Src/stm32f4xx_hal_dma.c ****       /* Update error code */
 670:../Drivers/STM32F4xx_HAL_Driver/Src/stm32f4xx_hal_dma.c ****       hdma->ErrorCode |= HAL_DMA_ERROR_FE;
 671:../Drivers/STM32F4xx_HAL_Driver/Src/stm32f4xx_hal_dma.c **** 
 672:../Drivers/STM32F4xx_HAL_Driver/Src/stm32f4xx_hal_dma.c ****       /* Change the DMA state */
 673:../Drivers/STM32F4xx_HAL_Driver/Src/stm32f4xx_hal_dma.c ****       hdma->State = HAL_DMA_STATE_ERROR;
 674:../Drivers/STM32F4xx_HAL_Driver/Src/stm32f4xx_hal_dma.c **** 
 675:../Drivers/STM32F4xx_HAL_Driver/Src/stm32f4xx_hal_dma.c ****       /* Process Unlocked */
 676:../Drivers/STM32F4xx_HAL_Driver/Src/stm32f4xx_hal_dma.c ****       __HAL_UNLOCK(hdma);
 677:../Drivers/STM32F4xx_HAL_Driver/Src/stm32f4xx_hal_dma.c **** 
 678:../Drivers/STM32F4xx_HAL_Driver/Src/stm32f4xx_hal_dma.c ****       if(hdma->XferErrorCallback != NULL)
 679:../Drivers/STM32F4xx_HAL_Driver/Src/stm32f4xx_hal_dma.c ****       {
 680:../Drivers/STM32F4xx_HAL_Driver/Src/stm32f4xx_hal_dma.c ****         /* Transfer error callback */
 681:../Drivers/STM32F4xx_HAL_Driver/Src/stm32f4xx_hal_dma.c ****         hdma->XferErrorCallback(hdma);
 682:../Drivers/STM32F4xx_HAL_Driver/Src/stm32f4xx_hal_dma.c ****       }
 683:../Drivers/STM32F4xx_HAL_Driver/Src/stm32f4xx_hal_dma.c ****     }
 684:../Drivers/STM32F4xx_HAL_Driver/Src/stm32f4xx_hal_dma.c ****   }
 685:../Drivers/STM32F4xx_HAL_Driver/Src/stm32f4xx_hal_dma.c ****   /* Direct Mode Error Interrupt management ***********************************/
 686:../Drivers/STM32F4xx_HAL_Driver/Src/stm32f4xx_hal_dma.c ****   if(__HAL_DMA_GET_FLAG(hdma, __HAL_DMA_GET_DME_FLAG_INDEX(hdma)) != RESET)
 687:../Drivers/STM32F4xx_HAL_Driver/Src/stm32f4xx_hal_dma.c ****   {
 688:../Drivers/STM32F4xx_HAL_Driver/Src/stm32f4xx_hal_dma.c ****     if(__HAL_DMA_GET_IT_SOURCE(hdma, DMA_IT_DME) != RESET)
 689:../Drivers/STM32F4xx_HAL_Driver/Src/stm32f4xx_hal_dma.c ****     {
 690:../Drivers/STM32F4xx_HAL_Driver/Src/stm32f4xx_hal_dma.c ****       /* Disable the direct mode Error interrupt */
 691:../Drivers/STM32F4xx_HAL_Driver/Src/stm32f4xx_hal_dma.c ****       __HAL_DMA_DISABLE_IT(hdma, DMA_IT_DME);
 692:../Drivers/STM32F4xx_HAL_Driver/Src/stm32f4xx_hal_dma.c **** 
 693:../Drivers/STM32F4xx_HAL_Driver/Src/stm32f4xx_hal_dma.c ****       /* Clear the direct mode error flag */
 694:../Drivers/STM32F4xx_HAL_Driver/Src/stm32f4xx_hal_dma.c ****       __HAL_DMA_CLEAR_FLAG(hdma, __HAL_DMA_GET_DME_FLAG_INDEX(hdma));
 695:../Drivers/STM32F4xx_HAL_Driver/Src/stm32f4xx_hal_dma.c **** 
 696:../Drivers/STM32F4xx_HAL_Driver/Src/stm32f4xx_hal_dma.c ****       /* Update error code */
 697:../Drivers/STM32F4xx_HAL_Driver/Src/stm32f4xx_hal_dma.c ****       hdma->ErrorCode |= HAL_DMA_ERROR_DME;
 698:../Drivers/STM32F4xx_HAL_Driver/Src/stm32f4xx_hal_dma.c **** 
 699:../Drivers/STM32F4xx_HAL_Driver/Src/stm32f4xx_hal_dma.c ****       /* Change the DMA state */
 700:../Drivers/STM32F4xx_HAL_Driver/Src/stm32f4xx_hal_dma.c ****       hdma->State = HAL_DMA_STATE_ERROR;
 701:../Drivers/STM32F4xx_HAL_Driver/Src/stm32f4xx_hal_dma.c **** 
 702:../Drivers/STM32F4xx_HAL_Driver/Src/stm32f4xx_hal_dma.c ****       /* Process Unlocked */
 703:../Drivers/STM32F4xx_HAL_Driver/Src/stm32f4xx_hal_dma.c ****       __HAL_UNLOCK(hdma);
 704:../Drivers/STM32F4xx_HAL_Driver/Src/stm32f4xx_hal_dma.c **** 
 705:../Drivers/STM32F4xx_HAL_Driver/Src/stm32f4xx_hal_dma.c ****       if(hdma->XferErrorCallback != NULL)
 706:../Drivers/STM32F4xx_HAL_Driver/Src/stm32f4xx_hal_dma.c ****       {
 707:../Drivers/STM32F4xx_HAL_Driver/Src/stm32f4xx_hal_dma.c ****         /* Transfer error callback */
 708:../Drivers/STM32F4xx_HAL_Driver/Src/stm32f4xx_hal_dma.c ****         hdma->XferErrorCallback(hdma);
 709:../Drivers/STM32F4xx_HAL_Driver/Src/stm32f4xx_hal_dma.c ****       }
 710:../Drivers/STM32F4xx_HAL_Driver/Src/stm32f4xx_hal_dma.c ****     }
 711:../Drivers/STM32F4xx_HAL_Driver/Src/stm32f4xx_hal_dma.c ****   }
 712:../Drivers/STM32F4xx_HAL_Driver/Src/stm32f4xx_hal_dma.c ****   /* Half Transfer Complete Interrupt management ******************************/
 713:../Drivers/STM32F4xx_HAL_Driver/Src/stm32f4xx_hal_dma.c ****   if(__HAL_DMA_GET_FLAG(hdma, __HAL_DMA_GET_HT_FLAG_INDEX(hdma)) != RESET)
 714:../Drivers/STM32F4xx_HAL_Driver/Src/stm32f4xx_hal_dma.c ****   {
 715:../Drivers/STM32F4xx_HAL_Driver/Src/stm32f4xx_hal_dma.c ****     if(__HAL_DMA_GET_IT_SOURCE(hdma, DMA_IT_HT) != RESET)
ARM GAS  /tmp/ccAPlzty.s 			page 14


 716:../Drivers/STM32F4xx_HAL_Driver/Src/stm32f4xx_hal_dma.c ****     { 
 717:../Drivers/STM32F4xx_HAL_Driver/Src/stm32f4xx_hal_dma.c ****       /* Multi_Buffering mode enabled */
 718:../Drivers/STM32F4xx_HAL_Driver/Src/stm32f4xx_hal_dma.c ****       if(((hdma->Instance->CR) & (uint32_t)(DMA_SxCR_DBM)) != 0)
 719:../Drivers/STM32F4xx_HAL_Driver/Src/stm32f4xx_hal_dma.c ****       {
 720:../Drivers/STM32F4xx_HAL_Driver/Src/stm32f4xx_hal_dma.c ****         /* Clear the half transfer complete flag */
 721:../Drivers/STM32F4xx_HAL_Driver/Src/stm32f4xx_hal_dma.c ****         __HAL_DMA_CLEAR_FLAG(hdma, __HAL_DMA_GET_HT_FLAG_INDEX(hdma));
 722:../Drivers/STM32F4xx_HAL_Driver/Src/stm32f4xx_hal_dma.c **** 
 723:../Drivers/STM32F4xx_HAL_Driver/Src/stm32f4xx_hal_dma.c ****         /* Current memory buffer used is Memory 0 */
 724:../Drivers/STM32F4xx_HAL_Driver/Src/stm32f4xx_hal_dma.c ****         if((hdma->Instance->CR & DMA_SxCR_CT) == 0)
 725:../Drivers/STM32F4xx_HAL_Driver/Src/stm32f4xx_hal_dma.c ****         {
 726:../Drivers/STM32F4xx_HAL_Driver/Src/stm32f4xx_hal_dma.c ****           /* Change DMA peripheral state */
 727:../Drivers/STM32F4xx_HAL_Driver/Src/stm32f4xx_hal_dma.c ****           hdma->State = HAL_DMA_STATE_READY_HALF_MEM0;
 728:../Drivers/STM32F4xx_HAL_Driver/Src/stm32f4xx_hal_dma.c ****         }
 729:../Drivers/STM32F4xx_HAL_Driver/Src/stm32f4xx_hal_dma.c ****         /* Current memory buffer used is Memory 1 */
 730:../Drivers/STM32F4xx_HAL_Driver/Src/stm32f4xx_hal_dma.c ****         else if((hdma->Instance->CR & DMA_SxCR_CT) != 0)
 731:../Drivers/STM32F4xx_HAL_Driver/Src/stm32f4xx_hal_dma.c ****         {
 732:../Drivers/STM32F4xx_HAL_Driver/Src/stm32f4xx_hal_dma.c ****           /* Change DMA peripheral state */
 733:../Drivers/STM32F4xx_HAL_Driver/Src/stm32f4xx_hal_dma.c ****           hdma->State = HAL_DMA_STATE_READY_HALF_MEM1;
 734:../Drivers/STM32F4xx_HAL_Driver/Src/stm32f4xx_hal_dma.c ****         }
 735:../Drivers/STM32F4xx_HAL_Driver/Src/stm32f4xx_hal_dma.c ****       }
 736:../Drivers/STM32F4xx_HAL_Driver/Src/stm32f4xx_hal_dma.c ****       else
 737:../Drivers/STM32F4xx_HAL_Driver/Src/stm32f4xx_hal_dma.c ****       {
 738:../Drivers/STM32F4xx_HAL_Driver/Src/stm32f4xx_hal_dma.c ****         /* Disable the half transfer interrupt if the DMA mode is not CIRCULAR */
 739:../Drivers/STM32F4xx_HAL_Driver/Src/stm32f4xx_hal_dma.c ****         if((hdma->Instance->CR & DMA_SxCR_CIRC) == 0)
 740:../Drivers/STM32F4xx_HAL_Driver/Src/stm32f4xx_hal_dma.c ****         {
 741:../Drivers/STM32F4xx_HAL_Driver/Src/stm32f4xx_hal_dma.c ****           /* Disable the half transfer interrupt */
 742:../Drivers/STM32F4xx_HAL_Driver/Src/stm32f4xx_hal_dma.c ****           __HAL_DMA_DISABLE_IT(hdma, DMA_IT_HT);
 743:../Drivers/STM32F4xx_HAL_Driver/Src/stm32f4xx_hal_dma.c ****         }
 744:../Drivers/STM32F4xx_HAL_Driver/Src/stm32f4xx_hal_dma.c ****         /* Clear the half transfer complete flag */
 745:../Drivers/STM32F4xx_HAL_Driver/Src/stm32f4xx_hal_dma.c ****         __HAL_DMA_CLEAR_FLAG(hdma, __HAL_DMA_GET_HT_FLAG_INDEX(hdma));
 746:../Drivers/STM32F4xx_HAL_Driver/Src/stm32f4xx_hal_dma.c **** 
 747:../Drivers/STM32F4xx_HAL_Driver/Src/stm32f4xx_hal_dma.c ****         /* Change DMA peripheral state */
 748:../Drivers/STM32F4xx_HAL_Driver/Src/stm32f4xx_hal_dma.c ****         hdma->State = HAL_DMA_STATE_READY_HALF_MEM0;
 749:../Drivers/STM32F4xx_HAL_Driver/Src/stm32f4xx_hal_dma.c ****       }
 750:../Drivers/STM32F4xx_HAL_Driver/Src/stm32f4xx_hal_dma.c **** 
 751:../Drivers/STM32F4xx_HAL_Driver/Src/stm32f4xx_hal_dma.c ****       if(hdma->XferHalfCpltCallback != NULL)
 752:../Drivers/STM32F4xx_HAL_Driver/Src/stm32f4xx_hal_dma.c ****       {
 753:../Drivers/STM32F4xx_HAL_Driver/Src/stm32f4xx_hal_dma.c ****         /* Half transfer callback */
 754:../Drivers/STM32F4xx_HAL_Driver/Src/stm32f4xx_hal_dma.c ****         hdma->XferHalfCpltCallback(hdma);
 755:../Drivers/STM32F4xx_HAL_Driver/Src/stm32f4xx_hal_dma.c ****       }
 756:../Drivers/STM32F4xx_HAL_Driver/Src/stm32f4xx_hal_dma.c ****     }
 757:../Drivers/STM32F4xx_HAL_Driver/Src/stm32f4xx_hal_dma.c ****   }
 758:../Drivers/STM32F4xx_HAL_Driver/Src/stm32f4xx_hal_dma.c ****   /* Transfer Complete Interrupt management ***********************************/
 759:../Drivers/STM32F4xx_HAL_Driver/Src/stm32f4xx_hal_dma.c ****   if(__HAL_DMA_GET_FLAG(hdma, __HAL_DMA_GET_TC_FLAG_INDEX(hdma)) != RESET)
 760:../Drivers/STM32F4xx_HAL_Driver/Src/stm32f4xx_hal_dma.c ****   {
 761:../Drivers/STM32F4xx_HAL_Driver/Src/stm32f4xx_hal_dma.c ****     if(__HAL_DMA_GET_IT_SOURCE(hdma, DMA_IT_TC) != RESET)
 762:../Drivers/STM32F4xx_HAL_Driver/Src/stm32f4xx_hal_dma.c ****     {
 763:../Drivers/STM32F4xx_HAL_Driver/Src/stm32f4xx_hal_dma.c ****       if(((hdma->Instance->CR) & (uint32_t)(DMA_SxCR_DBM)) != 0)
 764:../Drivers/STM32F4xx_HAL_Driver/Src/stm32f4xx_hal_dma.c ****       {
 765:../Drivers/STM32F4xx_HAL_Driver/Src/stm32f4xx_hal_dma.c ****         /* Clear the transfer complete flag */
 766:../Drivers/STM32F4xx_HAL_Driver/Src/stm32f4xx_hal_dma.c ****         __HAL_DMA_CLEAR_FLAG(hdma, __HAL_DMA_GET_TC_FLAG_INDEX(hdma));
 767:../Drivers/STM32F4xx_HAL_Driver/Src/stm32f4xx_hal_dma.c **** 
 768:../Drivers/STM32F4xx_HAL_Driver/Src/stm32f4xx_hal_dma.c ****         /* Current memory buffer used is Memory 1 */
 769:../Drivers/STM32F4xx_HAL_Driver/Src/stm32f4xx_hal_dma.c ****         if((hdma->Instance->CR & DMA_SxCR_CT) == 0)
 770:../Drivers/STM32F4xx_HAL_Driver/Src/stm32f4xx_hal_dma.c ****         {
 771:../Drivers/STM32F4xx_HAL_Driver/Src/stm32f4xx_hal_dma.c ****           if(hdma->XferM1CpltCallback != NULL)
 772:../Drivers/STM32F4xx_HAL_Driver/Src/stm32f4xx_hal_dma.c ****           {
ARM GAS  /tmp/ccAPlzty.s 			page 15


 773:../Drivers/STM32F4xx_HAL_Driver/Src/stm32f4xx_hal_dma.c ****             /* Transfer complete Callback for memory1 */
 774:../Drivers/STM32F4xx_HAL_Driver/Src/stm32f4xx_hal_dma.c ****             hdma->XferM1CpltCallback(hdma);
 775:../Drivers/STM32F4xx_HAL_Driver/Src/stm32f4xx_hal_dma.c ****           }
 776:../Drivers/STM32F4xx_HAL_Driver/Src/stm32f4xx_hal_dma.c ****         }
 777:../Drivers/STM32F4xx_HAL_Driver/Src/stm32f4xx_hal_dma.c ****         /* Current memory buffer used is Memory 0 */
 778:../Drivers/STM32F4xx_HAL_Driver/Src/stm32f4xx_hal_dma.c ****         else if((hdma->Instance->CR & DMA_SxCR_CT) != 0) 
 779:../Drivers/STM32F4xx_HAL_Driver/Src/stm32f4xx_hal_dma.c ****         {
 780:../Drivers/STM32F4xx_HAL_Driver/Src/stm32f4xx_hal_dma.c ****           if(hdma->XferCpltCallback != NULL)
 781:../Drivers/STM32F4xx_HAL_Driver/Src/stm32f4xx_hal_dma.c ****           {
 782:../Drivers/STM32F4xx_HAL_Driver/Src/stm32f4xx_hal_dma.c ****             /* Transfer complete Callback for memory0 */
 783:../Drivers/STM32F4xx_HAL_Driver/Src/stm32f4xx_hal_dma.c ****             hdma->XferCpltCallback(hdma);
 784:../Drivers/STM32F4xx_HAL_Driver/Src/stm32f4xx_hal_dma.c ****           }
 785:../Drivers/STM32F4xx_HAL_Driver/Src/stm32f4xx_hal_dma.c ****         }
 786:../Drivers/STM32F4xx_HAL_Driver/Src/stm32f4xx_hal_dma.c ****       }
 787:../Drivers/STM32F4xx_HAL_Driver/Src/stm32f4xx_hal_dma.c ****       /* Disable the transfer complete interrupt if the DMA mode is not CIRCULAR */
 788:../Drivers/STM32F4xx_HAL_Driver/Src/stm32f4xx_hal_dma.c ****       else
 789:../Drivers/STM32F4xx_HAL_Driver/Src/stm32f4xx_hal_dma.c ****       {
 790:../Drivers/STM32F4xx_HAL_Driver/Src/stm32f4xx_hal_dma.c ****         if((hdma->Instance->CR & DMA_SxCR_CIRC) == 0)
 791:../Drivers/STM32F4xx_HAL_Driver/Src/stm32f4xx_hal_dma.c ****         {
 792:../Drivers/STM32F4xx_HAL_Driver/Src/stm32f4xx_hal_dma.c ****           /* Disable the transfer complete interrupt */
 793:../Drivers/STM32F4xx_HAL_Driver/Src/stm32f4xx_hal_dma.c ****           __HAL_DMA_DISABLE_IT(hdma, DMA_IT_TC);
 794:../Drivers/STM32F4xx_HAL_Driver/Src/stm32f4xx_hal_dma.c ****         }
 795:../Drivers/STM32F4xx_HAL_Driver/Src/stm32f4xx_hal_dma.c ****         /* Clear the transfer complete flag */
 796:../Drivers/STM32F4xx_HAL_Driver/Src/stm32f4xx_hal_dma.c ****         __HAL_DMA_CLEAR_FLAG(hdma, __HAL_DMA_GET_TC_FLAG_INDEX(hdma));
 797:../Drivers/STM32F4xx_HAL_Driver/Src/stm32f4xx_hal_dma.c **** 
 798:../Drivers/STM32F4xx_HAL_Driver/Src/stm32f4xx_hal_dma.c ****         /* Update error code */
 799:../Drivers/STM32F4xx_HAL_Driver/Src/stm32f4xx_hal_dma.c ****         hdma->ErrorCode |= HAL_DMA_ERROR_NONE;
 800:../Drivers/STM32F4xx_HAL_Driver/Src/stm32f4xx_hal_dma.c **** 
 801:../Drivers/STM32F4xx_HAL_Driver/Src/stm32f4xx_hal_dma.c ****         /* Change the DMA state */
 802:../Drivers/STM32F4xx_HAL_Driver/Src/stm32f4xx_hal_dma.c ****         hdma->State = HAL_DMA_STATE_READY_MEM0;
 803:../Drivers/STM32F4xx_HAL_Driver/Src/stm32f4xx_hal_dma.c **** 
 804:../Drivers/STM32F4xx_HAL_Driver/Src/stm32f4xx_hal_dma.c ****         /* Process Unlocked */
 805:../Drivers/STM32F4xx_HAL_Driver/Src/stm32f4xx_hal_dma.c ****         __HAL_UNLOCK(hdma);      
 806:../Drivers/STM32F4xx_HAL_Driver/Src/stm32f4xx_hal_dma.c **** 
 807:../Drivers/STM32F4xx_HAL_Driver/Src/stm32f4xx_hal_dma.c ****         if(hdma->XferCpltCallback != NULL)
 808:../Drivers/STM32F4xx_HAL_Driver/Src/stm32f4xx_hal_dma.c ****         {
 809:../Drivers/STM32F4xx_HAL_Driver/Src/stm32f4xx_hal_dma.c ****           /* Transfer complete callback */
 810:../Drivers/STM32F4xx_HAL_Driver/Src/stm32f4xx_hal_dma.c ****           hdma->XferCpltCallback(hdma);
 811:../Drivers/STM32F4xx_HAL_Driver/Src/stm32f4xx_hal_dma.c ****         }
 812:../Drivers/STM32F4xx_HAL_Driver/Src/stm32f4xx_hal_dma.c ****       }
 813:../Drivers/STM32F4xx_HAL_Driver/Src/stm32f4xx_hal_dma.c ****     }
 814:../Drivers/STM32F4xx_HAL_Driver/Src/stm32f4xx_hal_dma.c ****   }
 815:../Drivers/STM32F4xx_HAL_Driver/Src/stm32f4xx_hal_dma.c **** }
 816:../Drivers/STM32F4xx_HAL_Driver/Src/stm32f4xx_hal_dma.c **** 
 817:../Drivers/STM32F4xx_HAL_Driver/Src/stm32f4xx_hal_dma.c **** /**
 818:../Drivers/STM32F4xx_HAL_Driver/Src/stm32f4xx_hal_dma.c ****   * @}
 819:../Drivers/STM32F4xx_HAL_Driver/Src/stm32f4xx_hal_dma.c ****   */
 820:../Drivers/STM32F4xx_HAL_Driver/Src/stm32f4xx_hal_dma.c **** 
 821:../Drivers/STM32F4xx_HAL_Driver/Src/stm32f4xx_hal_dma.c **** /** @defgroup DMA_Group3 Peripheral State functions
 822:../Drivers/STM32F4xx_HAL_Driver/Src/stm32f4xx_hal_dma.c ****  *  @brief    Peripheral State functions 
 823:../Drivers/STM32F4xx_HAL_Driver/Src/stm32f4xx_hal_dma.c ****  *
 824:../Drivers/STM32F4xx_HAL_Driver/Src/stm32f4xx_hal_dma.c **** @verbatim
 825:../Drivers/STM32F4xx_HAL_Driver/Src/stm32f4xx_hal_dma.c ****  ===============================================================================
 826:../Drivers/STM32F4xx_HAL_Driver/Src/stm32f4xx_hal_dma.c ****                     ##### State and Errors functions #####
 827:../Drivers/STM32F4xx_HAL_Driver/Src/stm32f4xx_hal_dma.c ****  ===============================================================================
 828:../Drivers/STM32F4xx_HAL_Driver/Src/stm32f4xx_hal_dma.c ****     [..]
 829:../Drivers/STM32F4xx_HAL_Driver/Src/stm32f4xx_hal_dma.c ****     This subsection provides functions allowing to
ARM GAS  /tmp/ccAPlzty.s 			page 16


 830:../Drivers/STM32F4xx_HAL_Driver/Src/stm32f4xx_hal_dma.c ****       (+) Check the DMA state
 831:../Drivers/STM32F4xx_HAL_Driver/Src/stm32f4xx_hal_dma.c ****       (+) Get error code
 832:../Drivers/STM32F4xx_HAL_Driver/Src/stm32f4xx_hal_dma.c **** 
 833:../Drivers/STM32F4xx_HAL_Driver/Src/stm32f4xx_hal_dma.c **** @endverbatim
 834:../Drivers/STM32F4xx_HAL_Driver/Src/stm32f4xx_hal_dma.c ****   * @{
 835:../Drivers/STM32F4xx_HAL_Driver/Src/stm32f4xx_hal_dma.c ****   */
 836:../Drivers/STM32F4xx_HAL_Driver/Src/stm32f4xx_hal_dma.c **** 
 837:../Drivers/STM32F4xx_HAL_Driver/Src/stm32f4xx_hal_dma.c **** /**
 838:../Drivers/STM32F4xx_HAL_Driver/Src/stm32f4xx_hal_dma.c ****   * @brief  Returns the DMA state.
 839:../Drivers/STM32F4xx_HAL_Driver/Src/stm32f4xx_hal_dma.c ****   * @param  hdma: pointer to a DMA_HandleTypeDef structure that contains
 840:../Drivers/STM32F4xx_HAL_Driver/Src/stm32f4xx_hal_dma.c ****   *               the configuration information for the specified DMA Stream.
 841:../Drivers/STM32F4xx_HAL_Driver/Src/stm32f4xx_hal_dma.c ****   * @retval HAL state
 842:../Drivers/STM32F4xx_HAL_Driver/Src/stm32f4xx_hal_dma.c ****   */
 843:../Drivers/STM32F4xx_HAL_Driver/Src/stm32f4xx_hal_dma.c **** HAL_DMA_StateTypeDef HAL_DMA_GetState(DMA_HandleTypeDef *hdma)
 844:../Drivers/STM32F4xx_HAL_Driver/Src/stm32f4xx_hal_dma.c **** {
 845:../Drivers/STM32F4xx_HAL_Driver/Src/stm32f4xx_hal_dma.c ****   return hdma->State;
 846:../Drivers/STM32F4xx_HAL_Driver/Src/stm32f4xx_hal_dma.c **** }
 847:../Drivers/STM32F4xx_HAL_Driver/Src/stm32f4xx_hal_dma.c **** 
 848:../Drivers/STM32F4xx_HAL_Driver/Src/stm32f4xx_hal_dma.c **** /**
 849:../Drivers/STM32F4xx_HAL_Driver/Src/stm32f4xx_hal_dma.c ****   * @brief  Return the DMA error code
 850:../Drivers/STM32F4xx_HAL_Driver/Src/stm32f4xx_hal_dma.c ****   * @param  hdma : pointer to a DMA_HandleTypeDef structure that contains
 851:../Drivers/STM32F4xx_HAL_Driver/Src/stm32f4xx_hal_dma.c ****   *              the configuration information for the specified DMA Stream.
 852:../Drivers/STM32F4xx_HAL_Driver/Src/stm32f4xx_hal_dma.c ****   * @retval DMA Error Code
 853:../Drivers/STM32F4xx_HAL_Driver/Src/stm32f4xx_hal_dma.c ****   */
 854:../Drivers/STM32F4xx_HAL_Driver/Src/stm32f4xx_hal_dma.c **** uint32_t HAL_DMA_GetError(DMA_HandleTypeDef *hdma)
 855:../Drivers/STM32F4xx_HAL_Driver/Src/stm32f4xx_hal_dma.c **** {
 856:../Drivers/STM32F4xx_HAL_Driver/Src/stm32f4xx_hal_dma.c ****   return hdma->ErrorCode;
 857:../Drivers/STM32F4xx_HAL_Driver/Src/stm32f4xx_hal_dma.c **** }
 858:../Drivers/STM32F4xx_HAL_Driver/Src/stm32f4xx_hal_dma.c **** 
 859:../Drivers/STM32F4xx_HAL_Driver/Src/stm32f4xx_hal_dma.c **** /**
 860:../Drivers/STM32F4xx_HAL_Driver/Src/stm32f4xx_hal_dma.c ****   * @}
 861:../Drivers/STM32F4xx_HAL_Driver/Src/stm32f4xx_hal_dma.c ****   */
 862:../Drivers/STM32F4xx_HAL_Driver/Src/stm32f4xx_hal_dma.c **** 
 863:../Drivers/STM32F4xx_HAL_Driver/Src/stm32f4xx_hal_dma.c **** /**
 864:../Drivers/STM32F4xx_HAL_Driver/Src/stm32f4xx_hal_dma.c ****   * @brief  Sets the DMA Transfer parameter.
 865:../Drivers/STM32F4xx_HAL_Driver/Src/stm32f4xx_hal_dma.c ****   * @param  hdma:       pointer to a DMA_HandleTypeDef structure that contains
 866:../Drivers/STM32F4xx_HAL_Driver/Src/stm32f4xx_hal_dma.c ****   *                     the configuration information for the specified DMA Stream.
 867:../Drivers/STM32F4xx_HAL_Driver/Src/stm32f4xx_hal_dma.c ****   * @param  SrcAddress: The source memory Buffer address
 868:../Drivers/STM32F4xx_HAL_Driver/Src/stm32f4xx_hal_dma.c ****   * @param  DstAddress: The destination memory Buffer address
 869:../Drivers/STM32F4xx_HAL_Driver/Src/stm32f4xx_hal_dma.c ****   * @param  DataLength: The length of data to be transferred from source to destination
 870:../Drivers/STM32F4xx_HAL_Driver/Src/stm32f4xx_hal_dma.c ****   * @retval HAL status
 871:../Drivers/STM32F4xx_HAL_Driver/Src/stm32f4xx_hal_dma.c ****   */
 872:../Drivers/STM32F4xx_HAL_Driver/Src/stm32f4xx_hal_dma.c **** static void DMA_SetConfig(DMA_HandleTypeDef *hdma, uint32_t SrcAddress, uint32_t DstAddress, uint32
 873:../Drivers/STM32F4xx_HAL_Driver/Src/stm32f4xx_hal_dma.c **** {
  28              		.loc 1 873 0
  29              		.cfi_startproc
  30              		@ args = 0, pretend = 0, frame = 0
  31              		@ frame_needed = 0, uses_anonymous_args = 0
  32              		@ link register save eliminated.
  33              	.LVL0:
  34 0000 10B4     		push	{r4}
  35              	.LCFI0:
  36              		.cfi_def_cfa_offset 4
  37              		.cfi_offset 4, -4
 874:../Drivers/STM32F4xx_HAL_Driver/Src/stm32f4xx_hal_dma.c ****   /* Configure DMA Stream data length */
 875:../Drivers/STM32F4xx_HAL_Driver/Src/stm32f4xx_hal_dma.c ****   hdma->Instance->NDTR = DataLength;
  38              		.loc 1 875 0
ARM GAS  /tmp/ccAPlzty.s 			page 17


  39 0002 0468     		ldr	r4, [r0]
  40 0004 6360     		str	r3, [r4, #4]
 876:../Drivers/STM32F4xx_HAL_Driver/Src/stm32f4xx_hal_dma.c **** 
 877:../Drivers/STM32F4xx_HAL_Driver/Src/stm32f4xx_hal_dma.c ****   /* Peripheral to Memory */
 878:../Drivers/STM32F4xx_HAL_Driver/Src/stm32f4xx_hal_dma.c ****   if((hdma->Init.Direction) == DMA_MEMORY_TO_PERIPH)
  41              		.loc 1 878 0
  42 0006 8368     		ldr	r3, [r0, #8]
  43              	.LVL1:
  44 0008 402B     		cmp	r3, #64
  45 000a 04D1     		bne	.L2
 879:../Drivers/STM32F4xx_HAL_Driver/Src/stm32f4xx_hal_dma.c ****   {
 880:../Drivers/STM32F4xx_HAL_Driver/Src/stm32f4xx_hal_dma.c ****     /* Configure DMA Stream destination address */
 881:../Drivers/STM32F4xx_HAL_Driver/Src/stm32f4xx_hal_dma.c ****     hdma->Instance->PAR = DstAddress;
  46              		.loc 1 881 0
  47 000c 0368     		ldr	r3, [r0]
  48 000e 9A60     		str	r2, [r3, #8]
  49              	.LVL2:
 882:../Drivers/STM32F4xx_HAL_Driver/Src/stm32f4xx_hal_dma.c **** 
 883:../Drivers/STM32F4xx_HAL_Driver/Src/stm32f4xx_hal_dma.c ****     /* Configure DMA Stream source address */
 884:../Drivers/STM32F4xx_HAL_Driver/Src/stm32f4xx_hal_dma.c ****     hdma->Instance->M0AR = SrcAddress;
  50              		.loc 1 884 0
  51 0010 0368     		ldr	r3, [r0]
  52 0012 D960     		str	r1, [r3, #12]
  53 0014 03E0     		b	.L1
  54              	.LVL3:
  55              	.L2:
 885:../Drivers/STM32F4xx_HAL_Driver/Src/stm32f4xx_hal_dma.c ****   }
 886:../Drivers/STM32F4xx_HAL_Driver/Src/stm32f4xx_hal_dma.c ****   /* Memory to Peripheral */
 887:../Drivers/STM32F4xx_HAL_Driver/Src/stm32f4xx_hal_dma.c ****   else
 888:../Drivers/STM32F4xx_HAL_Driver/Src/stm32f4xx_hal_dma.c ****   {
 889:../Drivers/STM32F4xx_HAL_Driver/Src/stm32f4xx_hal_dma.c ****     /* Configure DMA Stream source address */
 890:../Drivers/STM32F4xx_HAL_Driver/Src/stm32f4xx_hal_dma.c ****     hdma->Instance->PAR = SrcAddress;
  56              		.loc 1 890 0
  57 0016 0368     		ldr	r3, [r0]
  58 0018 9960     		str	r1, [r3, #8]
  59              	.LVL4:
 891:../Drivers/STM32F4xx_HAL_Driver/Src/stm32f4xx_hal_dma.c ****     
 892:../Drivers/STM32F4xx_HAL_Driver/Src/stm32f4xx_hal_dma.c ****     /* Configure DMA Stream destination address */
 893:../Drivers/STM32F4xx_HAL_Driver/Src/stm32f4xx_hal_dma.c ****     hdma->Instance->M0AR = DstAddress;
  60              		.loc 1 893 0
  61 001a 0368     		ldr	r3, [r0]
  62 001c DA60     		str	r2, [r3, #12]
  63              	.L1:
 894:../Drivers/STM32F4xx_HAL_Driver/Src/stm32f4xx_hal_dma.c ****   }
 895:../Drivers/STM32F4xx_HAL_Driver/Src/stm32f4xx_hal_dma.c **** }
  64              		.loc 1 895 0
  65 001e 5DF8044B 		ldr	r4, [sp], #4
  66              	.LCFI1:
  67              		.cfi_restore 4
  68              		.cfi_def_cfa_offset 0
  69 0022 7047     		bx	lr
  70              		.cfi_endproc
  71              	.LFE121:
  73              		.section	.text.HAL_DMA_Init,"ax",%progbits
  74              		.align	2
  75              		.global	HAL_DMA_Init
  76              		.thumb
ARM GAS  /tmp/ccAPlzty.s 			page 18


  77              		.thumb_func
  79              	HAL_DMA_Init:
  80              	.LFB112:
 171:../Drivers/STM32F4xx_HAL_Driver/Src/stm32f4xx_hal_dma.c ****   uint32_t tmp = 0;
  81              		.loc 1 171 0
  82              		.cfi_startproc
  83              		@ args = 0, pretend = 0, frame = 0
  84              		@ frame_needed = 0, uses_anonymous_args = 0
  85              		@ link register save eliminated.
  86              	.LVL5:
 175:../Drivers/STM32F4xx_HAL_Driver/Src/stm32f4xx_hal_dma.c ****   {
  87              		.loc 1 175 0
  88 0000 0028     		cmp	r0, #0
  89 0002 31D0     		beq	.L9
 171:../Drivers/STM32F4xx_HAL_Driver/Src/stm32f4xx_hal_dma.c ****   uint32_t tmp = 0;
  90              		.loc 1 171 0
  91 0004 10B4     		push	{r4}
  92              	.LCFI2:
  93              		.cfi_def_cfa_offset 4
  94              		.cfi_offset 4, -4
  95 0006 0346     		mov	r3, r0
 201:../Drivers/STM32F4xx_HAL_Driver/Src/stm32f4xx_hal_dma.c **** 
  96              		.loc 1 201 0
  97 0008 0222     		movs	r2, #2
  98 000a 80F83520 		strb	r2, [r0, #53]
 204:../Drivers/STM32F4xx_HAL_Driver/Src/stm32f4xx_hal_dma.c **** 
  99              		.loc 1 204 0
 100 000e 0468     		ldr	r4, [r0]
 101 0010 2168     		ldr	r1, [r4]
 102              	.LVL6:
 207:../Drivers/STM32F4xx_HAL_Driver/Src/stm32f4xx_hal_dma.c ****                       DMA_SxCR_PL    | DMA_SxCR_MSIZE  | DMA_SxCR_PSIZE  | \
 103              		.loc 1 207 0
 104 0012 184A     		ldr	r2, .L12
 105 0014 0A40     		ands	r2, r2, r1
 106              	.LVL7:
 213:../Drivers/STM32F4xx_HAL_Driver/Src/stm32f4xx_hal_dma.c ****           hdma->Init.PeriphInc           | hdma->Init.MemInc           |
 107              		.loc 1 213 0
 108 0016 4068     		ldr	r0, [r0, #4]
 109              	.LVL8:
 110 0018 9968     		ldr	r1, [r3, #8]
 111 001a 0843     		orrs	r0, r0, r1
 214:../Drivers/STM32F4xx_HAL_Driver/Src/stm32f4xx_hal_dma.c ****           hdma->Init.PeriphDataAlignment | hdma->Init.MemDataAlignment |
 112              		.loc 1 214 0
 113 001c D968     		ldr	r1, [r3, #12]
 213:../Drivers/STM32F4xx_HAL_Driver/Src/stm32f4xx_hal_dma.c ****           hdma->Init.PeriphInc           | hdma->Init.MemInc           |
 114              		.loc 1 213 0
 115 001e 0843     		orrs	r0, r0, r1
 214:../Drivers/STM32F4xx_HAL_Driver/Src/stm32f4xx_hal_dma.c ****           hdma->Init.PeriphDataAlignment | hdma->Init.MemDataAlignment |
 116              		.loc 1 214 0
 117 0020 1969     		ldr	r1, [r3, #16]
 118 0022 0843     		orrs	r0, r0, r1
 215:../Drivers/STM32F4xx_HAL_Driver/Src/stm32f4xx_hal_dma.c ****           hdma->Init.Mode                | hdma->Init.Priority;
 119              		.loc 1 215 0
 120 0024 5969     		ldr	r1, [r3, #20]
 214:../Drivers/STM32F4xx_HAL_Driver/Src/stm32f4xx_hal_dma.c ****           hdma->Init.PeriphDataAlignment | hdma->Init.MemDataAlignment |
 121              		.loc 1 214 0
 122 0026 0843     		orrs	r0, r0, r1
ARM GAS  /tmp/ccAPlzty.s 			page 19


 215:../Drivers/STM32F4xx_HAL_Driver/Src/stm32f4xx_hal_dma.c ****           hdma->Init.Mode                | hdma->Init.Priority;
 123              		.loc 1 215 0
 124 0028 9969     		ldr	r1, [r3, #24]
 125 002a 0843     		orrs	r0, r0, r1
 216:../Drivers/STM32F4xx_HAL_Driver/Src/stm32f4xx_hal_dma.c **** 
 126              		.loc 1 216 0
 127 002c D969     		ldr	r1, [r3, #28]
 215:../Drivers/STM32F4xx_HAL_Driver/Src/stm32f4xx_hal_dma.c ****           hdma->Init.Mode                | hdma->Init.Priority;
 128              		.loc 1 215 0
 129 002e 0843     		orrs	r0, r0, r1
 216:../Drivers/STM32F4xx_HAL_Driver/Src/stm32f4xx_hal_dma.c **** 
 130              		.loc 1 216 0
 131 0030 196A     		ldr	r1, [r3, #32]
 132 0032 0143     		orrs	r1, r1, r0
 213:../Drivers/STM32F4xx_HAL_Driver/Src/stm32f4xx_hal_dma.c ****           hdma->Init.PeriphInc           | hdma->Init.MemInc           |
 133              		.loc 1 213 0
 134 0034 0A43     		orrs	r2, r2, r1
 135              	.LVL9:
 219:../Drivers/STM32F4xx_HAL_Driver/Src/stm32f4xx_hal_dma.c ****   {
 136              		.loc 1 219 0
 137 0036 596A     		ldr	r1, [r3, #36]
 138 0038 0429     		cmp	r1, #4
 139 003a 03D1     		bne	.L7
 222:../Drivers/STM32F4xx_HAL_Driver/Src/stm32f4xx_hal_dma.c ****   }
 140              		.loc 1 222 0
 141 003c D86A     		ldr	r0, [r3, #44]
 142 003e 196B     		ldr	r1, [r3, #48]
 143 0040 0143     		orrs	r1, r1, r0
 144 0042 0A43     		orrs	r2, r2, r1
 145              	.LVL10:
 146              	.L7:
 226:../Drivers/STM32F4xx_HAL_Driver/Src/stm32f4xx_hal_dma.c **** 
 147              		.loc 1 226 0
 148 0044 2260     		str	r2, [r4]
 229:../Drivers/STM32F4xx_HAL_Driver/Src/stm32f4xx_hal_dma.c **** 
 149              		.loc 1 229 0
 150 0046 1968     		ldr	r1, [r3]
 151 0048 4A69     		ldr	r2, [r1, #20]
 152              	.LVL11:
 232:../Drivers/STM32F4xx_HAL_Driver/Src/stm32f4xx_hal_dma.c **** 
 153              		.loc 1 232 0
 154 004a 22F00702 		bic	r2, r2, #7
 155              	.LVL12:
 235:../Drivers/STM32F4xx_HAL_Driver/Src/stm32f4xx_hal_dma.c **** 
 156              		.loc 1 235 0
 157 004e 586A     		ldr	r0, [r3, #36]
 158 0050 0243     		orrs	r2, r2, r0
 159              	.LVL13:
 238:../Drivers/STM32F4xx_HAL_Driver/Src/stm32f4xx_hal_dma.c ****   {
 160              		.loc 1 238 0
 161 0052 0428     		cmp	r0, #4
 162 0054 01D1     		bne	.L8
 241:../Drivers/STM32F4xx_HAL_Driver/Src/stm32f4xx_hal_dma.c ****   }
 163              		.loc 1 241 0
 164 0056 986A     		ldr	r0, [r3, #40]
 165 0058 0243     		orrs	r2, r2, r0
 166              	.LVL14:
ARM GAS  /tmp/ccAPlzty.s 			page 20


 167              	.L8:
 245:../Drivers/STM32F4xx_HAL_Driver/Src/stm32f4xx_hal_dma.c **** 
 168              		.loc 1 245 0
 169 005a 4A61     		str	r2, [r1, #20]
 248:../Drivers/STM32F4xx_HAL_Driver/Src/stm32f4xx_hal_dma.c **** 
 170              		.loc 1 248 0
 171 005c 0020     		movs	r0, #0
 172 005e D864     		str	r0, [r3, #76]
 251:../Drivers/STM32F4xx_HAL_Driver/Src/stm32f4xx_hal_dma.c **** 
 173              		.loc 1 251 0
 174 0060 0122     		movs	r2, #1
 175              	.LVL15:
 176 0062 83F83520 		strb	r2, [r3, #53]
 253:../Drivers/STM32F4xx_HAL_Driver/Src/stm32f4xx_hal_dma.c **** }
 177              		.loc 1 253 0
 178 0066 01E0     		b	.L6
 179              	.LVL16:
 180              	.L9:
 181              	.LCFI3:
 182              		.cfi_def_cfa_offset 0
 183              		.cfi_restore 4
 177:../Drivers/STM32F4xx_HAL_Driver/Src/stm32f4xx_hal_dma.c ****   }
 184              		.loc 1 177 0
 185 0068 0120     		movs	r0, #1
 186              	.LVL17:
 187 006a 7047     		bx	lr
 188              	.LVL18:
 189              	.L6:
 190              	.LCFI4:
 191              		.cfi_def_cfa_offset 4
 192              		.cfi_offset 4, -4
 254:../Drivers/STM32F4xx_HAL_Driver/Src/stm32f4xx_hal_dma.c **** 
 193              		.loc 1 254 0
 194 006c 5DF8044B 		ldr	r4, [sp], #4
 195              	.LCFI5:
 196              		.cfi_restore 4
 197              		.cfi_def_cfa_offset 0
 198 0070 7047     		bx	lr
 199              	.L13:
 200 0072 00BF     		.align	2
 201              	.L12:
 202 0074 3F8014F0 		.word	-267091905
 203              		.cfi_endproc
 204              	.LFE112:
 206              		.section	.text.HAL_DMA_DeInit,"ax",%progbits
 207              		.align	2
 208              		.global	HAL_DMA_DeInit
 209              		.thumb
 210              		.thumb_func
 212              	HAL_DMA_DeInit:
 213              	.LFB113:
 263:../Drivers/STM32F4xx_HAL_Driver/Src/stm32f4xx_hal_dma.c ****   /* Check the DMA peripheral state */
 214              		.loc 1 263 0
 215              		.cfi_startproc
 216              		@ args = 0, pretend = 0, frame = 0
 217              		@ frame_needed = 0, uses_anonymous_args = 0
 218              		@ link register save eliminated.
ARM GAS  /tmp/ccAPlzty.s 			page 21


 219              	.LVL19:
 265:../Drivers/STM32F4xx_HAL_Driver/Src/stm32f4xx_hal_dma.c ****   {
 220              		.loc 1 265 0
 221 0000 0346     		mov	r3, r0
 222 0002 0028     		cmp	r0, #0
 223 0004 00F00887 		beq	.L281
 271:../Drivers/STM32F4xx_HAL_Driver/Src/stm32f4xx_hal_dma.c ****   {
 224              		.loc 1 271 0
 225 0008 90F83520 		ldrb	r2, [r0, #53]	@ zero_extendqisi2
 226 000c D2B2     		uxtb	r2, r2
 227 000e 022A     		cmp	r2, #2
 228 0010 00F00487 		beq	.L282
 277:../Drivers/STM32F4xx_HAL_Driver/Src/stm32f4xx_hal_dma.c **** 
 229              		.loc 1 277 0
 230 0014 0168     		ldr	r1, [r0]
 231 0016 0A68     		ldr	r2, [r1]
 232 0018 22F00102 		bic	r2, r2, #1
 233 001c 0A60     		str	r2, [r1]
 280:../Drivers/STM32F4xx_HAL_Driver/Src/stm32f4xx_hal_dma.c **** 
 234              		.loc 1 280 0
 235 001e 0168     		ldr	r1, [r0]
 236 0020 0022     		movs	r2, #0
 237 0022 0A60     		str	r2, [r1]
 283:../Drivers/STM32F4xx_HAL_Driver/Src/stm32f4xx_hal_dma.c **** 
 238              		.loc 1 283 0
 239 0024 0168     		ldr	r1, [r0]
 240 0026 4A60     		str	r2, [r1, #4]
 286:../Drivers/STM32F4xx_HAL_Driver/Src/stm32f4xx_hal_dma.c **** 
 241              		.loc 1 286 0
 242 0028 0168     		ldr	r1, [r0]
 243 002a 8A60     		str	r2, [r1, #8]
 289:../Drivers/STM32F4xx_HAL_Driver/Src/stm32f4xx_hal_dma.c **** 
 244              		.loc 1 289 0
 245 002c 0168     		ldr	r1, [r0]
 246 002e CA60     		str	r2, [r1, #12]
 292:../Drivers/STM32F4xx_HAL_Driver/Src/stm32f4xx_hal_dma.c **** 
 247              		.loc 1 292 0
 248 0030 0168     		ldr	r1, [r0]
 249 0032 0A61     		str	r2, [r1, #16]
 295:../Drivers/STM32F4xx_HAL_Driver/Src/stm32f4xx_hal_dma.c **** 
 250              		.loc 1 295 0
 251 0034 0268     		ldr	r2, [r0]
 252 0036 2121     		movs	r1, #33
 253 0038 5161     		str	r1, [r2, #20]
 298:../Drivers/STM32F4xx_HAL_Driver/Src/stm32f4xx_hal_dma.c ****   __HAL_DMA_CLEAR_FLAG(hdma, __HAL_DMA_GET_TC_FLAG_INDEX(hdma));
 254              		.loc 1 298 0
 255 003a 0268     		ldr	r2, [r0]
 256 003c AA49     		ldr	r1, .L523
 257 003e 8A42     		cmp	r2, r1
 258 0040 54D9     		bls	.L16
 298:../Drivers/STM32F4xx_HAL_Driver/Src/stm32f4xx_hal_dma.c ****   __HAL_DMA_CLEAR_FLAG(hdma, __HAL_DMA_GET_TC_FLAG_INDEX(hdma));
 259              		.loc 1 298 0 is_stmt 0 discriminator 1
 260 0042 A1F58961 		sub	r1, r1, #1096
 261 0046 8A42     		cmp	r2, r1
 262 0048 4CD0     		beq	.L283
 298:../Drivers/STM32F4xx_HAL_Driver/Src/stm32f4xx_hal_dma.c ****   __HAL_DMA_CLEAR_FLAG(hdma, __HAL_DMA_GET_TC_FLAG_INDEX(hdma));
 263              		.loc 1 298 0 discriminator 3
ARM GAS  /tmp/ccAPlzty.s 			page 22


 264 004a 01F58061 		add	r1, r1, #1024
 265 004e 8A42     		cmp	r2, r1
 266 0050 46D0     		beq	.L284
 298:../Drivers/STM32F4xx_HAL_Driver/Src/stm32f4xx_hal_dma.c ****   __HAL_DMA_CLEAR_FLAG(hdma, __HAL_DMA_GET_TC_FLAG_INDEX(hdma));
 267              		.loc 1 298 0 discriminator 5
 268 0052 A1F56871 		sub	r1, r1, #928
 269 0056 8A42     		cmp	r2, r1
 270 0058 40D0     		beq	.L285
 298:../Drivers/STM32F4xx_HAL_Driver/Src/stm32f4xx_hal_dma.c ****   __HAL_DMA_CLEAR_FLAG(hdma, __HAL_DMA_GET_TC_FLAG_INDEX(hdma));
 271              		.loc 1 298 0 discriminator 7
 272 005a 01F58061 		add	r1, r1, #1024
 273 005e 8A42     		cmp	r2, r1
 274 0060 3AD0     		beq	.L286
 298:../Drivers/STM32F4xx_HAL_Driver/Src/stm32f4xx_hal_dma.c ****   __HAL_DMA_CLEAR_FLAG(hdma, __HAL_DMA_GET_TC_FLAG_INDEX(hdma));
 275              		.loc 1 298 0 discriminator 9
 276 0062 A1F58961 		sub	r1, r1, #1096
 277 0066 8A42     		cmp	r2, r1
 278 0068 33D0     		beq	.L287
 298:../Drivers/STM32F4xx_HAL_Driver/Src/stm32f4xx_hal_dma.c ****   __HAL_DMA_CLEAR_FLAG(hdma, __HAL_DMA_GET_TC_FLAG_INDEX(hdma));
 279              		.loc 1 298 0 discriminator 11
 280 006a 01F58061 		add	r1, r1, #1024
 281 006e 8A42     		cmp	r2, r1
 282 0070 2CD0     		beq	.L288
 298:../Drivers/STM32F4xx_HAL_Driver/Src/stm32f4xx_hal_dma.c ****   __HAL_DMA_CLEAR_FLAG(hdma, __HAL_DMA_GET_TC_FLAG_INDEX(hdma));
 283              		.loc 1 298 0 discriminator 13
 284 0072 A1F56871 		sub	r1, r1, #928
 285 0076 8A42     		cmp	r2, r1
 286 0078 25D0     		beq	.L289
 298:../Drivers/STM32F4xx_HAL_Driver/Src/stm32f4xx_hal_dma.c ****   __HAL_DMA_CLEAR_FLAG(hdma, __HAL_DMA_GET_TC_FLAG_INDEX(hdma));
 287              		.loc 1 298 0 discriminator 15
 288 007a 01F58061 		add	r1, r1, #1024
 289 007e 8A42     		cmp	r2, r1
 290 0080 1ED0     		beq	.L290
 298:../Drivers/STM32F4xx_HAL_Driver/Src/stm32f4xx_hal_dma.c ****   __HAL_DMA_CLEAR_FLAG(hdma, __HAL_DMA_GET_TC_FLAG_INDEX(hdma));
 291              		.loc 1 298 0 discriminator 17
 292 0082 A1F58961 		sub	r1, r1, #1096
 293 0086 8A42     		cmp	r2, r1
 294 0088 17D0     		beq	.L291
 298:../Drivers/STM32F4xx_HAL_Driver/Src/stm32f4xx_hal_dma.c ****   __HAL_DMA_CLEAR_FLAG(hdma, __HAL_DMA_GET_TC_FLAG_INDEX(hdma));
 295              		.loc 1 298 0 discriminator 19
 296 008a 01F58061 		add	r1, r1, #1024
 297 008e 8A42     		cmp	r2, r1
 298 0090 10D0     		beq	.L292
 298:../Drivers/STM32F4xx_HAL_Driver/Src/stm32f4xx_hal_dma.c ****   __HAL_DMA_CLEAR_FLAG(hdma, __HAL_DMA_GET_TC_FLAG_INDEX(hdma));
 299              		.loc 1 298 0 discriminator 21
 300 0092 A1F56871 		sub	r1, r1, #928
 301 0096 8A42     		cmp	r2, r1
 302 0098 09D0     		beq	.L293
 298:../Drivers/STM32F4xx_HAL_Driver/Src/stm32f4xx_hal_dma.c ****   __HAL_DMA_CLEAR_FLAG(hdma, __HAL_DMA_GET_TC_FLAG_INDEX(hdma));
 303              		.loc 1 298 0 discriminator 23
 304 009a 01F58061 		add	r1, r1, #1024
 305 009e 8A42     		cmp	r2, r1
 306 00a0 02D1     		bne	.L294
 298:../Drivers/STM32F4xx_HAL_Driver/Src/stm32f4xx_hal_dma.c ****   __HAL_DMA_CLEAR_FLAG(hdma, __HAL_DMA_GET_TC_FLAG_INDEX(hdma));
 307              		.loc 1 298 0
 308 00a2 4FF48021 		mov	r1, #262144
 309 00a6 1EE0     		b	.L17
ARM GAS  /tmp/ccAPlzty.s 			page 23


 310              	.L294:
 311 00a8 4FF08071 		mov	r1, #16777216
 312 00ac 1BE0     		b	.L17
 313              	.L293:
 314 00ae 4FF48021 		mov	r1, #262144
 315 00b2 18E0     		b	.L17
 316              	.L292:
 317 00b4 4FF48021 		mov	r1, #262144
 318 00b8 15E0     		b	.L17
 319              	.L291:
 320 00ba 4FF48021 		mov	r1, #262144
 321 00be 12E0     		b	.L17
 322              	.L290:
 323 00c0 4FF48071 		mov	r1, #256
 324 00c4 0FE0     		b	.L17
 325              	.L289:
 326 00c6 4FF48071 		mov	r1, #256
 327 00ca 0CE0     		b	.L17
 328              	.L288:
 329 00cc 4FF48071 		mov	r1, #256
 330 00d0 09E0     		b	.L17
 331              	.L287:
 332 00d2 4FF48071 		mov	r1, #256
 333 00d6 06E0     		b	.L17
 334              	.L286:
 335 00d8 8449     		ldr	r1, .L523+4
 336 00da 04E0     		b	.L17
 337              	.L285:
 338 00dc 8349     		ldr	r1, .L523+4
 339 00de 02E0     		b	.L17
 340              	.L284:
 341 00e0 8249     		ldr	r1, .L523+4
 342 00e2 00E0     		b	.L17
 343              	.L283:
 344 00e4 8149     		ldr	r1, .L523+4
 345              	.L17:
 298:../Drivers/STM32F4xx_HAL_Driver/Src/stm32f4xx_hal_dma.c ****   __HAL_DMA_CLEAR_FLAG(hdma, __HAL_DMA_GET_TC_FLAG_INDEX(hdma));
 346              		.loc 1 298 0 discriminator 50
 347 00e6 824A     		ldr	r2, .L523+8
 348 00e8 D160     		str	r1, [r2, #12]
 349 00ea 0EE1     		b	.L29
 350              	.L16:
 298:../Drivers/STM32F4xx_HAL_Driver/Src/stm32f4xx_hal_dma.c ****   __HAL_DMA_CLEAR_FLAG(hdma, __HAL_DMA_GET_TC_FLAG_INDEX(hdma));
 351              		.loc 1 298 0 discriminator 2
 352 00ec 8149     		ldr	r1, .L523+12
 353 00ee 8A42     		cmp	r2, r1
 354 00f0 53D9     		bls	.L30
 298:../Drivers/STM32F4xx_HAL_Driver/Src/stm32f4xx_hal_dma.c ****   __HAL_DMA_CLEAR_FLAG(hdma, __HAL_DMA_GET_TC_FLAG_INDEX(hdma));
 355              		.loc 1 298 0 discriminator 51
 356 00f2 A839     		subs	r1, r1, #168
 357 00f4 8A42     		cmp	r2, r1
 358 00f6 4CD0     		beq	.L295
 298:../Drivers/STM32F4xx_HAL_Driver/Src/stm32f4xx_hal_dma.c ****   __HAL_DMA_CLEAR_FLAG(hdma, __HAL_DMA_GET_TC_FLAG_INDEX(hdma));
 359              		.loc 1 298 0 discriminator 53
 360 00f8 01F58061 		add	r1, r1, #1024
 361 00fc 8A42     		cmp	r2, r1
 362 00fe 46D0     		beq	.L296
ARM GAS  /tmp/ccAPlzty.s 			page 24


 298:../Drivers/STM32F4xx_HAL_Driver/Src/stm32f4xx_hal_dma.c ****   __HAL_DMA_CLEAR_FLAG(hdma, __HAL_DMA_GET_TC_FLAG_INDEX(hdma));
 363              		.loc 1 298 0 discriminator 55
 364 0100 A1F56871 		sub	r1, r1, #928
 365 0104 8A42     		cmp	r2, r1
 366 0106 40D0     		beq	.L297
 298:../Drivers/STM32F4xx_HAL_Driver/Src/stm32f4xx_hal_dma.c ****   __HAL_DMA_CLEAR_FLAG(hdma, __HAL_DMA_GET_TC_FLAG_INDEX(hdma));
 367              		.loc 1 298 0 discriminator 57
 368 0108 01F58061 		add	r1, r1, #1024
 369 010c 8A42     		cmp	r2, r1
 370 010e 3AD0     		beq	.L298
 298:../Drivers/STM32F4xx_HAL_Driver/Src/stm32f4xx_hal_dma.c ****   __HAL_DMA_CLEAR_FLAG(hdma, __HAL_DMA_GET_TC_FLAG_INDEX(hdma));
 371              		.loc 1 298 0 discriminator 59
 372 0110 A1F58961 		sub	r1, r1, #1096
 373 0114 8A42     		cmp	r2, r1
 374 0116 33D0     		beq	.L299
 298:../Drivers/STM32F4xx_HAL_Driver/Src/stm32f4xx_hal_dma.c ****   __HAL_DMA_CLEAR_FLAG(hdma, __HAL_DMA_GET_TC_FLAG_INDEX(hdma));
 375              		.loc 1 298 0 discriminator 61
 376 0118 01F58061 		add	r1, r1, #1024
 377 011c 8A42     		cmp	r2, r1
 378 011e 2CD0     		beq	.L300
 298:../Drivers/STM32F4xx_HAL_Driver/Src/stm32f4xx_hal_dma.c ****   __HAL_DMA_CLEAR_FLAG(hdma, __HAL_DMA_GET_TC_FLAG_INDEX(hdma));
 379              		.loc 1 298 0 discriminator 63
 380 0120 A1F56871 		sub	r1, r1, #928
 381 0124 8A42     		cmp	r2, r1
 382 0126 25D0     		beq	.L301
 298:../Drivers/STM32F4xx_HAL_Driver/Src/stm32f4xx_hal_dma.c ****   __HAL_DMA_CLEAR_FLAG(hdma, __HAL_DMA_GET_TC_FLAG_INDEX(hdma));
 383              		.loc 1 298 0 discriminator 65
 384 0128 01F58061 		add	r1, r1, #1024
 385 012c 8A42     		cmp	r2, r1
 386 012e 1ED0     		beq	.L302
 298:../Drivers/STM32F4xx_HAL_Driver/Src/stm32f4xx_hal_dma.c ****   __HAL_DMA_CLEAR_FLAG(hdma, __HAL_DMA_GET_TC_FLAG_INDEX(hdma));
 387              		.loc 1 298 0 discriminator 67
 388 0130 A1F58961 		sub	r1, r1, #1096
 389 0134 8A42     		cmp	r2, r1
 390 0136 17D0     		beq	.L303
 298:../Drivers/STM32F4xx_HAL_Driver/Src/stm32f4xx_hal_dma.c ****   __HAL_DMA_CLEAR_FLAG(hdma, __HAL_DMA_GET_TC_FLAG_INDEX(hdma));
 391              		.loc 1 298 0 discriminator 69
 392 0138 01F58061 		add	r1, r1, #1024
 393 013c 8A42     		cmp	r2, r1
 394 013e 10D0     		beq	.L304
 298:../Drivers/STM32F4xx_HAL_Driver/Src/stm32f4xx_hal_dma.c ****   __HAL_DMA_CLEAR_FLAG(hdma, __HAL_DMA_GET_TC_FLAG_INDEX(hdma));
 395              		.loc 1 298 0 discriminator 71
 396 0140 A1F56871 		sub	r1, r1, #928
 397 0144 8A42     		cmp	r2, r1
 398 0146 09D0     		beq	.L305
 298:../Drivers/STM32F4xx_HAL_Driver/Src/stm32f4xx_hal_dma.c ****   __HAL_DMA_CLEAR_FLAG(hdma, __HAL_DMA_GET_TC_FLAG_INDEX(hdma));
 399              		.loc 1 298 0 discriminator 73
 400 0148 01F58061 		add	r1, r1, #1024
 401 014c 8A42     		cmp	r2, r1
 402 014e 02D1     		bne	.L306
 298:../Drivers/STM32F4xx_HAL_Driver/Src/stm32f4xx_hal_dma.c ****   __HAL_DMA_CLEAR_FLAG(hdma, __HAL_DMA_GET_TC_FLAG_INDEX(hdma));
 403              		.loc 1 298 0
 404 0150 4FF48021 		mov	r1, #262144
 405 0154 1EE0     		b	.L31
 406              	.L306:
 407 0156 4FF08071 		mov	r1, #16777216
 408 015a 1BE0     		b	.L31
ARM GAS  /tmp/ccAPlzty.s 			page 25


 409              	.L305:
 410 015c 4FF48021 		mov	r1, #262144
 411 0160 18E0     		b	.L31
 412              	.L304:
 413 0162 4FF48021 		mov	r1, #262144
 414 0166 15E0     		b	.L31
 415              	.L303:
 416 0168 4FF48021 		mov	r1, #262144
 417 016c 12E0     		b	.L31
 418              	.L302:
 419 016e 4FF48071 		mov	r1, #256
 420 0172 0FE0     		b	.L31
 421              	.L301:
 422 0174 4FF48071 		mov	r1, #256
 423 0178 0CE0     		b	.L31
 424              	.L300:
 425 017a 4FF48071 		mov	r1, #256
 426 017e 09E0     		b	.L31
 427              	.L299:
 428 0180 4FF48071 		mov	r1, #256
 429 0184 06E0     		b	.L31
 430              	.L298:
 431 0186 5949     		ldr	r1, .L523+4
 432 0188 04E0     		b	.L31
 433              	.L297:
 434 018a 5849     		ldr	r1, .L523+4
 435 018c 02E0     		b	.L31
 436              	.L296:
 437 018e 5749     		ldr	r1, .L523+4
 438 0190 00E0     		b	.L31
 439              	.L295:
 440 0192 5649     		ldr	r1, .L523+4
 441              	.L31:
 298:../Drivers/STM32F4xx_HAL_Driver/Src/stm32f4xx_hal_dma.c ****   __HAL_DMA_CLEAR_FLAG(hdma, __HAL_DMA_GET_TC_FLAG_INDEX(hdma));
 442              		.loc 1 298 0 discriminator 100
 443 0194 564A     		ldr	r2, .L523+8
 444 0196 9160     		str	r1, [r2, #8]
 445 0198 B7E0     		b	.L29
 446              	.L30:
 298:../Drivers/STM32F4xx_HAL_Driver/Src/stm32f4xx_hal_dma.c ****   __HAL_DMA_CLEAR_FLAG(hdma, __HAL_DMA_GET_TC_FLAG_INDEX(hdma));
 447              		.loc 1 298 0 discriminator 52
 448 019a 5749     		ldr	r1, .L523+16
 449 019c 8A42     		cmp	r2, r1
 450 019e 53D9     		bls	.L43
 298:../Drivers/STM32F4xx_HAL_Driver/Src/stm32f4xx_hal_dma.c ****   __HAL_DMA_CLEAR_FLAG(hdma, __HAL_DMA_GET_TC_FLAG_INDEX(hdma));
 451              		.loc 1 298 0 discriminator 102
 452 01a0 4839     		subs	r1, r1, #72
 453 01a2 8A42     		cmp	r2, r1
 454 01a4 4CD0     		beq	.L307
 298:../Drivers/STM32F4xx_HAL_Driver/Src/stm32f4xx_hal_dma.c ****   __HAL_DMA_CLEAR_FLAG(hdma, __HAL_DMA_GET_TC_FLAG_INDEX(hdma));
 455              		.loc 1 298 0 discriminator 104
 456 01a6 01F58061 		add	r1, r1, #1024
 457 01aa 8A42     		cmp	r2, r1
 458 01ac 46D0     		beq	.L308
 298:../Drivers/STM32F4xx_HAL_Driver/Src/stm32f4xx_hal_dma.c ****   __HAL_DMA_CLEAR_FLAG(hdma, __HAL_DMA_GET_TC_FLAG_INDEX(hdma));
 459              		.loc 1 298 0 discriminator 106
 460 01ae A1F56871 		sub	r1, r1, #928
ARM GAS  /tmp/ccAPlzty.s 			page 26


 461 01b2 8A42     		cmp	r2, r1
 462 01b4 40D0     		beq	.L309
 298:../Drivers/STM32F4xx_HAL_Driver/Src/stm32f4xx_hal_dma.c ****   __HAL_DMA_CLEAR_FLAG(hdma, __HAL_DMA_GET_TC_FLAG_INDEX(hdma));
 463              		.loc 1 298 0 discriminator 108
 464 01b6 01F58061 		add	r1, r1, #1024
 465 01ba 8A42     		cmp	r2, r1
 466 01bc 3AD0     		beq	.L310
 298:../Drivers/STM32F4xx_HAL_Driver/Src/stm32f4xx_hal_dma.c ****   __HAL_DMA_CLEAR_FLAG(hdma, __HAL_DMA_GET_TC_FLAG_INDEX(hdma));
 467              		.loc 1 298 0 discriminator 110
 468 01be A1F58961 		sub	r1, r1, #1096
 469 01c2 8A42     		cmp	r2, r1
 470 01c4 33D0     		beq	.L311
 298:../Drivers/STM32F4xx_HAL_Driver/Src/stm32f4xx_hal_dma.c ****   __HAL_DMA_CLEAR_FLAG(hdma, __HAL_DMA_GET_TC_FLAG_INDEX(hdma));
 471              		.loc 1 298 0 discriminator 112
 472 01c6 01F58061 		add	r1, r1, #1024
 473 01ca 8A42     		cmp	r2, r1
 474 01cc 2CD0     		beq	.L312
 298:../Drivers/STM32F4xx_HAL_Driver/Src/stm32f4xx_hal_dma.c ****   __HAL_DMA_CLEAR_FLAG(hdma, __HAL_DMA_GET_TC_FLAG_INDEX(hdma));
 475              		.loc 1 298 0 discriminator 114
 476 01ce A1F56871 		sub	r1, r1, #928
 477 01d2 8A42     		cmp	r2, r1
 478 01d4 25D0     		beq	.L313
 298:../Drivers/STM32F4xx_HAL_Driver/Src/stm32f4xx_hal_dma.c ****   __HAL_DMA_CLEAR_FLAG(hdma, __HAL_DMA_GET_TC_FLAG_INDEX(hdma));
 479              		.loc 1 298 0 discriminator 116
 480 01d6 01F58061 		add	r1, r1, #1024
 481 01da 8A42     		cmp	r2, r1
 482 01dc 1ED0     		beq	.L314
 298:../Drivers/STM32F4xx_HAL_Driver/Src/stm32f4xx_hal_dma.c ****   __HAL_DMA_CLEAR_FLAG(hdma, __HAL_DMA_GET_TC_FLAG_INDEX(hdma));
 483              		.loc 1 298 0 discriminator 118
 484 01de A1F58961 		sub	r1, r1, #1096
 485 01e2 8A42     		cmp	r2, r1
 486 01e4 17D0     		beq	.L315
 298:../Drivers/STM32F4xx_HAL_Driver/Src/stm32f4xx_hal_dma.c ****   __HAL_DMA_CLEAR_FLAG(hdma, __HAL_DMA_GET_TC_FLAG_INDEX(hdma));
 487              		.loc 1 298 0 discriminator 120
 488 01e6 01F58061 		add	r1, r1, #1024
 489 01ea 8A42     		cmp	r2, r1
 490 01ec 10D0     		beq	.L316
 298:../Drivers/STM32F4xx_HAL_Driver/Src/stm32f4xx_hal_dma.c ****   __HAL_DMA_CLEAR_FLAG(hdma, __HAL_DMA_GET_TC_FLAG_INDEX(hdma));
 491              		.loc 1 298 0 discriminator 122
 492 01ee A1F56871 		sub	r1, r1, #928
 493 01f2 8A42     		cmp	r2, r1
 494 01f4 09D0     		beq	.L317
 298:../Drivers/STM32F4xx_HAL_Driver/Src/stm32f4xx_hal_dma.c ****   __HAL_DMA_CLEAR_FLAG(hdma, __HAL_DMA_GET_TC_FLAG_INDEX(hdma));
 495              		.loc 1 298 0 discriminator 124
 496 01f6 01F58061 		add	r1, r1, #1024
 497 01fa 8A42     		cmp	r2, r1
 498 01fc 02D1     		bne	.L318
 298:../Drivers/STM32F4xx_HAL_Driver/Src/stm32f4xx_hal_dma.c ****   __HAL_DMA_CLEAR_FLAG(hdma, __HAL_DMA_GET_TC_FLAG_INDEX(hdma));
 499              		.loc 1 298 0
 500 01fe 4FF48021 		mov	r1, #262144
 501 0202 1EE0     		b	.L44
 502              	.L318:
 503 0204 4FF08071 		mov	r1, #16777216
 504 0208 1BE0     		b	.L44
 505              	.L317:
 506 020a 4FF48021 		mov	r1, #262144
 507 020e 18E0     		b	.L44
ARM GAS  /tmp/ccAPlzty.s 			page 27


 508              	.L316:
 509 0210 4FF48021 		mov	r1, #262144
 510 0214 15E0     		b	.L44
 511              	.L315:
 512 0216 4FF48021 		mov	r1, #262144
 513 021a 12E0     		b	.L44
 514              	.L314:
 515 021c 4FF48071 		mov	r1, #256
 516 0220 0FE0     		b	.L44
 517              	.L313:
 518 0222 4FF48071 		mov	r1, #256
 519 0226 0CE0     		b	.L44
 520              	.L312:
 521 0228 4FF48071 		mov	r1, #256
 522 022c 09E0     		b	.L44
 523              	.L311:
 524 022e 4FF48071 		mov	r1, #256
 525 0232 06E0     		b	.L44
 526              	.L310:
 527 0234 2D49     		ldr	r1, .L523+4
 528 0236 04E0     		b	.L44
 529              	.L309:
 530 0238 2C49     		ldr	r1, .L523+4
 531 023a 02E0     		b	.L44
 532              	.L308:
 533 023c 2B49     		ldr	r1, .L523+4
 534 023e 00E0     		b	.L44
 535              	.L307:
 536 0240 2A49     		ldr	r1, .L523+4
 537              	.L44:
 298:../Drivers/STM32F4xx_HAL_Driver/Src/stm32f4xx_hal_dma.c ****   __HAL_DMA_CLEAR_FLAG(hdma, __HAL_DMA_GET_TC_FLAG_INDEX(hdma));
 538              		.loc 1 298 0 discriminator 151
 539 0242 2E4A     		ldr	r2, .L523+20
 540 0244 D160     		str	r1, [r2, #12]
 541 0246 60E0     		b	.L29
 542              	.L43:
 298:../Drivers/STM32F4xx_HAL_Driver/Src/stm32f4xx_hal_dma.c ****   __HAL_DMA_CLEAR_FLAG(hdma, __HAL_DMA_GET_TC_FLAG_INDEX(hdma));
 543              		.loc 1 298 0 discriminator 103
 544 0248 2D49     		ldr	r1, .L523+24
 545 024a 8A42     		cmp	r2, r1
 546 024c 5AD0     		beq	.L319
 298:../Drivers/STM32F4xx_HAL_Driver/Src/stm32f4xx_hal_dma.c ****   __HAL_DMA_CLEAR_FLAG(hdma, __HAL_DMA_GET_TC_FLAG_INDEX(hdma));
 547              		.loc 1 298 0 discriminator 153
 548 024e 01F58061 		add	r1, r1, #1024
 549 0252 8A42     		cmp	r2, r1
 550 0254 46D0     		beq	.L320
 298:../Drivers/STM32F4xx_HAL_Driver/Src/stm32f4xx_hal_dma.c ****   __HAL_DMA_CLEAR_FLAG(hdma, __HAL_DMA_GET_TC_FLAG_INDEX(hdma));
 551              		.loc 1 298 0 discriminator 155
 552 0256 A1F56871 		sub	r1, r1, #928
 553 025a 8A42     		cmp	r2, r1
 554 025c 40D0     		beq	.L321
 298:../Drivers/STM32F4xx_HAL_Driver/Src/stm32f4xx_hal_dma.c ****   __HAL_DMA_CLEAR_FLAG(hdma, __HAL_DMA_GET_TC_FLAG_INDEX(hdma));
 555              		.loc 1 298 0 discriminator 157
 556 025e 01F58061 		add	r1, r1, #1024
 557 0262 8A42     		cmp	r2, r1
 558 0264 3AD0     		beq	.L322
 298:../Drivers/STM32F4xx_HAL_Driver/Src/stm32f4xx_hal_dma.c ****   __HAL_DMA_CLEAR_FLAG(hdma, __HAL_DMA_GET_TC_FLAG_INDEX(hdma));
ARM GAS  /tmp/ccAPlzty.s 			page 28


 559              		.loc 1 298 0 discriminator 159
 560 0266 A1F58961 		sub	r1, r1, #1096
 561 026a 8A42     		cmp	r2, r1
 562 026c 33D0     		beq	.L323
 298:../Drivers/STM32F4xx_HAL_Driver/Src/stm32f4xx_hal_dma.c ****   __HAL_DMA_CLEAR_FLAG(hdma, __HAL_DMA_GET_TC_FLAG_INDEX(hdma));
 563              		.loc 1 298 0 discriminator 161
 564 026e 01F58061 		add	r1, r1, #1024
 565 0272 8A42     		cmp	r2, r1
 566 0274 2CD0     		beq	.L324
 298:../Drivers/STM32F4xx_HAL_Driver/Src/stm32f4xx_hal_dma.c ****   __HAL_DMA_CLEAR_FLAG(hdma, __HAL_DMA_GET_TC_FLAG_INDEX(hdma));
 567              		.loc 1 298 0 discriminator 163
 568 0276 A1F56871 		sub	r1, r1, #928
 569 027a 8A42     		cmp	r2, r1
 570 027c 25D0     		beq	.L325
 298:../Drivers/STM32F4xx_HAL_Driver/Src/stm32f4xx_hal_dma.c ****   __HAL_DMA_CLEAR_FLAG(hdma, __HAL_DMA_GET_TC_FLAG_INDEX(hdma));
 571              		.loc 1 298 0 discriminator 165
 572 027e 01F58061 		add	r1, r1, #1024
 573 0282 8A42     		cmp	r2, r1
 574 0284 1ED0     		beq	.L326
 298:../Drivers/STM32F4xx_HAL_Driver/Src/stm32f4xx_hal_dma.c ****   __HAL_DMA_CLEAR_FLAG(hdma, __HAL_DMA_GET_TC_FLAG_INDEX(hdma));
 575              		.loc 1 298 0 discriminator 167
 576 0286 A1F58961 		sub	r1, r1, #1096
 577 028a 8A42     		cmp	r2, r1
 578 028c 17D0     		beq	.L327
 298:../Drivers/STM32F4xx_HAL_Driver/Src/stm32f4xx_hal_dma.c ****   __HAL_DMA_CLEAR_FLAG(hdma, __HAL_DMA_GET_TC_FLAG_INDEX(hdma));
 579              		.loc 1 298 0 discriminator 169
 580 028e 01F58061 		add	r1, r1, #1024
 581 0292 8A42     		cmp	r2, r1
 582 0294 10D0     		beq	.L328
 298:../Drivers/STM32F4xx_HAL_Driver/Src/stm32f4xx_hal_dma.c ****   __HAL_DMA_CLEAR_FLAG(hdma, __HAL_DMA_GET_TC_FLAG_INDEX(hdma));
 583              		.loc 1 298 0 discriminator 171
 584 0296 A1F56871 		sub	r1, r1, #928
 585 029a 8A42     		cmp	r2, r1
 586 029c 09D0     		beq	.L329
 298:../Drivers/STM32F4xx_HAL_Driver/Src/stm32f4xx_hal_dma.c ****   __HAL_DMA_CLEAR_FLAG(hdma, __HAL_DMA_GET_TC_FLAG_INDEX(hdma));
 587              		.loc 1 298 0 discriminator 173
 588 029e 01F58061 		add	r1, r1, #1024
 589 02a2 8A42     		cmp	r2, r1
 590 02a4 02D1     		bne	.L330
 298:../Drivers/STM32F4xx_HAL_Driver/Src/stm32f4xx_hal_dma.c ****   __HAL_DMA_CLEAR_FLAG(hdma, __HAL_DMA_GET_TC_FLAG_INDEX(hdma));
 591              		.loc 1 298 0
 592 02a6 4FF48021 		mov	r1, #262144
 593 02aa 2CE0     		b	.L57
 594              	.L330:
 595 02ac 4FF08071 		mov	r1, #16777216
 596 02b0 29E0     		b	.L57
 597              	.L329:
 598 02b2 4FF48021 		mov	r1, #262144
 599 02b6 26E0     		b	.L57
 600              	.L328:
 601 02b8 4FF48021 		mov	r1, #262144
 602 02bc 23E0     		b	.L57
 603              	.L327:
 604 02be 4FF48021 		mov	r1, #262144
 605 02c2 20E0     		b	.L57
 606              	.L326:
 607 02c4 4FF48071 		mov	r1, #256
ARM GAS  /tmp/ccAPlzty.s 			page 29


 608 02c8 1DE0     		b	.L57
 609              	.L325:
 610 02ca 4FF48071 		mov	r1, #256
 611 02ce 1AE0     		b	.L57
 612              	.L324:
 613 02d0 4FF48071 		mov	r1, #256
 614 02d4 17E0     		b	.L57
 615              	.L323:
 616 02d6 4FF48071 		mov	r1, #256
 617 02da 14E0     		b	.L57
 618              	.L322:
 619 02dc 0349     		ldr	r1, .L523+4
 620 02de 12E0     		b	.L57
 621              	.L321:
 622 02e0 0249     		ldr	r1, .L523+4
 623 02e2 10E0     		b	.L57
 624              	.L320:
 625 02e4 0149     		ldr	r1, .L523+4
 626 02e6 0EE0     		b	.L57
 627              	.L524:
 628              		.align	2
 629              	.L523:
 630 02e8 58640240 		.word	1073898584
 631 02ec 04008000 		.word	8388612
 632 02f0 00640240 		.word	1073898496
 633 02f4 B8600240 		.word	1073897656
 634 02f8 58600240 		.word	1073897560
 635 02fc 00600240 		.word	1073897472
 636 0300 10600240 		.word	1073897488
 637              	.L319:
 638 0304 AC49     		ldr	r1, .L525
 639              	.L57:
 298:../Drivers/STM32F4xx_HAL_Driver/Src/stm32f4xx_hal_dma.c ****   __HAL_DMA_CLEAR_FLAG(hdma, __HAL_DMA_GET_TC_FLAG_INDEX(hdma));
 640              		.loc 1 298 0 discriminator 200
 641 0306 AD4A     		ldr	r2, .L525+4
 642 0308 9160     		str	r1, [r2, #8]
 643              	.L29:
 299:../Drivers/STM32F4xx_HAL_Driver/Src/stm32f4xx_hal_dma.c ****   __HAL_DMA_CLEAR_FLAG(hdma, __HAL_DMA_GET_TE_FLAG_INDEX(hdma));
 644              		.loc 1 299 0 is_stmt 1
 645 030a 1A68     		ldr	r2, [r3]
 646 030c AC49     		ldr	r1, .L525+8
 647 030e 8A42     		cmp	r2, r1
 648 0310 54D9     		bls	.L69
 299:../Drivers/STM32F4xx_HAL_Driver/Src/stm32f4xx_hal_dma.c ****   __HAL_DMA_CLEAR_FLAG(hdma, __HAL_DMA_GET_TE_FLAG_INDEX(hdma));
 649              		.loc 1 299 0 is_stmt 0 discriminator 1
 650 0312 A1F58961 		sub	r1, r1, #1096
 651 0316 8A42     		cmp	r2, r1
 652 0318 4CD0     		beq	.L331
 299:../Drivers/STM32F4xx_HAL_Driver/Src/stm32f4xx_hal_dma.c ****   __HAL_DMA_CLEAR_FLAG(hdma, __HAL_DMA_GET_TE_FLAG_INDEX(hdma));
 653              		.loc 1 299 0 discriminator 3
 654 031a 01F58061 		add	r1, r1, #1024
 655 031e 8A42     		cmp	r2, r1
 656 0320 46D0     		beq	.L332
 299:../Drivers/STM32F4xx_HAL_Driver/Src/stm32f4xx_hal_dma.c ****   __HAL_DMA_CLEAR_FLAG(hdma, __HAL_DMA_GET_TE_FLAG_INDEX(hdma));
 657              		.loc 1 299 0 discriminator 5
 658 0322 A1F56871 		sub	r1, r1, #928
 659 0326 8A42     		cmp	r2, r1
ARM GAS  /tmp/ccAPlzty.s 			page 30


 660 0328 40D0     		beq	.L333
 299:../Drivers/STM32F4xx_HAL_Driver/Src/stm32f4xx_hal_dma.c ****   __HAL_DMA_CLEAR_FLAG(hdma, __HAL_DMA_GET_TE_FLAG_INDEX(hdma));
 661              		.loc 1 299 0 discriminator 7
 662 032a 01F58061 		add	r1, r1, #1024
 663 032e 8A42     		cmp	r2, r1
 664 0330 3AD0     		beq	.L334
 299:../Drivers/STM32F4xx_HAL_Driver/Src/stm32f4xx_hal_dma.c ****   __HAL_DMA_CLEAR_FLAG(hdma, __HAL_DMA_GET_TE_FLAG_INDEX(hdma));
 665              		.loc 1 299 0 discriminator 9
 666 0332 A1F58961 		sub	r1, r1, #1096
 667 0336 8A42     		cmp	r2, r1
 668 0338 33D0     		beq	.L335
 299:../Drivers/STM32F4xx_HAL_Driver/Src/stm32f4xx_hal_dma.c ****   __HAL_DMA_CLEAR_FLAG(hdma, __HAL_DMA_GET_TE_FLAG_INDEX(hdma));
 669              		.loc 1 299 0 discriminator 11
 670 033a 01F58061 		add	r1, r1, #1024
 671 033e 8A42     		cmp	r2, r1
 672 0340 2CD0     		beq	.L336
 299:../Drivers/STM32F4xx_HAL_Driver/Src/stm32f4xx_hal_dma.c ****   __HAL_DMA_CLEAR_FLAG(hdma, __HAL_DMA_GET_TE_FLAG_INDEX(hdma));
 673              		.loc 1 299 0 discriminator 13
 674 0342 A1F56871 		sub	r1, r1, #928
 675 0346 8A42     		cmp	r2, r1
 676 0348 25D0     		beq	.L337
 299:../Drivers/STM32F4xx_HAL_Driver/Src/stm32f4xx_hal_dma.c ****   __HAL_DMA_CLEAR_FLAG(hdma, __HAL_DMA_GET_TE_FLAG_INDEX(hdma));
 677              		.loc 1 299 0 discriminator 15
 678 034a 01F58061 		add	r1, r1, #1024
 679 034e 8A42     		cmp	r2, r1
 680 0350 1ED0     		beq	.L338
 299:../Drivers/STM32F4xx_HAL_Driver/Src/stm32f4xx_hal_dma.c ****   __HAL_DMA_CLEAR_FLAG(hdma, __HAL_DMA_GET_TE_FLAG_INDEX(hdma));
 681              		.loc 1 299 0 discriminator 17
 682 0352 A1F58961 		sub	r1, r1, #1096
 683 0356 8A42     		cmp	r2, r1
 684 0358 17D0     		beq	.L339
 299:../Drivers/STM32F4xx_HAL_Driver/Src/stm32f4xx_hal_dma.c ****   __HAL_DMA_CLEAR_FLAG(hdma, __HAL_DMA_GET_TE_FLAG_INDEX(hdma));
 685              		.loc 1 299 0 discriminator 19
 686 035a 01F58061 		add	r1, r1, #1024
 687 035e 8A42     		cmp	r2, r1
 688 0360 10D0     		beq	.L340
 299:../Drivers/STM32F4xx_HAL_Driver/Src/stm32f4xx_hal_dma.c ****   __HAL_DMA_CLEAR_FLAG(hdma, __HAL_DMA_GET_TE_FLAG_INDEX(hdma));
 689              		.loc 1 299 0 discriminator 21
 690 0362 A1F56871 		sub	r1, r1, #928
 691 0366 8A42     		cmp	r2, r1
 692 0368 09D0     		beq	.L341
 299:../Drivers/STM32F4xx_HAL_Driver/Src/stm32f4xx_hal_dma.c ****   __HAL_DMA_CLEAR_FLAG(hdma, __HAL_DMA_GET_TE_FLAG_INDEX(hdma));
 693              		.loc 1 299 0 discriminator 23
 694 036a 01F58061 		add	r1, r1, #1024
 695 036e 8A42     		cmp	r2, r1
 696 0370 02D1     		bne	.L342
 299:../Drivers/STM32F4xx_HAL_Driver/Src/stm32f4xx_hal_dma.c ****   __HAL_DMA_CLEAR_FLAG(hdma, __HAL_DMA_GET_TE_FLAG_INDEX(hdma));
 697              		.loc 1 299 0
 698 0372 4FF40011 		mov	r1, #2097152
 699 0376 1EE0     		b	.L70
 700              	.L342:
 701 0378 4FF00061 		mov	r1, #134217728
 702 037c 1BE0     		b	.L70
 703              	.L341:
 704 037e 4FF40011 		mov	r1, #2097152
 705 0382 18E0     		b	.L70
 706              	.L340:
ARM GAS  /tmp/ccAPlzty.s 			page 31


 707 0384 4FF40011 		mov	r1, #2097152
 708 0388 15E0     		b	.L70
 709              	.L339:
 710 038a 4FF40011 		mov	r1, #2097152
 711 038e 12E0     		b	.L70
 712              	.L338:
 713 0390 4FF40061 		mov	r1, #2048
 714 0394 0FE0     		b	.L70
 715              	.L337:
 716 0396 4FF40061 		mov	r1, #2048
 717 039a 0CE0     		b	.L70
 718              	.L336:
 719 039c 4FF40061 		mov	r1, #2048
 720 03a0 09E0     		b	.L70
 721              	.L335:
 722 03a2 4FF40061 		mov	r1, #2048
 723 03a6 06E0     		b	.L70
 724              	.L334:
 725 03a8 2021     		movs	r1, #32
 726 03aa 04E0     		b	.L70
 727              	.L333:
 728 03ac 2021     		movs	r1, #32
 729 03ae 02E0     		b	.L70
 730              	.L332:
 731 03b0 2021     		movs	r1, #32
 732 03b2 00E0     		b	.L70
 733              	.L331:
 734 03b4 2021     		movs	r1, #32
 735              	.L70:
 299:../Drivers/STM32F4xx_HAL_Driver/Src/stm32f4xx_hal_dma.c ****   __HAL_DMA_CLEAR_FLAG(hdma, __HAL_DMA_GET_TE_FLAG_INDEX(hdma));
 736              		.loc 1 299 0 discriminator 50
 737 03b6 834A     		ldr	r2, .L525+12
 738 03b8 D160     		str	r1, [r2, #12]
 739 03ba 0EE1     		b	.L82
 740              	.L69:
 299:../Drivers/STM32F4xx_HAL_Driver/Src/stm32f4xx_hal_dma.c ****   __HAL_DMA_CLEAR_FLAG(hdma, __HAL_DMA_GET_TE_FLAG_INDEX(hdma));
 741              		.loc 1 299 0 discriminator 2
 742 03bc 8249     		ldr	r1, .L525+16
 743 03be 8A42     		cmp	r2, r1
 744 03c0 53D9     		bls	.L83
 299:../Drivers/STM32F4xx_HAL_Driver/Src/stm32f4xx_hal_dma.c ****   __HAL_DMA_CLEAR_FLAG(hdma, __HAL_DMA_GET_TE_FLAG_INDEX(hdma));
 745              		.loc 1 299 0 discriminator 51
 746 03c2 A839     		subs	r1, r1, #168
 747 03c4 8A42     		cmp	r2, r1
 748 03c6 4CD0     		beq	.L343
 299:../Drivers/STM32F4xx_HAL_Driver/Src/stm32f4xx_hal_dma.c ****   __HAL_DMA_CLEAR_FLAG(hdma, __HAL_DMA_GET_TE_FLAG_INDEX(hdma));
 749              		.loc 1 299 0 discriminator 53
 750 03c8 01F58061 		add	r1, r1, #1024
 751 03cc 8A42     		cmp	r2, r1
 752 03ce 46D0     		beq	.L344
 299:../Drivers/STM32F4xx_HAL_Driver/Src/stm32f4xx_hal_dma.c ****   __HAL_DMA_CLEAR_FLAG(hdma, __HAL_DMA_GET_TE_FLAG_INDEX(hdma));
 753              		.loc 1 299 0 discriminator 55
 754 03d0 A1F56871 		sub	r1, r1, #928
 755 03d4 8A42     		cmp	r2, r1
 756 03d6 40D0     		beq	.L345
 299:../Drivers/STM32F4xx_HAL_Driver/Src/stm32f4xx_hal_dma.c ****   __HAL_DMA_CLEAR_FLAG(hdma, __HAL_DMA_GET_TE_FLAG_INDEX(hdma));
 757              		.loc 1 299 0 discriminator 57
ARM GAS  /tmp/ccAPlzty.s 			page 32


 758 03d8 01F58061 		add	r1, r1, #1024
 759 03dc 8A42     		cmp	r2, r1
 760 03de 3AD0     		beq	.L346
 299:../Drivers/STM32F4xx_HAL_Driver/Src/stm32f4xx_hal_dma.c ****   __HAL_DMA_CLEAR_FLAG(hdma, __HAL_DMA_GET_TE_FLAG_INDEX(hdma));
 761              		.loc 1 299 0 discriminator 59
 762 03e0 A1F58961 		sub	r1, r1, #1096
 763 03e4 8A42     		cmp	r2, r1
 764 03e6 33D0     		beq	.L347
 299:../Drivers/STM32F4xx_HAL_Driver/Src/stm32f4xx_hal_dma.c ****   __HAL_DMA_CLEAR_FLAG(hdma, __HAL_DMA_GET_TE_FLAG_INDEX(hdma));
 765              		.loc 1 299 0 discriminator 61
 766 03e8 01F58061 		add	r1, r1, #1024
 767 03ec 8A42     		cmp	r2, r1
 768 03ee 2CD0     		beq	.L348
 299:../Drivers/STM32F4xx_HAL_Driver/Src/stm32f4xx_hal_dma.c ****   __HAL_DMA_CLEAR_FLAG(hdma, __HAL_DMA_GET_TE_FLAG_INDEX(hdma));
 769              		.loc 1 299 0 discriminator 63
 770 03f0 A1F56871 		sub	r1, r1, #928
 771 03f4 8A42     		cmp	r2, r1
 772 03f6 25D0     		beq	.L349
 299:../Drivers/STM32F4xx_HAL_Driver/Src/stm32f4xx_hal_dma.c ****   __HAL_DMA_CLEAR_FLAG(hdma, __HAL_DMA_GET_TE_FLAG_INDEX(hdma));
 773              		.loc 1 299 0 discriminator 65
 774 03f8 01F58061 		add	r1, r1, #1024
 775 03fc 8A42     		cmp	r2, r1
 776 03fe 1ED0     		beq	.L350
 299:../Drivers/STM32F4xx_HAL_Driver/Src/stm32f4xx_hal_dma.c ****   __HAL_DMA_CLEAR_FLAG(hdma, __HAL_DMA_GET_TE_FLAG_INDEX(hdma));
 777              		.loc 1 299 0 discriminator 67
 778 0400 A1F58961 		sub	r1, r1, #1096
 779 0404 8A42     		cmp	r2, r1
 780 0406 17D0     		beq	.L351
 299:../Drivers/STM32F4xx_HAL_Driver/Src/stm32f4xx_hal_dma.c ****   __HAL_DMA_CLEAR_FLAG(hdma, __HAL_DMA_GET_TE_FLAG_INDEX(hdma));
 781              		.loc 1 299 0 discriminator 69
 782 0408 01F58061 		add	r1, r1, #1024
 783 040c 8A42     		cmp	r2, r1
 784 040e 10D0     		beq	.L352
 299:../Drivers/STM32F4xx_HAL_Driver/Src/stm32f4xx_hal_dma.c ****   __HAL_DMA_CLEAR_FLAG(hdma, __HAL_DMA_GET_TE_FLAG_INDEX(hdma));
 785              		.loc 1 299 0 discriminator 71
 786 0410 A1F56871 		sub	r1, r1, #928
 787 0414 8A42     		cmp	r2, r1
 788 0416 09D0     		beq	.L353
 299:../Drivers/STM32F4xx_HAL_Driver/Src/stm32f4xx_hal_dma.c ****   __HAL_DMA_CLEAR_FLAG(hdma, __HAL_DMA_GET_TE_FLAG_INDEX(hdma));
 789              		.loc 1 299 0 discriminator 73
 790 0418 01F58061 		add	r1, r1, #1024
 791 041c 8A42     		cmp	r2, r1
 792 041e 02D1     		bne	.L354
 299:../Drivers/STM32F4xx_HAL_Driver/Src/stm32f4xx_hal_dma.c ****   __HAL_DMA_CLEAR_FLAG(hdma, __HAL_DMA_GET_TE_FLAG_INDEX(hdma));
 793              		.loc 1 299 0
 794 0420 4FF40011 		mov	r1, #2097152
 795 0424 1EE0     		b	.L84
 796              	.L354:
 797 0426 4FF00061 		mov	r1, #134217728
 798 042a 1BE0     		b	.L84
 799              	.L353:
 800 042c 4FF40011 		mov	r1, #2097152
 801 0430 18E0     		b	.L84
 802              	.L352:
 803 0432 4FF40011 		mov	r1, #2097152
 804 0436 15E0     		b	.L84
 805              	.L351:
ARM GAS  /tmp/ccAPlzty.s 			page 33


 806 0438 4FF40011 		mov	r1, #2097152
 807 043c 12E0     		b	.L84
 808              	.L350:
 809 043e 4FF40061 		mov	r1, #2048
 810 0442 0FE0     		b	.L84
 811              	.L349:
 812 0444 4FF40061 		mov	r1, #2048
 813 0448 0CE0     		b	.L84
 814              	.L348:
 815 044a 4FF40061 		mov	r1, #2048
 816 044e 09E0     		b	.L84
 817              	.L347:
 818 0450 4FF40061 		mov	r1, #2048
 819 0454 06E0     		b	.L84
 820              	.L346:
 821 0456 2021     		movs	r1, #32
 822 0458 04E0     		b	.L84
 823              	.L345:
 824 045a 2021     		movs	r1, #32
 825 045c 02E0     		b	.L84
 826              	.L344:
 827 045e 2021     		movs	r1, #32
 828 0460 00E0     		b	.L84
 829              	.L343:
 830 0462 2021     		movs	r1, #32
 831              	.L84:
 299:../Drivers/STM32F4xx_HAL_Driver/Src/stm32f4xx_hal_dma.c ****   __HAL_DMA_CLEAR_FLAG(hdma, __HAL_DMA_GET_TE_FLAG_INDEX(hdma));
 832              		.loc 1 299 0 discriminator 100
 833 0464 574A     		ldr	r2, .L525+12
 834 0466 9160     		str	r1, [r2, #8]
 835 0468 B7E0     		b	.L82
 836              	.L83:
 299:../Drivers/STM32F4xx_HAL_Driver/Src/stm32f4xx_hal_dma.c ****   __HAL_DMA_CLEAR_FLAG(hdma, __HAL_DMA_GET_TE_FLAG_INDEX(hdma));
 837              		.loc 1 299 0 discriminator 52
 838 046a 5849     		ldr	r1, .L525+20
 839 046c 8A42     		cmp	r2, r1
 840 046e 53D9     		bls	.L96
 299:../Drivers/STM32F4xx_HAL_Driver/Src/stm32f4xx_hal_dma.c ****   __HAL_DMA_CLEAR_FLAG(hdma, __HAL_DMA_GET_TE_FLAG_INDEX(hdma));
 841              		.loc 1 299 0 discriminator 102
 842 0470 4839     		subs	r1, r1, #72
 843 0472 8A42     		cmp	r2, r1
 844 0474 4CD0     		beq	.L355
 299:../Drivers/STM32F4xx_HAL_Driver/Src/stm32f4xx_hal_dma.c ****   __HAL_DMA_CLEAR_FLAG(hdma, __HAL_DMA_GET_TE_FLAG_INDEX(hdma));
 845              		.loc 1 299 0 discriminator 104
 846 0476 01F58061 		add	r1, r1, #1024
 847 047a 8A42     		cmp	r2, r1
 848 047c 46D0     		beq	.L356
 299:../Drivers/STM32F4xx_HAL_Driver/Src/stm32f4xx_hal_dma.c ****   __HAL_DMA_CLEAR_FLAG(hdma, __HAL_DMA_GET_TE_FLAG_INDEX(hdma));
 849              		.loc 1 299 0 discriminator 106
 850 047e A1F56871 		sub	r1, r1, #928
 851 0482 8A42     		cmp	r2, r1
 852 0484 40D0     		beq	.L357
 299:../Drivers/STM32F4xx_HAL_Driver/Src/stm32f4xx_hal_dma.c ****   __HAL_DMA_CLEAR_FLAG(hdma, __HAL_DMA_GET_TE_FLAG_INDEX(hdma));
 853              		.loc 1 299 0 discriminator 108
 854 0486 01F58061 		add	r1, r1, #1024
 855 048a 8A42     		cmp	r2, r1
 856 048c 3AD0     		beq	.L358
ARM GAS  /tmp/ccAPlzty.s 			page 34


 299:../Drivers/STM32F4xx_HAL_Driver/Src/stm32f4xx_hal_dma.c ****   __HAL_DMA_CLEAR_FLAG(hdma, __HAL_DMA_GET_TE_FLAG_INDEX(hdma));
 857              		.loc 1 299 0 discriminator 110
 858 048e A1F58961 		sub	r1, r1, #1096
 859 0492 8A42     		cmp	r2, r1
 860 0494 33D0     		beq	.L359
 299:../Drivers/STM32F4xx_HAL_Driver/Src/stm32f4xx_hal_dma.c ****   __HAL_DMA_CLEAR_FLAG(hdma, __HAL_DMA_GET_TE_FLAG_INDEX(hdma));
 861              		.loc 1 299 0 discriminator 112
 862 0496 01F58061 		add	r1, r1, #1024
 863 049a 8A42     		cmp	r2, r1
 864 049c 2CD0     		beq	.L360
 299:../Drivers/STM32F4xx_HAL_Driver/Src/stm32f4xx_hal_dma.c ****   __HAL_DMA_CLEAR_FLAG(hdma, __HAL_DMA_GET_TE_FLAG_INDEX(hdma));
 865              		.loc 1 299 0 discriminator 114
 866 049e A1F56871 		sub	r1, r1, #928
 867 04a2 8A42     		cmp	r2, r1
 868 04a4 25D0     		beq	.L361
 299:../Drivers/STM32F4xx_HAL_Driver/Src/stm32f4xx_hal_dma.c ****   __HAL_DMA_CLEAR_FLAG(hdma, __HAL_DMA_GET_TE_FLAG_INDEX(hdma));
 869              		.loc 1 299 0 discriminator 116
 870 04a6 01F58061 		add	r1, r1, #1024
 871 04aa 8A42     		cmp	r2, r1
 872 04ac 1ED0     		beq	.L362
 299:../Drivers/STM32F4xx_HAL_Driver/Src/stm32f4xx_hal_dma.c ****   __HAL_DMA_CLEAR_FLAG(hdma, __HAL_DMA_GET_TE_FLAG_INDEX(hdma));
 873              		.loc 1 299 0 discriminator 118
 874 04ae A1F58961 		sub	r1, r1, #1096
 875 04b2 8A42     		cmp	r2, r1
 876 04b4 17D0     		beq	.L363
 299:../Drivers/STM32F4xx_HAL_Driver/Src/stm32f4xx_hal_dma.c ****   __HAL_DMA_CLEAR_FLAG(hdma, __HAL_DMA_GET_TE_FLAG_INDEX(hdma));
 877              		.loc 1 299 0 discriminator 120
 878 04b6 01F58061 		add	r1, r1, #1024
 879 04ba 8A42     		cmp	r2, r1
 880 04bc 10D0     		beq	.L364
 299:../Drivers/STM32F4xx_HAL_Driver/Src/stm32f4xx_hal_dma.c ****   __HAL_DMA_CLEAR_FLAG(hdma, __HAL_DMA_GET_TE_FLAG_INDEX(hdma));
 881              		.loc 1 299 0 discriminator 122
 882 04be A1F56871 		sub	r1, r1, #928
 883 04c2 8A42     		cmp	r2, r1
 884 04c4 09D0     		beq	.L365
 299:../Drivers/STM32F4xx_HAL_Driver/Src/stm32f4xx_hal_dma.c ****   __HAL_DMA_CLEAR_FLAG(hdma, __HAL_DMA_GET_TE_FLAG_INDEX(hdma));
 885              		.loc 1 299 0 discriminator 124
 886 04c6 01F58061 		add	r1, r1, #1024
 887 04ca 8A42     		cmp	r2, r1
 888 04cc 02D1     		bne	.L366
 299:../Drivers/STM32F4xx_HAL_Driver/Src/stm32f4xx_hal_dma.c ****   __HAL_DMA_CLEAR_FLAG(hdma, __HAL_DMA_GET_TE_FLAG_INDEX(hdma));
 889              		.loc 1 299 0
 890 04ce 4FF40011 		mov	r1, #2097152
 891 04d2 1EE0     		b	.L97
 892              	.L366:
 893 04d4 4FF00061 		mov	r1, #134217728
 894 04d8 1BE0     		b	.L97
 895              	.L365:
 896 04da 4FF40011 		mov	r1, #2097152
 897 04de 18E0     		b	.L97
 898              	.L364:
 899 04e0 4FF40011 		mov	r1, #2097152
 900 04e4 15E0     		b	.L97
 901              	.L363:
 902 04e6 4FF40011 		mov	r1, #2097152
 903 04ea 12E0     		b	.L97
 904              	.L362:
ARM GAS  /tmp/ccAPlzty.s 			page 35


 905 04ec 4FF40061 		mov	r1, #2048
 906 04f0 0FE0     		b	.L97
 907              	.L361:
 908 04f2 4FF40061 		mov	r1, #2048
 909 04f6 0CE0     		b	.L97
 910              	.L360:
 911 04f8 4FF40061 		mov	r1, #2048
 912 04fc 09E0     		b	.L97
 913              	.L359:
 914 04fe 4FF40061 		mov	r1, #2048
 915 0502 06E0     		b	.L97
 916              	.L358:
 917 0504 2021     		movs	r1, #32
 918 0506 04E0     		b	.L97
 919              	.L357:
 920 0508 2021     		movs	r1, #32
 921 050a 02E0     		b	.L97
 922              	.L356:
 923 050c 2021     		movs	r1, #32
 924 050e 00E0     		b	.L97
 925              	.L355:
 926 0510 2021     		movs	r1, #32
 927              	.L97:
 299:../Drivers/STM32F4xx_HAL_Driver/Src/stm32f4xx_hal_dma.c ****   __HAL_DMA_CLEAR_FLAG(hdma, __HAL_DMA_GET_TE_FLAG_INDEX(hdma));
 928              		.loc 1 299 0 discriminator 151
 929 0512 2A4A     		ldr	r2, .L525+4
 930 0514 D160     		str	r1, [r2, #12]
 931 0516 60E0     		b	.L82
 932              	.L96:
 299:../Drivers/STM32F4xx_HAL_Driver/Src/stm32f4xx_hal_dma.c ****   __HAL_DMA_CLEAR_FLAG(hdma, __HAL_DMA_GET_TE_FLAG_INDEX(hdma));
 933              		.loc 1 299 0 discriminator 103
 934 0518 2D49     		ldr	r1, .L525+24
 935 051a 8A42     		cmp	r2, r1
 936 051c 5AD0     		beq	.L367
 299:../Drivers/STM32F4xx_HAL_Driver/Src/stm32f4xx_hal_dma.c ****   __HAL_DMA_CLEAR_FLAG(hdma, __HAL_DMA_GET_TE_FLAG_INDEX(hdma));
 937              		.loc 1 299 0 discriminator 153
 938 051e 01F58061 		add	r1, r1, #1024
 939 0522 8A42     		cmp	r2, r1
 940 0524 46D0     		beq	.L368
 299:../Drivers/STM32F4xx_HAL_Driver/Src/stm32f4xx_hal_dma.c ****   __HAL_DMA_CLEAR_FLAG(hdma, __HAL_DMA_GET_TE_FLAG_INDEX(hdma));
 941              		.loc 1 299 0 discriminator 155
 942 0526 A1F56871 		sub	r1, r1, #928
 943 052a 8A42     		cmp	r2, r1
 944 052c 40D0     		beq	.L369
 299:../Drivers/STM32F4xx_HAL_Driver/Src/stm32f4xx_hal_dma.c ****   __HAL_DMA_CLEAR_FLAG(hdma, __HAL_DMA_GET_TE_FLAG_INDEX(hdma));
 945              		.loc 1 299 0 discriminator 157
 946 052e 01F58061 		add	r1, r1, #1024
 947 0532 8A42     		cmp	r2, r1
 948 0534 3AD0     		beq	.L370
 299:../Drivers/STM32F4xx_HAL_Driver/Src/stm32f4xx_hal_dma.c ****   __HAL_DMA_CLEAR_FLAG(hdma, __HAL_DMA_GET_TE_FLAG_INDEX(hdma));
 949              		.loc 1 299 0 discriminator 159
 950 0536 A1F58961 		sub	r1, r1, #1096
 951 053a 8A42     		cmp	r2, r1
 952 053c 33D0     		beq	.L371
 299:../Drivers/STM32F4xx_HAL_Driver/Src/stm32f4xx_hal_dma.c ****   __HAL_DMA_CLEAR_FLAG(hdma, __HAL_DMA_GET_TE_FLAG_INDEX(hdma));
 953              		.loc 1 299 0 discriminator 161
 954 053e 01F58061 		add	r1, r1, #1024
ARM GAS  /tmp/ccAPlzty.s 			page 36


 955 0542 8A42     		cmp	r2, r1
 956 0544 2CD0     		beq	.L372
 299:../Drivers/STM32F4xx_HAL_Driver/Src/stm32f4xx_hal_dma.c ****   __HAL_DMA_CLEAR_FLAG(hdma, __HAL_DMA_GET_TE_FLAG_INDEX(hdma));
 957              		.loc 1 299 0 discriminator 163
 958 0546 A1F56871 		sub	r1, r1, #928
 959 054a 8A42     		cmp	r2, r1
 960 054c 25D0     		beq	.L373
 299:../Drivers/STM32F4xx_HAL_Driver/Src/stm32f4xx_hal_dma.c ****   __HAL_DMA_CLEAR_FLAG(hdma, __HAL_DMA_GET_TE_FLAG_INDEX(hdma));
 961              		.loc 1 299 0 discriminator 165
 962 054e 01F58061 		add	r1, r1, #1024
 963 0552 8A42     		cmp	r2, r1
 964 0554 1ED0     		beq	.L374
 299:../Drivers/STM32F4xx_HAL_Driver/Src/stm32f4xx_hal_dma.c ****   __HAL_DMA_CLEAR_FLAG(hdma, __HAL_DMA_GET_TE_FLAG_INDEX(hdma));
 965              		.loc 1 299 0 discriminator 167
 966 0556 A1F58961 		sub	r1, r1, #1096
 967 055a 8A42     		cmp	r2, r1
 968 055c 17D0     		beq	.L375
 299:../Drivers/STM32F4xx_HAL_Driver/Src/stm32f4xx_hal_dma.c ****   __HAL_DMA_CLEAR_FLAG(hdma, __HAL_DMA_GET_TE_FLAG_INDEX(hdma));
 969              		.loc 1 299 0 discriminator 169
 970 055e 01F58061 		add	r1, r1, #1024
 971 0562 8A42     		cmp	r2, r1
 972 0564 10D0     		beq	.L376
 299:../Drivers/STM32F4xx_HAL_Driver/Src/stm32f4xx_hal_dma.c ****   __HAL_DMA_CLEAR_FLAG(hdma, __HAL_DMA_GET_TE_FLAG_INDEX(hdma));
 973              		.loc 1 299 0 discriminator 171
 974 0566 A1F56871 		sub	r1, r1, #928
 975 056a 8A42     		cmp	r2, r1
 976 056c 09D0     		beq	.L377
 299:../Drivers/STM32F4xx_HAL_Driver/Src/stm32f4xx_hal_dma.c ****   __HAL_DMA_CLEAR_FLAG(hdma, __HAL_DMA_GET_TE_FLAG_INDEX(hdma));
 977              		.loc 1 299 0 discriminator 173
 978 056e 01F58061 		add	r1, r1, #1024
 979 0572 8A42     		cmp	r2, r1
 980 0574 02D1     		bne	.L378
 299:../Drivers/STM32F4xx_HAL_Driver/Src/stm32f4xx_hal_dma.c ****   __HAL_DMA_CLEAR_FLAG(hdma, __HAL_DMA_GET_TE_FLAG_INDEX(hdma));
 981              		.loc 1 299 0
 982 0576 4FF40011 		mov	r1, #2097152
 983 057a 2CE0     		b	.L110
 984              	.L378:
 985 057c 4FF00061 		mov	r1, #134217728
 986 0580 29E0     		b	.L110
 987              	.L377:
 988 0582 4FF40011 		mov	r1, #2097152
 989 0586 26E0     		b	.L110
 990              	.L376:
 991 0588 4FF40011 		mov	r1, #2097152
 992 058c 23E0     		b	.L110
 993              	.L375:
 994 058e 4FF40011 		mov	r1, #2097152
 995 0592 20E0     		b	.L110
 996              	.L374:
 997 0594 4FF40061 		mov	r1, #2048
 998 0598 1DE0     		b	.L110
 999              	.L373:
 1000 059a 4FF40061 		mov	r1, #2048
 1001 059e 1AE0     		b	.L110
 1002              	.L372:
 1003 05a0 4FF40061 		mov	r1, #2048
 1004 05a4 17E0     		b	.L110
ARM GAS  /tmp/ccAPlzty.s 			page 37


 1005              	.L371:
 1006 05a6 4FF40061 		mov	r1, #2048
 1007 05aa 14E0     		b	.L110
 1008              	.L370:
 1009 05ac 2021     		movs	r1, #32
 1010 05ae 12E0     		b	.L110
 1011              	.L369:
 1012 05b0 2021     		movs	r1, #32
 1013 05b2 10E0     		b	.L110
 1014              	.L368:
 1015 05b4 2021     		movs	r1, #32
 1016 05b6 0EE0     		b	.L110
 1017              	.L526:
 1018              		.align	2
 1019              	.L525:
 1020 05b8 04008000 		.word	8388612
 1021 05bc 00600240 		.word	1073897472
 1022 05c0 58640240 		.word	1073898584
 1023 05c4 00640240 		.word	1073898496
 1024 05c8 B8600240 		.word	1073897656
 1025 05cc 58600240 		.word	1073897560
 1026 05d0 10600240 		.word	1073897488
 1027              	.L367:
 1028 05d4 2021     		movs	r1, #32
 1029              	.L110:
 299:../Drivers/STM32F4xx_HAL_Driver/Src/stm32f4xx_hal_dma.c ****   __HAL_DMA_CLEAR_FLAG(hdma, __HAL_DMA_GET_TE_FLAG_INDEX(hdma));
 1030              		.loc 1 299 0 discriminator 200
 1031 05d6 AC4A     		ldr	r2, .L527
 1032 05d8 9160     		str	r1, [r2, #8]
 1033              	.L82:
 300:../Drivers/STM32F4xx_HAL_Driver/Src/stm32f4xx_hal_dma.c ****   __HAL_DMA_CLEAR_FLAG(hdma, __HAL_DMA_GET_FE_FLAG_INDEX(hdma));
 1034              		.loc 1 300 0 is_stmt 1
 1035 05da 1A68     		ldr	r2, [r3]
 1036 05dc AB49     		ldr	r1, .L527+4
 1037 05de 8A42     		cmp	r2, r1
 1038 05e0 54D9     		bls	.L122
 300:../Drivers/STM32F4xx_HAL_Driver/Src/stm32f4xx_hal_dma.c ****   __HAL_DMA_CLEAR_FLAG(hdma, __HAL_DMA_GET_FE_FLAG_INDEX(hdma));
 1039              		.loc 1 300 0 is_stmt 0 discriminator 1
 1040 05e2 A1F58961 		sub	r1, r1, #1096
 1041 05e6 8A42     		cmp	r2, r1
 1042 05e8 4CD0     		beq	.L379
 300:../Drivers/STM32F4xx_HAL_Driver/Src/stm32f4xx_hal_dma.c ****   __HAL_DMA_CLEAR_FLAG(hdma, __HAL_DMA_GET_FE_FLAG_INDEX(hdma));
 1043              		.loc 1 300 0 discriminator 3
 1044 05ea 01F58061 		add	r1, r1, #1024
 1045 05ee 8A42     		cmp	r2, r1
 1046 05f0 46D0     		beq	.L380
 300:../Drivers/STM32F4xx_HAL_Driver/Src/stm32f4xx_hal_dma.c ****   __HAL_DMA_CLEAR_FLAG(hdma, __HAL_DMA_GET_FE_FLAG_INDEX(hdma));
 1047              		.loc 1 300 0 discriminator 5
 1048 05f2 A1F56871 		sub	r1, r1, #928
 1049 05f6 8A42     		cmp	r2, r1
 1050 05f8 40D0     		beq	.L381
 300:../Drivers/STM32F4xx_HAL_Driver/Src/stm32f4xx_hal_dma.c ****   __HAL_DMA_CLEAR_FLAG(hdma, __HAL_DMA_GET_FE_FLAG_INDEX(hdma));
 1051              		.loc 1 300 0 discriminator 7
 1052 05fa 01F58061 		add	r1, r1, #1024
 1053 05fe 8A42     		cmp	r2, r1
 1054 0600 3AD0     		beq	.L382
 300:../Drivers/STM32F4xx_HAL_Driver/Src/stm32f4xx_hal_dma.c ****   __HAL_DMA_CLEAR_FLAG(hdma, __HAL_DMA_GET_FE_FLAG_INDEX(hdma));
ARM GAS  /tmp/ccAPlzty.s 			page 38


 1055              		.loc 1 300 0 discriminator 9
 1056 0602 A1F58961 		sub	r1, r1, #1096
 1057 0606 8A42     		cmp	r2, r1
 1058 0608 33D0     		beq	.L383
 300:../Drivers/STM32F4xx_HAL_Driver/Src/stm32f4xx_hal_dma.c ****   __HAL_DMA_CLEAR_FLAG(hdma, __HAL_DMA_GET_FE_FLAG_INDEX(hdma));
 1059              		.loc 1 300 0 discriminator 11
 1060 060a 01F58061 		add	r1, r1, #1024
 1061 060e 8A42     		cmp	r2, r1
 1062 0610 2CD0     		beq	.L384
 300:../Drivers/STM32F4xx_HAL_Driver/Src/stm32f4xx_hal_dma.c ****   __HAL_DMA_CLEAR_FLAG(hdma, __HAL_DMA_GET_FE_FLAG_INDEX(hdma));
 1063              		.loc 1 300 0 discriminator 13
 1064 0612 A1F56871 		sub	r1, r1, #928
 1065 0616 8A42     		cmp	r2, r1
 1066 0618 25D0     		beq	.L385
 300:../Drivers/STM32F4xx_HAL_Driver/Src/stm32f4xx_hal_dma.c ****   __HAL_DMA_CLEAR_FLAG(hdma, __HAL_DMA_GET_FE_FLAG_INDEX(hdma));
 1067              		.loc 1 300 0 discriminator 15
 1068 061a 01F58061 		add	r1, r1, #1024
 1069 061e 8A42     		cmp	r2, r1
 1070 0620 1ED0     		beq	.L386
 300:../Drivers/STM32F4xx_HAL_Driver/Src/stm32f4xx_hal_dma.c ****   __HAL_DMA_CLEAR_FLAG(hdma, __HAL_DMA_GET_FE_FLAG_INDEX(hdma));
 1071              		.loc 1 300 0 discriminator 17
 1072 0622 A1F58961 		sub	r1, r1, #1096
 1073 0626 8A42     		cmp	r2, r1
 1074 0628 17D0     		beq	.L387
 300:../Drivers/STM32F4xx_HAL_Driver/Src/stm32f4xx_hal_dma.c ****   __HAL_DMA_CLEAR_FLAG(hdma, __HAL_DMA_GET_FE_FLAG_INDEX(hdma));
 1075              		.loc 1 300 0 discriminator 19
 1076 062a 01F58061 		add	r1, r1, #1024
 1077 062e 8A42     		cmp	r2, r1
 1078 0630 10D0     		beq	.L388
 300:../Drivers/STM32F4xx_HAL_Driver/Src/stm32f4xx_hal_dma.c ****   __HAL_DMA_CLEAR_FLAG(hdma, __HAL_DMA_GET_FE_FLAG_INDEX(hdma));
 1079              		.loc 1 300 0 discriminator 21
 1080 0632 A1F56871 		sub	r1, r1, #928
 1081 0636 8A42     		cmp	r2, r1
 1082 0638 09D0     		beq	.L389
 300:../Drivers/STM32F4xx_HAL_Driver/Src/stm32f4xx_hal_dma.c ****   __HAL_DMA_CLEAR_FLAG(hdma, __HAL_DMA_GET_FE_FLAG_INDEX(hdma));
 1083              		.loc 1 300 0 discriminator 23
 1084 063a 01F58061 		add	r1, r1, #1024
 1085 063e 8A42     		cmp	r2, r1
 1086 0640 02D1     		bne	.L390
 300:../Drivers/STM32F4xx_HAL_Driver/Src/stm32f4xx_hal_dma.c ****   __HAL_DMA_CLEAR_FLAG(hdma, __HAL_DMA_GET_FE_FLAG_INDEX(hdma));
 1087              		.loc 1 300 0
 1088 0642 4FF40021 		mov	r1, #524288
 1089 0646 1EE0     		b	.L123
 1090              	.L390:
 1091 0648 4FF00071 		mov	r1, #33554432
 1092 064c 1BE0     		b	.L123
 1093              	.L389:
 1094 064e 4FF40021 		mov	r1, #524288
 1095 0652 18E0     		b	.L123
 1096              	.L388:
 1097 0654 4FF40021 		mov	r1, #524288
 1098 0658 15E0     		b	.L123
 1099              	.L387:
 1100 065a 4FF40021 		mov	r1, #524288
 1101 065e 12E0     		b	.L123
 1102              	.L386:
 1103 0660 4FF40071 		mov	r1, #512
ARM GAS  /tmp/ccAPlzty.s 			page 39


 1104 0664 0FE0     		b	.L123
 1105              	.L385:
 1106 0666 4FF40071 		mov	r1, #512
 1107 066a 0CE0     		b	.L123
 1108              	.L384:
 1109 066c 4FF40071 		mov	r1, #512
 1110 0670 09E0     		b	.L123
 1111              	.L383:
 1112 0672 4FF40071 		mov	r1, #512
 1113 0676 06E0     		b	.L123
 1114              	.L382:
 1115 0678 0821     		movs	r1, #8
 1116 067a 04E0     		b	.L123
 1117              	.L381:
 1118 067c 0821     		movs	r1, #8
 1119 067e 02E0     		b	.L123
 1120              	.L380:
 1121 0680 0821     		movs	r1, #8
 1122 0682 00E0     		b	.L123
 1123              	.L379:
 1124 0684 0821     		movs	r1, #8
 1125              	.L123:
 300:../Drivers/STM32F4xx_HAL_Driver/Src/stm32f4xx_hal_dma.c ****   __HAL_DMA_CLEAR_FLAG(hdma, __HAL_DMA_GET_FE_FLAG_INDEX(hdma));
 1126              		.loc 1 300 0 discriminator 50
 1127 0686 824A     		ldr	r2, .L527+8
 1128 0688 D160     		str	r1, [r2, #12]
 1129 068a 0CE1     		b	.L135
 1130              	.L122:
 300:../Drivers/STM32F4xx_HAL_Driver/Src/stm32f4xx_hal_dma.c ****   __HAL_DMA_CLEAR_FLAG(hdma, __HAL_DMA_GET_FE_FLAG_INDEX(hdma));
 1131              		.loc 1 300 0 discriminator 2
 1132 068c 8149     		ldr	r1, .L527+12
 1133 068e 8A42     		cmp	r2, r1
 1134 0690 53D9     		bls	.L136
 300:../Drivers/STM32F4xx_HAL_Driver/Src/stm32f4xx_hal_dma.c ****   __HAL_DMA_CLEAR_FLAG(hdma, __HAL_DMA_GET_FE_FLAG_INDEX(hdma));
 1135              		.loc 1 300 0 discriminator 51
 1136 0692 A839     		subs	r1, r1, #168
 1137 0694 8A42     		cmp	r2, r1
 1138 0696 4CD0     		beq	.L391
 300:../Drivers/STM32F4xx_HAL_Driver/Src/stm32f4xx_hal_dma.c ****   __HAL_DMA_CLEAR_FLAG(hdma, __HAL_DMA_GET_FE_FLAG_INDEX(hdma));
 1139              		.loc 1 300 0 discriminator 53
 1140 0698 01F58061 		add	r1, r1, #1024
 1141 069c 8A42     		cmp	r2, r1
 1142 069e 46D0     		beq	.L392
 300:../Drivers/STM32F4xx_HAL_Driver/Src/stm32f4xx_hal_dma.c ****   __HAL_DMA_CLEAR_FLAG(hdma, __HAL_DMA_GET_FE_FLAG_INDEX(hdma));
 1143              		.loc 1 300 0 discriminator 55
 1144 06a0 A1F56871 		sub	r1, r1, #928
 1145 06a4 8A42     		cmp	r2, r1
 1146 06a6 40D0     		beq	.L393
 300:../Drivers/STM32F4xx_HAL_Driver/Src/stm32f4xx_hal_dma.c ****   __HAL_DMA_CLEAR_FLAG(hdma, __HAL_DMA_GET_FE_FLAG_INDEX(hdma));
 1147              		.loc 1 300 0 discriminator 57
 1148 06a8 01F58061 		add	r1, r1, #1024
 1149 06ac 8A42     		cmp	r2, r1
 1150 06ae 3AD0     		beq	.L394
 300:../Drivers/STM32F4xx_HAL_Driver/Src/stm32f4xx_hal_dma.c ****   __HAL_DMA_CLEAR_FLAG(hdma, __HAL_DMA_GET_FE_FLAG_INDEX(hdma));
 1151              		.loc 1 300 0 discriminator 59
 1152 06b0 A1F58961 		sub	r1, r1, #1096
 1153 06b4 8A42     		cmp	r2, r1
ARM GAS  /tmp/ccAPlzty.s 			page 40


 1154 06b6 33D0     		beq	.L395
 300:../Drivers/STM32F4xx_HAL_Driver/Src/stm32f4xx_hal_dma.c ****   __HAL_DMA_CLEAR_FLAG(hdma, __HAL_DMA_GET_FE_FLAG_INDEX(hdma));
 1155              		.loc 1 300 0 discriminator 61
 1156 06b8 01F58061 		add	r1, r1, #1024
 1157 06bc 8A42     		cmp	r2, r1
 1158 06be 2CD0     		beq	.L396
 300:../Drivers/STM32F4xx_HAL_Driver/Src/stm32f4xx_hal_dma.c ****   __HAL_DMA_CLEAR_FLAG(hdma, __HAL_DMA_GET_FE_FLAG_INDEX(hdma));
 1159              		.loc 1 300 0 discriminator 63
 1160 06c0 A1F56871 		sub	r1, r1, #928
 1161 06c4 8A42     		cmp	r2, r1
 1162 06c6 25D0     		beq	.L397
 300:../Drivers/STM32F4xx_HAL_Driver/Src/stm32f4xx_hal_dma.c ****   __HAL_DMA_CLEAR_FLAG(hdma, __HAL_DMA_GET_FE_FLAG_INDEX(hdma));
 1163              		.loc 1 300 0 discriminator 65
 1164 06c8 01F58061 		add	r1, r1, #1024
 1165 06cc 8A42     		cmp	r2, r1
 1166 06ce 1ED0     		beq	.L398
 300:../Drivers/STM32F4xx_HAL_Driver/Src/stm32f4xx_hal_dma.c ****   __HAL_DMA_CLEAR_FLAG(hdma, __HAL_DMA_GET_FE_FLAG_INDEX(hdma));
 1167              		.loc 1 300 0 discriminator 67
 1168 06d0 A1F58961 		sub	r1, r1, #1096
 1169 06d4 8A42     		cmp	r2, r1
 1170 06d6 17D0     		beq	.L399
 300:../Drivers/STM32F4xx_HAL_Driver/Src/stm32f4xx_hal_dma.c ****   __HAL_DMA_CLEAR_FLAG(hdma, __HAL_DMA_GET_FE_FLAG_INDEX(hdma));
 1171              		.loc 1 300 0 discriminator 69
 1172 06d8 01F58061 		add	r1, r1, #1024
 1173 06dc 8A42     		cmp	r2, r1
 1174 06de 10D0     		beq	.L400
 300:../Drivers/STM32F4xx_HAL_Driver/Src/stm32f4xx_hal_dma.c ****   __HAL_DMA_CLEAR_FLAG(hdma, __HAL_DMA_GET_FE_FLAG_INDEX(hdma));
 1175              		.loc 1 300 0 discriminator 71
 1176 06e0 A1F56871 		sub	r1, r1, #928
 1177 06e4 8A42     		cmp	r2, r1
 1178 06e6 09D0     		beq	.L401
 300:../Drivers/STM32F4xx_HAL_Driver/Src/stm32f4xx_hal_dma.c ****   __HAL_DMA_CLEAR_FLAG(hdma, __HAL_DMA_GET_FE_FLAG_INDEX(hdma));
 1179              		.loc 1 300 0 discriminator 73
 1180 06e8 01F58061 		add	r1, r1, #1024
 1181 06ec 8A42     		cmp	r2, r1
 1182 06ee 02D1     		bne	.L402
 300:../Drivers/STM32F4xx_HAL_Driver/Src/stm32f4xx_hal_dma.c ****   __HAL_DMA_CLEAR_FLAG(hdma, __HAL_DMA_GET_FE_FLAG_INDEX(hdma));
 1183              		.loc 1 300 0
 1184 06f0 4FF40021 		mov	r1, #524288
 1185 06f4 1EE0     		b	.L137
 1186              	.L402:
 1187 06f6 4FF00071 		mov	r1, #33554432
 1188 06fa 1BE0     		b	.L137
 1189              	.L401:
 1190 06fc 4FF40021 		mov	r1, #524288
 1191 0700 18E0     		b	.L137
 1192              	.L400:
 1193 0702 4FF40021 		mov	r1, #524288
 1194 0706 15E0     		b	.L137
 1195              	.L399:
 1196 0708 4FF40021 		mov	r1, #524288
 1197 070c 12E0     		b	.L137
 1198              	.L398:
 1199 070e 4FF40071 		mov	r1, #512
 1200 0712 0FE0     		b	.L137
 1201              	.L397:
 1202 0714 4FF40071 		mov	r1, #512
ARM GAS  /tmp/ccAPlzty.s 			page 41


 1203 0718 0CE0     		b	.L137
 1204              	.L396:
 1205 071a 4FF40071 		mov	r1, #512
 1206 071e 09E0     		b	.L137
 1207              	.L395:
 1208 0720 4FF40071 		mov	r1, #512
 1209 0724 06E0     		b	.L137
 1210              	.L394:
 1211 0726 0821     		movs	r1, #8
 1212 0728 04E0     		b	.L137
 1213              	.L393:
 1214 072a 0821     		movs	r1, #8
 1215 072c 02E0     		b	.L137
 1216              	.L392:
 1217 072e 0821     		movs	r1, #8
 1218 0730 00E0     		b	.L137
 1219              	.L391:
 1220 0732 0821     		movs	r1, #8
 1221              	.L137:
 300:../Drivers/STM32F4xx_HAL_Driver/Src/stm32f4xx_hal_dma.c ****   __HAL_DMA_CLEAR_FLAG(hdma, __HAL_DMA_GET_FE_FLAG_INDEX(hdma));
 1222              		.loc 1 300 0 discriminator 100
 1223 0734 564A     		ldr	r2, .L527+8
 1224 0736 9160     		str	r1, [r2, #8]
 1225 0738 B5E0     		b	.L135
 1226              	.L136:
 300:../Drivers/STM32F4xx_HAL_Driver/Src/stm32f4xx_hal_dma.c ****   __HAL_DMA_CLEAR_FLAG(hdma, __HAL_DMA_GET_FE_FLAG_INDEX(hdma));
 1227              		.loc 1 300 0 discriminator 52
 1228 073a 5749     		ldr	r1, .L527+16
 1229 073c 8A42     		cmp	r2, r1
 1230 073e 53D9     		bls	.L149
 300:../Drivers/STM32F4xx_HAL_Driver/Src/stm32f4xx_hal_dma.c ****   __HAL_DMA_CLEAR_FLAG(hdma, __HAL_DMA_GET_FE_FLAG_INDEX(hdma));
 1231              		.loc 1 300 0 discriminator 102
 1232 0740 4839     		subs	r1, r1, #72
 1233 0742 8A42     		cmp	r2, r1
 1234 0744 4CD0     		beq	.L403
 300:../Drivers/STM32F4xx_HAL_Driver/Src/stm32f4xx_hal_dma.c ****   __HAL_DMA_CLEAR_FLAG(hdma, __HAL_DMA_GET_FE_FLAG_INDEX(hdma));
 1235              		.loc 1 300 0 discriminator 104
 1236 0746 01F58061 		add	r1, r1, #1024
 1237 074a 8A42     		cmp	r2, r1
 1238 074c 46D0     		beq	.L404
 300:../Drivers/STM32F4xx_HAL_Driver/Src/stm32f4xx_hal_dma.c ****   __HAL_DMA_CLEAR_FLAG(hdma, __HAL_DMA_GET_FE_FLAG_INDEX(hdma));
 1239              		.loc 1 300 0 discriminator 106
 1240 074e A1F56871 		sub	r1, r1, #928
 1241 0752 8A42     		cmp	r2, r1
 1242 0754 40D0     		beq	.L405
 300:../Drivers/STM32F4xx_HAL_Driver/Src/stm32f4xx_hal_dma.c ****   __HAL_DMA_CLEAR_FLAG(hdma, __HAL_DMA_GET_FE_FLAG_INDEX(hdma));
 1243              		.loc 1 300 0 discriminator 108
 1244 0756 01F58061 		add	r1, r1, #1024
 1245 075a 8A42     		cmp	r2, r1
 1246 075c 3AD0     		beq	.L406
 300:../Drivers/STM32F4xx_HAL_Driver/Src/stm32f4xx_hal_dma.c ****   __HAL_DMA_CLEAR_FLAG(hdma, __HAL_DMA_GET_FE_FLAG_INDEX(hdma));
 1247              		.loc 1 300 0 discriminator 110
 1248 075e A1F58961 		sub	r1, r1, #1096
 1249 0762 8A42     		cmp	r2, r1
 1250 0764 33D0     		beq	.L407
 300:../Drivers/STM32F4xx_HAL_Driver/Src/stm32f4xx_hal_dma.c ****   __HAL_DMA_CLEAR_FLAG(hdma, __HAL_DMA_GET_FE_FLAG_INDEX(hdma));
 1251              		.loc 1 300 0 discriminator 112
ARM GAS  /tmp/ccAPlzty.s 			page 42


 1252 0766 01F58061 		add	r1, r1, #1024
 1253 076a 8A42     		cmp	r2, r1
 1254 076c 2CD0     		beq	.L408
 300:../Drivers/STM32F4xx_HAL_Driver/Src/stm32f4xx_hal_dma.c ****   __HAL_DMA_CLEAR_FLAG(hdma, __HAL_DMA_GET_FE_FLAG_INDEX(hdma));
 1255              		.loc 1 300 0 discriminator 114
 1256 076e A1F56871 		sub	r1, r1, #928
 1257 0772 8A42     		cmp	r2, r1
 1258 0774 25D0     		beq	.L409
 300:../Drivers/STM32F4xx_HAL_Driver/Src/stm32f4xx_hal_dma.c ****   __HAL_DMA_CLEAR_FLAG(hdma, __HAL_DMA_GET_FE_FLAG_INDEX(hdma));
 1259              		.loc 1 300 0 discriminator 116
 1260 0776 01F58061 		add	r1, r1, #1024
 1261 077a 8A42     		cmp	r2, r1
 1262 077c 1ED0     		beq	.L410
 300:../Drivers/STM32F4xx_HAL_Driver/Src/stm32f4xx_hal_dma.c ****   __HAL_DMA_CLEAR_FLAG(hdma, __HAL_DMA_GET_FE_FLAG_INDEX(hdma));
 1263              		.loc 1 300 0 discriminator 118
 1264 077e A1F58961 		sub	r1, r1, #1096
 1265 0782 8A42     		cmp	r2, r1
 1266 0784 17D0     		beq	.L411
 300:../Drivers/STM32F4xx_HAL_Driver/Src/stm32f4xx_hal_dma.c ****   __HAL_DMA_CLEAR_FLAG(hdma, __HAL_DMA_GET_FE_FLAG_INDEX(hdma));
 1267              		.loc 1 300 0 discriminator 120
 1268 0786 01F58061 		add	r1, r1, #1024
 1269 078a 8A42     		cmp	r2, r1
 1270 078c 10D0     		beq	.L412
 300:../Drivers/STM32F4xx_HAL_Driver/Src/stm32f4xx_hal_dma.c ****   __HAL_DMA_CLEAR_FLAG(hdma, __HAL_DMA_GET_FE_FLAG_INDEX(hdma));
 1271              		.loc 1 300 0 discriminator 122
 1272 078e A1F56871 		sub	r1, r1, #928
 1273 0792 8A42     		cmp	r2, r1
 1274 0794 09D0     		beq	.L413
 300:../Drivers/STM32F4xx_HAL_Driver/Src/stm32f4xx_hal_dma.c ****   __HAL_DMA_CLEAR_FLAG(hdma, __HAL_DMA_GET_FE_FLAG_INDEX(hdma));
 1275              		.loc 1 300 0 discriminator 124
 1276 0796 01F58061 		add	r1, r1, #1024
 1277 079a 8A42     		cmp	r2, r1
 1278 079c 02D1     		bne	.L414
 300:../Drivers/STM32F4xx_HAL_Driver/Src/stm32f4xx_hal_dma.c ****   __HAL_DMA_CLEAR_FLAG(hdma, __HAL_DMA_GET_FE_FLAG_INDEX(hdma));
 1279              		.loc 1 300 0
 1280 079e 4FF40021 		mov	r1, #524288
 1281 07a2 1EE0     		b	.L150
 1282              	.L414:
 1283 07a4 4FF00071 		mov	r1, #33554432
 1284 07a8 1BE0     		b	.L150
 1285              	.L413:
 1286 07aa 4FF40021 		mov	r1, #524288
 1287 07ae 18E0     		b	.L150
 1288              	.L412:
 1289 07b0 4FF40021 		mov	r1, #524288
 1290 07b4 15E0     		b	.L150
 1291              	.L411:
 1292 07b6 4FF40021 		mov	r1, #524288
 1293 07ba 12E0     		b	.L150
 1294              	.L410:
 1295 07bc 4FF40071 		mov	r1, #512
 1296 07c0 0FE0     		b	.L150
 1297              	.L409:
 1298 07c2 4FF40071 		mov	r1, #512
 1299 07c6 0CE0     		b	.L150
 1300              	.L408:
 1301 07c8 4FF40071 		mov	r1, #512
ARM GAS  /tmp/ccAPlzty.s 			page 43


 1302 07cc 09E0     		b	.L150
 1303              	.L407:
 1304 07ce 4FF40071 		mov	r1, #512
 1305 07d2 06E0     		b	.L150
 1306              	.L406:
 1307 07d4 0821     		movs	r1, #8
 1308 07d6 04E0     		b	.L150
 1309              	.L405:
 1310 07d8 0821     		movs	r1, #8
 1311 07da 02E0     		b	.L150
 1312              	.L404:
 1313 07dc 0821     		movs	r1, #8
 1314 07de 00E0     		b	.L150
 1315              	.L403:
 1316 07e0 0821     		movs	r1, #8
 1317              	.L150:
 300:../Drivers/STM32F4xx_HAL_Driver/Src/stm32f4xx_hal_dma.c ****   __HAL_DMA_CLEAR_FLAG(hdma, __HAL_DMA_GET_FE_FLAG_INDEX(hdma));
 1318              		.loc 1 300 0 discriminator 151
 1319 07e2 294A     		ldr	r2, .L527
 1320 07e4 D160     		str	r1, [r2, #12]
 1321 07e6 5EE0     		b	.L135
 1322              	.L149:
 300:../Drivers/STM32F4xx_HAL_Driver/Src/stm32f4xx_hal_dma.c ****   __HAL_DMA_CLEAR_FLAG(hdma, __HAL_DMA_GET_FE_FLAG_INDEX(hdma));
 1323              		.loc 1 300 0 discriminator 103
 1324 07e8 2C49     		ldr	r1, .L527+20
 1325 07ea 8A42     		cmp	r2, r1
 1326 07ec 58D0     		beq	.L415
 300:../Drivers/STM32F4xx_HAL_Driver/Src/stm32f4xx_hal_dma.c ****   __HAL_DMA_CLEAR_FLAG(hdma, __HAL_DMA_GET_FE_FLAG_INDEX(hdma));
 1327              		.loc 1 300 0 discriminator 153
 1328 07ee 01F58061 		add	r1, r1, #1024
 1329 07f2 8A42     		cmp	r2, r1
 1330 07f4 46D0     		beq	.L416
 300:../Drivers/STM32F4xx_HAL_Driver/Src/stm32f4xx_hal_dma.c ****   __HAL_DMA_CLEAR_FLAG(hdma, __HAL_DMA_GET_FE_FLAG_INDEX(hdma));
 1331              		.loc 1 300 0 discriminator 155
 1332 07f6 A1F56871 		sub	r1, r1, #928
 1333 07fa 8A42     		cmp	r2, r1
 1334 07fc 40D0     		beq	.L417
 300:../Drivers/STM32F4xx_HAL_Driver/Src/stm32f4xx_hal_dma.c ****   __HAL_DMA_CLEAR_FLAG(hdma, __HAL_DMA_GET_FE_FLAG_INDEX(hdma));
 1335              		.loc 1 300 0 discriminator 157
 1336 07fe 01F58061 		add	r1, r1, #1024
 1337 0802 8A42     		cmp	r2, r1
 1338 0804 3AD0     		beq	.L418
 300:../Drivers/STM32F4xx_HAL_Driver/Src/stm32f4xx_hal_dma.c ****   __HAL_DMA_CLEAR_FLAG(hdma, __HAL_DMA_GET_FE_FLAG_INDEX(hdma));
 1339              		.loc 1 300 0 discriminator 159
 1340 0806 A1F58961 		sub	r1, r1, #1096
 1341 080a 8A42     		cmp	r2, r1
 1342 080c 33D0     		beq	.L419
 300:../Drivers/STM32F4xx_HAL_Driver/Src/stm32f4xx_hal_dma.c ****   __HAL_DMA_CLEAR_FLAG(hdma, __HAL_DMA_GET_FE_FLAG_INDEX(hdma));
 1343              		.loc 1 300 0 discriminator 161
 1344 080e 01F58061 		add	r1, r1, #1024
 1345 0812 8A42     		cmp	r2, r1
 1346 0814 2CD0     		beq	.L420
 300:../Drivers/STM32F4xx_HAL_Driver/Src/stm32f4xx_hal_dma.c ****   __HAL_DMA_CLEAR_FLAG(hdma, __HAL_DMA_GET_FE_FLAG_INDEX(hdma));
 1347              		.loc 1 300 0 discriminator 163
 1348 0816 A1F56871 		sub	r1, r1, #928
 1349 081a 8A42     		cmp	r2, r1
 1350 081c 25D0     		beq	.L421
ARM GAS  /tmp/ccAPlzty.s 			page 44


 300:../Drivers/STM32F4xx_HAL_Driver/Src/stm32f4xx_hal_dma.c ****   __HAL_DMA_CLEAR_FLAG(hdma, __HAL_DMA_GET_FE_FLAG_INDEX(hdma));
 1351              		.loc 1 300 0 discriminator 165
 1352 081e 01F58061 		add	r1, r1, #1024
 1353 0822 8A42     		cmp	r2, r1
 1354 0824 1ED0     		beq	.L422
 300:../Drivers/STM32F4xx_HAL_Driver/Src/stm32f4xx_hal_dma.c ****   __HAL_DMA_CLEAR_FLAG(hdma, __HAL_DMA_GET_FE_FLAG_INDEX(hdma));
 1355              		.loc 1 300 0 discriminator 167
 1356 0826 A1F58961 		sub	r1, r1, #1096
 1357 082a 8A42     		cmp	r2, r1
 1358 082c 17D0     		beq	.L423
 300:../Drivers/STM32F4xx_HAL_Driver/Src/stm32f4xx_hal_dma.c ****   __HAL_DMA_CLEAR_FLAG(hdma, __HAL_DMA_GET_FE_FLAG_INDEX(hdma));
 1359              		.loc 1 300 0 discriminator 169
 1360 082e 01F58061 		add	r1, r1, #1024
 1361 0832 8A42     		cmp	r2, r1
 1362 0834 10D0     		beq	.L424
 300:../Drivers/STM32F4xx_HAL_Driver/Src/stm32f4xx_hal_dma.c ****   __HAL_DMA_CLEAR_FLAG(hdma, __HAL_DMA_GET_FE_FLAG_INDEX(hdma));
 1363              		.loc 1 300 0 discriminator 171
 1364 0836 A1F56871 		sub	r1, r1, #928
 1365 083a 8A42     		cmp	r2, r1
 1366 083c 09D0     		beq	.L425
 300:../Drivers/STM32F4xx_HAL_Driver/Src/stm32f4xx_hal_dma.c ****   __HAL_DMA_CLEAR_FLAG(hdma, __HAL_DMA_GET_FE_FLAG_INDEX(hdma));
 1367              		.loc 1 300 0 discriminator 173
 1368 083e 01F58061 		add	r1, r1, #1024
 1369 0842 8A42     		cmp	r2, r1
 1370 0844 02D1     		bne	.L426
 300:../Drivers/STM32F4xx_HAL_Driver/Src/stm32f4xx_hal_dma.c ****   __HAL_DMA_CLEAR_FLAG(hdma, __HAL_DMA_GET_FE_FLAG_INDEX(hdma));
 1371              		.loc 1 300 0
 1372 0846 4FF40021 		mov	r1, #524288
 1373 084a 2AE0     		b	.L163
 1374              	.L426:
 1375 084c 4FF00071 		mov	r1, #33554432
 1376 0850 27E0     		b	.L163
 1377              	.L425:
 1378 0852 4FF40021 		mov	r1, #524288
 1379 0856 24E0     		b	.L163
 1380              	.L424:
 1381 0858 4FF40021 		mov	r1, #524288
 1382 085c 21E0     		b	.L163
 1383              	.L423:
 1384 085e 4FF40021 		mov	r1, #524288
 1385 0862 1EE0     		b	.L163
 1386              	.L422:
 1387 0864 4FF40071 		mov	r1, #512
 1388 0868 1BE0     		b	.L163
 1389              	.L421:
 1390 086a 4FF40071 		mov	r1, #512
 1391 086e 18E0     		b	.L163
 1392              	.L420:
 1393 0870 4FF40071 		mov	r1, #512
 1394 0874 15E0     		b	.L163
 1395              	.L419:
 1396 0876 4FF40071 		mov	r1, #512
 1397 087a 12E0     		b	.L163
 1398              	.L418:
 1399 087c 0821     		movs	r1, #8
 1400 087e 10E0     		b	.L163
 1401              	.L417:
ARM GAS  /tmp/ccAPlzty.s 			page 45


 1402 0880 0821     		movs	r1, #8
 1403 0882 0EE0     		b	.L163
 1404              	.L416:
 1405 0884 0821     		movs	r1, #8
 1406 0886 0CE0     		b	.L163
 1407              	.L528:
 1408              		.align	2
 1409              	.L527:
 1410 0888 00600240 		.word	1073897472
 1411 088c 58640240 		.word	1073898584
 1412 0890 00640240 		.word	1073898496
 1413 0894 B8600240 		.word	1073897656
 1414 0898 58600240 		.word	1073897560
 1415 089c 10600240 		.word	1073897488
 1416              	.L415:
 1417 08a0 0821     		movs	r1, #8
 1418              	.L163:
 300:../Drivers/STM32F4xx_HAL_Driver/Src/stm32f4xx_hal_dma.c ****   __HAL_DMA_CLEAR_FLAG(hdma, __HAL_DMA_GET_FE_FLAG_INDEX(hdma));
 1419              		.loc 1 300 0 discriminator 200
 1420 08a2 A44A     		ldr	r2, .L529
 1421 08a4 9160     		str	r1, [r2, #8]
 1422              	.L135:
 301:../Drivers/STM32F4xx_HAL_Driver/Src/stm32f4xx_hal_dma.c ****   __HAL_DMA_CLEAR_FLAG(hdma, __HAL_DMA_GET_HT_FLAG_INDEX(hdma));
 1423              		.loc 1 301 0 is_stmt 1
 1424 08a6 1A68     		ldr	r2, [r3]
 1425 08a8 A349     		ldr	r1, .L529+4
 1426 08aa 8A42     		cmp	r2, r1
 1427 08ac 50D9     		bls	.L175
 301:../Drivers/STM32F4xx_HAL_Driver/Src/stm32f4xx_hal_dma.c ****   __HAL_DMA_CLEAR_FLAG(hdma, __HAL_DMA_GET_HT_FLAG_INDEX(hdma));
 1428              		.loc 1 301 0 is_stmt 0 discriminator 1
 1429 08ae A1F58961 		sub	r1, r1, #1096
 1430 08b2 8A42     		cmp	r2, r1
 1431 08b4 48D0     		beq	.L427
 301:../Drivers/STM32F4xx_HAL_Driver/Src/stm32f4xx_hal_dma.c ****   __HAL_DMA_CLEAR_FLAG(hdma, __HAL_DMA_GET_HT_FLAG_INDEX(hdma));
 1432              		.loc 1 301 0 discriminator 3
 1433 08b6 01F58061 		add	r1, r1, #1024
 1434 08ba 8A42     		cmp	r2, r1
 1435 08bc 42D0     		beq	.L428
 301:../Drivers/STM32F4xx_HAL_Driver/Src/stm32f4xx_hal_dma.c ****   __HAL_DMA_CLEAR_FLAG(hdma, __HAL_DMA_GET_HT_FLAG_INDEX(hdma));
 1436              		.loc 1 301 0 discriminator 5
 1437 08be A1F56871 		sub	r1, r1, #928
 1438 08c2 8A42     		cmp	r2, r1
 1439 08c4 3CD0     		beq	.L429
 301:../Drivers/STM32F4xx_HAL_Driver/Src/stm32f4xx_hal_dma.c ****   __HAL_DMA_CLEAR_FLAG(hdma, __HAL_DMA_GET_HT_FLAG_INDEX(hdma));
 1440              		.loc 1 301 0 discriminator 7
 1441 08c6 01F58061 		add	r1, r1, #1024
 1442 08ca 8A42     		cmp	r2, r1
 1443 08cc 36D0     		beq	.L430
 301:../Drivers/STM32F4xx_HAL_Driver/Src/stm32f4xx_hal_dma.c ****   __HAL_DMA_CLEAR_FLAG(hdma, __HAL_DMA_GET_HT_FLAG_INDEX(hdma));
 1444              		.loc 1 301 0 discriminator 9
 1445 08ce A1F58961 		sub	r1, r1, #1096
 1446 08d2 8A42     		cmp	r2, r1
 1447 08d4 30D0     		beq	.L431
 301:../Drivers/STM32F4xx_HAL_Driver/Src/stm32f4xx_hal_dma.c ****   __HAL_DMA_CLEAR_FLAG(hdma, __HAL_DMA_GET_HT_FLAG_INDEX(hdma));
 1448              		.loc 1 301 0 discriminator 11
 1449 08d6 01F58061 		add	r1, r1, #1024
 1450 08da 8A42     		cmp	r2, r1
ARM GAS  /tmp/ccAPlzty.s 			page 46


 1451 08dc 2AD0     		beq	.L432
 301:../Drivers/STM32F4xx_HAL_Driver/Src/stm32f4xx_hal_dma.c ****   __HAL_DMA_CLEAR_FLAG(hdma, __HAL_DMA_GET_HT_FLAG_INDEX(hdma));
 1452              		.loc 1 301 0 discriminator 13
 1453 08de A1F56871 		sub	r1, r1, #928
 1454 08e2 8A42     		cmp	r2, r1
 1455 08e4 24D0     		beq	.L433
 301:../Drivers/STM32F4xx_HAL_Driver/Src/stm32f4xx_hal_dma.c ****   __HAL_DMA_CLEAR_FLAG(hdma, __HAL_DMA_GET_HT_FLAG_INDEX(hdma));
 1456              		.loc 1 301 0 discriminator 15
 1457 08e6 01F58061 		add	r1, r1, #1024
 1458 08ea 8A42     		cmp	r2, r1
 1459 08ec 1ED0     		beq	.L434
 301:../Drivers/STM32F4xx_HAL_Driver/Src/stm32f4xx_hal_dma.c ****   __HAL_DMA_CLEAR_FLAG(hdma, __HAL_DMA_GET_HT_FLAG_INDEX(hdma));
 1460              		.loc 1 301 0 discriminator 17
 1461 08ee A1F58961 		sub	r1, r1, #1096
 1462 08f2 8A42     		cmp	r2, r1
 1463 08f4 17D0     		beq	.L435
 301:../Drivers/STM32F4xx_HAL_Driver/Src/stm32f4xx_hal_dma.c ****   __HAL_DMA_CLEAR_FLAG(hdma, __HAL_DMA_GET_HT_FLAG_INDEX(hdma));
 1464              		.loc 1 301 0 discriminator 19
 1465 08f6 01F58061 		add	r1, r1, #1024
 1466 08fa 8A42     		cmp	r2, r1
 1467 08fc 10D0     		beq	.L436
 301:../Drivers/STM32F4xx_HAL_Driver/Src/stm32f4xx_hal_dma.c ****   __HAL_DMA_CLEAR_FLAG(hdma, __HAL_DMA_GET_HT_FLAG_INDEX(hdma));
 1468              		.loc 1 301 0 discriminator 21
 1469 08fe A1F56871 		sub	r1, r1, #928
 1470 0902 8A42     		cmp	r2, r1
 1471 0904 09D0     		beq	.L437
 301:../Drivers/STM32F4xx_HAL_Driver/Src/stm32f4xx_hal_dma.c ****   __HAL_DMA_CLEAR_FLAG(hdma, __HAL_DMA_GET_HT_FLAG_INDEX(hdma));
 1472              		.loc 1 301 0 discriminator 23
 1473 0906 01F58061 		add	r1, r1, #1024
 1474 090a 8A42     		cmp	r2, r1
 1475 090c 02D1     		bne	.L438
 301:../Drivers/STM32F4xx_HAL_Driver/Src/stm32f4xx_hal_dma.c ****   __HAL_DMA_CLEAR_FLAG(hdma, __HAL_DMA_GET_HT_FLAG_INDEX(hdma));
 1476              		.loc 1 301 0
 1477 090e 4FF48031 		mov	r1, #65536
 1478 0912 1AE0     		b	.L176
 1479              	.L438:
 1480 0914 4FF48001 		mov	r1, #4194304
 1481 0918 17E0     		b	.L176
 1482              	.L437:
 1483 091a 4FF48031 		mov	r1, #65536
 1484 091e 14E0     		b	.L176
 1485              	.L436:
 1486 0920 4FF48031 		mov	r1, #65536
 1487 0924 11E0     		b	.L176
 1488              	.L435:
 1489 0926 4FF48031 		mov	r1, #65536
 1490 092a 0EE0     		b	.L176
 1491              	.L434:
 1492 092c 4021     		movs	r1, #64
 1493 092e 0CE0     		b	.L176
 1494              	.L433:
 1495 0930 4021     		movs	r1, #64
 1496 0932 0AE0     		b	.L176
 1497              	.L432:
 1498 0934 4021     		movs	r1, #64
 1499 0936 08E0     		b	.L176
 1500              	.L431:
ARM GAS  /tmp/ccAPlzty.s 			page 47


 1501 0938 4021     		movs	r1, #64
 1502 093a 06E0     		b	.L176
 1503              	.L430:
 1504 093c 7F49     		ldr	r1, .L529+8
 1505 093e 04E0     		b	.L176
 1506              	.L429:
 1507 0940 7E49     		ldr	r1, .L529+8
 1508 0942 02E0     		b	.L176
 1509              	.L428:
 1510 0944 7D49     		ldr	r1, .L529+8
 1511 0946 00E0     		b	.L176
 1512              	.L427:
 1513 0948 7C49     		ldr	r1, .L529+8
 1514              	.L176:
 301:../Drivers/STM32F4xx_HAL_Driver/Src/stm32f4xx_hal_dma.c ****   __HAL_DMA_CLEAR_FLAG(hdma, __HAL_DMA_GET_HT_FLAG_INDEX(hdma));
 1515              		.loc 1 301 0 discriminator 50
 1516 094a 7D4A     		ldr	r2, .L529+12
 1517 094c D160     		str	r1, [r2, #12]
 1518 094e 02E1     		b	.L188
 1519              	.L175:
 301:../Drivers/STM32F4xx_HAL_Driver/Src/stm32f4xx_hal_dma.c ****   __HAL_DMA_CLEAR_FLAG(hdma, __HAL_DMA_GET_HT_FLAG_INDEX(hdma));
 1520              		.loc 1 301 0 discriminator 2
 1521 0950 7C49     		ldr	r1, .L529+16
 1522 0952 8A42     		cmp	r2, r1
 1523 0954 4FD9     		bls	.L189
 301:../Drivers/STM32F4xx_HAL_Driver/Src/stm32f4xx_hal_dma.c ****   __HAL_DMA_CLEAR_FLAG(hdma, __HAL_DMA_GET_HT_FLAG_INDEX(hdma));
 1524              		.loc 1 301 0 discriminator 51
 1525 0956 A839     		subs	r1, r1, #168
 1526 0958 8A42     		cmp	r2, r1
 1527 095a 48D0     		beq	.L439
 301:../Drivers/STM32F4xx_HAL_Driver/Src/stm32f4xx_hal_dma.c ****   __HAL_DMA_CLEAR_FLAG(hdma, __HAL_DMA_GET_HT_FLAG_INDEX(hdma));
 1528              		.loc 1 301 0 discriminator 53
 1529 095c 01F58061 		add	r1, r1, #1024
 1530 0960 8A42     		cmp	r2, r1
 1531 0962 42D0     		beq	.L440
 301:../Drivers/STM32F4xx_HAL_Driver/Src/stm32f4xx_hal_dma.c ****   __HAL_DMA_CLEAR_FLAG(hdma, __HAL_DMA_GET_HT_FLAG_INDEX(hdma));
 1532              		.loc 1 301 0 discriminator 55
 1533 0964 A1F56871 		sub	r1, r1, #928
 1534 0968 8A42     		cmp	r2, r1
 1535 096a 3CD0     		beq	.L441
 301:../Drivers/STM32F4xx_HAL_Driver/Src/stm32f4xx_hal_dma.c ****   __HAL_DMA_CLEAR_FLAG(hdma, __HAL_DMA_GET_HT_FLAG_INDEX(hdma));
 1536              		.loc 1 301 0 discriminator 57
 1537 096c 01F58061 		add	r1, r1, #1024
 1538 0970 8A42     		cmp	r2, r1
 1539 0972 36D0     		beq	.L442
 301:../Drivers/STM32F4xx_HAL_Driver/Src/stm32f4xx_hal_dma.c ****   __HAL_DMA_CLEAR_FLAG(hdma, __HAL_DMA_GET_HT_FLAG_INDEX(hdma));
 1540              		.loc 1 301 0 discriminator 59
 1541 0974 A1F58961 		sub	r1, r1, #1096
 1542 0978 8A42     		cmp	r2, r1
 1543 097a 30D0     		beq	.L443
 301:../Drivers/STM32F4xx_HAL_Driver/Src/stm32f4xx_hal_dma.c ****   __HAL_DMA_CLEAR_FLAG(hdma, __HAL_DMA_GET_HT_FLAG_INDEX(hdma));
 1544              		.loc 1 301 0 discriminator 61
 1545 097c 01F58061 		add	r1, r1, #1024
 1546 0980 8A42     		cmp	r2, r1
 1547 0982 2AD0     		beq	.L444
 301:../Drivers/STM32F4xx_HAL_Driver/Src/stm32f4xx_hal_dma.c ****   __HAL_DMA_CLEAR_FLAG(hdma, __HAL_DMA_GET_HT_FLAG_INDEX(hdma));
 1548              		.loc 1 301 0 discriminator 63
ARM GAS  /tmp/ccAPlzty.s 			page 48


 1549 0984 A1F56871 		sub	r1, r1, #928
 1550 0988 8A42     		cmp	r2, r1
 1551 098a 24D0     		beq	.L445
 301:../Drivers/STM32F4xx_HAL_Driver/Src/stm32f4xx_hal_dma.c ****   __HAL_DMA_CLEAR_FLAG(hdma, __HAL_DMA_GET_HT_FLAG_INDEX(hdma));
 1552              		.loc 1 301 0 discriminator 65
 1553 098c 01F58061 		add	r1, r1, #1024
 1554 0990 8A42     		cmp	r2, r1
 1555 0992 1ED0     		beq	.L446
 301:../Drivers/STM32F4xx_HAL_Driver/Src/stm32f4xx_hal_dma.c ****   __HAL_DMA_CLEAR_FLAG(hdma, __HAL_DMA_GET_HT_FLAG_INDEX(hdma));
 1556              		.loc 1 301 0 discriminator 67
 1557 0994 A1F58961 		sub	r1, r1, #1096
 1558 0998 8A42     		cmp	r2, r1
 1559 099a 17D0     		beq	.L447
 301:../Drivers/STM32F4xx_HAL_Driver/Src/stm32f4xx_hal_dma.c ****   __HAL_DMA_CLEAR_FLAG(hdma, __HAL_DMA_GET_HT_FLAG_INDEX(hdma));
 1560              		.loc 1 301 0 discriminator 69
 1561 099c 01F58061 		add	r1, r1, #1024
 1562 09a0 8A42     		cmp	r2, r1
 1563 09a2 10D0     		beq	.L448
 301:../Drivers/STM32F4xx_HAL_Driver/Src/stm32f4xx_hal_dma.c ****   __HAL_DMA_CLEAR_FLAG(hdma, __HAL_DMA_GET_HT_FLAG_INDEX(hdma));
 1564              		.loc 1 301 0 discriminator 71
 1565 09a4 A1F56871 		sub	r1, r1, #928
 1566 09a8 8A42     		cmp	r2, r1
 1567 09aa 09D0     		beq	.L449
 301:../Drivers/STM32F4xx_HAL_Driver/Src/stm32f4xx_hal_dma.c ****   __HAL_DMA_CLEAR_FLAG(hdma, __HAL_DMA_GET_HT_FLAG_INDEX(hdma));
 1568              		.loc 1 301 0 discriminator 73
 1569 09ac 01F58061 		add	r1, r1, #1024
 1570 09b0 8A42     		cmp	r2, r1
 1571 09b2 02D1     		bne	.L450
 301:../Drivers/STM32F4xx_HAL_Driver/Src/stm32f4xx_hal_dma.c ****   __HAL_DMA_CLEAR_FLAG(hdma, __HAL_DMA_GET_HT_FLAG_INDEX(hdma));
 1572              		.loc 1 301 0
 1573 09b4 4FF48031 		mov	r1, #65536
 1574 09b8 1AE0     		b	.L190
 1575              	.L450:
 1576 09ba 4FF48001 		mov	r1, #4194304
 1577 09be 17E0     		b	.L190
 1578              	.L449:
 1579 09c0 4FF48031 		mov	r1, #65536
 1580 09c4 14E0     		b	.L190
 1581              	.L448:
 1582 09c6 4FF48031 		mov	r1, #65536
 1583 09ca 11E0     		b	.L190
 1584              	.L447:
 1585 09cc 4FF48031 		mov	r1, #65536
 1586 09d0 0EE0     		b	.L190
 1587              	.L446:
 1588 09d2 4021     		movs	r1, #64
 1589 09d4 0CE0     		b	.L190
 1590              	.L445:
 1591 09d6 4021     		movs	r1, #64
 1592 09d8 0AE0     		b	.L190
 1593              	.L444:
 1594 09da 4021     		movs	r1, #64
 1595 09dc 08E0     		b	.L190
 1596              	.L443:
 1597 09de 4021     		movs	r1, #64
 1598 09e0 06E0     		b	.L190
 1599              	.L442:
ARM GAS  /tmp/ccAPlzty.s 			page 49


 1600 09e2 5649     		ldr	r1, .L529+8
 1601 09e4 04E0     		b	.L190
 1602              	.L441:
 1603 09e6 5549     		ldr	r1, .L529+8
 1604 09e8 02E0     		b	.L190
 1605              	.L440:
 1606 09ea 5449     		ldr	r1, .L529+8
 1607 09ec 00E0     		b	.L190
 1608              	.L439:
 1609 09ee 5349     		ldr	r1, .L529+8
 1610              	.L190:
 301:../Drivers/STM32F4xx_HAL_Driver/Src/stm32f4xx_hal_dma.c ****   __HAL_DMA_CLEAR_FLAG(hdma, __HAL_DMA_GET_HT_FLAG_INDEX(hdma));
 1611              		.loc 1 301 0 discriminator 100
 1612 09f0 534A     		ldr	r2, .L529+12
 1613 09f2 9160     		str	r1, [r2, #8]
 1614 09f4 AFE0     		b	.L188
 1615              	.L189:
 301:../Drivers/STM32F4xx_HAL_Driver/Src/stm32f4xx_hal_dma.c ****   __HAL_DMA_CLEAR_FLAG(hdma, __HAL_DMA_GET_HT_FLAG_INDEX(hdma));
 1616              		.loc 1 301 0 discriminator 52
 1617 09f6 5449     		ldr	r1, .L529+20
 1618 09f8 8A42     		cmp	r2, r1
 1619 09fa 4FD9     		bls	.L202
 301:../Drivers/STM32F4xx_HAL_Driver/Src/stm32f4xx_hal_dma.c ****   __HAL_DMA_CLEAR_FLAG(hdma, __HAL_DMA_GET_HT_FLAG_INDEX(hdma));
 1620              		.loc 1 301 0 discriminator 102
 1621 09fc 4839     		subs	r1, r1, #72
 1622 09fe 8A42     		cmp	r2, r1
 1623 0a00 48D0     		beq	.L451
 301:../Drivers/STM32F4xx_HAL_Driver/Src/stm32f4xx_hal_dma.c ****   __HAL_DMA_CLEAR_FLAG(hdma, __HAL_DMA_GET_HT_FLAG_INDEX(hdma));
 1624              		.loc 1 301 0 discriminator 104
 1625 0a02 01F58061 		add	r1, r1, #1024
 1626 0a06 8A42     		cmp	r2, r1
 1627 0a08 42D0     		beq	.L452
 301:../Drivers/STM32F4xx_HAL_Driver/Src/stm32f4xx_hal_dma.c ****   __HAL_DMA_CLEAR_FLAG(hdma, __HAL_DMA_GET_HT_FLAG_INDEX(hdma));
 1628              		.loc 1 301 0 discriminator 106
 1629 0a0a A1F56871 		sub	r1, r1, #928
 1630 0a0e 8A42     		cmp	r2, r1
 1631 0a10 3CD0     		beq	.L453
 301:../Drivers/STM32F4xx_HAL_Driver/Src/stm32f4xx_hal_dma.c ****   __HAL_DMA_CLEAR_FLAG(hdma, __HAL_DMA_GET_HT_FLAG_INDEX(hdma));
 1632              		.loc 1 301 0 discriminator 108
 1633 0a12 01F58061 		add	r1, r1, #1024
 1634 0a16 8A42     		cmp	r2, r1
 1635 0a18 36D0     		beq	.L454
 301:../Drivers/STM32F4xx_HAL_Driver/Src/stm32f4xx_hal_dma.c ****   __HAL_DMA_CLEAR_FLAG(hdma, __HAL_DMA_GET_HT_FLAG_INDEX(hdma));
 1636              		.loc 1 301 0 discriminator 110
 1637 0a1a A1F58961 		sub	r1, r1, #1096
 1638 0a1e 8A42     		cmp	r2, r1
 1639 0a20 30D0     		beq	.L455
 301:../Drivers/STM32F4xx_HAL_Driver/Src/stm32f4xx_hal_dma.c ****   __HAL_DMA_CLEAR_FLAG(hdma, __HAL_DMA_GET_HT_FLAG_INDEX(hdma));
 1640              		.loc 1 301 0 discriminator 112
 1641 0a22 01F58061 		add	r1, r1, #1024
 1642 0a26 8A42     		cmp	r2, r1
 1643 0a28 2AD0     		beq	.L456
 301:../Drivers/STM32F4xx_HAL_Driver/Src/stm32f4xx_hal_dma.c ****   __HAL_DMA_CLEAR_FLAG(hdma, __HAL_DMA_GET_HT_FLAG_INDEX(hdma));
 1644              		.loc 1 301 0 discriminator 114
 1645 0a2a A1F56871 		sub	r1, r1, #928
 1646 0a2e 8A42     		cmp	r2, r1
 1647 0a30 24D0     		beq	.L457
ARM GAS  /tmp/ccAPlzty.s 			page 50


 301:../Drivers/STM32F4xx_HAL_Driver/Src/stm32f4xx_hal_dma.c ****   __HAL_DMA_CLEAR_FLAG(hdma, __HAL_DMA_GET_HT_FLAG_INDEX(hdma));
 1648              		.loc 1 301 0 discriminator 116
 1649 0a32 01F58061 		add	r1, r1, #1024
 1650 0a36 8A42     		cmp	r2, r1
 1651 0a38 1ED0     		beq	.L458
 301:../Drivers/STM32F4xx_HAL_Driver/Src/stm32f4xx_hal_dma.c ****   __HAL_DMA_CLEAR_FLAG(hdma, __HAL_DMA_GET_HT_FLAG_INDEX(hdma));
 1652              		.loc 1 301 0 discriminator 118
 1653 0a3a A1F58961 		sub	r1, r1, #1096
 1654 0a3e 8A42     		cmp	r2, r1
 1655 0a40 17D0     		beq	.L459
 301:../Drivers/STM32F4xx_HAL_Driver/Src/stm32f4xx_hal_dma.c ****   __HAL_DMA_CLEAR_FLAG(hdma, __HAL_DMA_GET_HT_FLAG_INDEX(hdma));
 1656              		.loc 1 301 0 discriminator 120
 1657 0a42 01F58061 		add	r1, r1, #1024
 1658 0a46 8A42     		cmp	r2, r1
 1659 0a48 10D0     		beq	.L460
 301:../Drivers/STM32F4xx_HAL_Driver/Src/stm32f4xx_hal_dma.c ****   __HAL_DMA_CLEAR_FLAG(hdma, __HAL_DMA_GET_HT_FLAG_INDEX(hdma));
 1660              		.loc 1 301 0 discriminator 122
 1661 0a4a A1F56871 		sub	r1, r1, #928
 1662 0a4e 8A42     		cmp	r2, r1
 1663 0a50 09D0     		beq	.L461
 301:../Drivers/STM32F4xx_HAL_Driver/Src/stm32f4xx_hal_dma.c ****   __HAL_DMA_CLEAR_FLAG(hdma, __HAL_DMA_GET_HT_FLAG_INDEX(hdma));
 1664              		.loc 1 301 0 discriminator 124
 1665 0a52 01F58061 		add	r1, r1, #1024
 1666 0a56 8A42     		cmp	r2, r1
 1667 0a58 02D1     		bne	.L462
 301:../Drivers/STM32F4xx_HAL_Driver/Src/stm32f4xx_hal_dma.c ****   __HAL_DMA_CLEAR_FLAG(hdma, __HAL_DMA_GET_HT_FLAG_INDEX(hdma));
 1668              		.loc 1 301 0
 1669 0a5a 4FF48031 		mov	r1, #65536
 1670 0a5e 1AE0     		b	.L203
 1671              	.L462:
 1672 0a60 4FF48001 		mov	r1, #4194304
 1673 0a64 17E0     		b	.L203
 1674              	.L461:
 1675 0a66 4FF48031 		mov	r1, #65536
 1676 0a6a 14E0     		b	.L203
 1677              	.L460:
 1678 0a6c 4FF48031 		mov	r1, #65536
 1679 0a70 11E0     		b	.L203
 1680              	.L459:
 1681 0a72 4FF48031 		mov	r1, #65536
 1682 0a76 0EE0     		b	.L203
 1683              	.L458:
 1684 0a78 4021     		movs	r1, #64
 1685 0a7a 0CE0     		b	.L203
 1686              	.L457:
 1687 0a7c 4021     		movs	r1, #64
 1688 0a7e 0AE0     		b	.L203
 1689              	.L456:
 1690 0a80 4021     		movs	r1, #64
 1691 0a82 08E0     		b	.L203
 1692              	.L455:
 1693 0a84 4021     		movs	r1, #64
 1694 0a86 06E0     		b	.L203
 1695              	.L454:
 1696 0a88 2C49     		ldr	r1, .L529+8
 1697 0a8a 04E0     		b	.L203
 1698              	.L453:
ARM GAS  /tmp/ccAPlzty.s 			page 51


 1699 0a8c 2B49     		ldr	r1, .L529+8
 1700 0a8e 02E0     		b	.L203
 1701              	.L452:
 1702 0a90 2A49     		ldr	r1, .L529+8
 1703 0a92 00E0     		b	.L203
 1704              	.L451:
 1705 0a94 2949     		ldr	r1, .L529+8
 1706              	.L203:
 301:../Drivers/STM32F4xx_HAL_Driver/Src/stm32f4xx_hal_dma.c ****   __HAL_DMA_CLEAR_FLAG(hdma, __HAL_DMA_GET_HT_FLAG_INDEX(hdma));
 1707              		.loc 1 301 0 discriminator 151
 1708 0a96 274A     		ldr	r2, .L529
 1709 0a98 D160     		str	r1, [r2, #12]
 1710 0a9a 5CE0     		b	.L188
 1711              	.L202:
 301:../Drivers/STM32F4xx_HAL_Driver/Src/stm32f4xx_hal_dma.c ****   __HAL_DMA_CLEAR_FLAG(hdma, __HAL_DMA_GET_HT_FLAG_INDEX(hdma));
 1712              		.loc 1 301 0 discriminator 103
 1713 0a9c 2B49     		ldr	r1, .L529+24
 1714 0a9e 8A42     		cmp	r2, r1
 1715 0aa0 56D0     		beq	.L463
 301:../Drivers/STM32F4xx_HAL_Driver/Src/stm32f4xx_hal_dma.c ****   __HAL_DMA_CLEAR_FLAG(hdma, __HAL_DMA_GET_HT_FLAG_INDEX(hdma));
 1716              		.loc 1 301 0 discriminator 153
 1717 0aa2 01F58061 		add	r1, r1, #1024
 1718 0aa6 8A42     		cmp	r2, r1
 1719 0aa8 42D0     		beq	.L464
 301:../Drivers/STM32F4xx_HAL_Driver/Src/stm32f4xx_hal_dma.c ****   __HAL_DMA_CLEAR_FLAG(hdma, __HAL_DMA_GET_HT_FLAG_INDEX(hdma));
 1720              		.loc 1 301 0 discriminator 155
 1721 0aaa A1F56871 		sub	r1, r1, #928
 1722 0aae 8A42     		cmp	r2, r1
 1723 0ab0 3CD0     		beq	.L465
 301:../Drivers/STM32F4xx_HAL_Driver/Src/stm32f4xx_hal_dma.c ****   __HAL_DMA_CLEAR_FLAG(hdma, __HAL_DMA_GET_HT_FLAG_INDEX(hdma));
 1724              		.loc 1 301 0 discriminator 157
 1725 0ab2 01F58061 		add	r1, r1, #1024
 1726 0ab6 8A42     		cmp	r2, r1
 1727 0ab8 36D0     		beq	.L466
 301:../Drivers/STM32F4xx_HAL_Driver/Src/stm32f4xx_hal_dma.c ****   __HAL_DMA_CLEAR_FLAG(hdma, __HAL_DMA_GET_HT_FLAG_INDEX(hdma));
 1728              		.loc 1 301 0 discriminator 159
 1729 0aba A1F58961 		sub	r1, r1, #1096
 1730 0abe 8A42     		cmp	r2, r1
 1731 0ac0 30D0     		beq	.L467
 301:../Drivers/STM32F4xx_HAL_Driver/Src/stm32f4xx_hal_dma.c ****   __HAL_DMA_CLEAR_FLAG(hdma, __HAL_DMA_GET_HT_FLAG_INDEX(hdma));
 1732              		.loc 1 301 0 discriminator 161
 1733 0ac2 01F58061 		add	r1, r1, #1024
 1734 0ac6 8A42     		cmp	r2, r1
 1735 0ac8 2AD0     		beq	.L468
 301:../Drivers/STM32F4xx_HAL_Driver/Src/stm32f4xx_hal_dma.c ****   __HAL_DMA_CLEAR_FLAG(hdma, __HAL_DMA_GET_HT_FLAG_INDEX(hdma));
 1736              		.loc 1 301 0 discriminator 163
 1737 0aca A1F56871 		sub	r1, r1, #928
 1738 0ace 8A42     		cmp	r2, r1
 1739 0ad0 24D0     		beq	.L469
 301:../Drivers/STM32F4xx_HAL_Driver/Src/stm32f4xx_hal_dma.c ****   __HAL_DMA_CLEAR_FLAG(hdma, __HAL_DMA_GET_HT_FLAG_INDEX(hdma));
 1740              		.loc 1 301 0 discriminator 165
 1741 0ad2 01F58061 		add	r1, r1, #1024
 1742 0ad6 8A42     		cmp	r2, r1
 1743 0ad8 1ED0     		beq	.L470
 301:../Drivers/STM32F4xx_HAL_Driver/Src/stm32f4xx_hal_dma.c ****   __HAL_DMA_CLEAR_FLAG(hdma, __HAL_DMA_GET_HT_FLAG_INDEX(hdma));
 1744              		.loc 1 301 0 discriminator 167
 1745 0ada A1F58961 		sub	r1, r1, #1096
ARM GAS  /tmp/ccAPlzty.s 			page 52


 1746 0ade 8A42     		cmp	r2, r1
 1747 0ae0 17D0     		beq	.L471
 301:../Drivers/STM32F4xx_HAL_Driver/Src/stm32f4xx_hal_dma.c ****   __HAL_DMA_CLEAR_FLAG(hdma, __HAL_DMA_GET_HT_FLAG_INDEX(hdma));
 1748              		.loc 1 301 0 discriminator 169
 1749 0ae2 01F58061 		add	r1, r1, #1024
 1750 0ae6 8A42     		cmp	r2, r1
 1751 0ae8 10D0     		beq	.L472
 301:../Drivers/STM32F4xx_HAL_Driver/Src/stm32f4xx_hal_dma.c ****   __HAL_DMA_CLEAR_FLAG(hdma, __HAL_DMA_GET_HT_FLAG_INDEX(hdma));
 1752              		.loc 1 301 0 discriminator 171
 1753 0aea A1F56871 		sub	r1, r1, #928
 1754 0aee 8A42     		cmp	r2, r1
 1755 0af0 09D0     		beq	.L473
 301:../Drivers/STM32F4xx_HAL_Driver/Src/stm32f4xx_hal_dma.c ****   __HAL_DMA_CLEAR_FLAG(hdma, __HAL_DMA_GET_HT_FLAG_INDEX(hdma));
 1756              		.loc 1 301 0 discriminator 173
 1757 0af2 01F58061 		add	r1, r1, #1024
 1758 0af6 8A42     		cmp	r2, r1
 1759 0af8 02D1     		bne	.L474
 301:../Drivers/STM32F4xx_HAL_Driver/Src/stm32f4xx_hal_dma.c ****   __HAL_DMA_CLEAR_FLAG(hdma, __HAL_DMA_GET_HT_FLAG_INDEX(hdma));
 1760              		.loc 1 301 0
 1761 0afa 4FF48031 		mov	r1, #65536
 1762 0afe 28E0     		b	.L216
 1763              	.L474:
 1764 0b00 4FF48001 		mov	r1, #4194304
 1765 0b04 25E0     		b	.L216
 1766              	.L473:
 1767 0b06 4FF48031 		mov	r1, #65536
 1768 0b0a 22E0     		b	.L216
 1769              	.L472:
 1770 0b0c 4FF48031 		mov	r1, #65536
 1771 0b10 1FE0     		b	.L216
 1772              	.L471:
 1773 0b12 4FF48031 		mov	r1, #65536
 1774 0b16 1CE0     		b	.L216
 1775              	.L470:
 1776 0b18 4021     		movs	r1, #64
 1777 0b1a 1AE0     		b	.L216
 1778              	.L469:
 1779 0b1c 4021     		movs	r1, #64
 1780 0b1e 18E0     		b	.L216
 1781              	.L468:
 1782 0b20 4021     		movs	r1, #64
 1783 0b22 16E0     		b	.L216
 1784              	.L467:
 1785 0b24 4021     		movs	r1, #64
 1786 0b26 14E0     		b	.L216
 1787              	.L466:
 1788 0b28 0449     		ldr	r1, .L529+8
 1789 0b2a 12E0     		b	.L216
 1790              	.L465:
 1791 0b2c 0349     		ldr	r1, .L529+8
 1792 0b2e 10E0     		b	.L216
 1793              	.L464:
 1794 0b30 0249     		ldr	r1, .L529+8
 1795 0b32 0EE0     		b	.L216
 1796              	.L530:
 1797              		.align	2
 1798              	.L529:
ARM GAS  /tmp/ccAPlzty.s 			page 53


 1799 0b34 00600240 		.word	1073897472
 1800 0b38 58640240 		.word	1073898584
 1801 0b3c 01008000 		.word	8388609
 1802 0b40 00640240 		.word	1073898496
 1803 0b44 B8600240 		.word	1073897656
 1804 0b48 58600240 		.word	1073897560
 1805 0b4c 10600240 		.word	1073897488
 1806              	.L463:
 1807 0b50 B349     		ldr	r1, .L531
 1808              	.L216:
 301:../Drivers/STM32F4xx_HAL_Driver/Src/stm32f4xx_hal_dma.c ****   __HAL_DMA_CLEAR_FLAG(hdma, __HAL_DMA_GET_HT_FLAG_INDEX(hdma));
 1809              		.loc 1 301 0 discriminator 200
 1810 0b52 B44A     		ldr	r2, .L531+4
 1811 0b54 9160     		str	r1, [r2, #8]
 1812              	.L188:
 302:../Drivers/STM32F4xx_HAL_Driver/Src/stm32f4xx_hal_dma.c **** 
 1813              		.loc 1 302 0 is_stmt 1
 1814 0b56 1A68     		ldr	r2, [r3]
 1815 0b58 B349     		ldr	r1, .L531+8
 1816 0b5a 8A42     		cmp	r2, r1
 1817 0b5c 54D9     		bls	.L228
 302:../Drivers/STM32F4xx_HAL_Driver/Src/stm32f4xx_hal_dma.c **** 
 1818              		.loc 1 302 0 is_stmt 0 discriminator 1
 1819 0b5e A1F58961 		sub	r1, r1, #1096
 1820 0b62 8A42     		cmp	r2, r1
 1821 0b64 4CD0     		beq	.L475
 302:../Drivers/STM32F4xx_HAL_Driver/Src/stm32f4xx_hal_dma.c **** 
 1822              		.loc 1 302 0 discriminator 3
 1823 0b66 01F58061 		add	r1, r1, #1024
 1824 0b6a 8A42     		cmp	r2, r1
 1825 0b6c 46D0     		beq	.L476
 302:../Drivers/STM32F4xx_HAL_Driver/Src/stm32f4xx_hal_dma.c **** 
 1826              		.loc 1 302 0 discriminator 5
 1827 0b6e A1F56871 		sub	r1, r1, #928
 1828 0b72 8A42     		cmp	r2, r1
 1829 0b74 40D0     		beq	.L477
 302:../Drivers/STM32F4xx_HAL_Driver/Src/stm32f4xx_hal_dma.c **** 
 1830              		.loc 1 302 0 discriminator 7
 1831 0b76 01F58061 		add	r1, r1, #1024
 1832 0b7a 8A42     		cmp	r2, r1
 1833 0b7c 3AD0     		beq	.L478
 302:../Drivers/STM32F4xx_HAL_Driver/Src/stm32f4xx_hal_dma.c **** 
 1834              		.loc 1 302 0 discriminator 9
 1835 0b7e A1F58961 		sub	r1, r1, #1096
 1836 0b82 8A42     		cmp	r2, r1
 1837 0b84 33D0     		beq	.L479
 302:../Drivers/STM32F4xx_HAL_Driver/Src/stm32f4xx_hal_dma.c **** 
 1838              		.loc 1 302 0 discriminator 11
 1839 0b86 01F58061 		add	r1, r1, #1024
 1840 0b8a 8A42     		cmp	r2, r1
 1841 0b8c 2CD0     		beq	.L480
 302:../Drivers/STM32F4xx_HAL_Driver/Src/stm32f4xx_hal_dma.c **** 
 1842              		.loc 1 302 0 discriminator 13
 1843 0b8e A1F56871 		sub	r1, r1, #928
 1844 0b92 8A42     		cmp	r2, r1
 1845 0b94 25D0     		beq	.L481
 302:../Drivers/STM32F4xx_HAL_Driver/Src/stm32f4xx_hal_dma.c **** 
ARM GAS  /tmp/ccAPlzty.s 			page 54


 1846              		.loc 1 302 0 discriminator 15
 1847 0b96 01F58061 		add	r1, r1, #1024
 1848 0b9a 8A42     		cmp	r2, r1
 1849 0b9c 1ED0     		beq	.L482
 302:../Drivers/STM32F4xx_HAL_Driver/Src/stm32f4xx_hal_dma.c **** 
 1850              		.loc 1 302 0 discriminator 17
 1851 0b9e A1F58961 		sub	r1, r1, #1096
 1852 0ba2 8A42     		cmp	r2, r1
 1853 0ba4 17D0     		beq	.L483
 302:../Drivers/STM32F4xx_HAL_Driver/Src/stm32f4xx_hal_dma.c **** 
 1854              		.loc 1 302 0 discriminator 19
 1855 0ba6 01F58061 		add	r1, r1, #1024
 1856 0baa 8A42     		cmp	r2, r1
 1857 0bac 10D0     		beq	.L484
 302:../Drivers/STM32F4xx_HAL_Driver/Src/stm32f4xx_hal_dma.c **** 
 1858              		.loc 1 302 0 discriminator 21
 1859 0bae A1F56871 		sub	r1, r1, #928
 1860 0bb2 8A42     		cmp	r2, r1
 1861 0bb4 09D0     		beq	.L485
 302:../Drivers/STM32F4xx_HAL_Driver/Src/stm32f4xx_hal_dma.c **** 
 1862              		.loc 1 302 0 discriminator 23
 1863 0bb6 01F58061 		add	r1, r1, #1024
 1864 0bba 8A42     		cmp	r2, r1
 1865 0bbc 02D1     		bne	.L486
 302:../Drivers/STM32F4xx_HAL_Driver/Src/stm32f4xx_hal_dma.c **** 
 1866              		.loc 1 302 0
 1867 0bbe 4FF48011 		mov	r1, #1048576
 1868 0bc2 1EE0     		b	.L229
 1869              	.L486:
 1870 0bc4 4FF08061 		mov	r1, #67108864
 1871 0bc8 1BE0     		b	.L229
 1872              	.L485:
 1873 0bca 4FF48011 		mov	r1, #1048576
 1874 0bce 18E0     		b	.L229
 1875              	.L484:
 1876 0bd0 4FF48011 		mov	r1, #1048576
 1877 0bd4 15E0     		b	.L229
 1878              	.L483:
 1879 0bd6 4FF48011 		mov	r1, #1048576
 1880 0bda 12E0     		b	.L229
 1881              	.L482:
 1882 0bdc 4FF48061 		mov	r1, #1024
 1883 0be0 0FE0     		b	.L229
 1884              	.L481:
 1885 0be2 4FF48061 		mov	r1, #1024
 1886 0be6 0CE0     		b	.L229
 1887              	.L480:
 1888 0be8 4FF48061 		mov	r1, #1024
 1889 0bec 09E0     		b	.L229
 1890              	.L479:
 1891 0bee 4FF48061 		mov	r1, #1024
 1892 0bf2 06E0     		b	.L229
 1893              	.L478:
 1894 0bf4 1021     		movs	r1, #16
 1895 0bf6 04E0     		b	.L229
 1896              	.L477:
 1897 0bf8 1021     		movs	r1, #16
ARM GAS  /tmp/ccAPlzty.s 			page 55


 1898 0bfa 02E0     		b	.L229
 1899              	.L476:
 1900 0bfc 1021     		movs	r1, #16
 1901 0bfe 00E0     		b	.L229
 1902              	.L475:
 1903 0c00 1021     		movs	r1, #16
 1904              	.L229:
 302:../Drivers/STM32F4xx_HAL_Driver/Src/stm32f4xx_hal_dma.c **** 
 1905              		.loc 1 302 0 discriminator 50
 1906 0c02 8A4A     		ldr	r2, .L531+12
 1907 0c04 D160     		str	r1, [r2, #12]
 1908 0c06 00E1     		b	.L241
 1909              	.L228:
 302:../Drivers/STM32F4xx_HAL_Driver/Src/stm32f4xx_hal_dma.c **** 
 1910              		.loc 1 302 0 discriminator 2
 1911 0c08 8949     		ldr	r1, .L531+16
 1912 0c0a 8A42     		cmp	r2, r1
 1913 0c0c 53D9     		bls	.L242
 302:../Drivers/STM32F4xx_HAL_Driver/Src/stm32f4xx_hal_dma.c **** 
 1914              		.loc 1 302 0 discriminator 51
 1915 0c0e A839     		subs	r1, r1, #168
 1916 0c10 8A42     		cmp	r2, r1
 1917 0c12 4CD0     		beq	.L487
 302:../Drivers/STM32F4xx_HAL_Driver/Src/stm32f4xx_hal_dma.c **** 
 1918              		.loc 1 302 0 discriminator 53
 1919 0c14 01F58061 		add	r1, r1, #1024
 1920 0c18 8A42     		cmp	r2, r1
 1921 0c1a 46D0     		beq	.L488
 302:../Drivers/STM32F4xx_HAL_Driver/Src/stm32f4xx_hal_dma.c **** 
 1922              		.loc 1 302 0 discriminator 55
 1923 0c1c A1F56871 		sub	r1, r1, #928
 1924 0c20 8A42     		cmp	r2, r1
 1925 0c22 40D0     		beq	.L489
 302:../Drivers/STM32F4xx_HAL_Driver/Src/stm32f4xx_hal_dma.c **** 
 1926              		.loc 1 302 0 discriminator 57
 1927 0c24 01F58061 		add	r1, r1, #1024
 1928 0c28 8A42     		cmp	r2, r1
 1929 0c2a 3AD0     		beq	.L490
 302:../Drivers/STM32F4xx_HAL_Driver/Src/stm32f4xx_hal_dma.c **** 
 1930              		.loc 1 302 0 discriminator 59
 1931 0c2c A1F58961 		sub	r1, r1, #1096
 1932 0c30 8A42     		cmp	r2, r1
 1933 0c32 33D0     		beq	.L491
 302:../Drivers/STM32F4xx_HAL_Driver/Src/stm32f4xx_hal_dma.c **** 
 1934              		.loc 1 302 0 discriminator 61
 1935 0c34 01F58061 		add	r1, r1, #1024
 1936 0c38 8A42     		cmp	r2, r1
 1937 0c3a 2CD0     		beq	.L492
 302:../Drivers/STM32F4xx_HAL_Driver/Src/stm32f4xx_hal_dma.c **** 
 1938              		.loc 1 302 0 discriminator 63
 1939 0c3c A1F56871 		sub	r1, r1, #928
 1940 0c40 8A42     		cmp	r2, r1
 1941 0c42 25D0     		beq	.L493
 302:../Drivers/STM32F4xx_HAL_Driver/Src/stm32f4xx_hal_dma.c **** 
 1942              		.loc 1 302 0 discriminator 65
 1943 0c44 01F58061 		add	r1, r1, #1024
 1944 0c48 8A42     		cmp	r2, r1
ARM GAS  /tmp/ccAPlzty.s 			page 56


 1945 0c4a 1ED0     		beq	.L494
 302:../Drivers/STM32F4xx_HAL_Driver/Src/stm32f4xx_hal_dma.c **** 
 1946              		.loc 1 302 0 discriminator 67
 1947 0c4c A1F58961 		sub	r1, r1, #1096
 1948 0c50 8A42     		cmp	r2, r1
 1949 0c52 17D0     		beq	.L495
 302:../Drivers/STM32F4xx_HAL_Driver/Src/stm32f4xx_hal_dma.c **** 
 1950              		.loc 1 302 0 discriminator 69
 1951 0c54 01F58061 		add	r1, r1, #1024
 1952 0c58 8A42     		cmp	r2, r1
 1953 0c5a 10D0     		beq	.L496
 302:../Drivers/STM32F4xx_HAL_Driver/Src/stm32f4xx_hal_dma.c **** 
 1954              		.loc 1 302 0 discriminator 71
 1955 0c5c A1F56871 		sub	r1, r1, #928
 1956 0c60 8A42     		cmp	r2, r1
 1957 0c62 09D0     		beq	.L497
 302:../Drivers/STM32F4xx_HAL_Driver/Src/stm32f4xx_hal_dma.c **** 
 1958              		.loc 1 302 0 discriminator 73
 1959 0c64 01F58061 		add	r1, r1, #1024
 1960 0c68 8A42     		cmp	r2, r1
 1961 0c6a 02D1     		bne	.L498
 302:../Drivers/STM32F4xx_HAL_Driver/Src/stm32f4xx_hal_dma.c **** 
 1962              		.loc 1 302 0
 1963 0c6c 4FF48011 		mov	r1, #1048576
 1964 0c70 1EE0     		b	.L243
 1965              	.L498:
 1966 0c72 4FF08061 		mov	r1, #67108864
 1967 0c76 1BE0     		b	.L243
 1968              	.L497:
 1969 0c78 4FF48011 		mov	r1, #1048576
 1970 0c7c 18E0     		b	.L243
 1971              	.L496:
 1972 0c7e 4FF48011 		mov	r1, #1048576
 1973 0c82 15E0     		b	.L243
 1974              	.L495:
 1975 0c84 4FF48011 		mov	r1, #1048576
 1976 0c88 12E0     		b	.L243
 1977              	.L494:
 1978 0c8a 4FF48061 		mov	r1, #1024
 1979 0c8e 0FE0     		b	.L243
 1980              	.L493:
 1981 0c90 4FF48061 		mov	r1, #1024
 1982 0c94 0CE0     		b	.L243
 1983              	.L492:
 1984 0c96 4FF48061 		mov	r1, #1024
 1985 0c9a 09E0     		b	.L243
 1986              	.L491:
 1987 0c9c 4FF48061 		mov	r1, #1024
 1988 0ca0 06E0     		b	.L243
 1989              	.L490:
 1990 0ca2 1021     		movs	r1, #16
 1991 0ca4 04E0     		b	.L243
 1992              	.L489:
 1993 0ca6 1021     		movs	r1, #16
 1994 0ca8 02E0     		b	.L243
 1995              	.L488:
 1996 0caa 1021     		movs	r1, #16
ARM GAS  /tmp/ccAPlzty.s 			page 57


 1997 0cac 00E0     		b	.L243
 1998              	.L487:
 1999 0cae 1021     		movs	r1, #16
 2000              	.L243:
 302:../Drivers/STM32F4xx_HAL_Driver/Src/stm32f4xx_hal_dma.c **** 
 2001              		.loc 1 302 0 discriminator 100
 2002 0cb0 5E4A     		ldr	r2, .L531+12
 2003 0cb2 9160     		str	r1, [r2, #8]
 2004 0cb4 A9E0     		b	.L241
 2005              	.L242:
 302:../Drivers/STM32F4xx_HAL_Driver/Src/stm32f4xx_hal_dma.c **** 
 2006              		.loc 1 302 0 discriminator 52
 2007 0cb6 5F49     		ldr	r1, .L531+20
 2008 0cb8 8A42     		cmp	r2, r1
 2009 0cba 53D9     		bls	.L255
 302:../Drivers/STM32F4xx_HAL_Driver/Src/stm32f4xx_hal_dma.c **** 
 2010              		.loc 1 302 0 discriminator 102
 2011 0cbc 4839     		subs	r1, r1, #72
 2012 0cbe 8A42     		cmp	r2, r1
 2013 0cc0 4CD0     		beq	.L499
 302:../Drivers/STM32F4xx_HAL_Driver/Src/stm32f4xx_hal_dma.c **** 
 2014              		.loc 1 302 0 discriminator 104
 2015 0cc2 01F58061 		add	r1, r1, #1024
 2016 0cc6 8A42     		cmp	r2, r1
 2017 0cc8 46D0     		beq	.L500
 302:../Drivers/STM32F4xx_HAL_Driver/Src/stm32f4xx_hal_dma.c **** 
 2018              		.loc 1 302 0 discriminator 106
 2019 0cca A1F56871 		sub	r1, r1, #928
 2020 0cce 8A42     		cmp	r2, r1
 2021 0cd0 40D0     		beq	.L501
 302:../Drivers/STM32F4xx_HAL_Driver/Src/stm32f4xx_hal_dma.c **** 
 2022              		.loc 1 302 0 discriminator 108
 2023 0cd2 01F58061 		add	r1, r1, #1024
 2024 0cd6 8A42     		cmp	r2, r1
 2025 0cd8 3AD0     		beq	.L502
 302:../Drivers/STM32F4xx_HAL_Driver/Src/stm32f4xx_hal_dma.c **** 
 2026              		.loc 1 302 0 discriminator 110
 2027 0cda A1F58961 		sub	r1, r1, #1096
 2028 0cde 8A42     		cmp	r2, r1
 2029 0ce0 33D0     		beq	.L503
 302:../Drivers/STM32F4xx_HAL_Driver/Src/stm32f4xx_hal_dma.c **** 
 2030              		.loc 1 302 0 discriminator 112
 2031 0ce2 01F58061 		add	r1, r1, #1024
 2032 0ce6 8A42     		cmp	r2, r1
 2033 0ce8 2CD0     		beq	.L504
 302:../Drivers/STM32F4xx_HAL_Driver/Src/stm32f4xx_hal_dma.c **** 
 2034              		.loc 1 302 0 discriminator 114
 2035 0cea A1F56871 		sub	r1, r1, #928
 2036 0cee 8A42     		cmp	r2, r1
 2037 0cf0 25D0     		beq	.L505
 302:../Drivers/STM32F4xx_HAL_Driver/Src/stm32f4xx_hal_dma.c **** 
 2038              		.loc 1 302 0 discriminator 116
 2039 0cf2 01F58061 		add	r1, r1, #1024
 2040 0cf6 8A42     		cmp	r2, r1
 2041 0cf8 1ED0     		beq	.L506
 302:../Drivers/STM32F4xx_HAL_Driver/Src/stm32f4xx_hal_dma.c **** 
 2042              		.loc 1 302 0 discriminator 118
ARM GAS  /tmp/ccAPlzty.s 			page 58


 2043 0cfa A1F58961 		sub	r1, r1, #1096
 2044 0cfe 8A42     		cmp	r2, r1
 2045 0d00 17D0     		beq	.L507
 302:../Drivers/STM32F4xx_HAL_Driver/Src/stm32f4xx_hal_dma.c **** 
 2046              		.loc 1 302 0 discriminator 120
 2047 0d02 01F58061 		add	r1, r1, #1024
 2048 0d06 8A42     		cmp	r2, r1
 2049 0d08 10D0     		beq	.L508
 302:../Drivers/STM32F4xx_HAL_Driver/Src/stm32f4xx_hal_dma.c **** 
 2050              		.loc 1 302 0 discriminator 122
 2051 0d0a A1F56871 		sub	r1, r1, #928
 2052 0d0e 8A42     		cmp	r2, r1
 2053 0d10 09D0     		beq	.L509
 302:../Drivers/STM32F4xx_HAL_Driver/Src/stm32f4xx_hal_dma.c **** 
 2054              		.loc 1 302 0 discriminator 124
 2055 0d12 01F58061 		add	r1, r1, #1024
 2056 0d16 8A42     		cmp	r2, r1
 2057 0d18 02D1     		bne	.L510
 302:../Drivers/STM32F4xx_HAL_Driver/Src/stm32f4xx_hal_dma.c **** 
 2058              		.loc 1 302 0
 2059 0d1a 4FF48011 		mov	r1, #1048576
 2060 0d1e 1EE0     		b	.L256
 2061              	.L510:
 2062 0d20 4FF08061 		mov	r1, #67108864
 2063 0d24 1BE0     		b	.L256
 2064              	.L509:
 2065 0d26 4FF48011 		mov	r1, #1048576
 2066 0d2a 18E0     		b	.L256
 2067              	.L508:
 2068 0d2c 4FF48011 		mov	r1, #1048576
 2069 0d30 15E0     		b	.L256
 2070              	.L507:
 2071 0d32 4FF48011 		mov	r1, #1048576
 2072 0d36 12E0     		b	.L256
 2073              	.L506:
 2074 0d38 4FF48061 		mov	r1, #1024
 2075 0d3c 0FE0     		b	.L256
 2076              	.L505:
 2077 0d3e 4FF48061 		mov	r1, #1024
 2078 0d42 0CE0     		b	.L256
 2079              	.L504:
 2080 0d44 4FF48061 		mov	r1, #1024
 2081 0d48 09E0     		b	.L256
 2082              	.L503:
 2083 0d4a 4FF48061 		mov	r1, #1024
 2084 0d4e 06E0     		b	.L256
 2085              	.L502:
 2086 0d50 1021     		movs	r1, #16
 2087 0d52 04E0     		b	.L256
 2088              	.L501:
 2089 0d54 1021     		movs	r1, #16
 2090 0d56 02E0     		b	.L256
 2091              	.L500:
 2092 0d58 1021     		movs	r1, #16
 2093 0d5a 00E0     		b	.L256
 2094              	.L499:
 2095 0d5c 1021     		movs	r1, #16
ARM GAS  /tmp/ccAPlzty.s 			page 59


 2096              	.L256:
 302:../Drivers/STM32F4xx_HAL_Driver/Src/stm32f4xx_hal_dma.c **** 
 2097              		.loc 1 302 0 discriminator 151
 2098 0d5e 314A     		ldr	r2, .L531+4
 2099 0d60 D160     		str	r1, [r2, #12]
 2100 0d62 52E0     		b	.L241
 2101              	.L255:
 302:../Drivers/STM32F4xx_HAL_Driver/Src/stm32f4xx_hal_dma.c **** 
 2102              		.loc 1 302 0 discriminator 103
 2103 0d64 3449     		ldr	r1, .L531+24
 2104 0d66 8A42     		cmp	r2, r1
 2105 0d68 4CD0     		beq	.L511
 302:../Drivers/STM32F4xx_HAL_Driver/Src/stm32f4xx_hal_dma.c **** 
 2106              		.loc 1 302 0 discriminator 153
 2107 0d6a 01F58061 		add	r1, r1, #1024
 2108 0d6e 8A42     		cmp	r2, r1
 2109 0d70 46D0     		beq	.L512
 302:../Drivers/STM32F4xx_HAL_Driver/Src/stm32f4xx_hal_dma.c **** 
 2110              		.loc 1 302 0 discriminator 155
 2111 0d72 A1F56871 		sub	r1, r1, #928
 2112 0d76 8A42     		cmp	r2, r1
 2113 0d78 40D0     		beq	.L513
 302:../Drivers/STM32F4xx_HAL_Driver/Src/stm32f4xx_hal_dma.c **** 
 2114              		.loc 1 302 0 discriminator 157
 2115 0d7a 01F58061 		add	r1, r1, #1024
 2116 0d7e 8A42     		cmp	r2, r1
 2117 0d80 3AD0     		beq	.L514
 302:../Drivers/STM32F4xx_HAL_Driver/Src/stm32f4xx_hal_dma.c **** 
 2118              		.loc 1 302 0 discriminator 159
 2119 0d82 A1F58961 		sub	r1, r1, #1096
 2120 0d86 8A42     		cmp	r2, r1
 2121 0d88 33D0     		beq	.L515
 302:../Drivers/STM32F4xx_HAL_Driver/Src/stm32f4xx_hal_dma.c **** 
 2122              		.loc 1 302 0 discriminator 161
 2123 0d8a 01F58061 		add	r1, r1, #1024
 2124 0d8e 8A42     		cmp	r2, r1
 2125 0d90 2CD0     		beq	.L516
 302:../Drivers/STM32F4xx_HAL_Driver/Src/stm32f4xx_hal_dma.c **** 
 2126              		.loc 1 302 0 discriminator 163
 2127 0d92 A1F56871 		sub	r1, r1, #928
 2128 0d96 8A42     		cmp	r2, r1
 2129 0d98 25D0     		beq	.L517
 302:../Drivers/STM32F4xx_HAL_Driver/Src/stm32f4xx_hal_dma.c **** 
 2130              		.loc 1 302 0 discriminator 165
 2131 0d9a 01F58061 		add	r1, r1, #1024
 2132 0d9e 8A42     		cmp	r2, r1
 2133 0da0 1ED0     		beq	.L518
 302:../Drivers/STM32F4xx_HAL_Driver/Src/stm32f4xx_hal_dma.c **** 
 2134              		.loc 1 302 0 discriminator 167
 2135 0da2 A1F58961 		sub	r1, r1, #1096
 2136 0da6 8A42     		cmp	r2, r1
 2137 0da8 17D0     		beq	.L519
 302:../Drivers/STM32F4xx_HAL_Driver/Src/stm32f4xx_hal_dma.c **** 
 2138              		.loc 1 302 0 discriminator 169
 2139 0daa 01F58061 		add	r1, r1, #1024
 2140 0dae 8A42     		cmp	r2, r1
 2141 0db0 10D0     		beq	.L520
ARM GAS  /tmp/ccAPlzty.s 			page 60


 302:../Drivers/STM32F4xx_HAL_Driver/Src/stm32f4xx_hal_dma.c **** 
 2142              		.loc 1 302 0 discriminator 171
 2143 0db2 A1F56871 		sub	r1, r1, #928
 2144 0db6 8A42     		cmp	r2, r1
 2145 0db8 09D0     		beq	.L521
 302:../Drivers/STM32F4xx_HAL_Driver/Src/stm32f4xx_hal_dma.c **** 
 2146              		.loc 1 302 0 discriminator 173
 2147 0dba 01F58061 		add	r1, r1, #1024
 2148 0dbe 8A42     		cmp	r2, r1
 2149 0dc0 02D1     		bne	.L522
 302:../Drivers/STM32F4xx_HAL_Driver/Src/stm32f4xx_hal_dma.c **** 
 2150              		.loc 1 302 0
 2151 0dc2 4FF48011 		mov	r1, #1048576
 2152 0dc6 1EE0     		b	.L269
 2153              	.L522:
 2154 0dc8 4FF08061 		mov	r1, #67108864
 2155 0dcc 1BE0     		b	.L269
 2156              	.L521:
 2157 0dce 4FF48011 		mov	r1, #1048576
 2158 0dd2 18E0     		b	.L269
 2159              	.L520:
 2160 0dd4 4FF48011 		mov	r1, #1048576
 2161 0dd8 15E0     		b	.L269
 2162              	.L519:
 2163 0dda 4FF48011 		mov	r1, #1048576
 2164 0dde 12E0     		b	.L269
 2165              	.L518:
 2166 0de0 4FF48061 		mov	r1, #1024
 2167 0de4 0FE0     		b	.L269
 2168              	.L517:
 2169 0de6 4FF48061 		mov	r1, #1024
 2170 0dea 0CE0     		b	.L269
 2171              	.L516:
 2172 0dec 4FF48061 		mov	r1, #1024
 2173 0df0 09E0     		b	.L269
 2174              	.L515:
 2175 0df2 4FF48061 		mov	r1, #1024
 2176 0df6 06E0     		b	.L269
 2177              	.L514:
 2178 0df8 1021     		movs	r1, #16
 2179 0dfa 04E0     		b	.L269
 2180              	.L513:
 2181 0dfc 1021     		movs	r1, #16
 2182 0dfe 02E0     		b	.L269
 2183              	.L512:
 2184 0e00 1021     		movs	r1, #16
 2185 0e02 00E0     		b	.L269
 2186              	.L511:
 2187 0e04 1021     		movs	r1, #16
 2188              	.L269:
 302:../Drivers/STM32F4xx_HAL_Driver/Src/stm32f4xx_hal_dma.c **** 
 2189              		.loc 1 302 0 discriminator 200
 2190 0e06 074A     		ldr	r2, .L531+4
 2191 0e08 9160     		str	r1, [r2, #8]
 2192              	.L241:
 305:../Drivers/STM32F4xx_HAL_Driver/Src/stm32f4xx_hal_dma.c **** 
 2193              		.loc 1 305 0 is_stmt 1
ARM GAS  /tmp/ccAPlzty.s 			page 61


 2194 0e0a 0020     		movs	r0, #0
 2195              	.LVL20:
 2196 0e0c D864     		str	r0, [r3, #76]
 308:../Drivers/STM32F4xx_HAL_Driver/Src/stm32f4xx_hal_dma.c **** 
 2197              		.loc 1 308 0
 2198 0e0e 83F83500 		strb	r0, [r3, #53]
 311:../Drivers/STM32F4xx_HAL_Driver/Src/stm32f4xx_hal_dma.c **** 
 2199              		.loc 1 311 0
 2200 0e12 83F83400 		strb	r0, [r3, #52]
 313:../Drivers/STM32F4xx_HAL_Driver/Src/stm32f4xx_hal_dma.c **** }
 2201              		.loc 1 313 0
 2202 0e16 7047     		bx	lr
 2203              	.LVL21:
 2204              	.L281:
 267:../Drivers/STM32F4xx_HAL_Driver/Src/stm32f4xx_hal_dma.c ****   }
 2205              		.loc 1 267 0
 2206 0e18 0120     		movs	r0, #1
 2207              	.LVL22:
 2208 0e1a 7047     		bx	lr
 2209              	.LVL23:
 2210              	.L282:
 273:../Drivers/STM32F4xx_HAL_Driver/Src/stm32f4xx_hal_dma.c ****   }
 2211              		.loc 1 273 0
 2212 0e1c 0120     		movs	r0, #1
 2213              	.LVL24:
 314:../Drivers/STM32F4xx_HAL_Driver/Src/stm32f4xx_hal_dma.c **** 
 2214              		.loc 1 314 0
 2215 0e1e 7047     		bx	lr
 2216              	.L532:
 2217              		.align	2
 2218              	.L531:
 2219 0e20 01008000 		.word	8388609
 2220 0e24 00600240 		.word	1073897472
 2221 0e28 58640240 		.word	1073898584
 2222 0e2c 00640240 		.word	1073898496
 2223 0e30 B8600240 		.word	1073897656
 2224 0e34 58600240 		.word	1073897560
 2225 0e38 10600240 		.word	1073897488
 2226              		.cfi_endproc
 2227              	.LFE113:
 2229              		.section	.text.HAL_DMA_Start,"ax",%progbits
 2230              		.align	2
 2231              		.global	HAL_DMA_Start
 2232              		.thumb
 2233              		.thumb_func
 2235              	HAL_DMA_Start:
 2236              	.LFB114:
 349:../Drivers/STM32F4xx_HAL_Driver/Src/stm32f4xx_hal_dma.c ****   /* Process locked */
 2237              		.loc 1 349 0
 2238              		.cfi_startproc
 2239              		@ args = 0, pretend = 0, frame = 0
 2240              		@ frame_needed = 0, uses_anonymous_args = 0
 2241              	.LVL25:
 2242 0000 38B5     		push	{r3, r4, r5, lr}
 2243              	.LCFI6:
 2244              		.cfi_def_cfa_offset 16
 2245              		.cfi_offset 3, -16
ARM GAS  /tmp/ccAPlzty.s 			page 62


 2246              		.cfi_offset 4, -12
 2247              		.cfi_offset 5, -8
 2248              		.cfi_offset 14, -4
 351:../Drivers/STM32F4xx_HAL_Driver/Src/stm32f4xx_hal_dma.c **** 
 2249              		.loc 1 351 0
 2250 0002 90F83440 		ldrb	r4, [r0, #52]	@ zero_extendqisi2
 2251 0006 012C     		cmp	r4, #1
 2252 0008 15D0     		beq	.L535
 2253 000a 0446     		mov	r4, r0
 351:../Drivers/STM32F4xx_HAL_Driver/Src/stm32f4xx_hal_dma.c **** 
 2254              		.loc 1 351 0 is_stmt 0 discriminator 2
 2255 000c 0120     		movs	r0, #1
 2256              	.LVL26:
 2257 000e 84F83400 		strb	r0, [r4, #52]
 354:../Drivers/STM32F4xx_HAL_Driver/Src/stm32f4xx_hal_dma.c **** 
 2258              		.loc 1 354 0 is_stmt 1 discriminator 2
 2259 0012 0220     		movs	r0, #2
 2260 0014 84F83500 		strb	r0, [r4, #53]
 360:../Drivers/STM32F4xx_HAL_Driver/Src/stm32f4xx_hal_dma.c **** 
 2261              		.loc 1 360 0 discriminator 2
 2262 0018 2568     		ldr	r5, [r4]
 2263 001a 2868     		ldr	r0, [r5]
 2264 001c 20F00100 		bic	r0, r0, #1
 2265 0020 2860     		str	r0, [r5]
 363:../Drivers/STM32F4xx_HAL_Driver/Src/stm32f4xx_hal_dma.c **** 
 2266              		.loc 1 363 0 discriminator 2
 2267 0022 2046     		mov	r0, r4
 2268 0024 FFF7FEFF 		bl	DMA_SetConfig
 2269              	.LVL27:
 366:../Drivers/STM32F4xx_HAL_Driver/Src/stm32f4xx_hal_dma.c **** 
 2270              		.loc 1 366 0 discriminator 2
 2271 0028 2268     		ldr	r2, [r4]
 2272 002a 1368     		ldr	r3, [r2]
 2273 002c 43F00103 		orr	r3, r3, #1
 2274 0030 1360     		str	r3, [r2]
 368:../Drivers/STM32F4xx_HAL_Driver/Src/stm32f4xx_hal_dma.c **** }
 2275              		.loc 1 368 0 discriminator 2
 2276 0032 0020     		movs	r0, #0
 2277 0034 38BD     		pop	{r3, r4, r5, pc}
 2278              	.LVL28:
 2279              	.L535:
 351:../Drivers/STM32F4xx_HAL_Driver/Src/stm32f4xx_hal_dma.c **** 
 2280              		.loc 1 351 0
 2281 0036 0220     		movs	r0, #2
 2282              	.LVL29:
 369:../Drivers/STM32F4xx_HAL_Driver/Src/stm32f4xx_hal_dma.c **** 
 2283              		.loc 1 369 0
 2284 0038 38BD     		pop	{r3, r4, r5, pc}
 2285              		.cfi_endproc
 2286              	.LFE114:
 2288              		.section	.text.HAL_DMA_Start_IT,"ax",%progbits
 2289              		.align	2
 2290              		.global	HAL_DMA_Start_IT
 2291              		.thumb
 2292              		.thumb_func
 2294              	HAL_DMA_Start_IT:
 2295              	.LFB115:
ARM GAS  /tmp/ccAPlzty.s 			page 63


 381:../Drivers/STM32F4xx_HAL_Driver/Src/stm32f4xx_hal_dma.c ****   /* Process locked */
 2296              		.loc 1 381 0
 2297              		.cfi_startproc
 2298              		@ args = 0, pretend = 0, frame = 0
 2299              		@ frame_needed = 0, uses_anonymous_args = 0
 2300              	.LVL30:
 2301 0000 38B5     		push	{r3, r4, r5, lr}
 2302              	.LCFI7:
 2303              		.cfi_def_cfa_offset 16
 2304              		.cfi_offset 3, -16
 2305              		.cfi_offset 4, -12
 2306              		.cfi_offset 5, -8
 2307              		.cfi_offset 14, -4
 383:../Drivers/STM32F4xx_HAL_Driver/Src/stm32f4xx_hal_dma.c **** 
 2308              		.loc 1 383 0
 2309 0002 90F83440 		ldrb	r4, [r0, #52]	@ zero_extendqisi2
 2310 0006 012C     		cmp	r4, #1
 2311 0008 2ED0     		beq	.L539
 2312 000a 0446     		mov	r4, r0
 383:../Drivers/STM32F4xx_HAL_Driver/Src/stm32f4xx_hal_dma.c **** 
 2313              		.loc 1 383 0 is_stmt 0 discriminator 2
 2314 000c 0120     		movs	r0, #1
 2315              	.LVL31:
 2316 000e 84F83400 		strb	r0, [r4, #52]
 386:../Drivers/STM32F4xx_HAL_Driver/Src/stm32f4xx_hal_dma.c **** 
 2317              		.loc 1 386 0 is_stmt 1 discriminator 2
 2318 0012 0220     		movs	r0, #2
 2319 0014 84F83500 		strb	r0, [r4, #53]
 392:../Drivers/STM32F4xx_HAL_Driver/Src/stm32f4xx_hal_dma.c **** 
 2320              		.loc 1 392 0 discriminator 2
 2321 0018 2568     		ldr	r5, [r4]
 2322 001a 2868     		ldr	r0, [r5]
 2323 001c 20F00100 		bic	r0, r0, #1
 2324 0020 2860     		str	r0, [r5]
 395:../Drivers/STM32F4xx_HAL_Driver/Src/stm32f4xx_hal_dma.c **** 
 2325              		.loc 1 395 0 discriminator 2
 2326 0022 2046     		mov	r0, r4
 2327 0024 FFF7FEFF 		bl	DMA_SetConfig
 2328              	.LVL32:
 398:../Drivers/STM32F4xx_HAL_Driver/Src/stm32f4xx_hal_dma.c **** 
 2329              		.loc 1 398 0 discriminator 2
 2330 0028 2268     		ldr	r2, [r4]
 2331 002a 1368     		ldr	r3, [r2]
 2332 002c 43F01003 		orr	r3, r3, #16
 2333 0030 1360     		str	r3, [r2]
 401:../Drivers/STM32F4xx_HAL_Driver/Src/stm32f4xx_hal_dma.c **** 
 2334              		.loc 1 401 0 discriminator 2
 2335 0032 2268     		ldr	r2, [r4]
 2336 0034 1368     		ldr	r3, [r2]
 2337 0036 43F00803 		orr	r3, r3, #8
 2338 003a 1360     		str	r3, [r2]
 404:../Drivers/STM32F4xx_HAL_Driver/Src/stm32f4xx_hal_dma.c **** 
 2339              		.loc 1 404 0 discriminator 2
 2340 003c 2268     		ldr	r2, [r4]
 2341 003e 1368     		ldr	r3, [r2]
 2342 0040 43F00403 		orr	r3, r3, #4
 2343 0044 1360     		str	r3, [r2]
ARM GAS  /tmp/ccAPlzty.s 			page 64


 407:../Drivers/STM32F4xx_HAL_Driver/Src/stm32f4xx_hal_dma.c **** 
 2344              		.loc 1 407 0 discriminator 2
 2345 0046 2268     		ldr	r2, [r4]
 2346 0048 5369     		ldr	r3, [r2, #20]
 2347 004a 43F08003 		orr	r3, r3, #128
 2348 004e 5361     		str	r3, [r2, #20]
 410:../Drivers/STM32F4xx_HAL_Driver/Src/stm32f4xx_hal_dma.c **** 
 2349              		.loc 1 410 0 discriminator 2
 2350 0050 2268     		ldr	r2, [r4]
 2351 0052 1368     		ldr	r3, [r2]
 2352 0054 43F00203 		orr	r3, r3, #2
 2353 0058 1360     		str	r3, [r2]
 413:../Drivers/STM32F4xx_HAL_Driver/Src/stm32f4xx_hal_dma.c **** 
 2354              		.loc 1 413 0 discriminator 2
 2355 005a 2268     		ldr	r2, [r4]
 2356 005c 1368     		ldr	r3, [r2]
 2357 005e 43F00103 		orr	r3, r3, #1
 2358 0062 1360     		str	r3, [r2]
 415:../Drivers/STM32F4xx_HAL_Driver/Src/stm32f4xx_hal_dma.c **** } 
 2359              		.loc 1 415 0 discriminator 2
 2360 0064 0020     		movs	r0, #0
 2361 0066 38BD     		pop	{r3, r4, r5, pc}
 2362              	.LVL33:
 2363              	.L539:
 383:../Drivers/STM32F4xx_HAL_Driver/Src/stm32f4xx_hal_dma.c **** 
 2364              		.loc 1 383 0
 2365 0068 0220     		movs	r0, #2
 2366              	.LVL34:
 416:../Drivers/STM32F4xx_HAL_Driver/Src/stm32f4xx_hal_dma.c **** 
 2367              		.loc 1 416 0
 2368 006a 38BD     		pop	{r3, r4, r5, pc}
 2369              		.cfi_endproc
 2370              	.LFE115:
 2372              		.section	.text.HAL_DMA_Abort,"ax",%progbits
 2373              		.align	2
 2374              		.global	HAL_DMA_Abort
 2375              		.thumb
 2376              		.thumb_func
 2378              	HAL_DMA_Abort:
 2379              	.LFB116:
 431:../Drivers/STM32F4xx_HAL_Driver/Src/stm32f4xx_hal_dma.c ****   uint32_t tickstart = 0;
 2380              		.loc 1 431 0
 2381              		.cfi_startproc
 2382              		@ args = 0, pretend = 0, frame = 0
 2383              		@ frame_needed = 0, uses_anonymous_args = 0
 2384              	.LVL35:
 2385 0000 38B5     		push	{r3, r4, r5, lr}
 2386              	.LCFI8:
 2387              		.cfi_def_cfa_offset 16
 2388              		.cfi_offset 3, -16
 2389              		.cfi_offset 4, -12
 2390              		.cfi_offset 5, -8
 2391              		.cfi_offset 14, -4
 2392 0002 0446     		mov	r4, r0
 2393              	.LVL36:
 435:../Drivers/STM32F4xx_HAL_Driver/Src/stm32f4xx_hal_dma.c **** 
 2394              		.loc 1 435 0
ARM GAS  /tmp/ccAPlzty.s 			page 65


 2395 0004 0268     		ldr	r2, [r0]
 2396 0006 1368     		ldr	r3, [r2]
 2397 0008 23F00103 		bic	r3, r3, #1
 2398 000c 1360     		str	r3, [r2]
 438:../Drivers/STM32F4xx_HAL_Driver/Src/stm32f4xx_hal_dma.c **** 
 2399              		.loc 1 438 0
 2400 000e FFF7FEFF 		bl	HAL_GetTick
 2401              	.LVL37:
 2402 0012 0546     		mov	r5, r0
 2403              	.LVL38:
 441:../Drivers/STM32F4xx_HAL_Driver/Src/stm32f4xx_hal_dma.c ****   {
 2404              		.loc 1 441 0
 2405 0014 10E0     		b	.L542
 2406              	.LVL39:
 2407              	.L544:
 444:../Drivers/STM32F4xx_HAL_Driver/Src/stm32f4xx_hal_dma.c ****     {
 2408              		.loc 1 444 0
 2409 0016 FFF7FEFF 		bl	HAL_GetTick
 2410              	.LVL40:
 2411 001a 401B     		subs	r0, r0, r5
 2412 001c B0F57A7F 		cmp	r0, #1000
 2413 0020 0AD9     		bls	.L542
 447:../Drivers/STM32F4xx_HAL_Driver/Src/stm32f4xx_hal_dma.c ****       
 2414              		.loc 1 447 0
 2415 0022 E36C     		ldr	r3, [r4, #76]
 2416 0024 43F02003 		orr	r3, r3, #32
 2417 0028 E364     		str	r3, [r4, #76]
 450:../Drivers/STM32F4xx_HAL_Driver/Src/stm32f4xx_hal_dma.c ****       
 2418              		.loc 1 450 0
 2419 002a 0023     		movs	r3, #0
 2420 002c 84F83430 		strb	r3, [r4, #52]
 453:../Drivers/STM32F4xx_HAL_Driver/Src/stm32f4xx_hal_dma.c ****       
 2421              		.loc 1 453 0
 2422 0030 0320     		movs	r0, #3
 2423 0032 84F83500 		strb	r0, [r4, #53]
 455:../Drivers/STM32F4xx_HAL_Driver/Src/stm32f4xx_hal_dma.c ****     }
 2424              		.loc 1 455 0
 2425 0036 38BD     		pop	{r3, r4, r5, pc}
 2426              	.LVL41:
 2427              	.L542:
 441:../Drivers/STM32F4xx_HAL_Driver/Src/stm32f4xx_hal_dma.c ****   {
 2428              		.loc 1 441 0
 2429 0038 2368     		ldr	r3, [r4]
 2430 003a 1B68     		ldr	r3, [r3]
 2431 003c 13F0010F 		tst	r3, #1
 2432 0040 E9D1     		bne	.L544
 459:../Drivers/STM32F4xx_HAL_Driver/Src/stm32f4xx_hal_dma.c **** 
 2433              		.loc 1 459 0
 2434 0042 0020     		movs	r0, #0
 2435 0044 84F83400 		strb	r0, [r4, #52]
 462:../Drivers/STM32F4xx_HAL_Driver/Src/stm32f4xx_hal_dma.c **** 
 2436              		.loc 1 462 0
 2437 0048 0123     		movs	r3, #1
 2438 004a 84F83530 		strb	r3, [r4, #53]
 465:../Drivers/STM32F4xx_HAL_Driver/Src/stm32f4xx_hal_dma.c **** 
 2439              		.loc 1 465 0
 2440 004e 38BD     		pop	{r3, r4, r5, pc}
ARM GAS  /tmp/ccAPlzty.s 			page 66


 2441              		.cfi_endproc
 2442              	.LFE116:
 2444              		.section	.text.HAL_DMA_PollForTransfer,"ax",%progbits
 2445              		.align	2
 2446              		.global	HAL_DMA_PollForTransfer
 2447              		.thumb
 2448              		.thumb_func
 2450              	HAL_DMA_PollForTransfer:
 2451              	.LFB117:
 476:../Drivers/STM32F4xx_HAL_Driver/Src/stm32f4xx_hal_dma.c ****   uint32_t temp, tmp, tmp1, tmp2;
 2452              		.loc 1 476 0
 2453              		.cfi_startproc
 2454              		@ args = 0, pretend = 0, frame = 0
 2455              		@ frame_needed = 0, uses_anonymous_args = 0
 2456              	.LVL42:
 2457 0000 2DE9F843 		push	{r3, r4, r5, r6, r7, r8, r9, lr}
 2458              	.LCFI9:
 2459              		.cfi_def_cfa_offset 32
 2460              		.cfi_offset 3, -32
 2461              		.cfi_offset 4, -28
 2462              		.cfi_offset 5, -24
 2463              		.cfi_offset 6, -20
 2464              		.cfi_offset 7, -16
 2465              		.cfi_offset 8, -12
 2466              		.cfi_offset 9, -8
 2467              		.cfi_offset 14, -4
 2468 0004 0446     		mov	r4, r0
 2469 0006 1646     		mov	r6, r2
 2470              	.LVL43:
 481:../Drivers/STM32F4xx_HAL_Driver/Src/stm32f4xx_hal_dma.c ****   {
 2471              		.loc 1 481 0
 2472 0008 8946     		mov	r9, r1
 2473 000a 0029     		cmp	r1, #0
 2474 000c 52D1     		bne	.L547
 484:../Drivers/STM32F4xx_HAL_Driver/Src/stm32f4xx_hal_dma.c ****   }
 2475              		.loc 1 484 0
 2476 000e 0368     		ldr	r3, [r0]
 2477 0010 AC4A     		ldr	r2, .L1833
 2478              	.LVL44:
 2479 0012 9342     		cmp	r3, r2
 2480 0014 4CD0     		beq	.L1231
 484:../Drivers/STM32F4xx_HAL_Driver/Src/stm32f4xx_hal_dma.c ****   }
 2481              		.loc 1 484 0 is_stmt 0 discriminator 1
 2482 0016 02F58062 		add	r2, r2, #1024
 2483 001a 9342     		cmp	r3, r2
 2484 001c 46D0     		beq	.L1232
 484:../Drivers/STM32F4xx_HAL_Driver/Src/stm32f4xx_hal_dma.c ****   }
 2485              		.loc 1 484 0 discriminator 3
 2486 001e A2F56872 		sub	r2, r2, #928
 2487 0022 9342     		cmp	r3, r2
 2488 0024 40D0     		beq	.L1233
 484:../Drivers/STM32F4xx_HAL_Driver/Src/stm32f4xx_hal_dma.c ****   }
 2489              		.loc 1 484 0 discriminator 5
 2490 0026 02F58062 		add	r2, r2, #1024
 2491 002a 9342     		cmp	r3, r2
 2492 002c 3AD0     		beq	.L1234
 484:../Drivers/STM32F4xx_HAL_Driver/Src/stm32f4xx_hal_dma.c ****   }
ARM GAS  /tmp/ccAPlzty.s 			page 67


 2493              		.loc 1 484 0 discriminator 7
 2494 002e A2F58962 		sub	r2, r2, #1096
 2495 0032 9342     		cmp	r3, r2
 2496 0034 33D0     		beq	.L1235
 484:../Drivers/STM32F4xx_HAL_Driver/Src/stm32f4xx_hal_dma.c ****   }
 2497              		.loc 1 484 0 discriminator 9
 2498 0036 02F58062 		add	r2, r2, #1024
 2499 003a 9342     		cmp	r3, r2
 2500 003c 2CD0     		beq	.L1236
 484:../Drivers/STM32F4xx_HAL_Driver/Src/stm32f4xx_hal_dma.c ****   }
 2501              		.loc 1 484 0 discriminator 11
 2502 003e A2F56872 		sub	r2, r2, #928
 2503 0042 9342     		cmp	r3, r2
 2504 0044 25D0     		beq	.L1237
 484:../Drivers/STM32F4xx_HAL_Driver/Src/stm32f4xx_hal_dma.c ****   }
 2505              		.loc 1 484 0 discriminator 13
 2506 0046 02F58062 		add	r2, r2, #1024
 2507 004a 9342     		cmp	r3, r2
 2508 004c 1ED0     		beq	.L1238
 484:../Drivers/STM32F4xx_HAL_Driver/Src/stm32f4xx_hal_dma.c ****   }
 2509              		.loc 1 484 0 discriminator 15
 2510 004e A2F58962 		sub	r2, r2, #1096
 2511 0052 9342     		cmp	r3, r2
 2512 0054 17D0     		beq	.L1239
 484:../Drivers/STM32F4xx_HAL_Driver/Src/stm32f4xx_hal_dma.c ****   }
 2513              		.loc 1 484 0 discriminator 17
 2514 0056 02F58062 		add	r2, r2, #1024
 2515 005a 9342     		cmp	r3, r2
 2516 005c 10D0     		beq	.L1240
 484:../Drivers/STM32F4xx_HAL_Driver/Src/stm32f4xx_hal_dma.c ****   }
 2517              		.loc 1 484 0 discriminator 19
 2518 005e A2F56872 		sub	r2, r2, #928
 2519 0062 9342     		cmp	r3, r2
 2520 0064 09D0     		beq	.L1241
 484:../Drivers/STM32F4xx_HAL_Driver/Src/stm32f4xx_hal_dma.c ****   }
 2521              		.loc 1 484 0 discriminator 21
 2522 0066 02F58062 		add	r2, r2, #1024
 2523 006a 9342     		cmp	r3, r2
 2524 006c 02D1     		bne	.L1242
 484:../Drivers/STM32F4xx_HAL_Driver/Src/stm32f4xx_hal_dma.c ****   }
 2525              		.loc 1 484 0
 2526 006e 4FF40015 		mov	r5, #2097152
 2527 0072 71E0     		b	.L560
 2528              	.L1242:
 2529 0074 4FF00065 		mov	r5, #134217728
 2530 0078 6EE0     		b	.L560
 2531              	.L1241:
 2532 007a 4FF40015 		mov	r5, #2097152
 2533 007e 6BE0     		b	.L560
 2534              	.L1240:
 2535 0080 4FF40015 		mov	r5, #2097152
 2536 0084 68E0     		b	.L560
 2537              	.L1239:
 2538 0086 4FF40015 		mov	r5, #2097152
 2539 008a 65E0     		b	.L560
 2540              	.L1238:
 2541 008c 4FF40065 		mov	r5, #2048
ARM GAS  /tmp/ccAPlzty.s 			page 68


 2542 0090 62E0     		b	.L560
 2543              	.L1237:
 2544 0092 4FF40065 		mov	r5, #2048
 2545 0096 5FE0     		b	.L560
 2546              	.L1236:
 2547 0098 4FF40065 		mov	r5, #2048
 2548 009c 5CE0     		b	.L560
 2549              	.L1235:
 2550 009e 4FF40065 		mov	r5, #2048
 2551 00a2 59E0     		b	.L560
 2552              	.L1234:
 2553 00a4 2025     		movs	r5, #32
 2554 00a6 57E0     		b	.L560
 2555              	.L1233:
 2556 00a8 2025     		movs	r5, #32
 2557 00aa 55E0     		b	.L560
 2558              	.L1232:
 2559 00ac 2025     		movs	r5, #32
 2560 00ae 53E0     		b	.L560
 2561              	.L1231:
 2562 00b0 2025     		movs	r5, #32
 2563              	.LVL45:
 2564 00b2 51E0     		b	.L560
 2565              	.LVL46:
 2566              	.L547:
 489:../Drivers/STM32F4xx_HAL_Driver/Src/stm32f4xx_hal_dma.c ****   }
 2567              		.loc 1 489 0 is_stmt 1
 2568 00b4 0368     		ldr	r3, [r0]
 2569 00b6 834A     		ldr	r2, .L1833
 2570              	.LVL47:
 2571 00b8 9342     		cmp	r3, r2
 2572 00ba 4CD0     		beq	.L1243
 489:../Drivers/STM32F4xx_HAL_Driver/Src/stm32f4xx_hal_dma.c ****   }
 2573              		.loc 1 489 0 is_stmt 0 discriminator 1
 2574 00bc 02F58062 		add	r2, r2, #1024
 2575 00c0 9342     		cmp	r3, r2
 2576 00c2 46D0     		beq	.L1244
 489:../Drivers/STM32F4xx_HAL_Driver/Src/stm32f4xx_hal_dma.c ****   }
 2577              		.loc 1 489 0 discriminator 3
 2578 00c4 A2F56872 		sub	r2, r2, #928
 2579 00c8 9342     		cmp	r3, r2
 2580 00ca 40D0     		beq	.L1245
 489:../Drivers/STM32F4xx_HAL_Driver/Src/stm32f4xx_hal_dma.c ****   }
 2581              		.loc 1 489 0 discriminator 5
 2582 00cc 02F58062 		add	r2, r2, #1024
 2583 00d0 9342     		cmp	r3, r2
 2584 00d2 3AD0     		beq	.L1246
 489:../Drivers/STM32F4xx_HAL_Driver/Src/stm32f4xx_hal_dma.c ****   }
 2585              		.loc 1 489 0 discriminator 7
 2586 00d4 A2F58962 		sub	r2, r2, #1096
 2587 00d8 9342     		cmp	r3, r2
 2588 00da 33D0     		beq	.L1247
 489:../Drivers/STM32F4xx_HAL_Driver/Src/stm32f4xx_hal_dma.c ****   }
 2589              		.loc 1 489 0 discriminator 9
 2590 00dc 02F58062 		add	r2, r2, #1024
 2591 00e0 9342     		cmp	r3, r2
 2592 00e2 2CD0     		beq	.L1248
ARM GAS  /tmp/ccAPlzty.s 			page 69


 489:../Drivers/STM32F4xx_HAL_Driver/Src/stm32f4xx_hal_dma.c ****   }
 2593              		.loc 1 489 0 discriminator 11
 2594 00e4 A2F56872 		sub	r2, r2, #928
 2595 00e8 9342     		cmp	r3, r2
 2596 00ea 25D0     		beq	.L1249
 489:../Drivers/STM32F4xx_HAL_Driver/Src/stm32f4xx_hal_dma.c ****   }
 2597              		.loc 1 489 0 discriminator 13
 2598 00ec 02F58062 		add	r2, r2, #1024
 2599 00f0 9342     		cmp	r3, r2
 2600 00f2 1ED0     		beq	.L1250
 489:../Drivers/STM32F4xx_HAL_Driver/Src/stm32f4xx_hal_dma.c ****   }
 2601              		.loc 1 489 0 discriminator 15
 2602 00f4 A2F58962 		sub	r2, r2, #1096
 2603 00f8 9342     		cmp	r3, r2
 2604 00fa 17D0     		beq	.L1251
 489:../Drivers/STM32F4xx_HAL_Driver/Src/stm32f4xx_hal_dma.c ****   }
 2605              		.loc 1 489 0 discriminator 17
 2606 00fc 02F58062 		add	r2, r2, #1024
 2607 0100 9342     		cmp	r3, r2
 2608 0102 10D0     		beq	.L1252
 489:../Drivers/STM32F4xx_HAL_Driver/Src/stm32f4xx_hal_dma.c ****   }
 2609              		.loc 1 489 0 discriminator 19
 2610 0104 A2F56872 		sub	r2, r2, #928
 2611 0108 9342     		cmp	r3, r2
 2612 010a 09D0     		beq	.L1253
 489:../Drivers/STM32F4xx_HAL_Driver/Src/stm32f4xx_hal_dma.c ****   }
 2613              		.loc 1 489 0 discriminator 21
 2614 010c 02F58062 		add	r2, r2, #1024
 2615 0110 9342     		cmp	r3, r2
 2616 0112 02D1     		bne	.L1254
 489:../Drivers/STM32F4xx_HAL_Driver/Src/stm32f4xx_hal_dma.c ****   }
 2617              		.loc 1 489 0
 2618 0114 4FF48015 		mov	r5, #1048576
 2619 0118 1EE0     		b	.L560
 2620              	.L1254:
 2621 011a 4FF08065 		mov	r5, #67108864
 2622 011e 1BE0     		b	.L560
 2623              	.L1253:
 2624 0120 4FF48015 		mov	r5, #1048576
 2625 0124 18E0     		b	.L560
 2626              	.L1252:
 2627 0126 4FF48015 		mov	r5, #1048576
 2628 012a 15E0     		b	.L560
 2629              	.L1251:
 2630 012c 4FF48015 		mov	r5, #1048576
 2631 0130 12E0     		b	.L560
 2632              	.L1250:
 2633 0132 4FF48065 		mov	r5, #1024
 2634 0136 0FE0     		b	.L560
 2635              	.L1249:
 2636 0138 4FF48065 		mov	r5, #1024
 2637 013c 0CE0     		b	.L560
 2638              	.L1248:
 2639 013e 4FF48065 		mov	r5, #1024
 2640 0142 09E0     		b	.L560
 2641              	.L1247:
 2642 0144 4FF48065 		mov	r5, #1024
ARM GAS  /tmp/ccAPlzty.s 			page 70


 2643 0148 06E0     		b	.L560
 2644              	.L1246:
 2645 014a 1025     		movs	r5, #16
 2646 014c 04E0     		b	.L560
 2647              	.L1245:
 2648 014e 1025     		movs	r5, #16
 2649 0150 02E0     		b	.L560
 2650              	.L1244:
 2651 0152 1025     		movs	r5, #16
 2652 0154 00E0     		b	.L560
 2653              	.L1243:
 2654 0156 1025     		movs	r5, #16
 2655              	.LVL48:
 2656              	.L560:
 493:../Drivers/STM32F4xx_HAL_Driver/Src/stm32f4xx_hal_dma.c **** 
 2657              		.loc 1 493 0 is_stmt 1
 2658 0158 FFF7FEFF 		bl	HAL_GetTick
 2659              	.LVL49:
 2660 015c 8046     		mov	r8, r0
 2661              	.LVL50:
 495:../Drivers/STM32F4xx_HAL_Driver/Src/stm32f4xx_hal_dma.c ****   {
 2662              		.loc 1 495 0
 2663 015e 01F08EB8 		b	.L898
 2664              	.LVL51:
 2665              	.L906:
 497:../Drivers/STM32F4xx_HAL_Driver/Src/stm32f4xx_hal_dma.c ****     tmp1 = __HAL_DMA_GET_FLAG(hdma, __HAL_DMA_GET_FE_FLAG_INDEX(hdma));
 2666              		.loc 1 497 0
 2667 0162 594A     		ldr	r2, .L1833+4
 2668 0164 9342     		cmp	r3, r2
 2669 0166 53D9     		bls	.L574
 497:../Drivers/STM32F4xx_HAL_Driver/Src/stm32f4xx_hal_dma.c ****     tmp1 = __HAL_DMA_GET_FLAG(hdma, __HAL_DMA_GET_FE_FLAG_INDEX(hdma));
 2670              		.loc 1 497 0 is_stmt 0 discriminator 1
 2671 0168 583A     		subs	r2, r2, #88
 2672 016a 5068     		ldr	r0, [r2, #4]
 2673 016c 5549     		ldr	r1, .L1833
 2674 016e 8B42     		cmp	r3, r1
 2675 0170 4BD0     		beq	.L1255
 497:../Drivers/STM32F4xx_HAL_Driver/Src/stm32f4xx_hal_dma.c ****     tmp1 = __HAL_DMA_GET_FLAG(hdma, __HAL_DMA_GET_FE_FLAG_INDEX(hdma));
 2676              		.loc 1 497 0 discriminator 3
 2677 0172 01F58061 		add	r1, r1, #1024
 2678 0176 8B42     		cmp	r3, r1
 2679 0178 45D0     		beq	.L1256
 497:../Drivers/STM32F4xx_HAL_Driver/Src/stm32f4xx_hal_dma.c ****     tmp1 = __HAL_DMA_GET_FLAG(hdma, __HAL_DMA_GET_FE_FLAG_INDEX(hdma));
 2680              		.loc 1 497 0 discriminator 5
 2681 017a A1F56871 		sub	r1, r1, #928
 2682 017e 8B42     		cmp	r3, r1
 2683 0180 3FD0     		beq	.L1257
 497:../Drivers/STM32F4xx_HAL_Driver/Src/stm32f4xx_hal_dma.c ****     tmp1 = __HAL_DMA_GET_FLAG(hdma, __HAL_DMA_GET_FE_FLAG_INDEX(hdma));
 2684              		.loc 1 497 0 discriminator 7
 2685 0182 7032     		adds	r2, r2, #112
 2686 0184 9342     		cmp	r3, r2
 2687 0186 3AD0     		beq	.L1258
 497:../Drivers/STM32F4xx_HAL_Driver/Src/stm32f4xx_hal_dma.c ****     tmp1 = __HAL_DMA_GET_FLAG(hdma, __HAL_DMA_GET_FE_FLAG_INDEX(hdma));
 2688              		.loc 1 497 0 discriminator 9
 2689 0188 A2F58962 		sub	r2, r2, #1096
 2690 018c 9342     		cmp	r3, r2
 2691 018e 33D0     		beq	.L1259
ARM GAS  /tmp/ccAPlzty.s 			page 71


 497:../Drivers/STM32F4xx_HAL_Driver/Src/stm32f4xx_hal_dma.c ****     tmp1 = __HAL_DMA_GET_FLAG(hdma, __HAL_DMA_GET_FE_FLAG_INDEX(hdma));
 2692              		.loc 1 497 0 discriminator 11
 2693 0190 02F58062 		add	r2, r2, #1024
 2694 0194 9342     		cmp	r3, r2
 2695 0196 2CD0     		beq	.L1260
 497:../Drivers/STM32F4xx_HAL_Driver/Src/stm32f4xx_hal_dma.c ****     tmp1 = __HAL_DMA_GET_FLAG(hdma, __HAL_DMA_GET_FE_FLAG_INDEX(hdma));
 2696              		.loc 1 497 0 discriminator 13
 2697 0198 A2F56872 		sub	r2, r2, #928
 2698 019c 9342     		cmp	r3, r2
 2699 019e 25D0     		beq	.L1261
 497:../Drivers/STM32F4xx_HAL_Driver/Src/stm32f4xx_hal_dma.c ****     tmp1 = __HAL_DMA_GET_FLAG(hdma, __HAL_DMA_GET_FE_FLAG_INDEX(hdma));
 2700              		.loc 1 497 0 discriminator 15
 2701 01a0 02F58062 		add	r2, r2, #1024
 2702 01a4 9342     		cmp	r3, r2
 2703 01a6 1ED0     		beq	.L1262
 497:../Drivers/STM32F4xx_HAL_Driver/Src/stm32f4xx_hal_dma.c ****     tmp1 = __HAL_DMA_GET_FLAG(hdma, __HAL_DMA_GET_FE_FLAG_INDEX(hdma));
 2704              		.loc 1 497 0 discriminator 17
 2705 01a8 A2F58962 		sub	r2, r2, #1096
 2706 01ac 9342     		cmp	r3, r2
 2707 01ae 17D0     		beq	.L1263
 497:../Drivers/STM32F4xx_HAL_Driver/Src/stm32f4xx_hal_dma.c ****     tmp1 = __HAL_DMA_GET_FLAG(hdma, __HAL_DMA_GET_FE_FLAG_INDEX(hdma));
 2708              		.loc 1 497 0 discriminator 19
 2709 01b0 02F58062 		add	r2, r2, #1024
 2710 01b4 9342     		cmp	r3, r2
 2711 01b6 10D0     		beq	.L1264
 497:../Drivers/STM32F4xx_HAL_Driver/Src/stm32f4xx_hal_dma.c ****     tmp1 = __HAL_DMA_GET_FLAG(hdma, __HAL_DMA_GET_FE_FLAG_INDEX(hdma));
 2712              		.loc 1 497 0 discriminator 21
 2713 01b8 A2F56872 		sub	r2, r2, #928
 2714 01bc 9342     		cmp	r3, r2
 2715 01be 09D0     		beq	.L1265
 497:../Drivers/STM32F4xx_HAL_Driver/Src/stm32f4xx_hal_dma.c ****     tmp1 = __HAL_DMA_GET_FLAG(hdma, __HAL_DMA_GET_FE_FLAG_INDEX(hdma));
 2716              		.loc 1 497 0 discriminator 23
 2717 01c0 02F58062 		add	r2, r2, #1024
 2718 01c4 9342     		cmp	r3, r2
 2719 01c6 02D1     		bne	.L1266
 497:../Drivers/STM32F4xx_HAL_Driver/Src/stm32f4xx_hal_dma.c ****     tmp1 = __HAL_DMA_GET_FLAG(hdma, __HAL_DMA_GET_FE_FLAG_INDEX(hdma));
 2720              		.loc 1 497 0
 2721 01c8 4FF40022 		mov	r2, #524288
 2722 01cc 1EE0     		b	.L575
 2723              	.L1266:
 2724 01ce 4FF00072 		mov	r2, #33554432
 2725 01d2 1BE0     		b	.L575
 2726              	.L1265:
 2727 01d4 4FF40022 		mov	r2, #524288
 2728 01d8 18E0     		b	.L575
 2729              	.L1264:
 2730 01da 4FF40022 		mov	r2, #524288
 2731 01de 15E0     		b	.L575
 2732              	.L1263:
 2733 01e0 4FF40022 		mov	r2, #524288
 2734 01e4 12E0     		b	.L575
 2735              	.L1262:
 2736 01e6 4FF40072 		mov	r2, #512
 2737 01ea 0FE0     		b	.L575
 2738              	.L1261:
 2739 01ec 4FF40072 		mov	r2, #512
 2740 01f0 0CE0     		b	.L575
ARM GAS  /tmp/ccAPlzty.s 			page 72


 2741              	.L1260:
 2742 01f2 4FF40072 		mov	r2, #512
 2743 01f6 09E0     		b	.L575
 2744              	.L1259:
 2745 01f8 4FF40072 		mov	r2, #512
 2746 01fc 06E0     		b	.L575
 2747              	.L1258:
 2748 01fe 0822     		movs	r2, #8
 2749 0200 04E0     		b	.L575
 2750              	.L1257:
 2751 0202 0822     		movs	r2, #8
 2752 0204 02E0     		b	.L575
 2753              	.L1256:
 2754 0206 0822     		movs	r2, #8
 2755 0208 00E0     		b	.L575
 2756              	.L1255:
 2757 020a 0822     		movs	r2, #8
 2758              	.L575:
 497:../Drivers/STM32F4xx_HAL_Driver/Src/stm32f4xx_hal_dma.c ****     tmp1 = __HAL_DMA_GET_FLAG(hdma, __HAL_DMA_GET_FE_FLAG_INDEX(hdma));
 2759              		.loc 1 497 0 discriminator 50
 2760 020c 0240     		ands	r2, r2, r0
 2761 020e 0BE1     		b	.L587
 2762              	.L574:
 497:../Drivers/STM32F4xx_HAL_Driver/Src/stm32f4xx_hal_dma.c ****     tmp1 = __HAL_DMA_GET_FLAG(hdma, __HAL_DMA_GET_FE_FLAG_INDEX(hdma));
 2763              		.loc 1 497 0 discriminator 2
 2764 0210 2E4A     		ldr	r2, .L1833+8
 2765 0212 9342     		cmp	r3, r2
 2766 0214 5CD9     		bls	.L588
 497:../Drivers/STM32F4xx_HAL_Driver/Src/stm32f4xx_hal_dma.c ****     tmp1 = __HAL_DMA_GET_FLAG(hdma, __HAL_DMA_GET_FE_FLAG_INDEX(hdma));
 2767              		.loc 1 497 0 discriminator 52
 2768 0216 02F55272 		add	r2, r2, #840
 2769 021a 1268     		ldr	r2, [r2]
 2770 021c 2949     		ldr	r1, .L1833
 2771 021e 8B42     		cmp	r3, r1
 2772 0220 4CD0     		beq	.L1267
 497:../Drivers/STM32F4xx_HAL_Driver/Src/stm32f4xx_hal_dma.c ****     tmp1 = __HAL_DMA_GET_FLAG(hdma, __HAL_DMA_GET_FE_FLAG_INDEX(hdma));
 2773              		.loc 1 497 0 discriminator 54
 2774 0222 01F58061 		add	r1, r1, #1024
 2775 0226 8B42     		cmp	r3, r1
 2776 0228 46D0     		beq	.L1268
 497:../Drivers/STM32F4xx_HAL_Driver/Src/stm32f4xx_hal_dma.c ****     tmp1 = __HAL_DMA_GET_FLAG(hdma, __HAL_DMA_GET_FE_FLAG_INDEX(hdma));
 2777              		.loc 1 497 0 discriminator 56
 2778 022a A1F56871 		sub	r1, r1, #928
 2779 022e 8B42     		cmp	r3, r1
 2780 0230 40D0     		beq	.L1269
 497:../Drivers/STM32F4xx_HAL_Driver/Src/stm32f4xx_hal_dma.c ****     tmp1 = __HAL_DMA_GET_FLAG(hdma, __HAL_DMA_GET_FE_FLAG_INDEX(hdma));
 2781              		.loc 1 497 0 discriminator 58
 2782 0232 01F58061 		add	r1, r1, #1024
 2783 0236 8B42     		cmp	r3, r1
 2784 0238 3AD0     		beq	.L1270
 497:../Drivers/STM32F4xx_HAL_Driver/Src/stm32f4xx_hal_dma.c ****     tmp1 = __HAL_DMA_GET_FLAG(hdma, __HAL_DMA_GET_FE_FLAG_INDEX(hdma));
 2785              		.loc 1 497 0 discriminator 60
 2786 023a A1F58961 		sub	r1, r1, #1096
 2787 023e 8B42     		cmp	r3, r1
 2788 0240 33D0     		beq	.L1271
 497:../Drivers/STM32F4xx_HAL_Driver/Src/stm32f4xx_hal_dma.c ****     tmp1 = __HAL_DMA_GET_FLAG(hdma, __HAL_DMA_GET_FE_FLAG_INDEX(hdma));
 2789              		.loc 1 497 0 discriminator 62
ARM GAS  /tmp/ccAPlzty.s 			page 73


 2790 0242 01F58061 		add	r1, r1, #1024
 2791 0246 8B42     		cmp	r3, r1
 2792 0248 2CD0     		beq	.L1272
 497:../Drivers/STM32F4xx_HAL_Driver/Src/stm32f4xx_hal_dma.c ****     tmp1 = __HAL_DMA_GET_FLAG(hdma, __HAL_DMA_GET_FE_FLAG_INDEX(hdma));
 2793              		.loc 1 497 0 discriminator 64
 2794 024a A1F56871 		sub	r1, r1, #928
 2795 024e 8B42     		cmp	r3, r1
 2796 0250 25D0     		beq	.L1273
 497:../Drivers/STM32F4xx_HAL_Driver/Src/stm32f4xx_hal_dma.c ****     tmp1 = __HAL_DMA_GET_FLAG(hdma, __HAL_DMA_GET_FE_FLAG_INDEX(hdma));
 2797              		.loc 1 497 0 discriminator 66
 2798 0252 01F58061 		add	r1, r1, #1024
 2799 0256 8B42     		cmp	r3, r1
 2800 0258 1ED0     		beq	.L1274
 497:../Drivers/STM32F4xx_HAL_Driver/Src/stm32f4xx_hal_dma.c ****     tmp1 = __HAL_DMA_GET_FLAG(hdma, __HAL_DMA_GET_FE_FLAG_INDEX(hdma));
 2801              		.loc 1 497 0 discriminator 68
 2802 025a A1F58961 		sub	r1, r1, #1096
 2803 025e 8B42     		cmp	r3, r1
 2804 0260 17D0     		beq	.L1275
 497:../Drivers/STM32F4xx_HAL_Driver/Src/stm32f4xx_hal_dma.c ****     tmp1 = __HAL_DMA_GET_FLAG(hdma, __HAL_DMA_GET_FE_FLAG_INDEX(hdma));
 2805              		.loc 1 497 0 discriminator 70
 2806 0262 01F58061 		add	r1, r1, #1024
 2807 0266 8B42     		cmp	r3, r1
 2808 0268 10D0     		beq	.L1276
 497:../Drivers/STM32F4xx_HAL_Driver/Src/stm32f4xx_hal_dma.c ****     tmp1 = __HAL_DMA_GET_FLAG(hdma, __HAL_DMA_GET_FE_FLAG_INDEX(hdma));
 2809              		.loc 1 497 0 discriminator 72
 2810 026a A1F56871 		sub	r1, r1, #928
 2811 026e 8B42     		cmp	r3, r1
 2812 0270 09D0     		beq	.L1277
 497:../Drivers/STM32F4xx_HAL_Driver/Src/stm32f4xx_hal_dma.c ****     tmp1 = __HAL_DMA_GET_FLAG(hdma, __HAL_DMA_GET_FE_FLAG_INDEX(hdma));
 2813              		.loc 1 497 0 discriminator 74
 2814 0272 01F58061 		add	r1, r1, #1024
 2815 0276 8B42     		cmp	r3, r1
 2816 0278 02D1     		bne	.L1278
 497:../Drivers/STM32F4xx_HAL_Driver/Src/stm32f4xx_hal_dma.c ****     tmp1 = __HAL_DMA_GET_FLAG(hdma, __HAL_DMA_GET_FE_FLAG_INDEX(hdma));
 2817              		.loc 1 497 0
 2818 027a 4FF40021 		mov	r1, #524288
 2819 027e 1EE0     		b	.L589
 2820              	.L1278:
 2821 0280 4FF00071 		mov	r1, #33554432
 2822 0284 1BE0     		b	.L589
 2823              	.L1277:
 2824 0286 4FF40021 		mov	r1, #524288
 2825 028a 18E0     		b	.L589
 2826              	.L1276:
 2827 028c 4FF40021 		mov	r1, #524288
 2828 0290 15E0     		b	.L589
 2829              	.L1275:
 2830 0292 4FF40021 		mov	r1, #524288
 2831 0296 12E0     		b	.L589
 2832              	.L1274:
 2833 0298 4FF40071 		mov	r1, #512
 2834 029c 0FE0     		b	.L589
 2835              	.L1273:
 2836 029e 4FF40071 		mov	r1, #512
 2837 02a2 0CE0     		b	.L589
 2838              	.L1272:
 2839 02a4 4FF40071 		mov	r1, #512
ARM GAS  /tmp/ccAPlzty.s 			page 74


 2840 02a8 09E0     		b	.L589
 2841              	.L1271:
 2842 02aa 4FF40071 		mov	r1, #512
 2843 02ae 06E0     		b	.L589
 2844              	.L1270:
 2845 02b0 0821     		movs	r1, #8
 2846 02b2 04E0     		b	.L589
 2847              	.L1269:
 2848 02b4 0821     		movs	r1, #8
 2849 02b6 02E0     		b	.L589
 2850              	.L1268:
 2851 02b8 0821     		movs	r1, #8
 2852 02ba 00E0     		b	.L589
 2853              	.L1267:
 2854 02bc 0821     		movs	r1, #8
 2855              	.L589:
 497:../Drivers/STM32F4xx_HAL_Driver/Src/stm32f4xx_hal_dma.c ****     tmp1 = __HAL_DMA_GET_FLAG(hdma, __HAL_DMA_GET_FE_FLAG_INDEX(hdma));
 2856              		.loc 1 497 0 discriminator 101
 2857 02be 0A40     		ands	r2, r2, r1
 2858 02c0 B2E0     		b	.L587
 2859              	.L1834:
 2860 02c2 00BF     		.align	2
 2861              	.L1833:
 2862 02c4 10600240 		.word	1073897488
 2863 02c8 58640240 		.word	1073898584
 2864 02cc B8600240 		.word	1073897656
 2865              	.L588:
 497:../Drivers/STM32F4xx_HAL_Driver/Src/stm32f4xx_hal_dma.c ****     tmp1 = __HAL_DMA_GET_FLAG(hdma, __HAL_DMA_GET_FE_FLAG_INDEX(hdma));
 2866              		.loc 1 497 0 discriminator 53
 2867 02d0 A94A     		ldr	r2, .L1835
 2868 02d2 9342     		cmp	r3, r2
 2869 02d4 54D9     		bls	.L602
 497:../Drivers/STM32F4xx_HAL_Driver/Src/stm32f4xx_hal_dma.c ****     tmp1 = __HAL_DMA_GET_FLAG(hdma, __HAL_DMA_GET_FE_FLAG_INDEX(hdma));
 2870              		.loc 1 497 0 discriminator 103
 2871 02d6 583A     		subs	r2, r2, #88
 2872 02d8 5168     		ldr	r1, [r2, #4]
 2873 02da 1032     		adds	r2, r2, #16
 2874 02dc 9342     		cmp	r3, r2
 2875 02de 4CD0     		beq	.L1279
 497:../Drivers/STM32F4xx_HAL_Driver/Src/stm32f4xx_hal_dma.c ****     tmp1 = __HAL_DMA_GET_FLAG(hdma, __HAL_DMA_GET_FE_FLAG_INDEX(hdma));
 2876              		.loc 1 497 0 discriminator 105
 2877 02e0 02F58062 		add	r2, r2, #1024
 2878 02e4 9342     		cmp	r3, r2
 2879 02e6 46D0     		beq	.L1280
 497:../Drivers/STM32F4xx_HAL_Driver/Src/stm32f4xx_hal_dma.c ****     tmp1 = __HAL_DMA_GET_FLAG(hdma, __HAL_DMA_GET_FE_FLAG_INDEX(hdma));
 2880              		.loc 1 497 0 discriminator 107
 2881 02e8 A2F56872 		sub	r2, r2, #928
 2882 02ec 9342     		cmp	r3, r2
 2883 02ee 40D0     		beq	.L1281
 497:../Drivers/STM32F4xx_HAL_Driver/Src/stm32f4xx_hal_dma.c ****     tmp1 = __HAL_DMA_GET_FLAG(hdma, __HAL_DMA_GET_FE_FLAG_INDEX(hdma));
 2884              		.loc 1 497 0 discriminator 109
 2885 02f0 02F58062 		add	r2, r2, #1024
 2886 02f4 9342     		cmp	r3, r2
 2887 02f6 3AD0     		beq	.L1282
 497:../Drivers/STM32F4xx_HAL_Driver/Src/stm32f4xx_hal_dma.c ****     tmp1 = __HAL_DMA_GET_FLAG(hdma, __HAL_DMA_GET_FE_FLAG_INDEX(hdma));
 2888              		.loc 1 497 0 discriminator 111
 2889 02f8 A2F58962 		sub	r2, r2, #1096
ARM GAS  /tmp/ccAPlzty.s 			page 75


 2890 02fc 9342     		cmp	r3, r2
 2891 02fe 33D0     		beq	.L1283
 497:../Drivers/STM32F4xx_HAL_Driver/Src/stm32f4xx_hal_dma.c ****     tmp1 = __HAL_DMA_GET_FLAG(hdma, __HAL_DMA_GET_FE_FLAG_INDEX(hdma));
 2892              		.loc 1 497 0 discriminator 113
 2893 0300 02F58062 		add	r2, r2, #1024
 2894 0304 9342     		cmp	r3, r2
 2895 0306 2CD0     		beq	.L1284
 497:../Drivers/STM32F4xx_HAL_Driver/Src/stm32f4xx_hal_dma.c ****     tmp1 = __HAL_DMA_GET_FLAG(hdma, __HAL_DMA_GET_FE_FLAG_INDEX(hdma));
 2896              		.loc 1 497 0 discriminator 115
 2897 0308 A2F56872 		sub	r2, r2, #928
 2898 030c 9342     		cmp	r3, r2
 2899 030e 25D0     		beq	.L1285
 497:../Drivers/STM32F4xx_HAL_Driver/Src/stm32f4xx_hal_dma.c ****     tmp1 = __HAL_DMA_GET_FLAG(hdma, __HAL_DMA_GET_FE_FLAG_INDEX(hdma));
 2900              		.loc 1 497 0 discriminator 117
 2901 0310 02F58062 		add	r2, r2, #1024
 2902 0314 9342     		cmp	r3, r2
 2903 0316 1ED0     		beq	.L1286
 497:../Drivers/STM32F4xx_HAL_Driver/Src/stm32f4xx_hal_dma.c ****     tmp1 = __HAL_DMA_GET_FLAG(hdma, __HAL_DMA_GET_FE_FLAG_INDEX(hdma));
 2904              		.loc 1 497 0 discriminator 119
 2905 0318 A2F58962 		sub	r2, r2, #1096
 2906 031c 9342     		cmp	r3, r2
 2907 031e 17D0     		beq	.L1287
 497:../Drivers/STM32F4xx_HAL_Driver/Src/stm32f4xx_hal_dma.c ****     tmp1 = __HAL_DMA_GET_FLAG(hdma, __HAL_DMA_GET_FE_FLAG_INDEX(hdma));
 2908              		.loc 1 497 0 discriminator 121
 2909 0320 02F58062 		add	r2, r2, #1024
 2910 0324 9342     		cmp	r3, r2
 2911 0326 10D0     		beq	.L1288
 497:../Drivers/STM32F4xx_HAL_Driver/Src/stm32f4xx_hal_dma.c ****     tmp1 = __HAL_DMA_GET_FLAG(hdma, __HAL_DMA_GET_FE_FLAG_INDEX(hdma));
 2912              		.loc 1 497 0 discriminator 123
 2913 0328 A2F56872 		sub	r2, r2, #928
 2914 032c 9342     		cmp	r3, r2
 2915 032e 09D0     		beq	.L1289
 497:../Drivers/STM32F4xx_HAL_Driver/Src/stm32f4xx_hal_dma.c ****     tmp1 = __HAL_DMA_GET_FLAG(hdma, __HAL_DMA_GET_FE_FLAG_INDEX(hdma));
 2916              		.loc 1 497 0 discriminator 125
 2917 0330 02F58062 		add	r2, r2, #1024
 2918 0334 9342     		cmp	r3, r2
 2919 0336 02D1     		bne	.L1290
 497:../Drivers/STM32F4xx_HAL_Driver/Src/stm32f4xx_hal_dma.c ****     tmp1 = __HAL_DMA_GET_FLAG(hdma, __HAL_DMA_GET_FE_FLAG_INDEX(hdma));
 2920              		.loc 1 497 0
 2921 0338 4FF40022 		mov	r2, #524288
 2922 033c 1EE0     		b	.L603
 2923              	.L1290:
 2924 033e 4FF00072 		mov	r2, #33554432
 2925 0342 1BE0     		b	.L603
 2926              	.L1289:
 2927 0344 4FF40022 		mov	r2, #524288
 2928 0348 18E0     		b	.L603
 2929              	.L1288:
 2930 034a 4FF40022 		mov	r2, #524288
 2931 034e 15E0     		b	.L603
 2932              	.L1287:
 2933 0350 4FF40022 		mov	r2, #524288
 2934 0354 12E0     		b	.L603
 2935              	.L1286:
 2936 0356 4FF40072 		mov	r2, #512
 2937 035a 0FE0     		b	.L603
 2938              	.L1285:
ARM GAS  /tmp/ccAPlzty.s 			page 76


 2939 035c 4FF40072 		mov	r2, #512
 2940 0360 0CE0     		b	.L603
 2941              	.L1284:
 2942 0362 4FF40072 		mov	r2, #512
 2943 0366 09E0     		b	.L603
 2944              	.L1283:
 2945 0368 4FF40072 		mov	r2, #512
 2946 036c 06E0     		b	.L603
 2947              	.L1282:
 2948 036e 0822     		movs	r2, #8
 2949 0370 04E0     		b	.L603
 2950              	.L1281:
 2951 0372 0822     		movs	r2, #8
 2952 0374 02E0     		b	.L603
 2953              	.L1280:
 2954 0376 0822     		movs	r2, #8
 2955 0378 00E0     		b	.L603
 2956              	.L1279:
 2957 037a 0822     		movs	r2, #8
 2958              	.L603:
 497:../Drivers/STM32F4xx_HAL_Driver/Src/stm32f4xx_hal_dma.c ****     tmp1 = __HAL_DMA_GET_FLAG(hdma, __HAL_DMA_GET_FE_FLAG_INDEX(hdma));
 2959              		.loc 1 497 0 discriminator 152
 2960 037c 0A40     		ands	r2, r2, r1
 2961 037e 53E0     		b	.L587
 2962              	.L602:
 497:../Drivers/STM32F4xx_HAL_Driver/Src/stm32f4xx_hal_dma.c ****     tmp1 = __HAL_DMA_GET_FLAG(hdma, __HAL_DMA_GET_FE_FLAG_INDEX(hdma));
 2963              		.loc 1 497 0 discriminator 104
 2964 0380 7E4A     		ldr	r2, .L1835+4
 2965 0382 1168     		ldr	r1, [r2]
 2966 0384 1032     		adds	r2, r2, #16
 2967 0386 9342     		cmp	r3, r2
 2968 0388 4CD0     		beq	.L1291
 497:../Drivers/STM32F4xx_HAL_Driver/Src/stm32f4xx_hal_dma.c ****     tmp1 = __HAL_DMA_GET_FLAG(hdma, __HAL_DMA_GET_FE_FLAG_INDEX(hdma));
 2969              		.loc 1 497 0 discriminator 154
 2970 038a 02F58062 		add	r2, r2, #1024
 2971 038e 9342     		cmp	r3, r2
 2972 0390 46D0     		beq	.L1292
 497:../Drivers/STM32F4xx_HAL_Driver/Src/stm32f4xx_hal_dma.c ****     tmp1 = __HAL_DMA_GET_FLAG(hdma, __HAL_DMA_GET_FE_FLAG_INDEX(hdma));
 2973              		.loc 1 497 0 discriminator 156
 2974 0392 A2F56872 		sub	r2, r2, #928
 2975 0396 9342     		cmp	r3, r2
 2976 0398 40D0     		beq	.L1293
 497:../Drivers/STM32F4xx_HAL_Driver/Src/stm32f4xx_hal_dma.c ****     tmp1 = __HAL_DMA_GET_FLAG(hdma, __HAL_DMA_GET_FE_FLAG_INDEX(hdma));
 2977              		.loc 1 497 0 discriminator 158
 2978 039a 02F58062 		add	r2, r2, #1024
 2979 039e 9342     		cmp	r3, r2
 2980 03a0 3AD0     		beq	.L1294
 497:../Drivers/STM32F4xx_HAL_Driver/Src/stm32f4xx_hal_dma.c ****     tmp1 = __HAL_DMA_GET_FLAG(hdma, __HAL_DMA_GET_FE_FLAG_INDEX(hdma));
 2981              		.loc 1 497 0 discriminator 160
 2982 03a2 A2F58962 		sub	r2, r2, #1096
 2983 03a6 9342     		cmp	r3, r2
 2984 03a8 33D0     		beq	.L1295
 497:../Drivers/STM32F4xx_HAL_Driver/Src/stm32f4xx_hal_dma.c ****     tmp1 = __HAL_DMA_GET_FLAG(hdma, __HAL_DMA_GET_FE_FLAG_INDEX(hdma));
 2985              		.loc 1 497 0 discriminator 162
 2986 03aa 02F58062 		add	r2, r2, #1024
 2987 03ae 9342     		cmp	r3, r2
 2988 03b0 2CD0     		beq	.L1296
ARM GAS  /tmp/ccAPlzty.s 			page 77


 497:../Drivers/STM32F4xx_HAL_Driver/Src/stm32f4xx_hal_dma.c ****     tmp1 = __HAL_DMA_GET_FLAG(hdma, __HAL_DMA_GET_FE_FLAG_INDEX(hdma));
 2989              		.loc 1 497 0 discriminator 164
 2990 03b2 A2F56872 		sub	r2, r2, #928
 2991 03b6 9342     		cmp	r3, r2
 2992 03b8 25D0     		beq	.L1297
 497:../Drivers/STM32F4xx_HAL_Driver/Src/stm32f4xx_hal_dma.c ****     tmp1 = __HAL_DMA_GET_FLAG(hdma, __HAL_DMA_GET_FE_FLAG_INDEX(hdma));
 2993              		.loc 1 497 0 discriminator 166
 2994 03ba 02F58062 		add	r2, r2, #1024
 2995 03be 9342     		cmp	r3, r2
 2996 03c0 1ED0     		beq	.L1298
 497:../Drivers/STM32F4xx_HAL_Driver/Src/stm32f4xx_hal_dma.c ****     tmp1 = __HAL_DMA_GET_FLAG(hdma, __HAL_DMA_GET_FE_FLAG_INDEX(hdma));
 2997              		.loc 1 497 0 discriminator 168
 2998 03c2 A2F58962 		sub	r2, r2, #1096
 2999 03c6 9342     		cmp	r3, r2
 3000 03c8 17D0     		beq	.L1299
 497:../Drivers/STM32F4xx_HAL_Driver/Src/stm32f4xx_hal_dma.c ****     tmp1 = __HAL_DMA_GET_FLAG(hdma, __HAL_DMA_GET_FE_FLAG_INDEX(hdma));
 3001              		.loc 1 497 0 discriminator 170
 3002 03ca 02F58062 		add	r2, r2, #1024
 3003 03ce 9342     		cmp	r3, r2
 3004 03d0 10D0     		beq	.L1300
 497:../Drivers/STM32F4xx_HAL_Driver/Src/stm32f4xx_hal_dma.c ****     tmp1 = __HAL_DMA_GET_FLAG(hdma, __HAL_DMA_GET_FE_FLAG_INDEX(hdma));
 3005              		.loc 1 497 0 discriminator 172
 3006 03d2 A2F56872 		sub	r2, r2, #928
 3007 03d6 9342     		cmp	r3, r2
 3008 03d8 09D0     		beq	.L1301
 497:../Drivers/STM32F4xx_HAL_Driver/Src/stm32f4xx_hal_dma.c ****     tmp1 = __HAL_DMA_GET_FLAG(hdma, __HAL_DMA_GET_FE_FLAG_INDEX(hdma));
 3009              		.loc 1 497 0 discriminator 174
 3010 03da 02F58062 		add	r2, r2, #1024
 3011 03de 9342     		cmp	r3, r2
 3012 03e0 02D1     		bne	.L1302
 497:../Drivers/STM32F4xx_HAL_Driver/Src/stm32f4xx_hal_dma.c ****     tmp1 = __HAL_DMA_GET_FLAG(hdma, __HAL_DMA_GET_FE_FLAG_INDEX(hdma));
 3013              		.loc 1 497 0
 3014 03e2 4FF40022 		mov	r2, #524288
 3015 03e6 1EE0     		b	.L616
 3016              	.L1302:
 3017 03e8 4FF00072 		mov	r2, #33554432
 3018 03ec 1BE0     		b	.L616
 3019              	.L1301:
 3020 03ee 4FF40022 		mov	r2, #524288
 3021 03f2 18E0     		b	.L616
 3022              	.L1300:
 3023 03f4 4FF40022 		mov	r2, #524288
 3024 03f8 15E0     		b	.L616
 3025              	.L1299:
 3026 03fa 4FF40022 		mov	r2, #524288
 3027 03fe 12E0     		b	.L616
 3028              	.L1298:
 3029 0400 4FF40072 		mov	r2, #512
 3030 0404 0FE0     		b	.L616
 3031              	.L1297:
 3032 0406 4FF40072 		mov	r2, #512
 3033 040a 0CE0     		b	.L616
 3034              	.L1296:
 3035 040c 4FF40072 		mov	r2, #512
 3036 0410 09E0     		b	.L616
 3037              	.L1295:
 3038 0412 4FF40072 		mov	r2, #512
ARM GAS  /tmp/ccAPlzty.s 			page 78


 3039 0416 06E0     		b	.L616
 3040              	.L1294:
 3041 0418 0822     		movs	r2, #8
 3042 041a 04E0     		b	.L616
 3043              	.L1293:
 3044 041c 0822     		movs	r2, #8
 3045 041e 02E0     		b	.L616
 3046              	.L1292:
 3047 0420 0822     		movs	r2, #8
 3048 0422 00E0     		b	.L616
 3049              	.L1291:
 3050 0424 0822     		movs	r2, #8
 3051              	.L616:
 497:../Drivers/STM32F4xx_HAL_Driver/Src/stm32f4xx_hal_dma.c ****     tmp1 = __HAL_DMA_GET_FLAG(hdma, __HAL_DMA_GET_FE_FLAG_INDEX(hdma));
 3052              		.loc 1 497 0 discriminator 201
 3053 0426 0A40     		ands	r2, r2, r1
 3054              	.L587:
 3055              	.LVL52:
 498:../Drivers/STM32F4xx_HAL_Driver/Src/stm32f4xx_hal_dma.c ****     tmp2 = __HAL_DMA_GET_FLAG(hdma, __HAL_DMA_GET_DME_FLAG_INDEX(hdma));
 3056              		.loc 1 498 0 is_stmt 1 discriminator 204
 3057 0428 5549     		ldr	r1, .L1835+8
 3058 042a 8B42     		cmp	r3, r1
 3059 042c 4FD9     		bls	.L628
 498:../Drivers/STM32F4xx_HAL_Driver/Src/stm32f4xx_hal_dma.c ****     tmp2 = __HAL_DMA_GET_FLAG(hdma, __HAL_DMA_GET_DME_FLAG_INDEX(hdma));
 3060              		.loc 1 498 0 is_stmt 0 discriminator 1
 3061 042e 5839     		subs	r1, r1, #88
 3062 0430 4F68     		ldr	r7, [r1, #4]
 3063 0432 5448     		ldr	r0, .L1835+12
 3064 0434 8342     		cmp	r3, r0
 3065 0436 47D0     		beq	.L1303
 498:../Drivers/STM32F4xx_HAL_Driver/Src/stm32f4xx_hal_dma.c ****     tmp2 = __HAL_DMA_GET_FLAG(hdma, __HAL_DMA_GET_DME_FLAG_INDEX(hdma));
 3066              		.loc 1 498 0 discriminator 3
 3067 0438 00F58060 		add	r0, r0, #1024
 3068 043c 8342     		cmp	r3, r0
 3069 043e 41D0     		beq	.L1304
 498:../Drivers/STM32F4xx_HAL_Driver/Src/stm32f4xx_hal_dma.c ****     tmp2 = __HAL_DMA_GET_FLAG(hdma, __HAL_DMA_GET_DME_FLAG_INDEX(hdma));
 3070              		.loc 1 498 0 discriminator 5
 3071 0440 A0F56870 		sub	r0, r0, #928
 3072 0444 8342     		cmp	r3, r0
 3073 0446 3BD0     		beq	.L1305
 498:../Drivers/STM32F4xx_HAL_Driver/Src/stm32f4xx_hal_dma.c ****     tmp2 = __HAL_DMA_GET_FLAG(hdma, __HAL_DMA_GET_DME_FLAG_INDEX(hdma));
 3074              		.loc 1 498 0 discriminator 7
 3075 0448 7031     		adds	r1, r1, #112
 3076 044a 8B42     		cmp	r3, r1
 3077 044c 36D0     		beq	.L1306
 498:../Drivers/STM32F4xx_HAL_Driver/Src/stm32f4xx_hal_dma.c ****     tmp2 = __HAL_DMA_GET_FLAG(hdma, __HAL_DMA_GET_DME_FLAG_INDEX(hdma));
 3078              		.loc 1 498 0 discriminator 9
 3079 044e A1F58961 		sub	r1, r1, #1096
 3080 0452 8B42     		cmp	r3, r1
 3081 0454 30D0     		beq	.L1307
 498:../Drivers/STM32F4xx_HAL_Driver/Src/stm32f4xx_hal_dma.c ****     tmp2 = __HAL_DMA_GET_FLAG(hdma, __HAL_DMA_GET_DME_FLAG_INDEX(hdma));
 3082              		.loc 1 498 0 discriminator 11
 3083 0456 01F58061 		add	r1, r1, #1024
 3084 045a 8B42     		cmp	r3, r1
 3085 045c 2AD0     		beq	.L1308
 498:../Drivers/STM32F4xx_HAL_Driver/Src/stm32f4xx_hal_dma.c ****     tmp2 = __HAL_DMA_GET_FLAG(hdma, __HAL_DMA_GET_DME_FLAG_INDEX(hdma));
 3086              		.loc 1 498 0 discriminator 13
ARM GAS  /tmp/ccAPlzty.s 			page 79


 3087 045e A1F56871 		sub	r1, r1, #928
 3088 0462 8B42     		cmp	r3, r1
 3089 0464 24D0     		beq	.L1309
 498:../Drivers/STM32F4xx_HAL_Driver/Src/stm32f4xx_hal_dma.c ****     tmp2 = __HAL_DMA_GET_FLAG(hdma, __HAL_DMA_GET_DME_FLAG_INDEX(hdma));
 3090              		.loc 1 498 0 discriminator 15
 3091 0466 01F58061 		add	r1, r1, #1024
 3092 046a 8B42     		cmp	r3, r1
 3093 046c 1ED0     		beq	.L1310
 498:../Drivers/STM32F4xx_HAL_Driver/Src/stm32f4xx_hal_dma.c ****     tmp2 = __HAL_DMA_GET_FLAG(hdma, __HAL_DMA_GET_DME_FLAG_INDEX(hdma));
 3094              		.loc 1 498 0 discriminator 17
 3095 046e A1F58961 		sub	r1, r1, #1096
 3096 0472 8B42     		cmp	r3, r1
 3097 0474 17D0     		beq	.L1311
 498:../Drivers/STM32F4xx_HAL_Driver/Src/stm32f4xx_hal_dma.c ****     tmp2 = __HAL_DMA_GET_FLAG(hdma, __HAL_DMA_GET_DME_FLAG_INDEX(hdma));
 3098              		.loc 1 498 0 discriminator 19
 3099 0476 01F58061 		add	r1, r1, #1024
 3100 047a 8B42     		cmp	r3, r1
 3101 047c 10D0     		beq	.L1312
 498:../Drivers/STM32F4xx_HAL_Driver/Src/stm32f4xx_hal_dma.c ****     tmp2 = __HAL_DMA_GET_FLAG(hdma, __HAL_DMA_GET_DME_FLAG_INDEX(hdma));
 3102              		.loc 1 498 0 discriminator 21
 3103 047e A1F56871 		sub	r1, r1, #928
 3104 0482 8B42     		cmp	r3, r1
 3105 0484 09D0     		beq	.L1313
 498:../Drivers/STM32F4xx_HAL_Driver/Src/stm32f4xx_hal_dma.c ****     tmp2 = __HAL_DMA_GET_FLAG(hdma, __HAL_DMA_GET_DME_FLAG_INDEX(hdma));
 3106              		.loc 1 498 0 discriminator 23
 3107 0486 01F58061 		add	r1, r1, #1024
 3108 048a 8B42     		cmp	r3, r1
 3109 048c 02D1     		bne	.L1314
 498:../Drivers/STM32F4xx_HAL_Driver/Src/stm32f4xx_hal_dma.c ****     tmp2 = __HAL_DMA_GET_FLAG(hdma, __HAL_DMA_GET_DME_FLAG_INDEX(hdma));
 3110              		.loc 1 498 0
 3111 048e 4FF48031 		mov	r1, #65536
 3112 0492 1AE0     		b	.L629
 3113              	.L1314:
 3114 0494 4FF48001 		mov	r1, #4194304
 3115 0498 17E0     		b	.L629
 3116              	.L1313:
 3117 049a 4FF48031 		mov	r1, #65536
 3118 049e 14E0     		b	.L629
 3119              	.L1312:
 3120 04a0 4FF48031 		mov	r1, #65536
 3121 04a4 11E0     		b	.L629
 3122              	.L1311:
 3123 04a6 4FF48031 		mov	r1, #65536
 3124 04aa 0EE0     		b	.L629
 3125              	.L1310:
 3126 04ac 4021     		movs	r1, #64
 3127 04ae 0CE0     		b	.L629
 3128              	.L1309:
 3129 04b0 4021     		movs	r1, #64
 3130 04b2 0AE0     		b	.L629
 3131              	.L1308:
 3132 04b4 4021     		movs	r1, #64
 3133 04b6 08E0     		b	.L629
 3134              	.L1307:
 3135 04b8 4021     		movs	r1, #64
 3136 04ba 06E0     		b	.L629
 3137              	.L1306:
ARM GAS  /tmp/ccAPlzty.s 			page 80


 3138 04bc 3249     		ldr	r1, .L1835+16
 3139 04be 04E0     		b	.L629
 3140              	.L1305:
 3141 04c0 3149     		ldr	r1, .L1835+16
 3142 04c2 02E0     		b	.L629
 3143              	.L1304:
 3144 04c4 3049     		ldr	r1, .L1835+16
 3145 04c6 00E0     		b	.L629
 3146              	.L1303:
 3147 04c8 2F49     		ldr	r1, .L1835+16
 3148              	.L629:
 498:../Drivers/STM32F4xx_HAL_Driver/Src/stm32f4xx_hal_dma.c ****     tmp2 = __HAL_DMA_GET_FLAG(hdma, __HAL_DMA_GET_DME_FLAG_INDEX(hdma));
 3149              		.loc 1 498 0 discriminator 50
 3150 04ca 3940     		ands	r1, r1, r7
 3151 04cc 04E1     		b	.L641
 3152              	.L628:
 498:../Drivers/STM32F4xx_HAL_Driver/Src/stm32f4xx_hal_dma.c ****     tmp2 = __HAL_DMA_GET_FLAG(hdma, __HAL_DMA_GET_DME_FLAG_INDEX(hdma));
 3153              		.loc 1 498 0 discriminator 2
 3154 04ce 2F49     		ldr	r1, .L1835+20
 3155 04d0 8B42     		cmp	r3, r1
 3156 04d2 5DD9     		bls	.L642
 498:../Drivers/STM32F4xx_HAL_Driver/Src/stm32f4xx_hal_dma.c ****     tmp2 = __HAL_DMA_GET_FLAG(hdma, __HAL_DMA_GET_DME_FLAG_INDEX(hdma));
 3157              		.loc 1 498 0 discriminator 52
 3158 04d4 01F55271 		add	r1, r1, #840
 3159 04d8 0968     		ldr	r1, [r1]
 3160 04da 2A48     		ldr	r0, .L1835+12
 3161 04dc 8342     		cmp	r3, r0
 3162 04de 48D0     		beq	.L1315
 498:../Drivers/STM32F4xx_HAL_Driver/Src/stm32f4xx_hal_dma.c ****     tmp2 = __HAL_DMA_GET_FLAG(hdma, __HAL_DMA_GET_DME_FLAG_INDEX(hdma));
 3163              		.loc 1 498 0 discriminator 54
 3164 04e0 00F58060 		add	r0, r0, #1024
 3165 04e4 8342     		cmp	r3, r0
 3166 04e6 42D0     		beq	.L1316
 498:../Drivers/STM32F4xx_HAL_Driver/Src/stm32f4xx_hal_dma.c ****     tmp2 = __HAL_DMA_GET_FLAG(hdma, __HAL_DMA_GET_DME_FLAG_INDEX(hdma));
 3167              		.loc 1 498 0 discriminator 56
 3168 04e8 A0F56870 		sub	r0, r0, #928
 3169 04ec 8342     		cmp	r3, r0
 3170 04ee 3CD0     		beq	.L1317
 498:../Drivers/STM32F4xx_HAL_Driver/Src/stm32f4xx_hal_dma.c ****     tmp2 = __HAL_DMA_GET_FLAG(hdma, __HAL_DMA_GET_DME_FLAG_INDEX(hdma));
 3171              		.loc 1 498 0 discriminator 58
 3172 04f0 00F58060 		add	r0, r0, #1024
 3173 04f4 8342     		cmp	r3, r0
 3174 04f6 36D0     		beq	.L1318
 498:../Drivers/STM32F4xx_HAL_Driver/Src/stm32f4xx_hal_dma.c ****     tmp2 = __HAL_DMA_GET_FLAG(hdma, __HAL_DMA_GET_DME_FLAG_INDEX(hdma));
 3175              		.loc 1 498 0 discriminator 60
 3176 04f8 A0F58960 		sub	r0, r0, #1096
 3177 04fc 8342     		cmp	r3, r0
 3178 04fe 30D0     		beq	.L1319
 498:../Drivers/STM32F4xx_HAL_Driver/Src/stm32f4xx_hal_dma.c ****     tmp2 = __HAL_DMA_GET_FLAG(hdma, __HAL_DMA_GET_DME_FLAG_INDEX(hdma));
 3179              		.loc 1 498 0 discriminator 62
 3180 0500 00F58060 		add	r0, r0, #1024
 3181 0504 8342     		cmp	r3, r0
 3182 0506 2AD0     		beq	.L1320
 498:../Drivers/STM32F4xx_HAL_Driver/Src/stm32f4xx_hal_dma.c ****     tmp2 = __HAL_DMA_GET_FLAG(hdma, __HAL_DMA_GET_DME_FLAG_INDEX(hdma));
 3183              		.loc 1 498 0 discriminator 64
 3184 0508 A0F56870 		sub	r0, r0, #928
 3185 050c 8342     		cmp	r3, r0
ARM GAS  /tmp/ccAPlzty.s 			page 81


 3186 050e 24D0     		beq	.L1321
 498:../Drivers/STM32F4xx_HAL_Driver/Src/stm32f4xx_hal_dma.c ****     tmp2 = __HAL_DMA_GET_FLAG(hdma, __HAL_DMA_GET_DME_FLAG_INDEX(hdma));
 3187              		.loc 1 498 0 discriminator 66
 3188 0510 00F58060 		add	r0, r0, #1024
 3189 0514 8342     		cmp	r3, r0
 3190 0516 1ED0     		beq	.L1322
 498:../Drivers/STM32F4xx_HAL_Driver/Src/stm32f4xx_hal_dma.c ****     tmp2 = __HAL_DMA_GET_FLAG(hdma, __HAL_DMA_GET_DME_FLAG_INDEX(hdma));
 3191              		.loc 1 498 0 discriminator 68
 3192 0518 A0F58960 		sub	r0, r0, #1096
 3193 051c 8342     		cmp	r3, r0
 3194 051e 17D0     		beq	.L1323
 498:../Drivers/STM32F4xx_HAL_Driver/Src/stm32f4xx_hal_dma.c ****     tmp2 = __HAL_DMA_GET_FLAG(hdma, __HAL_DMA_GET_DME_FLAG_INDEX(hdma));
 3195              		.loc 1 498 0 discriminator 70
 3196 0520 00F58060 		add	r0, r0, #1024
 3197 0524 8342     		cmp	r3, r0
 3198 0526 10D0     		beq	.L1324
 498:../Drivers/STM32F4xx_HAL_Driver/Src/stm32f4xx_hal_dma.c ****     tmp2 = __HAL_DMA_GET_FLAG(hdma, __HAL_DMA_GET_DME_FLAG_INDEX(hdma));
 3199              		.loc 1 498 0 discriminator 72
 3200 0528 A0F56870 		sub	r0, r0, #928
 3201 052c 8342     		cmp	r3, r0
 3202 052e 09D0     		beq	.L1325
 498:../Drivers/STM32F4xx_HAL_Driver/Src/stm32f4xx_hal_dma.c ****     tmp2 = __HAL_DMA_GET_FLAG(hdma, __HAL_DMA_GET_DME_FLAG_INDEX(hdma));
 3203              		.loc 1 498 0 discriminator 74
 3204 0530 00F58060 		add	r0, r0, #1024
 3205 0534 8342     		cmp	r3, r0
 3206 0536 02D1     		bne	.L1326
 498:../Drivers/STM32F4xx_HAL_Driver/Src/stm32f4xx_hal_dma.c ****     tmp2 = __HAL_DMA_GET_FLAG(hdma, __HAL_DMA_GET_DME_FLAG_INDEX(hdma));
 3207              		.loc 1 498 0
 3208 0538 4FF48030 		mov	r0, #65536
 3209 053c 1AE0     		b	.L643
 3210              	.L1326:
 3211 053e 4FF48000 		mov	r0, #4194304
 3212 0542 17E0     		b	.L643
 3213              	.L1325:
 3214 0544 4FF48030 		mov	r0, #65536
 3215 0548 14E0     		b	.L643
 3216              	.L1324:
 3217 054a 4FF48030 		mov	r0, #65536
 3218 054e 11E0     		b	.L643
 3219              	.L1323:
 3220 0550 4FF48030 		mov	r0, #65536
 3221 0554 0EE0     		b	.L643
 3222              	.L1322:
 3223 0556 4020     		movs	r0, #64
 3224 0558 0CE0     		b	.L643
 3225              	.L1321:
 3226 055a 4020     		movs	r0, #64
 3227 055c 0AE0     		b	.L643
 3228              	.L1320:
 3229 055e 4020     		movs	r0, #64
 3230 0560 08E0     		b	.L643
 3231              	.L1319:
 3232 0562 4020     		movs	r0, #64
 3233 0564 06E0     		b	.L643
 3234              	.L1318:
 3235 0566 0848     		ldr	r0, .L1835+16
 3236 0568 04E0     		b	.L643
ARM GAS  /tmp/ccAPlzty.s 			page 82


 3237              	.L1317:
 3238 056a 0748     		ldr	r0, .L1835+16
 3239 056c 02E0     		b	.L643
 3240              	.L1316:
 3241 056e 0648     		ldr	r0, .L1835+16
 3242 0570 00E0     		b	.L643
 3243              	.L1315:
 3244 0572 0548     		ldr	r0, .L1835+16
 3245              	.L643:
 498:../Drivers/STM32F4xx_HAL_Driver/Src/stm32f4xx_hal_dma.c ****     tmp2 = __HAL_DMA_GET_FLAG(hdma, __HAL_DMA_GET_DME_FLAG_INDEX(hdma));
 3246              		.loc 1 498 0 discriminator 101
 3247 0574 0140     		ands	r1, r1, r0
 3248 0576 AFE0     		b	.L641
 3249              	.L1836:
 3250              		.align	2
 3251              	.L1835:
 3252 0578 58600240 		.word	1073897560
 3253 057c 00600240 		.word	1073897472
 3254 0580 58640240 		.word	1073898584
 3255 0584 10600240 		.word	1073897488
 3256 0588 01008000 		.word	8388609
 3257 058c B8600240 		.word	1073897656
 3258              	.L642:
 498:../Drivers/STM32F4xx_HAL_Driver/Src/stm32f4xx_hal_dma.c ****     tmp2 = __HAL_DMA_GET_FLAG(hdma, __HAL_DMA_GET_DME_FLAG_INDEX(hdma));
 3259              		.loc 1 498 0 discriminator 53
 3260 0590 AB49     		ldr	r1, .L1837
 3261 0592 8B42     		cmp	r3, r1
 3262 0594 50D9     		bls	.L656
 498:../Drivers/STM32F4xx_HAL_Driver/Src/stm32f4xx_hal_dma.c ****     tmp2 = __HAL_DMA_GET_FLAG(hdma, __HAL_DMA_GET_DME_FLAG_INDEX(hdma));
 3263              		.loc 1 498 0 discriminator 103
 3264 0596 5839     		subs	r1, r1, #88
 3265 0598 4868     		ldr	r0, [r1, #4]
 3266 059a 1031     		adds	r1, r1, #16
 3267 059c 8B42     		cmp	r3, r1
 3268 059e 48D0     		beq	.L1327
 498:../Drivers/STM32F4xx_HAL_Driver/Src/stm32f4xx_hal_dma.c ****     tmp2 = __HAL_DMA_GET_FLAG(hdma, __HAL_DMA_GET_DME_FLAG_INDEX(hdma));
 3269              		.loc 1 498 0 discriminator 105
 3270 05a0 01F58061 		add	r1, r1, #1024
 3271 05a4 8B42     		cmp	r3, r1
 3272 05a6 42D0     		beq	.L1328
 498:../Drivers/STM32F4xx_HAL_Driver/Src/stm32f4xx_hal_dma.c ****     tmp2 = __HAL_DMA_GET_FLAG(hdma, __HAL_DMA_GET_DME_FLAG_INDEX(hdma));
 3273              		.loc 1 498 0 discriminator 107
 3274 05a8 A1F56871 		sub	r1, r1, #928
 3275 05ac 8B42     		cmp	r3, r1
 3276 05ae 3CD0     		beq	.L1329
 498:../Drivers/STM32F4xx_HAL_Driver/Src/stm32f4xx_hal_dma.c ****     tmp2 = __HAL_DMA_GET_FLAG(hdma, __HAL_DMA_GET_DME_FLAG_INDEX(hdma));
 3277              		.loc 1 498 0 discriminator 109
 3278 05b0 01F58061 		add	r1, r1, #1024
 3279 05b4 8B42     		cmp	r3, r1
 3280 05b6 36D0     		beq	.L1330
 498:../Drivers/STM32F4xx_HAL_Driver/Src/stm32f4xx_hal_dma.c ****     tmp2 = __HAL_DMA_GET_FLAG(hdma, __HAL_DMA_GET_DME_FLAG_INDEX(hdma));
 3281              		.loc 1 498 0 discriminator 111
 3282 05b8 A1F58961 		sub	r1, r1, #1096
 3283 05bc 8B42     		cmp	r3, r1
 3284 05be 30D0     		beq	.L1331
 498:../Drivers/STM32F4xx_HAL_Driver/Src/stm32f4xx_hal_dma.c ****     tmp2 = __HAL_DMA_GET_FLAG(hdma, __HAL_DMA_GET_DME_FLAG_INDEX(hdma));
 3285              		.loc 1 498 0 discriminator 113
ARM GAS  /tmp/ccAPlzty.s 			page 83


 3286 05c0 01F58061 		add	r1, r1, #1024
 3287 05c4 8B42     		cmp	r3, r1
 3288 05c6 2AD0     		beq	.L1332
 498:../Drivers/STM32F4xx_HAL_Driver/Src/stm32f4xx_hal_dma.c ****     tmp2 = __HAL_DMA_GET_FLAG(hdma, __HAL_DMA_GET_DME_FLAG_INDEX(hdma));
 3289              		.loc 1 498 0 discriminator 115
 3290 05c8 A1F56871 		sub	r1, r1, #928
 3291 05cc 8B42     		cmp	r3, r1
 3292 05ce 24D0     		beq	.L1333
 498:../Drivers/STM32F4xx_HAL_Driver/Src/stm32f4xx_hal_dma.c ****     tmp2 = __HAL_DMA_GET_FLAG(hdma, __HAL_DMA_GET_DME_FLAG_INDEX(hdma));
 3293              		.loc 1 498 0 discriminator 117
 3294 05d0 01F58061 		add	r1, r1, #1024
 3295 05d4 8B42     		cmp	r3, r1
 3296 05d6 1ED0     		beq	.L1334
 498:../Drivers/STM32F4xx_HAL_Driver/Src/stm32f4xx_hal_dma.c ****     tmp2 = __HAL_DMA_GET_FLAG(hdma, __HAL_DMA_GET_DME_FLAG_INDEX(hdma));
 3297              		.loc 1 498 0 discriminator 119
 3298 05d8 A1F58961 		sub	r1, r1, #1096
 3299 05dc 8B42     		cmp	r3, r1
 3300 05de 17D0     		beq	.L1335
 498:../Drivers/STM32F4xx_HAL_Driver/Src/stm32f4xx_hal_dma.c ****     tmp2 = __HAL_DMA_GET_FLAG(hdma, __HAL_DMA_GET_DME_FLAG_INDEX(hdma));
 3301              		.loc 1 498 0 discriminator 121
 3302 05e0 01F58061 		add	r1, r1, #1024
 3303 05e4 8B42     		cmp	r3, r1
 3304 05e6 10D0     		beq	.L1336
 498:../Drivers/STM32F4xx_HAL_Driver/Src/stm32f4xx_hal_dma.c ****     tmp2 = __HAL_DMA_GET_FLAG(hdma, __HAL_DMA_GET_DME_FLAG_INDEX(hdma));
 3305              		.loc 1 498 0 discriminator 123
 3306 05e8 A1F56871 		sub	r1, r1, #928
 3307 05ec 8B42     		cmp	r3, r1
 3308 05ee 09D0     		beq	.L1337
 498:../Drivers/STM32F4xx_HAL_Driver/Src/stm32f4xx_hal_dma.c ****     tmp2 = __HAL_DMA_GET_FLAG(hdma, __HAL_DMA_GET_DME_FLAG_INDEX(hdma));
 3309              		.loc 1 498 0 discriminator 125
 3310 05f0 01F58061 		add	r1, r1, #1024
 3311 05f4 8B42     		cmp	r3, r1
 3312 05f6 02D1     		bne	.L1338
 498:../Drivers/STM32F4xx_HAL_Driver/Src/stm32f4xx_hal_dma.c ****     tmp2 = __HAL_DMA_GET_FLAG(hdma, __HAL_DMA_GET_DME_FLAG_INDEX(hdma));
 3313              		.loc 1 498 0
 3314 05f8 4FF48031 		mov	r1, #65536
 3315 05fc 1AE0     		b	.L657
 3316              	.L1338:
 3317 05fe 4FF48001 		mov	r1, #4194304
 3318 0602 17E0     		b	.L657
 3319              	.L1337:
 3320 0604 4FF48031 		mov	r1, #65536
 3321 0608 14E0     		b	.L657
 3322              	.L1336:
 3323 060a 4FF48031 		mov	r1, #65536
 3324 060e 11E0     		b	.L657
 3325              	.L1335:
 3326 0610 4FF48031 		mov	r1, #65536
 3327 0614 0EE0     		b	.L657
 3328              	.L1334:
 3329 0616 4021     		movs	r1, #64
 3330 0618 0CE0     		b	.L657
 3331              	.L1333:
 3332 061a 4021     		movs	r1, #64
 3333 061c 0AE0     		b	.L657
 3334              	.L1332:
 3335 061e 4021     		movs	r1, #64
ARM GAS  /tmp/ccAPlzty.s 			page 84


 3336 0620 08E0     		b	.L657
 3337              	.L1331:
 3338 0622 4021     		movs	r1, #64
 3339 0624 06E0     		b	.L657
 3340              	.L1330:
 3341 0626 8749     		ldr	r1, .L1837+4
 3342 0628 04E0     		b	.L657
 3343              	.L1329:
 3344 062a 8649     		ldr	r1, .L1837+4
 3345 062c 02E0     		b	.L657
 3346              	.L1328:
 3347 062e 8549     		ldr	r1, .L1837+4
 3348 0630 00E0     		b	.L657
 3349              	.L1327:
 3350 0632 8449     		ldr	r1, .L1837+4
 3351              	.L657:
 498:../Drivers/STM32F4xx_HAL_Driver/Src/stm32f4xx_hal_dma.c ****     tmp2 = __HAL_DMA_GET_FLAG(hdma, __HAL_DMA_GET_DME_FLAG_INDEX(hdma));
 3352              		.loc 1 498 0 discriminator 152
 3353 0634 0140     		ands	r1, r1, r0
 3354 0636 4FE0     		b	.L641
 3355              	.L656:
 498:../Drivers/STM32F4xx_HAL_Driver/Src/stm32f4xx_hal_dma.c ****     tmp2 = __HAL_DMA_GET_FLAG(hdma, __HAL_DMA_GET_DME_FLAG_INDEX(hdma));
 3356              		.loc 1 498 0 discriminator 104
 3357 0638 8349     		ldr	r1, .L1837+8
 3358 063a 0868     		ldr	r0, [r1]
 3359 063c 1031     		adds	r1, r1, #16
 3360 063e 8B42     		cmp	r3, r1
 3361 0640 48D0     		beq	.L1339
 498:../Drivers/STM32F4xx_HAL_Driver/Src/stm32f4xx_hal_dma.c ****     tmp2 = __HAL_DMA_GET_FLAG(hdma, __HAL_DMA_GET_DME_FLAG_INDEX(hdma));
 3362              		.loc 1 498 0 discriminator 154
 3363 0642 01F58061 		add	r1, r1, #1024
 3364 0646 8B42     		cmp	r3, r1
 3365 0648 42D0     		beq	.L1340
 498:../Drivers/STM32F4xx_HAL_Driver/Src/stm32f4xx_hal_dma.c ****     tmp2 = __HAL_DMA_GET_FLAG(hdma, __HAL_DMA_GET_DME_FLAG_INDEX(hdma));
 3366              		.loc 1 498 0 discriminator 156
 3367 064a A1F56871 		sub	r1, r1, #928
 3368 064e 8B42     		cmp	r3, r1
 3369 0650 3CD0     		beq	.L1341
 498:../Drivers/STM32F4xx_HAL_Driver/Src/stm32f4xx_hal_dma.c ****     tmp2 = __HAL_DMA_GET_FLAG(hdma, __HAL_DMA_GET_DME_FLAG_INDEX(hdma));
 3370              		.loc 1 498 0 discriminator 158
 3371 0652 01F58061 		add	r1, r1, #1024
 3372 0656 8B42     		cmp	r3, r1
 3373 0658 36D0     		beq	.L1342
 498:../Drivers/STM32F4xx_HAL_Driver/Src/stm32f4xx_hal_dma.c ****     tmp2 = __HAL_DMA_GET_FLAG(hdma, __HAL_DMA_GET_DME_FLAG_INDEX(hdma));
 3374              		.loc 1 498 0 discriminator 160
 3375 065a A1F58961 		sub	r1, r1, #1096
 3376 065e 8B42     		cmp	r3, r1
 3377 0660 30D0     		beq	.L1343
 498:../Drivers/STM32F4xx_HAL_Driver/Src/stm32f4xx_hal_dma.c ****     tmp2 = __HAL_DMA_GET_FLAG(hdma, __HAL_DMA_GET_DME_FLAG_INDEX(hdma));
 3378              		.loc 1 498 0 discriminator 162
 3379 0662 01F58061 		add	r1, r1, #1024
 3380 0666 8B42     		cmp	r3, r1
 3381 0668 2AD0     		beq	.L1344
 498:../Drivers/STM32F4xx_HAL_Driver/Src/stm32f4xx_hal_dma.c ****     tmp2 = __HAL_DMA_GET_FLAG(hdma, __HAL_DMA_GET_DME_FLAG_INDEX(hdma));
 3382              		.loc 1 498 0 discriminator 164
 3383 066a A1F56871 		sub	r1, r1, #928
 3384 066e 8B42     		cmp	r3, r1
ARM GAS  /tmp/ccAPlzty.s 			page 85


 3385 0670 24D0     		beq	.L1345
 498:../Drivers/STM32F4xx_HAL_Driver/Src/stm32f4xx_hal_dma.c ****     tmp2 = __HAL_DMA_GET_FLAG(hdma, __HAL_DMA_GET_DME_FLAG_INDEX(hdma));
 3386              		.loc 1 498 0 discriminator 166
 3387 0672 01F58061 		add	r1, r1, #1024
 3388 0676 8B42     		cmp	r3, r1
 3389 0678 1ED0     		beq	.L1346
 498:../Drivers/STM32F4xx_HAL_Driver/Src/stm32f4xx_hal_dma.c ****     tmp2 = __HAL_DMA_GET_FLAG(hdma, __HAL_DMA_GET_DME_FLAG_INDEX(hdma));
 3390              		.loc 1 498 0 discriminator 168
 3391 067a A1F58961 		sub	r1, r1, #1096
 3392 067e 8B42     		cmp	r3, r1
 3393 0680 17D0     		beq	.L1347
 498:../Drivers/STM32F4xx_HAL_Driver/Src/stm32f4xx_hal_dma.c ****     tmp2 = __HAL_DMA_GET_FLAG(hdma, __HAL_DMA_GET_DME_FLAG_INDEX(hdma));
 3394              		.loc 1 498 0 discriminator 170
 3395 0682 01F58061 		add	r1, r1, #1024
 3396 0686 8B42     		cmp	r3, r1
 3397 0688 10D0     		beq	.L1348
 498:../Drivers/STM32F4xx_HAL_Driver/Src/stm32f4xx_hal_dma.c ****     tmp2 = __HAL_DMA_GET_FLAG(hdma, __HAL_DMA_GET_DME_FLAG_INDEX(hdma));
 3398              		.loc 1 498 0 discriminator 172
 3399 068a A1F56871 		sub	r1, r1, #928
 3400 068e 8B42     		cmp	r3, r1
 3401 0690 09D0     		beq	.L1349
 498:../Drivers/STM32F4xx_HAL_Driver/Src/stm32f4xx_hal_dma.c ****     tmp2 = __HAL_DMA_GET_FLAG(hdma, __HAL_DMA_GET_DME_FLAG_INDEX(hdma));
 3402              		.loc 1 498 0 discriminator 174
 3403 0692 01F58061 		add	r1, r1, #1024
 3404 0696 8B42     		cmp	r3, r1
 3405 0698 02D1     		bne	.L1350
 498:../Drivers/STM32F4xx_HAL_Driver/Src/stm32f4xx_hal_dma.c ****     tmp2 = __HAL_DMA_GET_FLAG(hdma, __HAL_DMA_GET_DME_FLAG_INDEX(hdma));
 3406              		.loc 1 498 0
 3407 069a 4FF48031 		mov	r1, #65536
 3408 069e 1AE0     		b	.L670
 3409              	.L1350:
 3410 06a0 4FF48001 		mov	r1, #4194304
 3411 06a4 17E0     		b	.L670
 3412              	.L1349:
 3413 06a6 4FF48031 		mov	r1, #65536
 3414 06aa 14E0     		b	.L670
 3415              	.L1348:
 3416 06ac 4FF48031 		mov	r1, #65536
 3417 06b0 11E0     		b	.L670
 3418              	.L1347:
 3419 06b2 4FF48031 		mov	r1, #65536
 3420 06b6 0EE0     		b	.L670
 3421              	.L1346:
 3422 06b8 4021     		movs	r1, #64
 3423 06ba 0CE0     		b	.L670
 3424              	.L1345:
 3425 06bc 4021     		movs	r1, #64
 3426 06be 0AE0     		b	.L670
 3427              	.L1344:
 3428 06c0 4021     		movs	r1, #64
 3429 06c2 08E0     		b	.L670
 3430              	.L1343:
 3431 06c4 4021     		movs	r1, #64
 3432 06c6 06E0     		b	.L670
 3433              	.L1342:
 3434 06c8 5E49     		ldr	r1, .L1837+4
 3435 06ca 04E0     		b	.L670
ARM GAS  /tmp/ccAPlzty.s 			page 86


 3436              	.L1341:
 3437 06cc 5D49     		ldr	r1, .L1837+4
 3438 06ce 02E0     		b	.L670
 3439              	.L1340:
 3440 06d0 5C49     		ldr	r1, .L1837+4
 3441 06d2 00E0     		b	.L670
 3442              	.L1339:
 3443 06d4 5B49     		ldr	r1, .L1837+4
 3444              	.L670:
 498:../Drivers/STM32F4xx_HAL_Driver/Src/stm32f4xx_hal_dma.c ****     tmp2 = __HAL_DMA_GET_FLAG(hdma, __HAL_DMA_GET_DME_FLAG_INDEX(hdma));
 3445              		.loc 1 498 0 discriminator 201
 3446 06d6 0140     		ands	r1, r1, r0
 3447              	.L641:
 3448              	.LVL53:
 499:../Drivers/STM32F4xx_HAL_Driver/Src/stm32f4xx_hal_dma.c ****     if((tmp != RESET) || (tmp1 != RESET) || (tmp2 != RESET))
 3449              		.loc 1 499 0 is_stmt 1 discriminator 204
 3450 06d8 5C48     		ldr	r0, .L1837+12
 3451 06da 8342     		cmp	r3, r0
 3452 06dc 55D9     		bls	.L682
 499:../Drivers/STM32F4xx_HAL_Driver/Src/stm32f4xx_hal_dma.c ****     if((tmp != RESET) || (tmp1 != RESET) || (tmp2 != RESET))
 3453              		.loc 1 499 0 is_stmt 0 discriminator 1
 3454 06de 5838     		subs	r0, r0, #88
 3455 06e0 4768     		ldr	r7, [r0, #4]
 3456 06e2 A0F57C70 		sub	r0, r0, #1008
 3457 06e6 8342     		cmp	r3, r0
 3458 06e8 4CD0     		beq	.L1351
 499:../Drivers/STM32F4xx_HAL_Driver/Src/stm32f4xx_hal_dma.c ****     if((tmp != RESET) || (tmp1 != RESET) || (tmp2 != RESET))
 3459              		.loc 1 499 0 discriminator 3
 3460 06ea 00F58060 		add	r0, r0, #1024
 3461 06ee 8342     		cmp	r3, r0
 3462 06f0 46D0     		beq	.L1352
 499:../Drivers/STM32F4xx_HAL_Driver/Src/stm32f4xx_hal_dma.c ****     if((tmp != RESET) || (tmp1 != RESET) || (tmp2 != RESET))
 3463              		.loc 1 499 0 discriminator 5
 3464 06f2 A0F56870 		sub	r0, r0, #928
 3465 06f6 8342     		cmp	r3, r0
 3466 06f8 40D0     		beq	.L1353
 499:../Drivers/STM32F4xx_HAL_Driver/Src/stm32f4xx_hal_dma.c ****     if((tmp != RESET) || (tmp1 != RESET) || (tmp2 != RESET))
 3467              		.loc 1 499 0 discriminator 7
 3468 06fa 00F58060 		add	r0, r0, #1024
 3469 06fe 8342     		cmp	r3, r0
 3470 0700 3AD0     		beq	.L1354
 499:../Drivers/STM32F4xx_HAL_Driver/Src/stm32f4xx_hal_dma.c ****     if((tmp != RESET) || (tmp1 != RESET) || (tmp2 != RESET))
 3471              		.loc 1 499 0 discriminator 9
 3472 0702 A0F58960 		sub	r0, r0, #1096
 3473 0706 8342     		cmp	r3, r0
 3474 0708 33D0     		beq	.L1355
 499:../Drivers/STM32F4xx_HAL_Driver/Src/stm32f4xx_hal_dma.c ****     if((tmp != RESET) || (tmp1 != RESET) || (tmp2 != RESET))
 3475              		.loc 1 499 0 discriminator 11
 3476 070a 00F58060 		add	r0, r0, #1024
 3477 070e 8342     		cmp	r3, r0
 3478 0710 2CD0     		beq	.L1356
 499:../Drivers/STM32F4xx_HAL_Driver/Src/stm32f4xx_hal_dma.c ****     if((tmp != RESET) || (tmp1 != RESET) || (tmp2 != RESET))
 3479              		.loc 1 499 0 discriminator 13
 3480 0712 A0F56870 		sub	r0, r0, #928
 3481 0716 8342     		cmp	r3, r0
 3482 0718 25D0     		beq	.L1357
 499:../Drivers/STM32F4xx_HAL_Driver/Src/stm32f4xx_hal_dma.c ****     if((tmp != RESET) || (tmp1 != RESET) || (tmp2 != RESET))
ARM GAS  /tmp/ccAPlzty.s 			page 87


 3483              		.loc 1 499 0 discriminator 15
 3484 071a 00F58060 		add	r0, r0, #1024
 3485 071e 8342     		cmp	r3, r0
 3486 0720 1ED0     		beq	.L1358
 499:../Drivers/STM32F4xx_HAL_Driver/Src/stm32f4xx_hal_dma.c ****     if((tmp != RESET) || (tmp1 != RESET) || (tmp2 != RESET))
 3487              		.loc 1 499 0 discriminator 17
 3488 0722 A0F58960 		sub	r0, r0, #1096
 3489 0726 8342     		cmp	r3, r0
 3490 0728 17D0     		beq	.L1359
 499:../Drivers/STM32F4xx_HAL_Driver/Src/stm32f4xx_hal_dma.c ****     if((tmp != RESET) || (tmp1 != RESET) || (tmp2 != RESET))
 3491              		.loc 1 499 0 discriminator 19
 3492 072a 00F58060 		add	r0, r0, #1024
 3493 072e 8342     		cmp	r3, r0
 3494 0730 10D0     		beq	.L1360
 499:../Drivers/STM32F4xx_HAL_Driver/Src/stm32f4xx_hal_dma.c ****     if((tmp != RESET) || (tmp1 != RESET) || (tmp2 != RESET))
 3495              		.loc 1 499 0 discriminator 21
 3496 0732 A0F56870 		sub	r0, r0, #928
 3497 0736 8342     		cmp	r3, r0
 3498 0738 09D0     		beq	.L1361
 499:../Drivers/STM32F4xx_HAL_Driver/Src/stm32f4xx_hal_dma.c ****     if((tmp != RESET) || (tmp1 != RESET) || (tmp2 != RESET))
 3499              		.loc 1 499 0 discriminator 23
 3500 073a 00F58060 		add	r0, r0, #1024
 3501 073e 8342     		cmp	r3, r0
 3502 0740 02D1     		bne	.L1362
 499:../Drivers/STM32F4xx_HAL_Driver/Src/stm32f4xx_hal_dma.c ****     if((tmp != RESET) || (tmp1 != RESET) || (tmp2 != RESET))
 3503              		.loc 1 499 0
 3504 0742 4FF48023 		mov	r3, #262144
 3505 0746 1EE0     		b	.L683
 3506              	.L1362:
 3507 0748 4FF08073 		mov	r3, #16777216
 3508 074c 1BE0     		b	.L683
 3509              	.L1361:
 3510 074e 4FF48023 		mov	r3, #262144
 3511 0752 18E0     		b	.L683
 3512              	.L1360:
 3513 0754 4FF48023 		mov	r3, #262144
 3514 0758 15E0     		b	.L683
 3515              	.L1359:
 3516 075a 4FF48023 		mov	r3, #262144
 3517 075e 12E0     		b	.L683
 3518              	.L1358:
 3519 0760 4FF48073 		mov	r3, #256
 3520 0764 0FE0     		b	.L683
 3521              	.L1357:
 3522 0766 4FF48073 		mov	r3, #256
 3523 076a 0CE0     		b	.L683
 3524              	.L1356:
 3525 076c 4FF48073 		mov	r3, #256
 3526 0770 09E0     		b	.L683
 3527              	.L1355:
 3528 0772 4FF48073 		mov	r3, #256
 3529 0776 06E0     		b	.L683
 3530              	.L1354:
 3531 0778 354B     		ldr	r3, .L1837+16
 3532 077a 04E0     		b	.L683
 3533              	.L1353:
 3534 077c 344B     		ldr	r3, .L1837+16
ARM GAS  /tmp/ccAPlzty.s 			page 88


 3535 077e 02E0     		b	.L683
 3536              	.L1352:
 3537 0780 334B     		ldr	r3, .L1837+16
 3538 0782 00E0     		b	.L683
 3539              	.L1351:
 3540 0784 324B     		ldr	r3, .L1837+16
 3541              	.L683:
 499:../Drivers/STM32F4xx_HAL_Driver/Src/stm32f4xx_hal_dma.c ****     if((tmp != RESET) || (tmp1 != RESET) || (tmp2 != RESET))
 3542              		.loc 1 499 0 discriminator 50
 3543 0786 3B40     		ands	r3, r3, r7
 3544 0788 14E1     		b	.L695
 3545              	.L682:
 499:../Drivers/STM32F4xx_HAL_Driver/Src/stm32f4xx_hal_dma.c ****     if((tmp != RESET) || (tmp1 != RESET) || (tmp2 != RESET))
 3546              		.loc 1 499 0 discriminator 2
 3547 078a 3248     		ldr	r0, .L1837+20
 3548 078c 8342     		cmp	r3, r0
 3549 078e 63D9     		bls	.L696
 499:../Drivers/STM32F4xx_HAL_Driver/Src/stm32f4xx_hal_dma.c ****     if((tmp != RESET) || (tmp1 != RESET) || (tmp2 != RESET))
 3550              		.loc 1 499 0 discriminator 52
 3551 0790 00F55270 		add	r0, r0, #840
 3552 0794 0768     		ldr	r7, [r0]
 3553 0796 A0F57C70 		sub	r0, r0, #1008
 3554 079a 8342     		cmp	r3, r0
 3555 079c 4CD0     		beq	.L1363
 499:../Drivers/STM32F4xx_HAL_Driver/Src/stm32f4xx_hal_dma.c ****     if((tmp != RESET) || (tmp1 != RESET) || (tmp2 != RESET))
 3556              		.loc 1 499 0 discriminator 54
 3557 079e 00F58060 		add	r0, r0, #1024
 3558 07a2 8342     		cmp	r3, r0
 3559 07a4 46D0     		beq	.L1364
 499:../Drivers/STM32F4xx_HAL_Driver/Src/stm32f4xx_hal_dma.c ****     if((tmp != RESET) || (tmp1 != RESET) || (tmp2 != RESET))
 3560              		.loc 1 499 0 discriminator 56
 3561 07a6 A0F56870 		sub	r0, r0, #928
 3562 07aa 8342     		cmp	r3, r0
 3563 07ac 40D0     		beq	.L1365
 499:../Drivers/STM32F4xx_HAL_Driver/Src/stm32f4xx_hal_dma.c ****     if((tmp != RESET) || (tmp1 != RESET) || (tmp2 != RESET))
 3564              		.loc 1 499 0 discriminator 58
 3565 07ae 00F58060 		add	r0, r0, #1024
 3566 07b2 8342     		cmp	r3, r0
 3567 07b4 3AD0     		beq	.L1366
 499:../Drivers/STM32F4xx_HAL_Driver/Src/stm32f4xx_hal_dma.c ****     if((tmp != RESET) || (tmp1 != RESET) || (tmp2 != RESET))
 3568              		.loc 1 499 0 discriminator 60
 3569 07b6 A0F58960 		sub	r0, r0, #1096
 3570 07ba 8342     		cmp	r3, r0
 3571 07bc 33D0     		beq	.L1367
 499:../Drivers/STM32F4xx_HAL_Driver/Src/stm32f4xx_hal_dma.c ****     if((tmp != RESET) || (tmp1 != RESET) || (tmp2 != RESET))
 3572              		.loc 1 499 0 discriminator 62
 3573 07be 00F58060 		add	r0, r0, #1024
 3574 07c2 8342     		cmp	r3, r0
 3575 07c4 2CD0     		beq	.L1368
 499:../Drivers/STM32F4xx_HAL_Driver/Src/stm32f4xx_hal_dma.c ****     if((tmp != RESET) || (tmp1 != RESET) || (tmp2 != RESET))
 3576              		.loc 1 499 0 discriminator 64
 3577 07c6 A0F56870 		sub	r0, r0, #928
 3578 07ca 8342     		cmp	r3, r0
 3579 07cc 25D0     		beq	.L1369
 499:../Drivers/STM32F4xx_HAL_Driver/Src/stm32f4xx_hal_dma.c ****     if((tmp != RESET) || (tmp1 != RESET) || (tmp2 != RESET))
 3580              		.loc 1 499 0 discriminator 66
 3581 07ce 00F58060 		add	r0, r0, #1024
ARM GAS  /tmp/ccAPlzty.s 			page 89


 3582 07d2 8342     		cmp	r3, r0
 3583 07d4 1ED0     		beq	.L1370
 499:../Drivers/STM32F4xx_HAL_Driver/Src/stm32f4xx_hal_dma.c ****     if((tmp != RESET) || (tmp1 != RESET) || (tmp2 != RESET))
 3584              		.loc 1 499 0 discriminator 68
 3585 07d6 A0F58960 		sub	r0, r0, #1096
 3586 07da 8342     		cmp	r3, r0
 3587 07dc 17D0     		beq	.L1371
 499:../Drivers/STM32F4xx_HAL_Driver/Src/stm32f4xx_hal_dma.c ****     if((tmp != RESET) || (tmp1 != RESET) || (tmp2 != RESET))
 3588              		.loc 1 499 0 discriminator 70
 3589 07de 00F58060 		add	r0, r0, #1024
 3590 07e2 8342     		cmp	r3, r0
 3591 07e4 10D0     		beq	.L1372
 499:../Drivers/STM32F4xx_HAL_Driver/Src/stm32f4xx_hal_dma.c ****     if((tmp != RESET) || (tmp1 != RESET) || (tmp2 != RESET))
 3592              		.loc 1 499 0 discriminator 72
 3593 07e6 A0F56870 		sub	r0, r0, #928
 3594 07ea 8342     		cmp	r3, r0
 3595 07ec 09D0     		beq	.L1373
 499:../Drivers/STM32F4xx_HAL_Driver/Src/stm32f4xx_hal_dma.c ****     if((tmp != RESET) || (tmp1 != RESET) || (tmp2 != RESET))
 3596              		.loc 1 499 0 discriminator 74
 3597 07ee 00F58060 		add	r0, r0, #1024
 3598 07f2 8342     		cmp	r3, r0
 3599 07f4 02D1     		bne	.L1374
 499:../Drivers/STM32F4xx_HAL_Driver/Src/stm32f4xx_hal_dma.c ****     if((tmp != RESET) || (tmp1 != RESET) || (tmp2 != RESET))
 3600              		.loc 1 499 0
 3601 07f6 4FF48023 		mov	r3, #262144
 3602 07fa 1EE0     		b	.L697
 3603              	.L1374:
 3604 07fc 4FF08073 		mov	r3, #16777216
 3605 0800 1BE0     		b	.L697
 3606              	.L1373:
 3607 0802 4FF48023 		mov	r3, #262144
 3608 0806 18E0     		b	.L697
 3609              	.L1372:
 3610 0808 4FF48023 		mov	r3, #262144
 3611 080c 15E0     		b	.L697
 3612              	.L1371:
 3613 080e 4FF48023 		mov	r3, #262144
 3614 0812 12E0     		b	.L697
 3615              	.L1370:
 3616 0814 4FF48073 		mov	r3, #256
 3617 0818 0FE0     		b	.L697
 3618              	.L1369:
 3619 081a 4FF48073 		mov	r3, #256
 3620 081e 0CE0     		b	.L697
 3621              	.L1368:
 3622 0820 4FF48073 		mov	r3, #256
 3623 0824 09E0     		b	.L697
 3624              	.L1367:
 3625 0826 4FF48073 		mov	r3, #256
 3626 082a 06E0     		b	.L697
 3627              	.L1366:
 3628 082c 084B     		ldr	r3, .L1837+16
 3629 082e 04E0     		b	.L697
 3630              	.L1365:
 3631 0830 074B     		ldr	r3, .L1837+16
 3632 0832 02E0     		b	.L697
 3633              	.L1364:
ARM GAS  /tmp/ccAPlzty.s 			page 90


 3634 0834 064B     		ldr	r3, .L1837+16
 3635 0836 00E0     		b	.L697
 3636              	.L1363:
 3637 0838 054B     		ldr	r3, .L1837+16
 3638              	.L697:
 499:../Drivers/STM32F4xx_HAL_Driver/Src/stm32f4xx_hal_dma.c ****     if((tmp != RESET) || (tmp1 != RESET) || (tmp2 != RESET))
 3639              		.loc 1 499 0 discriminator 101
 3640 083a 3B40     		ands	r3, r3, r7
 3641 083c BAE0     		b	.L695
 3642              	.L1838:
 3643 083e 00BF     		.align	2
 3644              	.L1837:
 3645 0840 58600240 		.word	1073897560
 3646 0844 01008000 		.word	8388609
 3647 0848 00600240 		.word	1073897472
 3648 084c 58640240 		.word	1073898584
 3649 0850 04008000 		.word	8388612
 3650 0854 B8600240 		.word	1073897656
 3651              	.L696:
 499:../Drivers/STM32F4xx_HAL_Driver/Src/stm32f4xx_hal_dma.c ****     if((tmp != RESET) || (tmp1 != RESET) || (tmp2 != RESET))
 3652              		.loc 1 499 0 discriminator 53
 3653 0858 B448     		ldr	r0, .L1839
 3654 085a 8342     		cmp	r3, r0
 3655 085c 55D9     		bls	.L710
 499:../Drivers/STM32F4xx_HAL_Driver/Src/stm32f4xx_hal_dma.c ****     if((tmp != RESET) || (tmp1 != RESET) || (tmp2 != RESET))
 3656              		.loc 1 499 0 discriminator 103
 3657 085e 5838     		subs	r0, r0, #88
 3658 0860 4068     		ldr	r0, [r0, #4]
 3659 0862 DFF8E0C2 		ldr	ip, .L1839+24
 3660 0866 6345     		cmp	r3, ip
 3661 0868 4CD0     		beq	.L1375
 499:../Drivers/STM32F4xx_HAL_Driver/Src/stm32f4xx_hal_dma.c ****     if((tmp != RESET) || (tmp1 != RESET) || (tmp2 != RESET))
 3662              		.loc 1 499 0 discriminator 105
 3663 086a 0CF5806C 		add	ip, ip, #1024
 3664 086e 6345     		cmp	r3, ip
 3665 0870 46D0     		beq	.L1376
 499:../Drivers/STM32F4xx_HAL_Driver/Src/stm32f4xx_hal_dma.c ****     if((tmp != RESET) || (tmp1 != RESET) || (tmp2 != RESET))
 3666              		.loc 1 499 0 discriminator 107
 3667 0872 ACF5687C 		sub	ip, ip, #928
 3668 0876 6345     		cmp	r3, ip
 3669 0878 40D0     		beq	.L1377
 499:../Drivers/STM32F4xx_HAL_Driver/Src/stm32f4xx_hal_dma.c ****     if((tmp != RESET) || (tmp1 != RESET) || (tmp2 != RESET))
 3670              		.loc 1 499 0 discriminator 109
 3671 087a 0CF5806C 		add	ip, ip, #1024
 3672 087e 6345     		cmp	r3, ip
 3673 0880 3AD0     		beq	.L1378
 499:../Drivers/STM32F4xx_HAL_Driver/Src/stm32f4xx_hal_dma.c ****     if((tmp != RESET) || (tmp1 != RESET) || (tmp2 != RESET))
 3674              		.loc 1 499 0 discriminator 111
 3675 0882 ACF5896C 		sub	ip, ip, #1096
 3676 0886 6345     		cmp	r3, ip
 3677 0888 33D0     		beq	.L1379
 499:../Drivers/STM32F4xx_HAL_Driver/Src/stm32f4xx_hal_dma.c ****     if((tmp != RESET) || (tmp1 != RESET) || (tmp2 != RESET))
 3678              		.loc 1 499 0 discriminator 113
 3679 088a 0CF5806C 		add	ip, ip, #1024
 3680 088e 6345     		cmp	r3, ip
 3681 0890 2CD0     		beq	.L1380
 499:../Drivers/STM32F4xx_HAL_Driver/Src/stm32f4xx_hal_dma.c ****     if((tmp != RESET) || (tmp1 != RESET) || (tmp2 != RESET))
ARM GAS  /tmp/ccAPlzty.s 			page 91


 3682              		.loc 1 499 0 discriminator 115
 3683 0892 ACF5687C 		sub	ip, ip, #928
 3684 0896 6345     		cmp	r3, ip
 3685 0898 25D0     		beq	.L1381
 499:../Drivers/STM32F4xx_HAL_Driver/Src/stm32f4xx_hal_dma.c ****     if((tmp != RESET) || (tmp1 != RESET) || (tmp2 != RESET))
 3686              		.loc 1 499 0 discriminator 117
 3687 089a 0CF5806C 		add	ip, ip, #1024
 3688 089e 6345     		cmp	r3, ip
 3689 08a0 1ED0     		beq	.L1382
 499:../Drivers/STM32F4xx_HAL_Driver/Src/stm32f4xx_hal_dma.c ****     if((tmp != RESET) || (tmp1 != RESET) || (tmp2 != RESET))
 3690              		.loc 1 499 0 discriminator 119
 3691 08a2 ACF5896C 		sub	ip, ip, #1096
 3692 08a6 6345     		cmp	r3, ip
 3693 08a8 17D0     		beq	.L1383
 499:../Drivers/STM32F4xx_HAL_Driver/Src/stm32f4xx_hal_dma.c ****     if((tmp != RESET) || (tmp1 != RESET) || (tmp2 != RESET))
 3694              		.loc 1 499 0 discriminator 121
 3695 08aa 0CF5806C 		add	ip, ip, #1024
 3696 08ae 6345     		cmp	r3, ip
 3697 08b0 10D0     		beq	.L1384
 499:../Drivers/STM32F4xx_HAL_Driver/Src/stm32f4xx_hal_dma.c ****     if((tmp != RESET) || (tmp1 != RESET) || (tmp2 != RESET))
 3698              		.loc 1 499 0 discriminator 123
 3699 08b2 ACF5687C 		sub	ip, ip, #928
 3700 08b6 6345     		cmp	r3, ip
 3701 08b8 09D0     		beq	.L1385
 499:../Drivers/STM32F4xx_HAL_Driver/Src/stm32f4xx_hal_dma.c ****     if((tmp != RESET) || (tmp1 != RESET) || (tmp2 != RESET))
 3702              		.loc 1 499 0 discriminator 125
 3703 08ba 0CF5806C 		add	ip, ip, #1024
 3704 08be 6345     		cmp	r3, ip
 3705 08c0 02D1     		bne	.L1386
 499:../Drivers/STM32F4xx_HAL_Driver/Src/stm32f4xx_hal_dma.c ****     if((tmp != RESET) || (tmp1 != RESET) || (tmp2 != RESET))
 3706              		.loc 1 499 0
 3707 08c2 4FF48023 		mov	r3, #262144
 3708 08c6 1EE0     		b	.L711
 3709              	.L1386:
 3710 08c8 4FF08073 		mov	r3, #16777216
 3711 08cc 1BE0     		b	.L711
 3712              	.L1385:
 3713 08ce 4FF48023 		mov	r3, #262144
 3714 08d2 18E0     		b	.L711
 3715              	.L1384:
 3716 08d4 4FF48023 		mov	r3, #262144
 3717 08d8 15E0     		b	.L711
 3718              	.L1383:
 3719 08da 4FF48023 		mov	r3, #262144
 3720 08de 12E0     		b	.L711
 3721              	.L1382:
 3722 08e0 4FF48073 		mov	r3, #256
 3723 08e4 0FE0     		b	.L711
 3724              	.L1381:
 3725 08e6 4FF48073 		mov	r3, #256
 3726 08ea 0CE0     		b	.L711
 3727              	.L1380:
 3728 08ec 4FF48073 		mov	r3, #256
 3729 08f0 09E0     		b	.L711
 3730              	.L1379:
 3731 08f2 4FF48073 		mov	r3, #256
 3732 08f6 06E0     		b	.L711
ARM GAS  /tmp/ccAPlzty.s 			page 92


 3733              	.L1378:
 3734 08f8 8D4B     		ldr	r3, .L1839+4
 3735 08fa 04E0     		b	.L711
 3736              	.L1377:
 3737 08fc 8C4B     		ldr	r3, .L1839+4
 3738 08fe 02E0     		b	.L711
 3739              	.L1376:
 3740 0900 8B4B     		ldr	r3, .L1839+4
 3741 0902 00E0     		b	.L711
 3742              	.L1375:
 3743 0904 8A4B     		ldr	r3, .L1839+4
 3744              	.L711:
 499:../Drivers/STM32F4xx_HAL_Driver/Src/stm32f4xx_hal_dma.c ****     if((tmp != RESET) || (tmp1 != RESET) || (tmp2 != RESET))
 3745              		.loc 1 499 0 discriminator 152
 3746 0906 0340     		ands	r3, r3, r0
 3747 0908 54E0     		b	.L695
 3748              	.L710:
 499:../Drivers/STM32F4xx_HAL_Driver/Src/stm32f4xx_hal_dma.c ****     if((tmp != RESET) || (tmp1 != RESET) || (tmp2 != RESET))
 3749              		.loc 1 499 0 discriminator 104
 3750 090a 8A48     		ldr	r0, .L1839+8
 3751 090c 0068     		ldr	r0, [r0]
 3752 090e DFF834C2 		ldr	ip, .L1839+24
 3753 0912 6345     		cmp	r3, ip
 3754 0914 4CD0     		beq	.L1387
 499:../Drivers/STM32F4xx_HAL_Driver/Src/stm32f4xx_hal_dma.c ****     if((tmp != RESET) || (tmp1 != RESET) || (tmp2 != RESET))
 3755              		.loc 1 499 0 discriminator 154
 3756 0916 0CF5806C 		add	ip, ip, #1024
 3757 091a 6345     		cmp	r3, ip
 3758 091c 46D0     		beq	.L1388
 499:../Drivers/STM32F4xx_HAL_Driver/Src/stm32f4xx_hal_dma.c ****     if((tmp != RESET) || (tmp1 != RESET) || (tmp2 != RESET))
 3759              		.loc 1 499 0 discriminator 156
 3760 091e ACF5687C 		sub	ip, ip, #928
 3761 0922 6345     		cmp	r3, ip
 3762 0924 40D0     		beq	.L1389
 499:../Drivers/STM32F4xx_HAL_Driver/Src/stm32f4xx_hal_dma.c ****     if((tmp != RESET) || (tmp1 != RESET) || (tmp2 != RESET))
 3763              		.loc 1 499 0 discriminator 158
 3764 0926 0CF5806C 		add	ip, ip, #1024
 3765 092a 6345     		cmp	r3, ip
 3766 092c 3AD0     		beq	.L1390
 499:../Drivers/STM32F4xx_HAL_Driver/Src/stm32f4xx_hal_dma.c ****     if((tmp != RESET) || (tmp1 != RESET) || (tmp2 != RESET))
 3767              		.loc 1 499 0 discriminator 160
 3768 092e ACF5896C 		sub	ip, ip, #1096
 3769 0932 6345     		cmp	r3, ip
 3770 0934 33D0     		beq	.L1391
 499:../Drivers/STM32F4xx_HAL_Driver/Src/stm32f4xx_hal_dma.c ****     if((tmp != RESET) || (tmp1 != RESET) || (tmp2 != RESET))
 3771              		.loc 1 499 0 discriminator 162
 3772 0936 0CF5806C 		add	ip, ip, #1024
 3773 093a 6345     		cmp	r3, ip
 3774 093c 2CD0     		beq	.L1392
 499:../Drivers/STM32F4xx_HAL_Driver/Src/stm32f4xx_hal_dma.c ****     if((tmp != RESET) || (tmp1 != RESET) || (tmp2 != RESET))
 3775              		.loc 1 499 0 discriminator 164
 3776 093e ACF5687C 		sub	ip, ip, #928
 3777 0942 6345     		cmp	r3, ip
 3778 0944 25D0     		beq	.L1393
 499:../Drivers/STM32F4xx_HAL_Driver/Src/stm32f4xx_hal_dma.c ****     if((tmp != RESET) || (tmp1 != RESET) || (tmp2 != RESET))
 3779              		.loc 1 499 0 discriminator 166
 3780 0946 0CF5806C 		add	ip, ip, #1024
ARM GAS  /tmp/ccAPlzty.s 			page 93


 3781 094a 6345     		cmp	r3, ip
 3782 094c 1ED0     		beq	.L1394
 499:../Drivers/STM32F4xx_HAL_Driver/Src/stm32f4xx_hal_dma.c ****     if((tmp != RESET) || (tmp1 != RESET) || (tmp2 != RESET))
 3783              		.loc 1 499 0 discriminator 168
 3784 094e ACF5896C 		sub	ip, ip, #1096
 3785 0952 6345     		cmp	r3, ip
 3786 0954 17D0     		beq	.L1395
 499:../Drivers/STM32F4xx_HAL_Driver/Src/stm32f4xx_hal_dma.c ****     if((tmp != RESET) || (tmp1 != RESET) || (tmp2 != RESET))
 3787              		.loc 1 499 0 discriminator 170
 3788 0956 0CF5806C 		add	ip, ip, #1024
 3789 095a 6345     		cmp	r3, ip
 3790 095c 10D0     		beq	.L1396
 499:../Drivers/STM32F4xx_HAL_Driver/Src/stm32f4xx_hal_dma.c ****     if((tmp != RESET) || (tmp1 != RESET) || (tmp2 != RESET))
 3791              		.loc 1 499 0 discriminator 172
 3792 095e ACF5687C 		sub	ip, ip, #928
 3793 0962 6345     		cmp	r3, ip
 3794 0964 09D0     		beq	.L1397
 499:../Drivers/STM32F4xx_HAL_Driver/Src/stm32f4xx_hal_dma.c ****     if((tmp != RESET) || (tmp1 != RESET) || (tmp2 != RESET))
 3795              		.loc 1 499 0 discriminator 174
 3796 0966 0CF5806C 		add	ip, ip, #1024
 3797 096a 6345     		cmp	r3, ip
 3798 096c 02D1     		bne	.L1398
 499:../Drivers/STM32F4xx_HAL_Driver/Src/stm32f4xx_hal_dma.c ****     if((tmp != RESET) || (tmp1 != RESET) || (tmp2 != RESET))
 3799              		.loc 1 499 0
 3800 096e 4FF48023 		mov	r3, #262144
 3801 0972 1EE0     		b	.L724
 3802              	.L1398:
 3803 0974 4FF08073 		mov	r3, #16777216
 3804 0978 1BE0     		b	.L724
 3805              	.L1397:
 3806 097a 4FF48023 		mov	r3, #262144
 3807 097e 18E0     		b	.L724
 3808              	.L1396:
 3809 0980 4FF48023 		mov	r3, #262144
 3810 0984 15E0     		b	.L724
 3811              	.L1395:
 3812 0986 4FF48023 		mov	r3, #262144
 3813 098a 12E0     		b	.L724
 3814              	.L1394:
 3815 098c 4FF48073 		mov	r3, #256
 3816 0990 0FE0     		b	.L724
 3817              	.L1393:
 3818 0992 4FF48073 		mov	r3, #256
 3819 0996 0CE0     		b	.L724
 3820              	.L1392:
 3821 0998 4FF48073 		mov	r3, #256
 3822 099c 09E0     		b	.L724
 3823              	.L1391:
 3824 099e 4FF48073 		mov	r3, #256
 3825 09a2 06E0     		b	.L724
 3826              	.L1390:
 3827 09a4 624B     		ldr	r3, .L1839+4
 3828 09a6 04E0     		b	.L724
 3829              	.L1389:
 3830 09a8 614B     		ldr	r3, .L1839+4
 3831 09aa 02E0     		b	.L724
 3832              	.L1388:
ARM GAS  /tmp/ccAPlzty.s 			page 94


 3833 09ac 604B     		ldr	r3, .L1839+4
 3834 09ae 00E0     		b	.L724
 3835              	.L1387:
 3836 09b0 5F4B     		ldr	r3, .L1839+4
 3837              	.L724:
 499:../Drivers/STM32F4xx_HAL_Driver/Src/stm32f4xx_hal_dma.c ****     if((tmp != RESET) || (tmp1 != RESET) || (tmp2 != RESET))
 3838              		.loc 1 499 0 discriminator 201
 3839 09b2 0340     		ands	r3, r3, r0
 3840              	.L695:
 3841              	.LVL54:
 500:../Drivers/STM32F4xx_HAL_Driver/Src/stm32f4xx_hal_dma.c ****     {
 3842              		.loc 1 500 0 is_stmt 1 discriminator 204
 3843 09b4 1AB9     		cbnz	r2, .L736
 500:../Drivers/STM32F4xx_HAL_Driver/Src/stm32f4xx_hal_dma.c ****     {
 3844              		.loc 1 500 0 is_stmt 0 discriminator 1
 3845 09b6 11B9     		cbnz	r1, .L736
 500:../Drivers/STM32F4xx_HAL_Driver/Src/stm32f4xx_hal_dma.c ****     {
 3846              		.loc 1 500 0 discriminator 2
 3847 09b8 002B     		cmp	r3, #0
 3848 09ba 00F04A84 		beq	.L737
 3849              	.L736:
 502:../Drivers/STM32F4xx_HAL_Driver/Src/stm32f4xx_hal_dma.c ****       {
 3850              		.loc 1 502 0 is_stmt 1
 3851 09be 002A     		cmp	r2, #0
 3852 09c0 00F06C81 		beq	.L738
 505:../Drivers/STM32F4xx_HAL_Driver/Src/stm32f4xx_hal_dma.c **** 
 3853              		.loc 1 505 0
 3854 09c4 E26C     		ldr	r2, [r4, #76]
 3855              	.LVL55:
 3856 09c6 42F00102 		orr	r2, r2, #1
 3857 09ca E264     		str	r2, [r4, #76]
 508:../Drivers/STM32F4xx_HAL_Driver/Src/stm32f4xx_hal_dma.c ****       }
 3858              		.loc 1 508 0
 3859 09cc 5A4A     		ldr	r2, .L1839+12
 3860 09ce 9645     		cmp	lr, r2
 3861 09d0 54D9     		bls	.L739
 508:../Drivers/STM32F4xx_HAL_Driver/Src/stm32f4xx_hal_dma.c ****       }
 3862              		.loc 1 508 0 is_stmt 0 discriminator 1
 3863 09d2 A2F58962 		sub	r2, r2, #1096
 3864 09d6 9645     		cmp	lr, r2
 3865 09d8 4CD0     		beq	.L1399
 508:../Drivers/STM32F4xx_HAL_Driver/Src/stm32f4xx_hal_dma.c ****       }
 3866              		.loc 1 508 0 discriminator 3
 3867 09da 02F58062 		add	r2, r2, #1024
 3868 09de 9645     		cmp	lr, r2
 3869 09e0 46D0     		beq	.L1400
 508:../Drivers/STM32F4xx_HAL_Driver/Src/stm32f4xx_hal_dma.c ****       }
 3870              		.loc 1 508 0 discriminator 5
 3871 09e2 A2F56872 		sub	r2, r2, #928
 3872 09e6 9645     		cmp	lr, r2
 3873 09e8 40D0     		beq	.L1401
 508:../Drivers/STM32F4xx_HAL_Driver/Src/stm32f4xx_hal_dma.c ****       }
 3874              		.loc 1 508 0 discriminator 7
 3875 09ea 02F58062 		add	r2, r2, #1024
 3876 09ee 9645     		cmp	lr, r2
 3877 09f0 3AD0     		beq	.L1402
 508:../Drivers/STM32F4xx_HAL_Driver/Src/stm32f4xx_hal_dma.c ****       }
ARM GAS  /tmp/ccAPlzty.s 			page 95


 3878              		.loc 1 508 0 discriminator 9
 3879 09f2 A2F58962 		sub	r2, r2, #1096
 3880 09f6 9645     		cmp	lr, r2
 3881 09f8 33D0     		beq	.L1403
 508:../Drivers/STM32F4xx_HAL_Driver/Src/stm32f4xx_hal_dma.c ****       }
 3882              		.loc 1 508 0 discriminator 11
 3883 09fa 02F58062 		add	r2, r2, #1024
 3884 09fe 9645     		cmp	lr, r2
 3885 0a00 2CD0     		beq	.L1404
 508:../Drivers/STM32F4xx_HAL_Driver/Src/stm32f4xx_hal_dma.c ****       }
 3886              		.loc 1 508 0 discriminator 13
 3887 0a02 A2F56872 		sub	r2, r2, #928
 3888 0a06 9645     		cmp	lr, r2
 3889 0a08 25D0     		beq	.L1405
 508:../Drivers/STM32F4xx_HAL_Driver/Src/stm32f4xx_hal_dma.c ****       }
 3890              		.loc 1 508 0 discriminator 15
 3891 0a0a 02F58062 		add	r2, r2, #1024
 3892 0a0e 9645     		cmp	lr, r2
 3893 0a10 1ED0     		beq	.L1406
 508:../Drivers/STM32F4xx_HAL_Driver/Src/stm32f4xx_hal_dma.c ****       }
 3894              		.loc 1 508 0 discriminator 17
 3895 0a12 A2F58962 		sub	r2, r2, #1096
 3896 0a16 9645     		cmp	lr, r2
 3897 0a18 17D0     		beq	.L1407
 508:../Drivers/STM32F4xx_HAL_Driver/Src/stm32f4xx_hal_dma.c ****       }
 3898              		.loc 1 508 0 discriminator 19
 3899 0a1a 02F58062 		add	r2, r2, #1024
 3900 0a1e 9645     		cmp	lr, r2
 3901 0a20 10D0     		beq	.L1408
 508:../Drivers/STM32F4xx_HAL_Driver/Src/stm32f4xx_hal_dma.c ****       }
 3902              		.loc 1 508 0 discriminator 21
 3903 0a22 A2F56872 		sub	r2, r2, #928
 3904 0a26 9645     		cmp	lr, r2
 3905 0a28 09D0     		beq	.L1409
 508:../Drivers/STM32F4xx_HAL_Driver/Src/stm32f4xx_hal_dma.c ****       }
 3906              		.loc 1 508 0 discriminator 23
 3907 0a2a 02F58062 		add	r2, r2, #1024
 3908 0a2e 9645     		cmp	lr, r2
 3909 0a30 02D1     		bne	.L1410
 508:../Drivers/STM32F4xx_HAL_Driver/Src/stm32f4xx_hal_dma.c ****       }
 3910              		.loc 1 508 0
 3911 0a32 4FF40022 		mov	r2, #524288
 3912 0a36 1EE0     		b	.L740
 3913              	.L1410:
 3914 0a38 4FF00072 		mov	r2, #33554432
 3915 0a3c 1BE0     		b	.L740
 3916              	.L1409:
 3917 0a3e 4FF40022 		mov	r2, #524288
 3918 0a42 18E0     		b	.L740
 3919              	.L1408:
 3920 0a44 4FF40022 		mov	r2, #524288
 3921 0a48 15E0     		b	.L740
 3922              	.L1407:
 3923 0a4a 4FF40022 		mov	r2, #524288
 3924 0a4e 12E0     		b	.L740
 3925              	.L1406:
 3926 0a50 4FF40072 		mov	r2, #512
ARM GAS  /tmp/ccAPlzty.s 			page 96


 3927 0a54 0FE0     		b	.L740
 3928              	.L1405:
 3929 0a56 4FF40072 		mov	r2, #512
 3930 0a5a 0CE0     		b	.L740
 3931              	.L1404:
 3932 0a5c 4FF40072 		mov	r2, #512
 3933 0a60 09E0     		b	.L740
 3934              	.L1403:
 3935 0a62 4FF40072 		mov	r2, #512
 3936 0a66 06E0     		b	.L740
 3937              	.L1402:
 3938 0a68 0822     		movs	r2, #8
 3939 0a6a 04E0     		b	.L740
 3940              	.L1401:
 3941 0a6c 0822     		movs	r2, #8
 3942 0a6e 02E0     		b	.L740
 3943              	.L1400:
 3944 0a70 0822     		movs	r2, #8
 3945 0a72 00E0     		b	.L740
 3946              	.L1399:
 3947 0a74 0822     		movs	r2, #8
 3948              	.L740:
 508:../Drivers/STM32F4xx_HAL_Driver/Src/stm32f4xx_hal_dma.c ****       }
 3949              		.loc 1 508 0 discriminator 50
 3950 0a76 3148     		ldr	r0, .L1839+16
 3951 0a78 C260     		str	r2, [r0, #12]
 3952 0a7a 0FE1     		b	.L738
 3953              	.L739:
 508:../Drivers/STM32F4xx_HAL_Driver/Src/stm32f4xx_hal_dma.c ****       }
 3954              		.loc 1 508 0 discriminator 2
 3955 0a7c 304A     		ldr	r2, .L1839+20
 3956 0a7e 9645     		cmp	lr, r2
 3957 0a80 62D9     		bls	.L752
 508:../Drivers/STM32F4xx_HAL_Driver/Src/stm32f4xx_hal_dma.c ****       }
 3958              		.loc 1 508 0 discriminator 51
 3959 0a82 A83A     		subs	r2, r2, #168
 3960 0a84 9645     		cmp	lr, r2
 3961 0a86 4CD0     		beq	.L1411
 508:../Drivers/STM32F4xx_HAL_Driver/Src/stm32f4xx_hal_dma.c ****       }
 3962              		.loc 1 508 0 discriminator 53
 3963 0a88 02F58062 		add	r2, r2, #1024
 3964 0a8c 9645     		cmp	lr, r2
 3965 0a8e 46D0     		beq	.L1412
 508:../Drivers/STM32F4xx_HAL_Driver/Src/stm32f4xx_hal_dma.c ****       }
 3966              		.loc 1 508 0 discriminator 55
 3967 0a90 A2F56872 		sub	r2, r2, #928
 3968 0a94 9645     		cmp	lr, r2
 3969 0a96 40D0     		beq	.L1413
 508:../Drivers/STM32F4xx_HAL_Driver/Src/stm32f4xx_hal_dma.c ****       }
 3970              		.loc 1 508 0 discriminator 57
 3971 0a98 02F58062 		add	r2, r2, #1024
 3972 0a9c 9645     		cmp	lr, r2
 3973 0a9e 3AD0     		beq	.L1414
 508:../Drivers/STM32F4xx_HAL_Driver/Src/stm32f4xx_hal_dma.c ****       }
 3974              		.loc 1 508 0 discriminator 59
 3975 0aa0 A2F58962 		sub	r2, r2, #1096
 3976 0aa4 9645     		cmp	lr, r2
ARM GAS  /tmp/ccAPlzty.s 			page 97


 3977 0aa6 33D0     		beq	.L1415
 508:../Drivers/STM32F4xx_HAL_Driver/Src/stm32f4xx_hal_dma.c ****       }
 3978              		.loc 1 508 0 discriminator 61
 3979 0aa8 02F58062 		add	r2, r2, #1024
 3980 0aac 9645     		cmp	lr, r2
 3981 0aae 2CD0     		beq	.L1416
 508:../Drivers/STM32F4xx_HAL_Driver/Src/stm32f4xx_hal_dma.c ****       }
 3982              		.loc 1 508 0 discriminator 63
 3983 0ab0 A2F56872 		sub	r2, r2, #928
 3984 0ab4 9645     		cmp	lr, r2
 3985 0ab6 25D0     		beq	.L1417
 508:../Drivers/STM32F4xx_HAL_Driver/Src/stm32f4xx_hal_dma.c ****       }
 3986              		.loc 1 508 0 discriminator 65
 3987 0ab8 02F58062 		add	r2, r2, #1024
 3988 0abc 9645     		cmp	lr, r2
 3989 0abe 1ED0     		beq	.L1418
 508:../Drivers/STM32F4xx_HAL_Driver/Src/stm32f4xx_hal_dma.c ****       }
 3990              		.loc 1 508 0 discriminator 67
 3991 0ac0 A2F58962 		sub	r2, r2, #1096
 3992 0ac4 9645     		cmp	lr, r2
 3993 0ac6 17D0     		beq	.L1419
 508:../Drivers/STM32F4xx_HAL_Driver/Src/stm32f4xx_hal_dma.c ****       }
 3994              		.loc 1 508 0 discriminator 69
 3995 0ac8 02F58062 		add	r2, r2, #1024
 3996 0acc 9645     		cmp	lr, r2
 3997 0ace 10D0     		beq	.L1420
 508:../Drivers/STM32F4xx_HAL_Driver/Src/stm32f4xx_hal_dma.c ****       }
 3998              		.loc 1 508 0 discriminator 71
 3999 0ad0 A2F56872 		sub	r2, r2, #928
 4000 0ad4 9645     		cmp	lr, r2
 4001 0ad6 09D0     		beq	.L1421
 508:../Drivers/STM32F4xx_HAL_Driver/Src/stm32f4xx_hal_dma.c ****       }
 4002              		.loc 1 508 0 discriminator 73
 4003 0ad8 02F58062 		add	r2, r2, #1024
 4004 0adc 9645     		cmp	lr, r2
 4005 0ade 02D1     		bne	.L1422
 508:../Drivers/STM32F4xx_HAL_Driver/Src/stm32f4xx_hal_dma.c ****       }
 4006              		.loc 1 508 0
 4007 0ae0 4FF40022 		mov	r2, #524288
 4008 0ae4 1EE0     		b	.L753
 4009              	.L1422:
 4010 0ae6 4FF00072 		mov	r2, #33554432
 4011 0aea 1BE0     		b	.L753
 4012              	.L1421:
 4013 0aec 4FF40022 		mov	r2, #524288
 4014 0af0 18E0     		b	.L753
 4015              	.L1420:
 4016 0af2 4FF40022 		mov	r2, #524288
 4017 0af6 15E0     		b	.L753
 4018              	.L1419:
 4019 0af8 4FF40022 		mov	r2, #524288
 4020 0afc 12E0     		b	.L753
 4021              	.L1418:
 4022 0afe 4FF40072 		mov	r2, #512
 4023 0b02 0FE0     		b	.L753
 4024              	.L1417:
 4025 0b04 4FF40072 		mov	r2, #512
ARM GAS  /tmp/ccAPlzty.s 			page 98


 4026 0b08 0CE0     		b	.L753
 4027              	.L1416:
 4028 0b0a 4FF40072 		mov	r2, #512
 4029 0b0e 09E0     		b	.L753
 4030              	.L1415:
 4031 0b10 4FF40072 		mov	r2, #512
 4032 0b14 06E0     		b	.L753
 4033              	.L1414:
 4034 0b16 0822     		movs	r2, #8
 4035 0b18 04E0     		b	.L753
 4036              	.L1413:
 4037 0b1a 0822     		movs	r2, #8
 4038 0b1c 02E0     		b	.L753
 4039              	.L1412:
 4040 0b1e 0822     		movs	r2, #8
 4041 0b20 00E0     		b	.L753
 4042              	.L1411:
 4043 0b22 0822     		movs	r2, #8
 4044              	.L753:
 508:../Drivers/STM32F4xx_HAL_Driver/Src/stm32f4xx_hal_dma.c ****       }
 4045              		.loc 1 508 0 discriminator 100
 4046 0b24 0548     		ldr	r0, .L1839+16
 4047 0b26 8260     		str	r2, [r0, #8]
 4048 0b28 B8E0     		b	.L738
 4049              	.L1840:
 4050 0b2a 00BF     		.align	2
 4051              	.L1839:
 4052 0b2c 58600240 		.word	1073897560
 4053 0b30 04008000 		.word	8388612
 4054 0b34 00600240 		.word	1073897472
 4055 0b38 58640240 		.word	1073898584
 4056 0b3c 00640240 		.word	1073898496
 4057 0b40 B8600240 		.word	1073897656
 4058 0b44 10600240 		.word	1073897488
 4059              	.L752:
 508:../Drivers/STM32F4xx_HAL_Driver/Src/stm32f4xx_hal_dma.c ****       }
 4060              		.loc 1 508 0 discriminator 52
 4061 0b48 AC4A     		ldr	r2, .L1841
 4062 0b4a 9645     		cmp	lr, r2
 4063 0b4c 53D9     		bls	.L765
 508:../Drivers/STM32F4xx_HAL_Driver/Src/stm32f4xx_hal_dma.c ****       }
 4064              		.loc 1 508 0 discriminator 102
 4065 0b4e 483A     		subs	r2, r2, #72
 4066 0b50 9645     		cmp	lr, r2
 4067 0b52 4CD0     		beq	.L1423
 508:../Drivers/STM32F4xx_HAL_Driver/Src/stm32f4xx_hal_dma.c ****       }
 4068              		.loc 1 508 0 discriminator 104
 4069 0b54 02F58062 		add	r2, r2, #1024
 4070 0b58 9645     		cmp	lr, r2
 4071 0b5a 46D0     		beq	.L1424
 508:../Drivers/STM32F4xx_HAL_Driver/Src/stm32f4xx_hal_dma.c ****       }
 4072              		.loc 1 508 0 discriminator 106
 4073 0b5c A2F56872 		sub	r2, r2, #928
 4074 0b60 9645     		cmp	lr, r2
 4075 0b62 40D0     		beq	.L1425
 508:../Drivers/STM32F4xx_HAL_Driver/Src/stm32f4xx_hal_dma.c ****       }
 4076              		.loc 1 508 0 discriminator 108
ARM GAS  /tmp/ccAPlzty.s 			page 99


 4077 0b64 02F58062 		add	r2, r2, #1024
 4078 0b68 9645     		cmp	lr, r2
 4079 0b6a 3AD0     		beq	.L1426
 508:../Drivers/STM32F4xx_HAL_Driver/Src/stm32f4xx_hal_dma.c ****       }
 4080              		.loc 1 508 0 discriminator 110
 4081 0b6c A2F58962 		sub	r2, r2, #1096
 4082 0b70 9645     		cmp	lr, r2
 4083 0b72 33D0     		beq	.L1427
 508:../Drivers/STM32F4xx_HAL_Driver/Src/stm32f4xx_hal_dma.c ****       }
 4084              		.loc 1 508 0 discriminator 112
 4085 0b74 02F58062 		add	r2, r2, #1024
 4086 0b78 9645     		cmp	lr, r2
 4087 0b7a 2CD0     		beq	.L1428
 508:../Drivers/STM32F4xx_HAL_Driver/Src/stm32f4xx_hal_dma.c ****       }
 4088              		.loc 1 508 0 discriminator 114
 4089 0b7c A2F56872 		sub	r2, r2, #928
 4090 0b80 9645     		cmp	lr, r2
 4091 0b82 25D0     		beq	.L1429
 508:../Drivers/STM32F4xx_HAL_Driver/Src/stm32f4xx_hal_dma.c ****       }
 4092              		.loc 1 508 0 discriminator 116
 4093 0b84 02F58062 		add	r2, r2, #1024
 4094 0b88 9645     		cmp	lr, r2
 4095 0b8a 1ED0     		beq	.L1430
 508:../Drivers/STM32F4xx_HAL_Driver/Src/stm32f4xx_hal_dma.c ****       }
 4096              		.loc 1 508 0 discriminator 118
 4097 0b8c A2F58962 		sub	r2, r2, #1096
 4098 0b90 9645     		cmp	lr, r2
 4099 0b92 17D0     		beq	.L1431
 508:../Drivers/STM32F4xx_HAL_Driver/Src/stm32f4xx_hal_dma.c ****       }
 4100              		.loc 1 508 0 discriminator 120
 4101 0b94 02F58062 		add	r2, r2, #1024
 4102 0b98 9645     		cmp	lr, r2
 4103 0b9a 10D0     		beq	.L1432
 508:../Drivers/STM32F4xx_HAL_Driver/Src/stm32f4xx_hal_dma.c ****       }
 4104              		.loc 1 508 0 discriminator 122
 4105 0b9c A2F56872 		sub	r2, r2, #928
 4106 0ba0 9645     		cmp	lr, r2
 4107 0ba2 09D0     		beq	.L1433
 508:../Drivers/STM32F4xx_HAL_Driver/Src/stm32f4xx_hal_dma.c ****       }
 4108              		.loc 1 508 0 discriminator 124
 4109 0ba4 02F58062 		add	r2, r2, #1024
 4110 0ba8 9645     		cmp	lr, r2
 4111 0baa 02D1     		bne	.L1434
 508:../Drivers/STM32F4xx_HAL_Driver/Src/stm32f4xx_hal_dma.c ****       }
 4112              		.loc 1 508 0
 4113 0bac 4FF40022 		mov	r2, #524288
 4114 0bb0 1EE0     		b	.L766
 4115              	.L1434:
 4116 0bb2 4FF00072 		mov	r2, #33554432
 4117 0bb6 1BE0     		b	.L766
 4118              	.L1433:
 4119 0bb8 4FF40022 		mov	r2, #524288
 4120 0bbc 18E0     		b	.L766
 4121              	.L1432:
 4122 0bbe 4FF40022 		mov	r2, #524288
 4123 0bc2 15E0     		b	.L766
 4124              	.L1431:
ARM GAS  /tmp/ccAPlzty.s 			page 100


 4125 0bc4 4FF40022 		mov	r2, #524288
 4126 0bc8 12E0     		b	.L766
 4127              	.L1430:
 4128 0bca 4FF40072 		mov	r2, #512
 4129 0bce 0FE0     		b	.L766
 4130              	.L1429:
 4131 0bd0 4FF40072 		mov	r2, #512
 4132 0bd4 0CE0     		b	.L766
 4133              	.L1428:
 4134 0bd6 4FF40072 		mov	r2, #512
 4135 0bda 09E0     		b	.L766
 4136              	.L1427:
 4137 0bdc 4FF40072 		mov	r2, #512
 4138 0be0 06E0     		b	.L766
 4139              	.L1426:
 4140 0be2 0822     		movs	r2, #8
 4141 0be4 04E0     		b	.L766
 4142              	.L1425:
 4143 0be6 0822     		movs	r2, #8
 4144 0be8 02E0     		b	.L766
 4145              	.L1424:
 4146 0bea 0822     		movs	r2, #8
 4147 0bec 00E0     		b	.L766
 4148              	.L1423:
 4149 0bee 0822     		movs	r2, #8
 4150              	.L766:
 508:../Drivers/STM32F4xx_HAL_Driver/Src/stm32f4xx_hal_dma.c ****       }
 4151              		.loc 1 508 0 discriminator 151
 4152 0bf0 8348     		ldr	r0, .L1841+4
 4153 0bf2 C260     		str	r2, [r0, #12]
 4154 0bf4 52E0     		b	.L738
 4155              	.L765:
 508:../Drivers/STM32F4xx_HAL_Driver/Src/stm32f4xx_hal_dma.c ****       }
 4156              		.loc 1 508 0 discriminator 103
 4157 0bf6 834A     		ldr	r2, .L1841+8
 4158 0bf8 9645     		cmp	lr, r2
 4159 0bfa 4CD0     		beq	.L1435
 508:../Drivers/STM32F4xx_HAL_Driver/Src/stm32f4xx_hal_dma.c ****       }
 4160              		.loc 1 508 0 discriminator 153
 4161 0bfc 02F58062 		add	r2, r2, #1024
 4162 0c00 9645     		cmp	lr, r2
 4163 0c02 46D0     		beq	.L1436
 508:../Drivers/STM32F4xx_HAL_Driver/Src/stm32f4xx_hal_dma.c ****       }
 4164              		.loc 1 508 0 discriminator 155
 4165 0c04 A2F56872 		sub	r2, r2, #928
 4166 0c08 9645     		cmp	lr, r2
 4167 0c0a 40D0     		beq	.L1437
 508:../Drivers/STM32F4xx_HAL_Driver/Src/stm32f4xx_hal_dma.c ****       }
 4168              		.loc 1 508 0 discriminator 157
 4169 0c0c 02F58062 		add	r2, r2, #1024
 4170 0c10 9645     		cmp	lr, r2
 4171 0c12 3AD0     		beq	.L1438
 508:../Drivers/STM32F4xx_HAL_Driver/Src/stm32f4xx_hal_dma.c ****       }
 4172              		.loc 1 508 0 discriminator 159
 4173 0c14 A2F58962 		sub	r2, r2, #1096
 4174 0c18 9645     		cmp	lr, r2
 4175 0c1a 33D0     		beq	.L1439
ARM GAS  /tmp/ccAPlzty.s 			page 101


 508:../Drivers/STM32F4xx_HAL_Driver/Src/stm32f4xx_hal_dma.c ****       }
 4176              		.loc 1 508 0 discriminator 161
 4177 0c1c 02F58062 		add	r2, r2, #1024
 4178 0c20 9645     		cmp	lr, r2
 4179 0c22 2CD0     		beq	.L1440
 508:../Drivers/STM32F4xx_HAL_Driver/Src/stm32f4xx_hal_dma.c ****       }
 4180              		.loc 1 508 0 discriminator 163
 4181 0c24 A2F56872 		sub	r2, r2, #928
 4182 0c28 9645     		cmp	lr, r2
 4183 0c2a 25D0     		beq	.L1441
 508:../Drivers/STM32F4xx_HAL_Driver/Src/stm32f4xx_hal_dma.c ****       }
 4184              		.loc 1 508 0 discriminator 165
 4185 0c2c 02F58062 		add	r2, r2, #1024
 4186 0c30 9645     		cmp	lr, r2
 4187 0c32 1ED0     		beq	.L1442
 508:../Drivers/STM32F4xx_HAL_Driver/Src/stm32f4xx_hal_dma.c ****       }
 4188              		.loc 1 508 0 discriminator 167
 4189 0c34 A2F58962 		sub	r2, r2, #1096
 4190 0c38 9645     		cmp	lr, r2
 4191 0c3a 17D0     		beq	.L1443
 508:../Drivers/STM32F4xx_HAL_Driver/Src/stm32f4xx_hal_dma.c ****       }
 4192              		.loc 1 508 0 discriminator 169
 4193 0c3c 02F58062 		add	r2, r2, #1024
 4194 0c40 9645     		cmp	lr, r2
 4195 0c42 10D0     		beq	.L1444
 508:../Drivers/STM32F4xx_HAL_Driver/Src/stm32f4xx_hal_dma.c ****       }
 4196              		.loc 1 508 0 discriminator 171
 4197 0c44 A2F56872 		sub	r2, r2, #928
 4198 0c48 9645     		cmp	lr, r2
 4199 0c4a 09D0     		beq	.L1445
 508:../Drivers/STM32F4xx_HAL_Driver/Src/stm32f4xx_hal_dma.c ****       }
 4200              		.loc 1 508 0 discriminator 173
 4201 0c4c 02F58062 		add	r2, r2, #1024
 4202 0c50 9645     		cmp	lr, r2
 4203 0c52 02D1     		bne	.L1446
 508:../Drivers/STM32F4xx_HAL_Driver/Src/stm32f4xx_hal_dma.c ****       }
 4204              		.loc 1 508 0
 4205 0c54 4FF40022 		mov	r2, #524288
 4206 0c58 1EE0     		b	.L779
 4207              	.L1446:
 4208 0c5a 4FF00072 		mov	r2, #33554432
 4209 0c5e 1BE0     		b	.L779
 4210              	.L1445:
 4211 0c60 4FF40022 		mov	r2, #524288
 4212 0c64 18E0     		b	.L779
 4213              	.L1444:
 4214 0c66 4FF40022 		mov	r2, #524288
 4215 0c6a 15E0     		b	.L779
 4216              	.L1443:
 4217 0c6c 4FF40022 		mov	r2, #524288
 4218 0c70 12E0     		b	.L779
 4219              	.L1442:
 4220 0c72 4FF40072 		mov	r2, #512
 4221 0c76 0FE0     		b	.L779
 4222              	.L1441:
 4223 0c78 4FF40072 		mov	r2, #512
 4224 0c7c 0CE0     		b	.L779
ARM GAS  /tmp/ccAPlzty.s 			page 102


 4225              	.L1440:
 4226 0c7e 4FF40072 		mov	r2, #512
 4227 0c82 09E0     		b	.L779
 4228              	.L1439:
 4229 0c84 4FF40072 		mov	r2, #512
 4230 0c88 06E0     		b	.L779
 4231              	.L1438:
 4232 0c8a 0822     		movs	r2, #8
 4233 0c8c 04E0     		b	.L779
 4234              	.L1437:
 4235 0c8e 0822     		movs	r2, #8
 4236 0c90 02E0     		b	.L779
 4237              	.L1436:
 4238 0c92 0822     		movs	r2, #8
 4239 0c94 00E0     		b	.L779
 4240              	.L1435:
 4241 0c96 0822     		movs	r2, #8
 4242              	.L779:
 508:../Drivers/STM32F4xx_HAL_Driver/Src/stm32f4xx_hal_dma.c ****       }
 4243              		.loc 1 508 0 discriminator 200
 4244 0c98 5948     		ldr	r0, .L1841+4
 4245 0c9a 8260     		str	r2, [r0, #8]
 4246              	.L738:
 510:../Drivers/STM32F4xx_HAL_Driver/Src/stm32f4xx_hal_dma.c ****       {
 4247              		.loc 1 510 0 is_stmt 1
 4248 0c9c 0029     		cmp	r1, #0
 4249 0c9e 00F05D81 		beq	.L791
 513:../Drivers/STM32F4xx_HAL_Driver/Src/stm32f4xx_hal_dma.c ****  
 4250              		.loc 1 513 0
 4251 0ca2 E26C     		ldr	r2, [r4, #76]
 4252 0ca4 42F00202 		orr	r2, r2, #2
 4253 0ca8 E264     		str	r2, [r4, #76]
 516:../Drivers/STM32F4xx_HAL_Driver/Src/stm32f4xx_hal_dma.c ****       }
 4254              		.loc 1 516 0
 4255 0caa 2268     		ldr	r2, [r4]
 4256 0cac 5649     		ldr	r1, .L1841+12
 4257              	.LVL56:
 4258 0cae 8A42     		cmp	r2, r1
 4259 0cb0 50D9     		bls	.L792
 516:../Drivers/STM32F4xx_HAL_Driver/Src/stm32f4xx_hal_dma.c ****       }
 4260              		.loc 1 516 0 is_stmt 0 discriminator 1
 4261 0cb2 A1F58961 		sub	r1, r1, #1096
 4262 0cb6 8A42     		cmp	r2, r1
 4263 0cb8 48D0     		beq	.L1447
 516:../Drivers/STM32F4xx_HAL_Driver/Src/stm32f4xx_hal_dma.c ****       }
 4264              		.loc 1 516 0 discriminator 3
 4265 0cba 01F58061 		add	r1, r1, #1024
 4266 0cbe 8A42     		cmp	r2, r1
 4267 0cc0 42D0     		beq	.L1448
 516:../Drivers/STM32F4xx_HAL_Driver/Src/stm32f4xx_hal_dma.c ****       }
 4268              		.loc 1 516 0 discriminator 5
 4269 0cc2 A1F56871 		sub	r1, r1, #928
 4270 0cc6 8A42     		cmp	r2, r1
 4271 0cc8 3CD0     		beq	.L1449
 516:../Drivers/STM32F4xx_HAL_Driver/Src/stm32f4xx_hal_dma.c ****       }
 4272              		.loc 1 516 0 discriminator 7
 4273 0cca 01F58061 		add	r1, r1, #1024
ARM GAS  /tmp/ccAPlzty.s 			page 103


 4274 0cce 8A42     		cmp	r2, r1
 4275 0cd0 36D0     		beq	.L1450
 516:../Drivers/STM32F4xx_HAL_Driver/Src/stm32f4xx_hal_dma.c ****       }
 4276              		.loc 1 516 0 discriminator 9
 4277 0cd2 A1F58961 		sub	r1, r1, #1096
 4278 0cd6 8A42     		cmp	r2, r1
 4279 0cd8 30D0     		beq	.L1451
 516:../Drivers/STM32F4xx_HAL_Driver/Src/stm32f4xx_hal_dma.c ****       }
 4280              		.loc 1 516 0 discriminator 11
 4281 0cda 01F58061 		add	r1, r1, #1024
 4282 0cde 8A42     		cmp	r2, r1
 4283 0ce0 2AD0     		beq	.L1452
 516:../Drivers/STM32F4xx_HAL_Driver/Src/stm32f4xx_hal_dma.c ****       }
 4284              		.loc 1 516 0 discriminator 13
 4285 0ce2 A1F56871 		sub	r1, r1, #928
 4286 0ce6 8A42     		cmp	r2, r1
 4287 0ce8 24D0     		beq	.L1453
 516:../Drivers/STM32F4xx_HAL_Driver/Src/stm32f4xx_hal_dma.c ****       }
 4288              		.loc 1 516 0 discriminator 15
 4289 0cea 01F58061 		add	r1, r1, #1024
 4290 0cee 8A42     		cmp	r2, r1
 4291 0cf0 1ED0     		beq	.L1454
 516:../Drivers/STM32F4xx_HAL_Driver/Src/stm32f4xx_hal_dma.c ****       }
 4292              		.loc 1 516 0 discriminator 17
 4293 0cf2 A1F58961 		sub	r1, r1, #1096
 4294 0cf6 8A42     		cmp	r2, r1
 4295 0cf8 17D0     		beq	.L1455
 516:../Drivers/STM32F4xx_HAL_Driver/Src/stm32f4xx_hal_dma.c ****       }
 4296              		.loc 1 516 0 discriminator 19
 4297 0cfa 01F58061 		add	r1, r1, #1024
 4298 0cfe 8A42     		cmp	r2, r1
 4299 0d00 10D0     		beq	.L1456
 516:../Drivers/STM32F4xx_HAL_Driver/Src/stm32f4xx_hal_dma.c ****       }
 4300              		.loc 1 516 0 discriminator 21
 4301 0d02 A1F56871 		sub	r1, r1, #928
 4302 0d06 8A42     		cmp	r2, r1
 4303 0d08 09D0     		beq	.L1457
 516:../Drivers/STM32F4xx_HAL_Driver/Src/stm32f4xx_hal_dma.c ****       }
 4304              		.loc 1 516 0 discriminator 23
 4305 0d0a 01F58061 		add	r1, r1, #1024
 4306 0d0e 8A42     		cmp	r2, r1
 4307 0d10 02D1     		bne	.L1458
 516:../Drivers/STM32F4xx_HAL_Driver/Src/stm32f4xx_hal_dma.c ****       }
 4308              		.loc 1 516 0
 4309 0d12 4FF48032 		mov	r2, #65536
 4310 0d16 1AE0     		b	.L793
 4311              	.L1458:
 4312 0d18 4FF48002 		mov	r2, #4194304
 4313 0d1c 17E0     		b	.L793
 4314              	.L1457:
 4315 0d1e 4FF48032 		mov	r2, #65536
 4316 0d22 14E0     		b	.L793
 4317              	.L1456:
 4318 0d24 4FF48032 		mov	r2, #65536
 4319 0d28 11E0     		b	.L793
 4320              	.L1455:
 4321 0d2a 4FF48032 		mov	r2, #65536
ARM GAS  /tmp/ccAPlzty.s 			page 104


 4322 0d2e 0EE0     		b	.L793
 4323              	.L1454:
 4324 0d30 4022     		movs	r2, #64
 4325 0d32 0CE0     		b	.L793
 4326              	.L1453:
 4327 0d34 4022     		movs	r2, #64
 4328 0d36 0AE0     		b	.L793
 4329              	.L1452:
 4330 0d38 4022     		movs	r2, #64
 4331 0d3a 08E0     		b	.L793
 4332              	.L1451:
 4333 0d3c 4022     		movs	r2, #64
 4334 0d3e 06E0     		b	.L793
 4335              	.L1450:
 4336 0d40 324A     		ldr	r2, .L1841+16
 4337 0d42 04E0     		b	.L793
 4338              	.L1449:
 4339 0d44 314A     		ldr	r2, .L1841+16
 4340 0d46 02E0     		b	.L793
 4341              	.L1448:
 4342 0d48 304A     		ldr	r2, .L1841+16
 4343 0d4a 00E0     		b	.L793
 4344              	.L1447:
 4345 0d4c 2F4A     		ldr	r2, .L1841+16
 4346              	.L793:
 516:../Drivers/STM32F4xx_HAL_Driver/Src/stm32f4xx_hal_dma.c ****       }
 4347              		.loc 1 516 0 discriminator 50
 4348 0d4e 3049     		ldr	r1, .L1841+20
 4349 0d50 CA60     		str	r2, [r1, #12]
 4350 0d52 03E1     		b	.L791
 4351              	.L792:
 516:../Drivers/STM32F4xx_HAL_Driver/Src/stm32f4xx_hal_dma.c ****       }
 4352              		.loc 1 516 0 discriminator 2
 4353 0d54 2F49     		ldr	r1, .L1841+24
 4354 0d56 8A42     		cmp	r2, r1
 4355 0d58 5ED9     		bls	.L805
 516:../Drivers/STM32F4xx_HAL_Driver/Src/stm32f4xx_hal_dma.c ****       }
 4356              		.loc 1 516 0 discriminator 51
 4357 0d5a A839     		subs	r1, r1, #168
 4358 0d5c 8A42     		cmp	r2, r1
 4359 0d5e 48D0     		beq	.L1459
 516:../Drivers/STM32F4xx_HAL_Driver/Src/stm32f4xx_hal_dma.c ****       }
 4360              		.loc 1 516 0 discriminator 53
 4361 0d60 01F58061 		add	r1, r1, #1024
 4362 0d64 8A42     		cmp	r2, r1
 4363 0d66 42D0     		beq	.L1460
 516:../Drivers/STM32F4xx_HAL_Driver/Src/stm32f4xx_hal_dma.c ****       }
 4364              		.loc 1 516 0 discriminator 55
 4365 0d68 A1F56871 		sub	r1, r1, #928
 4366 0d6c 8A42     		cmp	r2, r1
 4367 0d6e 3CD0     		beq	.L1461
 516:../Drivers/STM32F4xx_HAL_Driver/Src/stm32f4xx_hal_dma.c ****       }
 4368              		.loc 1 516 0 discriminator 57
 4369 0d70 01F58061 		add	r1, r1, #1024
 4370 0d74 8A42     		cmp	r2, r1
 4371 0d76 36D0     		beq	.L1462
 516:../Drivers/STM32F4xx_HAL_Driver/Src/stm32f4xx_hal_dma.c ****       }
ARM GAS  /tmp/ccAPlzty.s 			page 105


 4372              		.loc 1 516 0 discriminator 59
 4373 0d78 A1F58961 		sub	r1, r1, #1096
 4374 0d7c 8A42     		cmp	r2, r1
 4375 0d7e 30D0     		beq	.L1463
 516:../Drivers/STM32F4xx_HAL_Driver/Src/stm32f4xx_hal_dma.c ****       }
 4376              		.loc 1 516 0 discriminator 61
 4377 0d80 01F58061 		add	r1, r1, #1024
 4378 0d84 8A42     		cmp	r2, r1
 4379 0d86 2AD0     		beq	.L1464
 516:../Drivers/STM32F4xx_HAL_Driver/Src/stm32f4xx_hal_dma.c ****       }
 4380              		.loc 1 516 0 discriminator 63
 4381 0d88 A1F56871 		sub	r1, r1, #928
 4382 0d8c 8A42     		cmp	r2, r1
 4383 0d8e 24D0     		beq	.L1465
 516:../Drivers/STM32F4xx_HAL_Driver/Src/stm32f4xx_hal_dma.c ****       }
 4384              		.loc 1 516 0 discriminator 65
 4385 0d90 01F58061 		add	r1, r1, #1024
 4386 0d94 8A42     		cmp	r2, r1
 4387 0d96 1ED0     		beq	.L1466
 516:../Drivers/STM32F4xx_HAL_Driver/Src/stm32f4xx_hal_dma.c ****       }
 4388              		.loc 1 516 0 discriminator 67
 4389 0d98 A1F58961 		sub	r1, r1, #1096
 4390 0d9c 8A42     		cmp	r2, r1
 4391 0d9e 17D0     		beq	.L1467
 516:../Drivers/STM32F4xx_HAL_Driver/Src/stm32f4xx_hal_dma.c ****       }
 4392              		.loc 1 516 0 discriminator 69
 4393 0da0 01F58061 		add	r1, r1, #1024
 4394 0da4 8A42     		cmp	r2, r1
 4395 0da6 10D0     		beq	.L1468
 516:../Drivers/STM32F4xx_HAL_Driver/Src/stm32f4xx_hal_dma.c ****       }
 4396              		.loc 1 516 0 discriminator 71
 4397 0da8 A1F56871 		sub	r1, r1, #928
 4398 0dac 8A42     		cmp	r2, r1
 4399 0dae 09D0     		beq	.L1469
 516:../Drivers/STM32F4xx_HAL_Driver/Src/stm32f4xx_hal_dma.c ****       }
 4400              		.loc 1 516 0 discriminator 73
 4401 0db0 01F58061 		add	r1, r1, #1024
 4402 0db4 8A42     		cmp	r2, r1
 4403 0db6 02D1     		bne	.L1470
 516:../Drivers/STM32F4xx_HAL_Driver/Src/stm32f4xx_hal_dma.c ****       }
 4404              		.loc 1 516 0
 4405 0db8 4FF48032 		mov	r2, #65536
 4406 0dbc 1AE0     		b	.L806
 4407              	.L1470:
 4408 0dbe 4FF48002 		mov	r2, #4194304
 4409 0dc2 17E0     		b	.L806
 4410              	.L1469:
 4411 0dc4 4FF48032 		mov	r2, #65536
 4412 0dc8 14E0     		b	.L806
 4413              	.L1468:
 4414 0dca 4FF48032 		mov	r2, #65536
 4415 0dce 11E0     		b	.L806
 4416              	.L1467:
 4417 0dd0 4FF48032 		mov	r2, #65536
 4418 0dd4 0EE0     		b	.L806
 4419              	.L1466:
 4420 0dd6 4022     		movs	r2, #64
ARM GAS  /tmp/ccAPlzty.s 			page 106


 4421 0dd8 0CE0     		b	.L806
 4422              	.L1465:
 4423 0dda 4022     		movs	r2, #64
 4424 0ddc 0AE0     		b	.L806
 4425              	.L1464:
 4426 0dde 4022     		movs	r2, #64
 4427 0de0 08E0     		b	.L806
 4428              	.L1463:
 4429 0de2 4022     		movs	r2, #64
 4430 0de4 06E0     		b	.L806
 4431              	.L1462:
 4432 0de6 094A     		ldr	r2, .L1841+16
 4433 0de8 04E0     		b	.L806
 4434              	.L1461:
 4435 0dea 084A     		ldr	r2, .L1841+16
 4436 0dec 02E0     		b	.L806
 4437              	.L1460:
 4438 0dee 074A     		ldr	r2, .L1841+16
 4439 0df0 00E0     		b	.L806
 4440              	.L1459:
 4441 0df2 064A     		ldr	r2, .L1841+16
 4442              	.L806:
 516:../Drivers/STM32F4xx_HAL_Driver/Src/stm32f4xx_hal_dma.c ****       }
 4443              		.loc 1 516 0 discriminator 100
 4444 0df4 0649     		ldr	r1, .L1841+20
 4445 0df6 8A60     		str	r2, [r1, #8]
 4446 0df8 B0E0     		b	.L791
 4447              	.L1842:
 4448 0dfa 00BF     		.align	2
 4449              	.L1841:
 4450 0dfc 58600240 		.word	1073897560
 4451 0e00 00600240 		.word	1073897472
 4452 0e04 10600240 		.word	1073897488
 4453 0e08 58640240 		.word	1073898584
 4454 0e0c 01008000 		.word	8388609
 4455 0e10 00640240 		.word	1073898496
 4456 0e14 B8600240 		.word	1073897656
 4457              	.L805:
 516:../Drivers/STM32F4xx_HAL_Driver/Src/stm32f4xx_hal_dma.c ****       }
 4458              		.loc 1 516 0 discriminator 52
 4459 0e18 AC49     		ldr	r1, .L1843
 4460 0e1a 8A42     		cmp	r2, r1
 4461 0e1c 4FD9     		bls	.L818
 516:../Drivers/STM32F4xx_HAL_Driver/Src/stm32f4xx_hal_dma.c ****       }
 4462              		.loc 1 516 0 discriminator 102
 4463 0e1e 4839     		subs	r1, r1, #72
 4464 0e20 8A42     		cmp	r2, r1
 4465 0e22 48D0     		beq	.L1471
 516:../Drivers/STM32F4xx_HAL_Driver/Src/stm32f4xx_hal_dma.c ****       }
 4466              		.loc 1 516 0 discriminator 104
 4467 0e24 01F58061 		add	r1, r1, #1024
 4468 0e28 8A42     		cmp	r2, r1
 4469 0e2a 42D0     		beq	.L1472
 516:../Drivers/STM32F4xx_HAL_Driver/Src/stm32f4xx_hal_dma.c ****       }
 4470              		.loc 1 516 0 discriminator 106
 4471 0e2c A1F56871 		sub	r1, r1, #928
 4472 0e30 8A42     		cmp	r2, r1
ARM GAS  /tmp/ccAPlzty.s 			page 107


 4473 0e32 3CD0     		beq	.L1473
 516:../Drivers/STM32F4xx_HAL_Driver/Src/stm32f4xx_hal_dma.c ****       }
 4474              		.loc 1 516 0 discriminator 108
 4475 0e34 01F58061 		add	r1, r1, #1024
 4476 0e38 8A42     		cmp	r2, r1
 4477 0e3a 36D0     		beq	.L1474
 516:../Drivers/STM32F4xx_HAL_Driver/Src/stm32f4xx_hal_dma.c ****       }
 4478              		.loc 1 516 0 discriminator 110
 4479 0e3c A1F58961 		sub	r1, r1, #1096
 4480 0e40 8A42     		cmp	r2, r1
 4481 0e42 30D0     		beq	.L1475
 516:../Drivers/STM32F4xx_HAL_Driver/Src/stm32f4xx_hal_dma.c ****       }
 4482              		.loc 1 516 0 discriminator 112
 4483 0e44 01F58061 		add	r1, r1, #1024
 4484 0e48 8A42     		cmp	r2, r1
 4485 0e4a 2AD0     		beq	.L1476
 516:../Drivers/STM32F4xx_HAL_Driver/Src/stm32f4xx_hal_dma.c ****       }
 4486              		.loc 1 516 0 discriminator 114
 4487 0e4c A1F56871 		sub	r1, r1, #928
 4488 0e50 8A42     		cmp	r2, r1
 4489 0e52 24D0     		beq	.L1477
 516:../Drivers/STM32F4xx_HAL_Driver/Src/stm32f4xx_hal_dma.c ****       }
 4490              		.loc 1 516 0 discriminator 116
 4491 0e54 01F58061 		add	r1, r1, #1024
 4492 0e58 8A42     		cmp	r2, r1
 4493 0e5a 1ED0     		beq	.L1478
 516:../Drivers/STM32F4xx_HAL_Driver/Src/stm32f4xx_hal_dma.c ****       }
 4494              		.loc 1 516 0 discriminator 118
 4495 0e5c A1F58961 		sub	r1, r1, #1096
 4496 0e60 8A42     		cmp	r2, r1
 4497 0e62 17D0     		beq	.L1479
 516:../Drivers/STM32F4xx_HAL_Driver/Src/stm32f4xx_hal_dma.c ****       }
 4498              		.loc 1 516 0 discriminator 120
 4499 0e64 01F58061 		add	r1, r1, #1024
 4500 0e68 8A42     		cmp	r2, r1
 4501 0e6a 10D0     		beq	.L1480
 516:../Drivers/STM32F4xx_HAL_Driver/Src/stm32f4xx_hal_dma.c ****       }
 4502              		.loc 1 516 0 discriminator 122
 4503 0e6c A1F56871 		sub	r1, r1, #928
 4504 0e70 8A42     		cmp	r2, r1
 4505 0e72 09D0     		beq	.L1481
 516:../Drivers/STM32F4xx_HAL_Driver/Src/stm32f4xx_hal_dma.c ****       }
 4506              		.loc 1 516 0 discriminator 124
 4507 0e74 01F58061 		add	r1, r1, #1024
 4508 0e78 8A42     		cmp	r2, r1
 4509 0e7a 02D1     		bne	.L1482
 516:../Drivers/STM32F4xx_HAL_Driver/Src/stm32f4xx_hal_dma.c ****       }
 4510              		.loc 1 516 0
 4511 0e7c 4FF48032 		mov	r2, #65536
 4512 0e80 1AE0     		b	.L819
 4513              	.L1482:
 4514 0e82 4FF48002 		mov	r2, #4194304
 4515 0e86 17E0     		b	.L819
 4516              	.L1481:
 4517 0e88 4FF48032 		mov	r2, #65536
 4518 0e8c 14E0     		b	.L819
 4519              	.L1480:
ARM GAS  /tmp/ccAPlzty.s 			page 108


 4520 0e8e 4FF48032 		mov	r2, #65536
 4521 0e92 11E0     		b	.L819
 4522              	.L1479:
 4523 0e94 4FF48032 		mov	r2, #65536
 4524 0e98 0EE0     		b	.L819
 4525              	.L1478:
 4526 0e9a 4022     		movs	r2, #64
 4527 0e9c 0CE0     		b	.L819
 4528              	.L1477:
 4529 0e9e 4022     		movs	r2, #64
 4530 0ea0 0AE0     		b	.L819
 4531              	.L1476:
 4532 0ea2 4022     		movs	r2, #64
 4533 0ea4 08E0     		b	.L819
 4534              	.L1475:
 4535 0ea6 4022     		movs	r2, #64
 4536 0ea8 06E0     		b	.L819
 4537              	.L1474:
 4538 0eaa 894A     		ldr	r2, .L1843+4
 4539 0eac 04E0     		b	.L819
 4540              	.L1473:
 4541 0eae 884A     		ldr	r2, .L1843+4
 4542 0eb0 02E0     		b	.L819
 4543              	.L1472:
 4544 0eb2 874A     		ldr	r2, .L1843+4
 4545 0eb4 00E0     		b	.L819
 4546              	.L1471:
 4547 0eb6 864A     		ldr	r2, .L1843+4
 4548              	.L819:
 516:../Drivers/STM32F4xx_HAL_Driver/Src/stm32f4xx_hal_dma.c ****       }
 4549              		.loc 1 516 0 discriminator 151
 4550 0eb8 8649     		ldr	r1, .L1843+8
 4551 0eba CA60     		str	r2, [r1, #12]
 4552 0ebc 4EE0     		b	.L791
 4553              	.L818:
 516:../Drivers/STM32F4xx_HAL_Driver/Src/stm32f4xx_hal_dma.c ****       }
 4554              		.loc 1 516 0 discriminator 103
 4555 0ebe 8649     		ldr	r1, .L1843+12
 4556 0ec0 8A42     		cmp	r2, r1
 4557 0ec2 48D0     		beq	.L1483
 516:../Drivers/STM32F4xx_HAL_Driver/Src/stm32f4xx_hal_dma.c ****       }
 4558              		.loc 1 516 0 discriminator 153
 4559 0ec4 01F58061 		add	r1, r1, #1024
 4560 0ec8 8A42     		cmp	r2, r1
 4561 0eca 42D0     		beq	.L1484
 516:../Drivers/STM32F4xx_HAL_Driver/Src/stm32f4xx_hal_dma.c ****       }
 4562              		.loc 1 516 0 discriminator 155
 4563 0ecc A1F56871 		sub	r1, r1, #928
 4564 0ed0 8A42     		cmp	r2, r1
 4565 0ed2 3CD0     		beq	.L1485
 516:../Drivers/STM32F4xx_HAL_Driver/Src/stm32f4xx_hal_dma.c ****       }
 4566              		.loc 1 516 0 discriminator 157
 4567 0ed4 01F58061 		add	r1, r1, #1024
 4568 0ed8 8A42     		cmp	r2, r1
 4569 0eda 36D0     		beq	.L1486
 516:../Drivers/STM32F4xx_HAL_Driver/Src/stm32f4xx_hal_dma.c ****       }
 4570              		.loc 1 516 0 discriminator 159
ARM GAS  /tmp/ccAPlzty.s 			page 109


 4571 0edc A1F58961 		sub	r1, r1, #1096
 4572 0ee0 8A42     		cmp	r2, r1
 4573 0ee2 30D0     		beq	.L1487
 516:../Drivers/STM32F4xx_HAL_Driver/Src/stm32f4xx_hal_dma.c ****       }
 4574              		.loc 1 516 0 discriminator 161
 4575 0ee4 01F58061 		add	r1, r1, #1024
 4576 0ee8 8A42     		cmp	r2, r1
 4577 0eea 2AD0     		beq	.L1488
 516:../Drivers/STM32F4xx_HAL_Driver/Src/stm32f4xx_hal_dma.c ****       }
 4578              		.loc 1 516 0 discriminator 163
 4579 0eec A1F56871 		sub	r1, r1, #928
 4580 0ef0 8A42     		cmp	r2, r1
 4581 0ef2 24D0     		beq	.L1489
 516:../Drivers/STM32F4xx_HAL_Driver/Src/stm32f4xx_hal_dma.c ****       }
 4582              		.loc 1 516 0 discriminator 165
 4583 0ef4 01F58061 		add	r1, r1, #1024
 4584 0ef8 8A42     		cmp	r2, r1
 4585 0efa 1ED0     		beq	.L1490
 516:../Drivers/STM32F4xx_HAL_Driver/Src/stm32f4xx_hal_dma.c ****       }
 4586              		.loc 1 516 0 discriminator 167
 4587 0efc A1F58961 		sub	r1, r1, #1096
 4588 0f00 8A42     		cmp	r2, r1
 4589 0f02 17D0     		beq	.L1491
 516:../Drivers/STM32F4xx_HAL_Driver/Src/stm32f4xx_hal_dma.c ****       }
 4590              		.loc 1 516 0 discriminator 169
 4591 0f04 01F58061 		add	r1, r1, #1024
 4592 0f08 8A42     		cmp	r2, r1
 4593 0f0a 10D0     		beq	.L1492
 516:../Drivers/STM32F4xx_HAL_Driver/Src/stm32f4xx_hal_dma.c ****       }
 4594              		.loc 1 516 0 discriminator 171
 4595 0f0c A1F56871 		sub	r1, r1, #928
 4596 0f10 8A42     		cmp	r2, r1
 4597 0f12 09D0     		beq	.L1493
 516:../Drivers/STM32F4xx_HAL_Driver/Src/stm32f4xx_hal_dma.c ****       }
 4598              		.loc 1 516 0 discriminator 173
 4599 0f14 01F58061 		add	r1, r1, #1024
 4600 0f18 8A42     		cmp	r2, r1
 4601 0f1a 02D1     		bne	.L1494
 516:../Drivers/STM32F4xx_HAL_Driver/Src/stm32f4xx_hal_dma.c ****       }
 4602              		.loc 1 516 0
 4603 0f1c 4FF48032 		mov	r2, #65536
 4604 0f20 1AE0     		b	.L832
 4605              	.L1494:
 4606 0f22 4FF48002 		mov	r2, #4194304
 4607 0f26 17E0     		b	.L832
 4608              	.L1493:
 4609 0f28 4FF48032 		mov	r2, #65536
 4610 0f2c 14E0     		b	.L832
 4611              	.L1492:
 4612 0f2e 4FF48032 		mov	r2, #65536
 4613 0f32 11E0     		b	.L832
 4614              	.L1491:
 4615 0f34 4FF48032 		mov	r2, #65536
 4616 0f38 0EE0     		b	.L832
 4617              	.L1490:
 4618 0f3a 4022     		movs	r2, #64
 4619 0f3c 0CE0     		b	.L832
ARM GAS  /tmp/ccAPlzty.s 			page 110


 4620              	.L1489:
 4621 0f3e 4022     		movs	r2, #64
 4622 0f40 0AE0     		b	.L832
 4623              	.L1488:
 4624 0f42 4022     		movs	r2, #64
 4625 0f44 08E0     		b	.L832
 4626              	.L1487:
 4627 0f46 4022     		movs	r2, #64
 4628 0f48 06E0     		b	.L832
 4629              	.L1486:
 4630 0f4a 614A     		ldr	r2, .L1843+4
 4631 0f4c 04E0     		b	.L832
 4632              	.L1485:
 4633 0f4e 604A     		ldr	r2, .L1843+4
 4634 0f50 02E0     		b	.L832
 4635              	.L1484:
 4636 0f52 5F4A     		ldr	r2, .L1843+4
 4637 0f54 00E0     		b	.L832
 4638              	.L1483:
 4639 0f56 5E4A     		ldr	r2, .L1843+4
 4640              	.L832:
 516:../Drivers/STM32F4xx_HAL_Driver/Src/stm32f4xx_hal_dma.c ****       }
 4641              		.loc 1 516 0 discriminator 200
 4642 0f58 5E49     		ldr	r1, .L1843+8
 4643 0f5a 8A60     		str	r2, [r1, #8]
 4644              	.L791:
 518:../Drivers/STM32F4xx_HAL_Driver/Src/stm32f4xx_hal_dma.c ****       {
 4645              		.loc 1 518 0 is_stmt 1
 4646 0f5c 002B     		cmp	r3, #0
 4647 0f5e 00F06F81 		beq	.L844
 521:../Drivers/STM32F4xx_HAL_Driver/Src/stm32f4xx_hal_dma.c **** 
 4648              		.loc 1 521 0
 4649 0f62 E36C     		ldr	r3, [r4, #76]
 4650              	.LVL57:
 4651 0f64 43F00403 		orr	r3, r3, #4
 4652 0f68 E364     		str	r3, [r4, #76]
 524:../Drivers/STM32F4xx_HAL_Driver/Src/stm32f4xx_hal_dma.c ****       }
 4653              		.loc 1 524 0
 4654 0f6a 2368     		ldr	r3, [r4]
 4655 0f6c 5B4A     		ldr	r2, .L1843+16
 4656 0f6e 9342     		cmp	r3, r2
 4657 0f70 54D9     		bls	.L845
 524:../Drivers/STM32F4xx_HAL_Driver/Src/stm32f4xx_hal_dma.c ****       }
 4658              		.loc 1 524 0 is_stmt 0 discriminator 1
 4659 0f72 A2F58962 		sub	r2, r2, #1096
 4660 0f76 9342     		cmp	r3, r2
 4661 0f78 4CD0     		beq	.L1495
 524:../Drivers/STM32F4xx_HAL_Driver/Src/stm32f4xx_hal_dma.c ****       }
 4662              		.loc 1 524 0 discriminator 3
 4663 0f7a 02F58062 		add	r2, r2, #1024
 4664 0f7e 9342     		cmp	r3, r2
 4665 0f80 46D0     		beq	.L1496
 524:../Drivers/STM32F4xx_HAL_Driver/Src/stm32f4xx_hal_dma.c ****       }
 4666              		.loc 1 524 0 discriminator 5
 4667 0f82 A2F56872 		sub	r2, r2, #928
 4668 0f86 9342     		cmp	r3, r2
 4669 0f88 40D0     		beq	.L1497
ARM GAS  /tmp/ccAPlzty.s 			page 111


 524:../Drivers/STM32F4xx_HAL_Driver/Src/stm32f4xx_hal_dma.c ****       }
 4670              		.loc 1 524 0 discriminator 7
 4671 0f8a 02F58062 		add	r2, r2, #1024
 4672 0f8e 9342     		cmp	r3, r2
 4673 0f90 3AD0     		beq	.L1498
 524:../Drivers/STM32F4xx_HAL_Driver/Src/stm32f4xx_hal_dma.c ****       }
 4674              		.loc 1 524 0 discriminator 9
 4675 0f92 A2F58962 		sub	r2, r2, #1096
 4676 0f96 9342     		cmp	r3, r2
 4677 0f98 33D0     		beq	.L1499
 524:../Drivers/STM32F4xx_HAL_Driver/Src/stm32f4xx_hal_dma.c ****       }
 4678              		.loc 1 524 0 discriminator 11
 4679 0f9a 02F58062 		add	r2, r2, #1024
 4680 0f9e 9342     		cmp	r3, r2
 4681 0fa0 2CD0     		beq	.L1500
 524:../Drivers/STM32F4xx_HAL_Driver/Src/stm32f4xx_hal_dma.c ****       }
 4682              		.loc 1 524 0 discriminator 13
 4683 0fa2 A2F56872 		sub	r2, r2, #928
 4684 0fa6 9342     		cmp	r3, r2
 4685 0fa8 25D0     		beq	.L1501
 524:../Drivers/STM32F4xx_HAL_Driver/Src/stm32f4xx_hal_dma.c ****       }
 4686              		.loc 1 524 0 discriminator 15
 4687 0faa 02F58062 		add	r2, r2, #1024
 4688 0fae 9342     		cmp	r3, r2
 4689 0fb0 1ED0     		beq	.L1502
 524:../Drivers/STM32F4xx_HAL_Driver/Src/stm32f4xx_hal_dma.c ****       }
 4690              		.loc 1 524 0 discriminator 17
 4691 0fb2 A2F58962 		sub	r2, r2, #1096
 4692 0fb6 9342     		cmp	r3, r2
 4693 0fb8 17D0     		beq	.L1503
 524:../Drivers/STM32F4xx_HAL_Driver/Src/stm32f4xx_hal_dma.c ****       }
 4694              		.loc 1 524 0 discriminator 19
 4695 0fba 02F58062 		add	r2, r2, #1024
 4696 0fbe 9342     		cmp	r3, r2
 4697 0fc0 10D0     		beq	.L1504
 524:../Drivers/STM32F4xx_HAL_Driver/Src/stm32f4xx_hal_dma.c ****       }
 4698              		.loc 1 524 0 discriminator 21
 4699 0fc2 A2F56872 		sub	r2, r2, #928
 4700 0fc6 9342     		cmp	r3, r2
 4701 0fc8 09D0     		beq	.L1505
 524:../Drivers/STM32F4xx_HAL_Driver/Src/stm32f4xx_hal_dma.c ****       }
 4702              		.loc 1 524 0 discriminator 23
 4703 0fca 02F58062 		add	r2, r2, #1024
 4704 0fce 9342     		cmp	r3, r2
 4705 0fd0 02D1     		bne	.L1506
 524:../Drivers/STM32F4xx_HAL_Driver/Src/stm32f4xx_hal_dma.c ****       }
 4706              		.loc 1 524 0
 4707 0fd2 4FF48023 		mov	r3, #262144
 4708 0fd6 1EE0     		b	.L846
 4709              	.L1506:
 4710 0fd8 4FF08073 		mov	r3, #16777216
 4711 0fdc 1BE0     		b	.L846
 4712              	.L1505:
 4713 0fde 4FF48023 		mov	r3, #262144
 4714 0fe2 18E0     		b	.L846
 4715              	.L1504:
 4716 0fe4 4FF48023 		mov	r3, #262144
ARM GAS  /tmp/ccAPlzty.s 			page 112


 4717 0fe8 15E0     		b	.L846
 4718              	.L1503:
 4719 0fea 4FF48023 		mov	r3, #262144
 4720 0fee 12E0     		b	.L846
 4721              	.L1502:
 4722 0ff0 4FF48073 		mov	r3, #256
 4723 0ff4 0FE0     		b	.L846
 4724              	.L1501:
 4725 0ff6 4FF48073 		mov	r3, #256
 4726 0ffa 0CE0     		b	.L846
 4727              	.L1500:
 4728 0ffc 4FF48073 		mov	r3, #256
 4729 1000 09E0     		b	.L846
 4730              	.L1499:
 4731 1002 4FF48073 		mov	r3, #256
 4732 1006 06E0     		b	.L846
 4733              	.L1498:
 4734 1008 354B     		ldr	r3, .L1843+20
 4735 100a 04E0     		b	.L846
 4736              	.L1497:
 4737 100c 344B     		ldr	r3, .L1843+20
 4738 100e 02E0     		b	.L846
 4739              	.L1496:
 4740 1010 334B     		ldr	r3, .L1843+20
 4741 1012 00E0     		b	.L846
 4742              	.L1495:
 4743 1014 324B     		ldr	r3, .L1843+20
 4744              	.L846:
 524:../Drivers/STM32F4xx_HAL_Driver/Src/stm32f4xx_hal_dma.c ****       }
 4745              		.loc 1 524 0 discriminator 50
 4746 1016 334A     		ldr	r2, .L1843+24
 4747 1018 D360     		str	r3, [r2, #12]
 4748 101a 11E1     		b	.L844
 4749              	.L845:
 524:../Drivers/STM32F4xx_HAL_Driver/Src/stm32f4xx_hal_dma.c ****       }
 4750              		.loc 1 524 0 discriminator 2
 4751 101c 324A     		ldr	r2, .L1843+28
 4752 101e 9342     		cmp	r3, r2
 4753 1020 64D9     		bls	.L858
 524:../Drivers/STM32F4xx_HAL_Driver/Src/stm32f4xx_hal_dma.c ****       }
 4754              		.loc 1 524 0 discriminator 51
 4755 1022 A83A     		subs	r2, r2, #168
 4756 1024 9342     		cmp	r3, r2
 4757 1026 4CD0     		beq	.L1507
 524:../Drivers/STM32F4xx_HAL_Driver/Src/stm32f4xx_hal_dma.c ****       }
 4758              		.loc 1 524 0 discriminator 53
 4759 1028 02F58062 		add	r2, r2, #1024
 4760 102c 9342     		cmp	r3, r2
 4761 102e 46D0     		beq	.L1508
 524:../Drivers/STM32F4xx_HAL_Driver/Src/stm32f4xx_hal_dma.c ****       }
 4762              		.loc 1 524 0 discriminator 55
 4763 1030 A2F56872 		sub	r2, r2, #928
 4764 1034 9342     		cmp	r3, r2
 4765 1036 40D0     		beq	.L1509
 524:../Drivers/STM32F4xx_HAL_Driver/Src/stm32f4xx_hal_dma.c ****       }
 4766              		.loc 1 524 0 discriminator 57
 4767 1038 02F58062 		add	r2, r2, #1024
ARM GAS  /tmp/ccAPlzty.s 			page 113


 4768 103c 9342     		cmp	r3, r2
 4769 103e 3AD0     		beq	.L1510
 524:../Drivers/STM32F4xx_HAL_Driver/Src/stm32f4xx_hal_dma.c ****       }
 4770              		.loc 1 524 0 discriminator 59
 4771 1040 A2F58962 		sub	r2, r2, #1096
 4772 1044 9342     		cmp	r3, r2
 4773 1046 33D0     		beq	.L1511
 524:../Drivers/STM32F4xx_HAL_Driver/Src/stm32f4xx_hal_dma.c ****       }
 4774              		.loc 1 524 0 discriminator 61
 4775 1048 02F58062 		add	r2, r2, #1024
 4776 104c 9342     		cmp	r3, r2
 4777 104e 2CD0     		beq	.L1512
 524:../Drivers/STM32F4xx_HAL_Driver/Src/stm32f4xx_hal_dma.c ****       }
 4778              		.loc 1 524 0 discriminator 63
 4779 1050 A2F56872 		sub	r2, r2, #928
 4780 1054 9342     		cmp	r3, r2
 4781 1056 25D0     		beq	.L1513
 524:../Drivers/STM32F4xx_HAL_Driver/Src/stm32f4xx_hal_dma.c ****       }
 4782              		.loc 1 524 0 discriminator 65
 4783 1058 02F58062 		add	r2, r2, #1024
 4784 105c 9342     		cmp	r3, r2
 4785 105e 1ED0     		beq	.L1514
 524:../Drivers/STM32F4xx_HAL_Driver/Src/stm32f4xx_hal_dma.c ****       }
 4786              		.loc 1 524 0 discriminator 67
 4787 1060 A2F58962 		sub	r2, r2, #1096
 4788 1064 9342     		cmp	r3, r2
 4789 1066 17D0     		beq	.L1515
 524:../Drivers/STM32F4xx_HAL_Driver/Src/stm32f4xx_hal_dma.c ****       }
 4790              		.loc 1 524 0 discriminator 69
 4791 1068 02F58062 		add	r2, r2, #1024
 4792 106c 9342     		cmp	r3, r2
 4793 106e 10D0     		beq	.L1516
 524:../Drivers/STM32F4xx_HAL_Driver/Src/stm32f4xx_hal_dma.c ****       }
 4794              		.loc 1 524 0 discriminator 71
 4795 1070 A2F56872 		sub	r2, r2, #928
 4796 1074 9342     		cmp	r3, r2
 4797 1076 09D0     		beq	.L1517
 524:../Drivers/STM32F4xx_HAL_Driver/Src/stm32f4xx_hal_dma.c ****       }
 4798              		.loc 1 524 0 discriminator 73
 4799 1078 02F58062 		add	r2, r2, #1024
 4800 107c 9342     		cmp	r3, r2
 4801 107e 02D1     		bne	.L1518
 524:../Drivers/STM32F4xx_HAL_Driver/Src/stm32f4xx_hal_dma.c ****       }
 4802              		.loc 1 524 0
 4803 1080 4FF48023 		mov	r3, #262144
 4804 1084 1EE0     		b	.L859
 4805              	.L1518:
 4806 1086 4FF08073 		mov	r3, #16777216
 4807 108a 1BE0     		b	.L859
 4808              	.L1517:
 4809 108c 4FF48023 		mov	r3, #262144
 4810 1090 18E0     		b	.L859
 4811              	.L1516:
 4812 1092 4FF48023 		mov	r3, #262144
 4813 1096 15E0     		b	.L859
 4814              	.L1515:
 4815 1098 4FF48023 		mov	r3, #262144
ARM GAS  /tmp/ccAPlzty.s 			page 114


 4816 109c 12E0     		b	.L859
 4817              	.L1514:
 4818 109e 4FF48073 		mov	r3, #256
 4819 10a2 0FE0     		b	.L859
 4820              	.L1513:
 4821 10a4 4FF48073 		mov	r3, #256
 4822 10a8 0CE0     		b	.L859
 4823              	.L1512:
 4824 10aa 4FF48073 		mov	r3, #256
 4825 10ae 09E0     		b	.L859
 4826              	.L1511:
 4827 10b0 4FF48073 		mov	r3, #256
 4828 10b4 06E0     		b	.L859
 4829              	.L1510:
 4830 10b6 0A4B     		ldr	r3, .L1843+20
 4831 10b8 04E0     		b	.L859
 4832              	.L1509:
 4833 10ba 094B     		ldr	r3, .L1843+20
 4834 10bc 02E0     		b	.L859
 4835              	.L1508:
 4836 10be 084B     		ldr	r3, .L1843+20
 4837 10c0 00E0     		b	.L859
 4838              	.L1507:
 4839 10c2 074B     		ldr	r3, .L1843+20
 4840              	.L859:
 524:../Drivers/STM32F4xx_HAL_Driver/Src/stm32f4xx_hal_dma.c ****       }
 4841              		.loc 1 524 0 discriminator 100
 4842 10c4 074A     		ldr	r2, .L1843+24
 4843 10c6 9360     		str	r3, [r2, #8]
 4844 10c8 BAE0     		b	.L844
 4845              	.L1844:
 4846 10ca 00BF     		.align	2
 4847              	.L1843:
 4848 10cc 58600240 		.word	1073897560
 4849 10d0 01008000 		.word	8388609
 4850 10d4 00600240 		.word	1073897472
 4851 10d8 10600240 		.word	1073897488
 4852 10dc 58640240 		.word	1073898584
 4853 10e0 04008000 		.word	8388612
 4854 10e4 00640240 		.word	1073898496
 4855 10e8 B8600240 		.word	1073897656
 4856              	.L858:
 524:../Drivers/STM32F4xx_HAL_Driver/Src/stm32f4xx_hal_dma.c ****       }
 4857              		.loc 1 524 0 discriminator 52
 4858 10ec A94A     		ldr	r2, .L1845
 4859 10ee 9342     		cmp	r3, r2
 4860 10f0 53D9     		bls	.L871
 524:../Drivers/STM32F4xx_HAL_Driver/Src/stm32f4xx_hal_dma.c ****       }
 4861              		.loc 1 524 0 discriminator 102
 4862 10f2 483A     		subs	r2, r2, #72
 4863 10f4 9342     		cmp	r3, r2
 4864 10f6 4CD0     		beq	.L1519
 524:../Drivers/STM32F4xx_HAL_Driver/Src/stm32f4xx_hal_dma.c ****       }
 4865              		.loc 1 524 0 discriminator 104
 4866 10f8 02F58062 		add	r2, r2, #1024
 4867 10fc 9342     		cmp	r3, r2
 4868 10fe 46D0     		beq	.L1520
ARM GAS  /tmp/ccAPlzty.s 			page 115


 524:../Drivers/STM32F4xx_HAL_Driver/Src/stm32f4xx_hal_dma.c ****       }
 4869              		.loc 1 524 0 discriminator 106
 4870 1100 A2F56872 		sub	r2, r2, #928
 4871 1104 9342     		cmp	r3, r2
 4872 1106 40D0     		beq	.L1521
 524:../Drivers/STM32F4xx_HAL_Driver/Src/stm32f4xx_hal_dma.c ****       }
 4873              		.loc 1 524 0 discriminator 108
 4874 1108 02F58062 		add	r2, r2, #1024
 4875 110c 9342     		cmp	r3, r2
 4876 110e 3AD0     		beq	.L1522
 524:../Drivers/STM32F4xx_HAL_Driver/Src/stm32f4xx_hal_dma.c ****       }
 4877              		.loc 1 524 0 discriminator 110
 4878 1110 A2F58962 		sub	r2, r2, #1096
 4879 1114 9342     		cmp	r3, r2
 4880 1116 33D0     		beq	.L1523
 524:../Drivers/STM32F4xx_HAL_Driver/Src/stm32f4xx_hal_dma.c ****       }
 4881              		.loc 1 524 0 discriminator 112
 4882 1118 02F58062 		add	r2, r2, #1024
 4883 111c 9342     		cmp	r3, r2
 4884 111e 2CD0     		beq	.L1524
 524:../Drivers/STM32F4xx_HAL_Driver/Src/stm32f4xx_hal_dma.c ****       }
 4885              		.loc 1 524 0 discriminator 114
 4886 1120 A2F56872 		sub	r2, r2, #928
 4887 1124 9342     		cmp	r3, r2
 4888 1126 25D0     		beq	.L1525
 524:../Drivers/STM32F4xx_HAL_Driver/Src/stm32f4xx_hal_dma.c ****       }
 4889              		.loc 1 524 0 discriminator 116
 4890 1128 02F58062 		add	r2, r2, #1024
 4891 112c 9342     		cmp	r3, r2
 4892 112e 1ED0     		beq	.L1526
 524:../Drivers/STM32F4xx_HAL_Driver/Src/stm32f4xx_hal_dma.c ****       }
 4893              		.loc 1 524 0 discriminator 118
 4894 1130 A2F58962 		sub	r2, r2, #1096
 4895 1134 9342     		cmp	r3, r2
 4896 1136 17D0     		beq	.L1527
 524:../Drivers/STM32F4xx_HAL_Driver/Src/stm32f4xx_hal_dma.c ****       }
 4897              		.loc 1 524 0 discriminator 120
 4898 1138 02F58062 		add	r2, r2, #1024
 4899 113c 9342     		cmp	r3, r2
 4900 113e 10D0     		beq	.L1528
 524:../Drivers/STM32F4xx_HAL_Driver/Src/stm32f4xx_hal_dma.c ****       }
 4901              		.loc 1 524 0 discriminator 122
 4902 1140 A2F56872 		sub	r2, r2, #928
 4903 1144 9342     		cmp	r3, r2
 4904 1146 09D0     		beq	.L1529
 524:../Drivers/STM32F4xx_HAL_Driver/Src/stm32f4xx_hal_dma.c ****       }
 4905              		.loc 1 524 0 discriminator 124
 4906 1148 02F58062 		add	r2, r2, #1024
 4907 114c 9342     		cmp	r3, r2
 4908 114e 02D1     		bne	.L1530
 524:../Drivers/STM32F4xx_HAL_Driver/Src/stm32f4xx_hal_dma.c ****       }
 4909              		.loc 1 524 0
 4910 1150 4FF48023 		mov	r3, #262144
 4911 1154 1EE0     		b	.L872
 4912              	.L1530:
 4913 1156 4FF08073 		mov	r3, #16777216
 4914 115a 1BE0     		b	.L872
ARM GAS  /tmp/ccAPlzty.s 			page 116


 4915              	.L1529:
 4916 115c 4FF48023 		mov	r3, #262144
 4917 1160 18E0     		b	.L872
 4918              	.L1528:
 4919 1162 4FF48023 		mov	r3, #262144
 4920 1166 15E0     		b	.L872
 4921              	.L1527:
 4922 1168 4FF48023 		mov	r3, #262144
 4923 116c 12E0     		b	.L872
 4924              	.L1526:
 4925 116e 4FF48073 		mov	r3, #256
 4926 1172 0FE0     		b	.L872
 4927              	.L1525:
 4928 1174 4FF48073 		mov	r3, #256
 4929 1178 0CE0     		b	.L872
 4930              	.L1524:
 4931 117a 4FF48073 		mov	r3, #256
 4932 117e 09E0     		b	.L872
 4933              	.L1523:
 4934 1180 4FF48073 		mov	r3, #256
 4935 1184 06E0     		b	.L872
 4936              	.L1522:
 4937 1186 844B     		ldr	r3, .L1845+4
 4938 1188 04E0     		b	.L872
 4939              	.L1521:
 4940 118a 834B     		ldr	r3, .L1845+4
 4941 118c 02E0     		b	.L872
 4942              	.L1520:
 4943 118e 824B     		ldr	r3, .L1845+4
 4944 1190 00E0     		b	.L872
 4945              	.L1519:
 4946 1192 814B     		ldr	r3, .L1845+4
 4947              	.L872:
 524:../Drivers/STM32F4xx_HAL_Driver/Src/stm32f4xx_hal_dma.c ****       }
 4948              		.loc 1 524 0 discriminator 151
 4949 1194 814A     		ldr	r2, .L1845+8
 4950 1196 D360     		str	r3, [r2, #12]
 4951 1198 52E0     		b	.L844
 4952              	.L871:
 524:../Drivers/STM32F4xx_HAL_Driver/Src/stm32f4xx_hal_dma.c ****       }
 4953              		.loc 1 524 0 discriminator 103
 4954 119a 814A     		ldr	r2, .L1845+12
 4955 119c 9342     		cmp	r3, r2
 4956 119e 4CD0     		beq	.L1531
 524:../Drivers/STM32F4xx_HAL_Driver/Src/stm32f4xx_hal_dma.c ****       }
 4957              		.loc 1 524 0 discriminator 153
 4958 11a0 02F58062 		add	r2, r2, #1024
 4959 11a4 9342     		cmp	r3, r2
 4960 11a6 46D0     		beq	.L1532
 524:../Drivers/STM32F4xx_HAL_Driver/Src/stm32f4xx_hal_dma.c ****       }
 4961              		.loc 1 524 0 discriminator 155
 4962 11a8 A2F56872 		sub	r2, r2, #928
 4963 11ac 9342     		cmp	r3, r2
 4964 11ae 40D0     		beq	.L1533
 524:../Drivers/STM32F4xx_HAL_Driver/Src/stm32f4xx_hal_dma.c ****       }
 4965              		.loc 1 524 0 discriminator 157
 4966 11b0 02F58062 		add	r2, r2, #1024
ARM GAS  /tmp/ccAPlzty.s 			page 117


 4967 11b4 9342     		cmp	r3, r2
 4968 11b6 3AD0     		beq	.L1534
 524:../Drivers/STM32F4xx_HAL_Driver/Src/stm32f4xx_hal_dma.c ****       }
 4969              		.loc 1 524 0 discriminator 159
 4970 11b8 A2F58962 		sub	r2, r2, #1096
 4971 11bc 9342     		cmp	r3, r2
 4972 11be 33D0     		beq	.L1535
 524:../Drivers/STM32F4xx_HAL_Driver/Src/stm32f4xx_hal_dma.c ****       }
 4973              		.loc 1 524 0 discriminator 161
 4974 11c0 02F58062 		add	r2, r2, #1024
 4975 11c4 9342     		cmp	r3, r2
 4976 11c6 2CD0     		beq	.L1536
 524:../Drivers/STM32F4xx_HAL_Driver/Src/stm32f4xx_hal_dma.c ****       }
 4977              		.loc 1 524 0 discriminator 163
 4978 11c8 A2F56872 		sub	r2, r2, #928
 4979 11cc 9342     		cmp	r3, r2
 4980 11ce 25D0     		beq	.L1537
 524:../Drivers/STM32F4xx_HAL_Driver/Src/stm32f4xx_hal_dma.c ****       }
 4981              		.loc 1 524 0 discriminator 165
 4982 11d0 02F58062 		add	r2, r2, #1024
 4983 11d4 9342     		cmp	r3, r2
 4984 11d6 1ED0     		beq	.L1538
 524:../Drivers/STM32F4xx_HAL_Driver/Src/stm32f4xx_hal_dma.c ****       }
 4985              		.loc 1 524 0 discriminator 167
 4986 11d8 A2F58962 		sub	r2, r2, #1096
 4987 11dc 9342     		cmp	r3, r2
 4988 11de 17D0     		beq	.L1539
 524:../Drivers/STM32F4xx_HAL_Driver/Src/stm32f4xx_hal_dma.c ****       }
 4989              		.loc 1 524 0 discriminator 169
 4990 11e0 02F58062 		add	r2, r2, #1024
 4991 11e4 9342     		cmp	r3, r2
 4992 11e6 10D0     		beq	.L1540
 524:../Drivers/STM32F4xx_HAL_Driver/Src/stm32f4xx_hal_dma.c ****       }
 4993              		.loc 1 524 0 discriminator 171
 4994 11e8 A2F56872 		sub	r2, r2, #928
 4995 11ec 9342     		cmp	r3, r2
 4996 11ee 09D0     		beq	.L1541
 524:../Drivers/STM32F4xx_HAL_Driver/Src/stm32f4xx_hal_dma.c ****       }
 4997              		.loc 1 524 0 discriminator 173
 4998 11f0 02F58062 		add	r2, r2, #1024
 4999 11f4 9342     		cmp	r3, r2
 5000 11f6 02D1     		bne	.L1542
 524:../Drivers/STM32F4xx_HAL_Driver/Src/stm32f4xx_hal_dma.c ****       }
 5001              		.loc 1 524 0
 5002 11f8 4FF48023 		mov	r3, #262144
 5003 11fc 1EE0     		b	.L885
 5004              	.L1542:
 5005 11fe 4FF08073 		mov	r3, #16777216
 5006 1202 1BE0     		b	.L885
 5007              	.L1541:
 5008 1204 4FF48023 		mov	r3, #262144
 5009 1208 18E0     		b	.L885
 5010              	.L1540:
 5011 120a 4FF48023 		mov	r3, #262144
 5012 120e 15E0     		b	.L885
 5013              	.L1539:
 5014 1210 4FF48023 		mov	r3, #262144
ARM GAS  /tmp/ccAPlzty.s 			page 118


 5015 1214 12E0     		b	.L885
 5016              	.L1538:
 5017 1216 4FF48073 		mov	r3, #256
 5018 121a 0FE0     		b	.L885
 5019              	.L1537:
 5020 121c 4FF48073 		mov	r3, #256
 5021 1220 0CE0     		b	.L885
 5022              	.L1536:
 5023 1222 4FF48073 		mov	r3, #256
 5024 1226 09E0     		b	.L885
 5025              	.L1535:
 5026 1228 4FF48073 		mov	r3, #256
 5027 122c 06E0     		b	.L885
 5028              	.L1534:
 5029 122e 5A4B     		ldr	r3, .L1845+4
 5030 1230 04E0     		b	.L885
 5031              	.L1533:
 5032 1232 594B     		ldr	r3, .L1845+4
 5033 1234 02E0     		b	.L885
 5034              	.L1532:
 5035 1236 584B     		ldr	r3, .L1845+4
 5036 1238 00E0     		b	.L885
 5037              	.L1531:
 5038 123a 574B     		ldr	r3, .L1845+4
 5039              	.L885:
 524:../Drivers/STM32F4xx_HAL_Driver/Src/stm32f4xx_hal_dma.c ****       }
 5040              		.loc 1 524 0 discriminator 200
 5041 123c 574A     		ldr	r2, .L1845+8
 5042 123e 9360     		str	r3, [r2, #8]
 5043              	.L844:
 527:../Drivers/STM32F4xx_HAL_Driver/Src/stm32f4xx_hal_dma.c ****       
 5044              		.loc 1 527 0 is_stmt 1
 5045 1240 0423     		movs	r3, #4
 5046 1242 84F83530 		strb	r3, [r4, #53]
 530:../Drivers/STM32F4xx_HAL_Driver/Src/stm32f4xx_hal_dma.c **** 
 5047              		.loc 1 530 0
 5048 1246 0023     		movs	r3, #0
 5049 1248 84F83430 		strb	r3, [r4, #52]
 532:../Drivers/STM32F4xx_HAL_Driver/Src/stm32f4xx_hal_dma.c ****     }  
 5050              		.loc 1 532 0
 5051 124c 0120     		movs	r0, #1
 5052 124e BDE8F883 		pop	{r3, r4, r5, r6, r7, r8, r9, pc}
 5053              	.LVL58:
 5054              	.L737:
 535:../Drivers/STM32F4xx_HAL_Driver/Src/stm32f4xx_hal_dma.c ****     {
 5055              		.loc 1 535 0
 5056 1252 B6F1FF3F 		cmp	r6, #-1
 5057 1256 12D0     		beq	.L898
 537:../Drivers/STM32F4xx_HAL_Driver/Src/stm32f4xx_hal_dma.c ****       {
 5058              		.loc 1 537 0
 5059 1258 2EB1     		cbz	r6, .L899
 537:../Drivers/STM32F4xx_HAL_Driver/Src/stm32f4xx_hal_dma.c ****       {
 5060              		.loc 1 537 0 is_stmt 0 discriminator 1
 5061 125a FFF7FEFF 		bl	HAL_GetTick
 5062              	.LVL59:
 5063 125e C8EB0000 		rsb	r0, r8, r0
 5064 1262 B042     		cmp	r0, r6
ARM GAS  /tmp/ccAPlzty.s 			page 119


 5065 1264 0BD9     		bls	.L898
 5066              	.L899:
 540:../Drivers/STM32F4xx_HAL_Driver/Src/stm32f4xx_hal_dma.c **** 
 5067              		.loc 1 540 0 is_stmt 1
 5068 1266 E36C     		ldr	r3, [r4, #76]
 5069 1268 43F02003 		orr	r3, r3, #32
 5070 126c E364     		str	r3, [r4, #76]
 543:../Drivers/STM32F4xx_HAL_Driver/Src/stm32f4xx_hal_dma.c **** 
 5071              		.loc 1 543 0
 5072 126e 0320     		movs	r0, #3
 5073 1270 84F83500 		strb	r0, [r4, #53]
 546:../Drivers/STM32F4xx_HAL_Driver/Src/stm32f4xx_hal_dma.c ****         
 5074              		.loc 1 546 0
 5075 1274 0023     		movs	r3, #0
 5076 1276 84F83430 		strb	r3, [r4, #52]
 548:../Drivers/STM32F4xx_HAL_Driver/Src/stm32f4xx_hal_dma.c ****       }
 5077              		.loc 1 548 0
 5078 127a BDE8F883 		pop	{r3, r4, r5, r6, r7, r8, r9, pc}
 5079              	.LVL60:
 5080              	.L898:
 495:../Drivers/STM32F4xx_HAL_Driver/Src/stm32f4xx_hal_dma.c ****   {
 5081              		.loc 1 495 0
 5082 127e 2368     		ldr	r3, [r4]
 5083 1280 9E46     		mov	lr, r3
 5084 1282 484A     		ldr	r2, .L1845+16
 5085 1284 9342     		cmp	r3, r2
 5086 1286 06D9     		bls	.L900
 495:../Drivers/STM32F4xx_HAL_Driver/Src/stm32f4xx_hal_dma.c ****   {
 5087              		.loc 1 495 0 is_stmt 0 discriminator 1
 5088 1288 583A     		subs	r2, r2, #88
 5089 128a 5268     		ldr	r2, [r2, #4]
 5090 128c 2A42     		tst	r2, r5
 5091 128e 0CBF     		ite	eq
 5092 1290 0122     		moveq	r2, #1
 5093 1292 0022     		movne	r2, #0
 5094 1294 1AE0     		b	.L901
 5095              	.L900:
 495:../Drivers/STM32F4xx_HAL_Driver/Src/stm32f4xx_hal_dma.c ****   {
 5096              		.loc 1 495 0 discriminator 2
 5097 1296 444A     		ldr	r2, .L1845+20
 5098 1298 9342     		cmp	r3, r2
 5099 129a 07D9     		bls	.L902
 495:../Drivers/STM32F4xx_HAL_Driver/Src/stm32f4xx_hal_dma.c ****   {
 5100              		.loc 1 495 0 discriminator 4
 5101 129c 02F55272 		add	r2, r2, #840
 5102 12a0 1268     		ldr	r2, [r2]
 5103 12a2 2A42     		tst	r2, r5
 5104 12a4 0CBF     		ite	eq
 5105 12a6 0122     		moveq	r2, #1
 5106 12a8 0022     		movne	r2, #0
 5107 12aa 0FE0     		b	.L901
 5108              	.L902:
 495:../Drivers/STM32F4xx_HAL_Driver/Src/stm32f4xx_hal_dma.c ****   {
 5109              		.loc 1 495 0 discriminator 5
 5110 12ac 394A     		ldr	r2, .L1845
 5111 12ae 9342     		cmp	r3, r2
 5112 12b0 06D9     		bls	.L904
ARM GAS  /tmp/ccAPlzty.s 			page 120


 495:../Drivers/STM32F4xx_HAL_Driver/Src/stm32f4xx_hal_dma.c ****   {
 5113              		.loc 1 495 0 discriminator 7
 5114 12b2 583A     		subs	r2, r2, #88
 5115 12b4 5268     		ldr	r2, [r2, #4]
 5116 12b6 2A42     		tst	r2, r5
 5117 12b8 0CBF     		ite	eq
 5118 12ba 0122     		moveq	r2, #1
 5119 12bc 0022     		movne	r2, #0
 5120 12be 05E0     		b	.L901
 5121              	.L904:
 495:../Drivers/STM32F4xx_HAL_Driver/Src/stm32f4xx_hal_dma.c ****   {
 5122              		.loc 1 495 0 discriminator 8
 5123 12c0 364A     		ldr	r2, .L1845+8
 5124 12c2 1268     		ldr	r2, [r2]
 5125 12c4 2A42     		tst	r2, r5
 5126 12c6 0CBF     		ite	eq
 5127 12c8 0122     		moveq	r2, #1
 5128 12ca 0022     		movne	r2, #0
 5129              	.L901:
 495:../Drivers/STM32F4xx_HAL_Driver/Src/stm32f4xx_hal_dma.c ****   {
 5130              		.loc 1 495 0 discriminator 12
 5131 12cc 002A     		cmp	r2, #0
 5132 12ce 7EF448AF 		bne	.L906
 553:../Drivers/STM32F4xx_HAL_Driver/Src/stm32f4xx_hal_dma.c ****   {
 5133              		.loc 1 553 0 is_stmt 1
 5134 12d2 B9F1000F 		cmp	r9, #0
 5135 12d6 40F0B885 		bne	.L907
 556:../Drivers/STM32F4xx_HAL_Driver/Src/stm32f4xx_hal_dma.c ****     {
 5136              		.loc 1 556 0
 5137 12da 1B68     		ldr	r3, [r3]
 5138 12dc 13F4802F 		tst	r3, #262144
 5139 12e0 00F0DF82 		beq	.L908
 559:../Drivers/STM32F4xx_HAL_Driver/Src/stm32f4xx_hal_dma.c ****       /* Clear the transfer complete flag */
 5140              		.loc 1 559 0
 5141 12e4 2F4B     		ldr	r3, .L1845+16
 5142 12e6 9E45     		cmp	lr, r3
 5143 12e8 62D9     		bls	.L909
 559:../Drivers/STM32F4xx_HAL_Driver/Src/stm32f4xx_hal_dma.c ****       /* Clear the transfer complete flag */
 5144              		.loc 1 559 0 is_stmt 0 discriminator 1
 5145 12ea A3F58963 		sub	r3, r3, #1096
 5146 12ee 9E45     		cmp	lr, r3
 5147 12f0 4CD0     		beq	.L1543
 559:../Drivers/STM32F4xx_HAL_Driver/Src/stm32f4xx_hal_dma.c ****       /* Clear the transfer complete flag */
 5148              		.loc 1 559 0 discriminator 3
 5149 12f2 03F58063 		add	r3, r3, #1024
 5150 12f6 9E45     		cmp	lr, r3
 5151 12f8 46D0     		beq	.L1544
 559:../Drivers/STM32F4xx_HAL_Driver/Src/stm32f4xx_hal_dma.c ****       /* Clear the transfer complete flag */
 5152              		.loc 1 559 0 discriminator 5
 5153 12fa A3F56873 		sub	r3, r3, #928
 5154 12fe 9E45     		cmp	lr, r3
 5155 1300 40D0     		beq	.L1545
 559:../Drivers/STM32F4xx_HAL_Driver/Src/stm32f4xx_hal_dma.c ****       /* Clear the transfer complete flag */
 5156              		.loc 1 559 0 discriminator 7
 5157 1302 03F58063 		add	r3, r3, #1024
 5158 1306 9E45     		cmp	lr, r3
 5159 1308 3AD0     		beq	.L1546
ARM GAS  /tmp/ccAPlzty.s 			page 121


 559:../Drivers/STM32F4xx_HAL_Driver/Src/stm32f4xx_hal_dma.c ****       /* Clear the transfer complete flag */
 5160              		.loc 1 559 0 discriminator 9
 5161 130a A3F58963 		sub	r3, r3, #1096
 5162 130e 9E45     		cmp	lr, r3
 5163 1310 33D0     		beq	.L1547
 559:../Drivers/STM32F4xx_HAL_Driver/Src/stm32f4xx_hal_dma.c ****       /* Clear the transfer complete flag */
 5164              		.loc 1 559 0 discriminator 11
 5165 1312 03F58063 		add	r3, r3, #1024
 5166 1316 9E45     		cmp	lr, r3
 5167 1318 2CD0     		beq	.L1548
 559:../Drivers/STM32F4xx_HAL_Driver/Src/stm32f4xx_hal_dma.c ****       /* Clear the transfer complete flag */
 5168              		.loc 1 559 0 discriminator 13
 5169 131a A3F56873 		sub	r3, r3, #928
 5170 131e 9E45     		cmp	lr, r3
 5171 1320 25D0     		beq	.L1549
 559:../Drivers/STM32F4xx_HAL_Driver/Src/stm32f4xx_hal_dma.c ****       /* Clear the transfer complete flag */
 5172              		.loc 1 559 0 discriminator 15
 5173 1322 03F58063 		add	r3, r3, #1024
 5174 1326 9E45     		cmp	lr, r3
 5175 1328 1ED0     		beq	.L1550
 559:../Drivers/STM32F4xx_HAL_Driver/Src/stm32f4xx_hal_dma.c ****       /* Clear the transfer complete flag */
 5176              		.loc 1 559 0 discriminator 17
 5177 132a A3F58963 		sub	r3, r3, #1096
 5178 132e 9E45     		cmp	lr, r3
 5179 1330 17D0     		beq	.L1551
 559:../Drivers/STM32F4xx_HAL_Driver/Src/stm32f4xx_hal_dma.c ****       /* Clear the transfer complete flag */
 5180              		.loc 1 559 0 discriminator 19
 5181 1332 03F58063 		add	r3, r3, #1024
 5182 1336 9E45     		cmp	lr, r3
 5183 1338 10D0     		beq	.L1552
 559:../Drivers/STM32F4xx_HAL_Driver/Src/stm32f4xx_hal_dma.c ****       /* Clear the transfer complete flag */
 5184              		.loc 1 559 0 discriminator 21
 5185 133a A3F56873 		sub	r3, r3, #928
 5186 133e 9E45     		cmp	lr, r3
 5187 1340 09D0     		beq	.L1553
 559:../Drivers/STM32F4xx_HAL_Driver/Src/stm32f4xx_hal_dma.c ****       /* Clear the transfer complete flag */
 5188              		.loc 1 559 0 discriminator 23
 5189 1342 03F58063 		add	r3, r3, #1024
 5190 1346 9E45     		cmp	lr, r3
 5191 1348 02D1     		bne	.L1554
 559:../Drivers/STM32F4xx_HAL_Driver/Src/stm32f4xx_hal_dma.c ****       /* Clear the transfer complete flag */
 5192              		.loc 1 559 0
 5193 134a 4FF48013 		mov	r3, #1048576
 5194 134e 1EE0     		b	.L910
 5195              	.L1554:
 5196 1350 4FF08063 		mov	r3, #67108864
 5197 1354 1BE0     		b	.L910
 5198              	.L1553:
 5199 1356 4FF48013 		mov	r3, #1048576
 5200 135a 18E0     		b	.L910
 5201              	.L1552:
 5202 135c 4FF48013 		mov	r3, #1048576
 5203 1360 15E0     		b	.L910
 5204              	.L1551:
 5205 1362 4FF48013 		mov	r3, #1048576
 5206 1366 12E0     		b	.L910
 5207              	.L1550:
ARM GAS  /tmp/ccAPlzty.s 			page 122


 5208 1368 4FF48063 		mov	r3, #1024
 5209 136c 0FE0     		b	.L910
 5210              	.L1549:
 5211 136e 4FF48063 		mov	r3, #1024
 5212 1372 0CE0     		b	.L910
 5213              	.L1548:
 5214 1374 4FF48063 		mov	r3, #1024
 5215 1378 09E0     		b	.L910
 5216              	.L1547:
 5217 137a 4FF48063 		mov	r3, #1024
 5218 137e 06E0     		b	.L910
 5219              	.L1546:
 5220 1380 1023     		movs	r3, #16
 5221 1382 04E0     		b	.L910
 5222              	.L1545:
 5223 1384 1023     		movs	r3, #16
 5224 1386 02E0     		b	.L910
 5225              	.L1544:
 5226 1388 1023     		movs	r3, #16
 5227 138a 00E0     		b	.L910
 5228              	.L1543:
 5229 138c 1023     		movs	r3, #16
 5230              	.L910:
 559:../Drivers/STM32F4xx_HAL_Driver/Src/stm32f4xx_hal_dma.c ****       /* Clear the transfer complete flag */
 5231              		.loc 1 559 0 discriminator 50
 5232 138e 074A     		ldr	r2, .L1845+24
 5233 1390 D360     		str	r3, [r2, #12]
 5234 1392 0EE1     		b	.L922
 5235              	.L1846:
 5236              		.align	2
 5237              	.L1845:
 5238 1394 58600240 		.word	1073897560
 5239 1398 04008000 		.word	8388612
 5240 139c 00600240 		.word	1073897472
 5241 13a0 10600240 		.word	1073897488
 5242 13a4 58640240 		.word	1073898584
 5243 13a8 B8600240 		.word	1073897656
 5244 13ac 00640240 		.word	1073898496
 5245              	.L909:
 559:../Drivers/STM32F4xx_HAL_Driver/Src/stm32f4xx_hal_dma.c ****       /* Clear the transfer complete flag */
 5246              		.loc 1 559 0 discriminator 2
 5247 13b0 AC4B     		ldr	r3, .L1847
 5248 13b2 9E45     		cmp	lr, r3
 5249 13b4 53D9     		bls	.L923
 559:../Drivers/STM32F4xx_HAL_Driver/Src/stm32f4xx_hal_dma.c ****       /* Clear the transfer complete flag */
 5250              		.loc 1 559 0 discriminator 51
 5251 13b6 A83B     		subs	r3, r3, #168
 5252 13b8 9E45     		cmp	lr, r3
 5253 13ba 4CD0     		beq	.L1555
 559:../Drivers/STM32F4xx_HAL_Driver/Src/stm32f4xx_hal_dma.c ****       /* Clear the transfer complete flag */
 5254              		.loc 1 559 0 discriminator 53
 5255 13bc 03F58063 		add	r3, r3, #1024
 5256 13c0 9E45     		cmp	lr, r3
 5257 13c2 46D0     		beq	.L1556
 559:../Drivers/STM32F4xx_HAL_Driver/Src/stm32f4xx_hal_dma.c ****       /* Clear the transfer complete flag */
 5258              		.loc 1 559 0 discriminator 55
 5259 13c4 A3F56873 		sub	r3, r3, #928
ARM GAS  /tmp/ccAPlzty.s 			page 123


 5260 13c8 9E45     		cmp	lr, r3
 5261 13ca 40D0     		beq	.L1557
 559:../Drivers/STM32F4xx_HAL_Driver/Src/stm32f4xx_hal_dma.c ****       /* Clear the transfer complete flag */
 5262              		.loc 1 559 0 discriminator 57
 5263 13cc 03F58063 		add	r3, r3, #1024
 5264 13d0 9E45     		cmp	lr, r3
 5265 13d2 3AD0     		beq	.L1558
 559:../Drivers/STM32F4xx_HAL_Driver/Src/stm32f4xx_hal_dma.c ****       /* Clear the transfer complete flag */
 5266              		.loc 1 559 0 discriminator 59
 5267 13d4 A3F58963 		sub	r3, r3, #1096
 5268 13d8 9E45     		cmp	lr, r3
 5269 13da 33D0     		beq	.L1559
 559:../Drivers/STM32F4xx_HAL_Driver/Src/stm32f4xx_hal_dma.c ****       /* Clear the transfer complete flag */
 5270              		.loc 1 559 0 discriminator 61
 5271 13dc 03F58063 		add	r3, r3, #1024
 5272 13e0 9E45     		cmp	lr, r3
 5273 13e2 2CD0     		beq	.L1560
 559:../Drivers/STM32F4xx_HAL_Driver/Src/stm32f4xx_hal_dma.c ****       /* Clear the transfer complete flag */
 5274              		.loc 1 559 0 discriminator 63
 5275 13e4 A3F56873 		sub	r3, r3, #928
 5276 13e8 9E45     		cmp	lr, r3
 5277 13ea 25D0     		beq	.L1561
 559:../Drivers/STM32F4xx_HAL_Driver/Src/stm32f4xx_hal_dma.c ****       /* Clear the transfer complete flag */
 5278              		.loc 1 559 0 discriminator 65
 5279 13ec 03F58063 		add	r3, r3, #1024
 5280 13f0 9E45     		cmp	lr, r3
 5281 13f2 1ED0     		beq	.L1562
 559:../Drivers/STM32F4xx_HAL_Driver/Src/stm32f4xx_hal_dma.c ****       /* Clear the transfer complete flag */
 5282              		.loc 1 559 0 discriminator 67
 5283 13f4 A3F58963 		sub	r3, r3, #1096
 5284 13f8 9E45     		cmp	lr, r3
 5285 13fa 17D0     		beq	.L1563
 559:../Drivers/STM32F4xx_HAL_Driver/Src/stm32f4xx_hal_dma.c ****       /* Clear the transfer complete flag */
 5286              		.loc 1 559 0 discriminator 69
 5287 13fc 03F58063 		add	r3, r3, #1024
 5288 1400 9E45     		cmp	lr, r3
 5289 1402 10D0     		beq	.L1564
 559:../Drivers/STM32F4xx_HAL_Driver/Src/stm32f4xx_hal_dma.c ****       /* Clear the transfer complete flag */
 5290              		.loc 1 559 0 discriminator 71
 5291 1404 A3F56873 		sub	r3, r3, #928
 5292 1408 9E45     		cmp	lr, r3
 5293 140a 09D0     		beq	.L1565
 559:../Drivers/STM32F4xx_HAL_Driver/Src/stm32f4xx_hal_dma.c ****       /* Clear the transfer complete flag */
 5294              		.loc 1 559 0 discriminator 73
 5295 140c 03F58063 		add	r3, r3, #1024
 5296 1410 9E45     		cmp	lr, r3
 5297 1412 02D1     		bne	.L1566
 559:../Drivers/STM32F4xx_HAL_Driver/Src/stm32f4xx_hal_dma.c ****       /* Clear the transfer complete flag */
 5298              		.loc 1 559 0
 5299 1414 4FF48013 		mov	r3, #1048576
 5300 1418 1EE0     		b	.L924
 5301              	.L1566:
 5302 141a 4FF08063 		mov	r3, #67108864
 5303 141e 1BE0     		b	.L924
 5304              	.L1565:
 5305 1420 4FF48013 		mov	r3, #1048576
 5306 1424 18E0     		b	.L924
ARM GAS  /tmp/ccAPlzty.s 			page 124


 5307              	.L1564:
 5308 1426 4FF48013 		mov	r3, #1048576
 5309 142a 15E0     		b	.L924
 5310              	.L1563:
 5311 142c 4FF48013 		mov	r3, #1048576
 5312 1430 12E0     		b	.L924
 5313              	.L1562:
 5314 1432 4FF48063 		mov	r3, #1024
 5315 1436 0FE0     		b	.L924
 5316              	.L1561:
 5317 1438 4FF48063 		mov	r3, #1024
 5318 143c 0CE0     		b	.L924
 5319              	.L1560:
 5320 143e 4FF48063 		mov	r3, #1024
 5321 1442 09E0     		b	.L924
 5322              	.L1559:
 5323 1444 4FF48063 		mov	r3, #1024
 5324 1448 06E0     		b	.L924
 5325              	.L1558:
 5326 144a 1023     		movs	r3, #16
 5327 144c 04E0     		b	.L924
 5328              	.L1557:
 5329 144e 1023     		movs	r3, #16
 5330 1450 02E0     		b	.L924
 5331              	.L1556:
 5332 1452 1023     		movs	r3, #16
 5333 1454 00E0     		b	.L924
 5334              	.L1555:
 5335 1456 1023     		movs	r3, #16
 5336              	.L924:
 559:../Drivers/STM32F4xx_HAL_Driver/Src/stm32f4xx_hal_dma.c ****       /* Clear the transfer complete flag */
 5337              		.loc 1 559 0 discriminator 100
 5338 1458 834A     		ldr	r2, .L1847+4
 5339 145a 9360     		str	r3, [r2, #8]
 5340 145c A9E0     		b	.L922
 5341              	.L923:
 559:../Drivers/STM32F4xx_HAL_Driver/Src/stm32f4xx_hal_dma.c ****       /* Clear the transfer complete flag */
 5342              		.loc 1 559 0 discriminator 52
 5343 145e 834B     		ldr	r3, .L1847+8
 5344 1460 9E45     		cmp	lr, r3
 5345 1462 53D9     		bls	.L936
 559:../Drivers/STM32F4xx_HAL_Driver/Src/stm32f4xx_hal_dma.c ****       /* Clear the transfer complete flag */
 5346              		.loc 1 559 0 discriminator 102
 5347 1464 483B     		subs	r3, r3, #72
 5348 1466 9E45     		cmp	lr, r3
 5349 1468 4CD0     		beq	.L1567
 559:../Drivers/STM32F4xx_HAL_Driver/Src/stm32f4xx_hal_dma.c ****       /* Clear the transfer complete flag */
 5350              		.loc 1 559 0 discriminator 104
 5351 146a 03F58063 		add	r3, r3, #1024
 5352 146e 9E45     		cmp	lr, r3
 5353 1470 46D0     		beq	.L1568
 559:../Drivers/STM32F4xx_HAL_Driver/Src/stm32f4xx_hal_dma.c ****       /* Clear the transfer complete flag */
 5354              		.loc 1 559 0 discriminator 106
 5355 1472 A3F56873 		sub	r3, r3, #928
 5356 1476 9E45     		cmp	lr, r3
 5357 1478 40D0     		beq	.L1569
 559:../Drivers/STM32F4xx_HAL_Driver/Src/stm32f4xx_hal_dma.c ****       /* Clear the transfer complete flag */
ARM GAS  /tmp/ccAPlzty.s 			page 125


 5358              		.loc 1 559 0 discriminator 108
 5359 147a 03F58063 		add	r3, r3, #1024
 5360 147e 9E45     		cmp	lr, r3
 5361 1480 3AD0     		beq	.L1570
 559:../Drivers/STM32F4xx_HAL_Driver/Src/stm32f4xx_hal_dma.c ****       /* Clear the transfer complete flag */
 5362              		.loc 1 559 0 discriminator 110
 5363 1482 A3F58963 		sub	r3, r3, #1096
 5364 1486 9E45     		cmp	lr, r3
 5365 1488 33D0     		beq	.L1571
 559:../Drivers/STM32F4xx_HAL_Driver/Src/stm32f4xx_hal_dma.c ****       /* Clear the transfer complete flag */
 5366              		.loc 1 559 0 discriminator 112
 5367 148a 03F58063 		add	r3, r3, #1024
 5368 148e 9E45     		cmp	lr, r3
 5369 1490 2CD0     		beq	.L1572
 559:../Drivers/STM32F4xx_HAL_Driver/Src/stm32f4xx_hal_dma.c ****       /* Clear the transfer complete flag */
 5370              		.loc 1 559 0 discriminator 114
 5371 1492 A3F56873 		sub	r3, r3, #928
 5372 1496 9E45     		cmp	lr, r3
 5373 1498 25D0     		beq	.L1573
 559:../Drivers/STM32F4xx_HAL_Driver/Src/stm32f4xx_hal_dma.c ****       /* Clear the transfer complete flag */
 5374              		.loc 1 559 0 discriminator 116
 5375 149a 03F58063 		add	r3, r3, #1024
 5376 149e 9E45     		cmp	lr, r3
 5377 14a0 1ED0     		beq	.L1574
 559:../Drivers/STM32F4xx_HAL_Driver/Src/stm32f4xx_hal_dma.c ****       /* Clear the transfer complete flag */
 5378              		.loc 1 559 0 discriminator 118
 5379 14a2 A3F58963 		sub	r3, r3, #1096
 5380 14a6 9E45     		cmp	lr, r3
 5381 14a8 17D0     		beq	.L1575
 559:../Drivers/STM32F4xx_HAL_Driver/Src/stm32f4xx_hal_dma.c ****       /* Clear the transfer complete flag */
 5382              		.loc 1 559 0 discriminator 120
 5383 14aa 03F58063 		add	r3, r3, #1024
 5384 14ae 9E45     		cmp	lr, r3
 5385 14b0 10D0     		beq	.L1576
 559:../Drivers/STM32F4xx_HAL_Driver/Src/stm32f4xx_hal_dma.c ****       /* Clear the transfer complete flag */
 5386              		.loc 1 559 0 discriminator 122
 5387 14b2 A3F56873 		sub	r3, r3, #928
 5388 14b6 9E45     		cmp	lr, r3
 5389 14b8 09D0     		beq	.L1577
 559:../Drivers/STM32F4xx_HAL_Driver/Src/stm32f4xx_hal_dma.c ****       /* Clear the transfer complete flag */
 5390              		.loc 1 559 0 discriminator 124
 5391 14ba 03F58063 		add	r3, r3, #1024
 5392 14be 9E45     		cmp	lr, r3
 5393 14c0 02D1     		bne	.L1578
 559:../Drivers/STM32F4xx_HAL_Driver/Src/stm32f4xx_hal_dma.c ****       /* Clear the transfer complete flag */
 5394              		.loc 1 559 0
 5395 14c2 4FF48013 		mov	r3, #1048576
 5396 14c6 1EE0     		b	.L937
 5397              	.L1578:
 5398 14c8 4FF08063 		mov	r3, #67108864
 5399 14cc 1BE0     		b	.L937
 5400              	.L1577:
 5401 14ce 4FF48013 		mov	r3, #1048576
 5402 14d2 18E0     		b	.L937
 5403              	.L1576:
 5404 14d4 4FF48013 		mov	r3, #1048576
 5405 14d8 15E0     		b	.L937
ARM GAS  /tmp/ccAPlzty.s 			page 126


 5406              	.L1575:
 5407 14da 4FF48013 		mov	r3, #1048576
 5408 14de 12E0     		b	.L937
 5409              	.L1574:
 5410 14e0 4FF48063 		mov	r3, #1024
 5411 14e4 0FE0     		b	.L937
 5412              	.L1573:
 5413 14e6 4FF48063 		mov	r3, #1024
 5414 14ea 0CE0     		b	.L937
 5415              	.L1572:
 5416 14ec 4FF48063 		mov	r3, #1024
 5417 14f0 09E0     		b	.L937
 5418              	.L1571:
 5419 14f2 4FF48063 		mov	r3, #1024
 5420 14f6 06E0     		b	.L937
 5421              	.L1570:
 5422 14f8 1023     		movs	r3, #16
 5423 14fa 04E0     		b	.L937
 5424              	.L1569:
 5425 14fc 1023     		movs	r3, #16
 5426 14fe 02E0     		b	.L937
 5427              	.L1568:
 5428 1500 1023     		movs	r3, #16
 5429 1502 00E0     		b	.L937
 5430              	.L1567:
 5431 1504 1023     		movs	r3, #16
 5432              	.L937:
 559:../Drivers/STM32F4xx_HAL_Driver/Src/stm32f4xx_hal_dma.c ****       /* Clear the transfer complete flag */
 5433              		.loc 1 559 0 discriminator 151
 5434 1506 5A4A     		ldr	r2, .L1847+12
 5435 1508 D360     		str	r3, [r2, #12]
 5436 150a 52E0     		b	.L922
 5437              	.L936:
 559:../Drivers/STM32F4xx_HAL_Driver/Src/stm32f4xx_hal_dma.c ****       /* Clear the transfer complete flag */
 5438              		.loc 1 559 0 discriminator 103
 5439 150c 594B     		ldr	r3, .L1847+16
 5440 150e 9E45     		cmp	lr, r3
 5441 1510 4CD0     		beq	.L1579
 559:../Drivers/STM32F4xx_HAL_Driver/Src/stm32f4xx_hal_dma.c ****       /* Clear the transfer complete flag */
 5442              		.loc 1 559 0 discriminator 153
 5443 1512 03F58063 		add	r3, r3, #1024
 5444 1516 9E45     		cmp	lr, r3
 5445 1518 46D0     		beq	.L1580
 559:../Drivers/STM32F4xx_HAL_Driver/Src/stm32f4xx_hal_dma.c ****       /* Clear the transfer complete flag */
 5446              		.loc 1 559 0 discriminator 155
 5447 151a A3F56873 		sub	r3, r3, #928
 5448 151e 9E45     		cmp	lr, r3
 5449 1520 40D0     		beq	.L1581
 559:../Drivers/STM32F4xx_HAL_Driver/Src/stm32f4xx_hal_dma.c ****       /* Clear the transfer complete flag */
 5450              		.loc 1 559 0 discriminator 157
 5451 1522 03F58063 		add	r3, r3, #1024
 5452 1526 9E45     		cmp	lr, r3
 5453 1528 3AD0     		beq	.L1582
 559:../Drivers/STM32F4xx_HAL_Driver/Src/stm32f4xx_hal_dma.c ****       /* Clear the transfer complete flag */
 5454              		.loc 1 559 0 discriminator 159
 5455 152a A3F58963 		sub	r3, r3, #1096
 5456 152e 9E45     		cmp	lr, r3
ARM GAS  /tmp/ccAPlzty.s 			page 127


 5457 1530 33D0     		beq	.L1583
 559:../Drivers/STM32F4xx_HAL_Driver/Src/stm32f4xx_hal_dma.c ****       /* Clear the transfer complete flag */
 5458              		.loc 1 559 0 discriminator 161
 5459 1532 03F58063 		add	r3, r3, #1024
 5460 1536 9E45     		cmp	lr, r3
 5461 1538 2CD0     		beq	.L1584
 559:../Drivers/STM32F4xx_HAL_Driver/Src/stm32f4xx_hal_dma.c ****       /* Clear the transfer complete flag */
 5462              		.loc 1 559 0 discriminator 163
 5463 153a A3F56873 		sub	r3, r3, #928
 5464 153e 9E45     		cmp	lr, r3
 5465 1540 25D0     		beq	.L1585
 559:../Drivers/STM32F4xx_HAL_Driver/Src/stm32f4xx_hal_dma.c ****       /* Clear the transfer complete flag */
 5466              		.loc 1 559 0 discriminator 165
 5467 1542 03F58063 		add	r3, r3, #1024
 5468 1546 9E45     		cmp	lr, r3
 5469 1548 1ED0     		beq	.L1586
 559:../Drivers/STM32F4xx_HAL_Driver/Src/stm32f4xx_hal_dma.c ****       /* Clear the transfer complete flag */
 5470              		.loc 1 559 0 discriminator 167
 5471 154a A3F58963 		sub	r3, r3, #1096
 5472 154e 9E45     		cmp	lr, r3
 5473 1550 17D0     		beq	.L1587
 559:../Drivers/STM32F4xx_HAL_Driver/Src/stm32f4xx_hal_dma.c ****       /* Clear the transfer complete flag */
 5474              		.loc 1 559 0 discriminator 169
 5475 1552 03F58063 		add	r3, r3, #1024
 5476 1556 9E45     		cmp	lr, r3
 5477 1558 10D0     		beq	.L1588
 559:../Drivers/STM32F4xx_HAL_Driver/Src/stm32f4xx_hal_dma.c ****       /* Clear the transfer complete flag */
 5478              		.loc 1 559 0 discriminator 171
 5479 155a A3F56873 		sub	r3, r3, #928
 5480 155e 9E45     		cmp	lr, r3
 5481 1560 09D0     		beq	.L1589
 559:../Drivers/STM32F4xx_HAL_Driver/Src/stm32f4xx_hal_dma.c ****       /* Clear the transfer complete flag */
 5482              		.loc 1 559 0 discriminator 173
 5483 1562 03F58063 		add	r3, r3, #1024
 5484 1566 9E45     		cmp	lr, r3
 5485 1568 02D1     		bne	.L1590
 559:../Drivers/STM32F4xx_HAL_Driver/Src/stm32f4xx_hal_dma.c ****       /* Clear the transfer complete flag */
 5486              		.loc 1 559 0
 5487 156a 4FF48013 		mov	r3, #1048576
 5488 156e 1EE0     		b	.L950
 5489              	.L1590:
 5490 1570 4FF08063 		mov	r3, #67108864
 5491 1574 1BE0     		b	.L950
 5492              	.L1589:
 5493 1576 4FF48013 		mov	r3, #1048576
 5494 157a 18E0     		b	.L950
 5495              	.L1588:
 5496 157c 4FF48013 		mov	r3, #1048576
 5497 1580 15E0     		b	.L950
 5498              	.L1587:
 5499 1582 4FF48013 		mov	r3, #1048576
 5500 1586 12E0     		b	.L950
 5501              	.L1586:
 5502 1588 4FF48063 		mov	r3, #1024
 5503 158c 0FE0     		b	.L950
 5504              	.L1585:
 5505 158e 4FF48063 		mov	r3, #1024
ARM GAS  /tmp/ccAPlzty.s 			page 128


 5506 1592 0CE0     		b	.L950
 5507              	.L1584:
 5508 1594 4FF48063 		mov	r3, #1024
 5509 1598 09E0     		b	.L950
 5510              	.L1583:
 5511 159a 4FF48063 		mov	r3, #1024
 5512 159e 06E0     		b	.L950
 5513              	.L1582:
 5514 15a0 1023     		movs	r3, #16
 5515 15a2 04E0     		b	.L950
 5516              	.L1581:
 5517 15a4 1023     		movs	r3, #16
 5518 15a6 02E0     		b	.L950
 5519              	.L1580:
 5520 15a8 1023     		movs	r3, #16
 5521 15aa 00E0     		b	.L950
 5522              	.L1579:
 5523 15ac 1023     		movs	r3, #16
 5524              	.L950:
 559:../Drivers/STM32F4xx_HAL_Driver/Src/stm32f4xx_hal_dma.c ****       /* Clear the transfer complete flag */
 5525              		.loc 1 559 0 discriminator 200
 5526 15ae 304A     		ldr	r2, .L1847+12
 5527 15b0 9360     		str	r3, [r2, #8]
 5528              	.L922:
 561:../Drivers/STM32F4xx_HAL_Driver/Src/stm32f4xx_hal_dma.c **** 
 5529              		.loc 1 561 0 is_stmt 1
 5530 15b2 2368     		ldr	r3, [r4]
 5531 15b4 304A     		ldr	r2, .L1847+20
 5532 15b6 9342     		cmp	r3, r2
 5533 15b8 60D9     		bls	.L962
 561:../Drivers/STM32F4xx_HAL_Driver/Src/stm32f4xx_hal_dma.c **** 
 5534              		.loc 1 561 0 is_stmt 0 discriminator 1
 5535 15ba A2F58962 		sub	r2, r2, #1096
 5536 15be 9342     		cmp	r3, r2
 5537 15c0 4CD0     		beq	.L1591
 561:../Drivers/STM32F4xx_HAL_Driver/Src/stm32f4xx_hal_dma.c **** 
 5538              		.loc 1 561 0 discriminator 3
 5539 15c2 02F58062 		add	r2, r2, #1024
 5540 15c6 9342     		cmp	r3, r2
 5541 15c8 46D0     		beq	.L1592
 561:../Drivers/STM32F4xx_HAL_Driver/Src/stm32f4xx_hal_dma.c **** 
 5542              		.loc 1 561 0 discriminator 5
 5543 15ca A2F56872 		sub	r2, r2, #928
 5544 15ce 9342     		cmp	r3, r2
 5545 15d0 40D0     		beq	.L1593
 561:../Drivers/STM32F4xx_HAL_Driver/Src/stm32f4xx_hal_dma.c **** 
 5546              		.loc 1 561 0 discriminator 7
 5547 15d2 02F58062 		add	r2, r2, #1024
 5548 15d6 9342     		cmp	r3, r2
 5549 15d8 3AD0     		beq	.L1594
 561:../Drivers/STM32F4xx_HAL_Driver/Src/stm32f4xx_hal_dma.c **** 
 5550              		.loc 1 561 0 discriminator 9
 5551 15da A2F58962 		sub	r2, r2, #1096
 5552 15de 9342     		cmp	r3, r2
 5553 15e0 33D0     		beq	.L1595
 561:../Drivers/STM32F4xx_HAL_Driver/Src/stm32f4xx_hal_dma.c **** 
 5554              		.loc 1 561 0 discriminator 11
ARM GAS  /tmp/ccAPlzty.s 			page 129


 5555 15e2 02F58062 		add	r2, r2, #1024
 5556 15e6 9342     		cmp	r3, r2
 5557 15e8 2CD0     		beq	.L1596
 561:../Drivers/STM32F4xx_HAL_Driver/Src/stm32f4xx_hal_dma.c **** 
 5558              		.loc 1 561 0 discriminator 13
 5559 15ea A2F56872 		sub	r2, r2, #928
 5560 15ee 9342     		cmp	r3, r2
 5561 15f0 25D0     		beq	.L1597
 561:../Drivers/STM32F4xx_HAL_Driver/Src/stm32f4xx_hal_dma.c **** 
 5562              		.loc 1 561 0 discriminator 15
 5563 15f2 02F58062 		add	r2, r2, #1024
 5564 15f6 9342     		cmp	r3, r2
 5565 15f8 1ED0     		beq	.L1598
 561:../Drivers/STM32F4xx_HAL_Driver/Src/stm32f4xx_hal_dma.c **** 
 5566              		.loc 1 561 0 discriminator 17
 5567 15fa A2F58962 		sub	r2, r2, #1096
 5568 15fe 9342     		cmp	r3, r2
 5569 1600 17D0     		beq	.L1599
 561:../Drivers/STM32F4xx_HAL_Driver/Src/stm32f4xx_hal_dma.c **** 
 5570              		.loc 1 561 0 discriminator 19
 5571 1602 02F58062 		add	r2, r2, #1024
 5572 1606 9342     		cmp	r3, r2
 5573 1608 10D0     		beq	.L1600
 561:../Drivers/STM32F4xx_HAL_Driver/Src/stm32f4xx_hal_dma.c **** 
 5574              		.loc 1 561 0 discriminator 21
 5575 160a A2F56872 		sub	r2, r2, #928
 5576 160e 9342     		cmp	r3, r2
 5577 1610 09D0     		beq	.L1601
 561:../Drivers/STM32F4xx_HAL_Driver/Src/stm32f4xx_hal_dma.c **** 
 5578              		.loc 1 561 0 discriminator 23
 5579 1612 02F58062 		add	r2, r2, #1024
 5580 1616 9342     		cmp	r3, r2
 5581 1618 02D1     		bne	.L1602
 561:../Drivers/STM32F4xx_HAL_Driver/Src/stm32f4xx_hal_dma.c **** 
 5582              		.loc 1 561 0
 5583 161a 4FF40013 		mov	r3, #2097152
 5584 161e 1EE0     		b	.L963
 5585              	.L1602:
 5586 1620 4FF00063 		mov	r3, #134217728
 5587 1624 1BE0     		b	.L963
 5588              	.L1601:
 5589 1626 4FF40013 		mov	r3, #2097152
 5590 162a 18E0     		b	.L963
 5591              	.L1600:
 5592 162c 4FF40013 		mov	r3, #2097152
 5593 1630 15E0     		b	.L963
 5594              	.L1599:
 5595 1632 4FF40013 		mov	r3, #2097152
 5596 1636 12E0     		b	.L963
 5597              	.L1598:
 5598 1638 4FF40063 		mov	r3, #2048
 5599 163c 0FE0     		b	.L963
 5600              	.L1597:
 5601 163e 4FF40063 		mov	r3, #2048
 5602 1642 0CE0     		b	.L963
 5603              	.L1596:
 5604 1644 4FF40063 		mov	r3, #2048
ARM GAS  /tmp/ccAPlzty.s 			page 130


 5605 1648 09E0     		b	.L963
 5606              	.L1595:
 5607 164a 4FF40063 		mov	r3, #2048
 5608 164e 06E0     		b	.L963
 5609              	.L1594:
 5610 1650 2023     		movs	r3, #32
 5611 1652 04E0     		b	.L963
 5612              	.L1593:
 5613 1654 2023     		movs	r3, #32
 5614 1656 02E0     		b	.L963
 5615              	.L1592:
 5616 1658 2023     		movs	r3, #32
 5617 165a 00E0     		b	.L963
 5618              	.L1591:
 5619 165c 2023     		movs	r3, #32
 5620              	.L963:
 561:../Drivers/STM32F4xx_HAL_Driver/Src/stm32f4xx_hal_dma.c **** 
 5621              		.loc 1 561 0 discriminator 50
 5622 165e 024A     		ldr	r2, .L1847+4
 5623 1660 D360     		str	r3, [r2, #12]
 5624 1662 0CE1     		b	.L975
 5625              	.L1848:
 5626              		.align	2
 5627              	.L1847:
 5628 1664 B8600240 		.word	1073897656
 5629 1668 00640240 		.word	1073898496
 5630 166c 58600240 		.word	1073897560
 5631 1670 00600240 		.word	1073897472
 5632 1674 10600240 		.word	1073897488
 5633 1678 58640240 		.word	1073898584
 5634              	.L962:
 561:../Drivers/STM32F4xx_HAL_Driver/Src/stm32f4xx_hal_dma.c **** 
 5635              		.loc 1 561 0 discriminator 2
 5636 167c B54A     		ldr	r2, .L1849
 5637 167e 9342     		cmp	r3, r2
 5638 1680 53D9     		bls	.L976
 561:../Drivers/STM32F4xx_HAL_Driver/Src/stm32f4xx_hal_dma.c **** 
 5639              		.loc 1 561 0 discriminator 51
 5640 1682 A83A     		subs	r2, r2, #168
 5641 1684 9342     		cmp	r3, r2
 5642 1686 4CD0     		beq	.L1603
 561:../Drivers/STM32F4xx_HAL_Driver/Src/stm32f4xx_hal_dma.c **** 
 5643              		.loc 1 561 0 discriminator 53
 5644 1688 02F58062 		add	r2, r2, #1024
 5645 168c 9342     		cmp	r3, r2
 5646 168e 46D0     		beq	.L1604
 561:../Drivers/STM32F4xx_HAL_Driver/Src/stm32f4xx_hal_dma.c **** 
 5647              		.loc 1 561 0 discriminator 55
 5648 1690 A2F56872 		sub	r2, r2, #928
 5649 1694 9342     		cmp	r3, r2
 5650 1696 40D0     		beq	.L1605
 561:../Drivers/STM32F4xx_HAL_Driver/Src/stm32f4xx_hal_dma.c **** 
 5651              		.loc 1 561 0 discriminator 57
 5652 1698 02F58062 		add	r2, r2, #1024
 5653 169c 9342     		cmp	r3, r2
 5654 169e 3AD0     		beq	.L1606
 561:../Drivers/STM32F4xx_HAL_Driver/Src/stm32f4xx_hal_dma.c **** 
ARM GAS  /tmp/ccAPlzty.s 			page 131


 5655              		.loc 1 561 0 discriminator 59
 5656 16a0 A2F58962 		sub	r2, r2, #1096
 5657 16a4 9342     		cmp	r3, r2
 5658 16a6 33D0     		beq	.L1607
 561:../Drivers/STM32F4xx_HAL_Driver/Src/stm32f4xx_hal_dma.c **** 
 5659              		.loc 1 561 0 discriminator 61
 5660 16a8 02F58062 		add	r2, r2, #1024
 5661 16ac 9342     		cmp	r3, r2
 5662 16ae 2CD0     		beq	.L1608
 561:../Drivers/STM32F4xx_HAL_Driver/Src/stm32f4xx_hal_dma.c **** 
 5663              		.loc 1 561 0 discriminator 63
 5664 16b0 A2F56872 		sub	r2, r2, #928
 5665 16b4 9342     		cmp	r3, r2
 5666 16b6 25D0     		beq	.L1609
 561:../Drivers/STM32F4xx_HAL_Driver/Src/stm32f4xx_hal_dma.c **** 
 5667              		.loc 1 561 0 discriminator 65
 5668 16b8 02F58062 		add	r2, r2, #1024
 5669 16bc 9342     		cmp	r3, r2
 5670 16be 1ED0     		beq	.L1610
 561:../Drivers/STM32F4xx_HAL_Driver/Src/stm32f4xx_hal_dma.c **** 
 5671              		.loc 1 561 0 discriminator 67
 5672 16c0 A2F58962 		sub	r2, r2, #1096
 5673 16c4 9342     		cmp	r3, r2
 5674 16c6 17D0     		beq	.L1611
 561:../Drivers/STM32F4xx_HAL_Driver/Src/stm32f4xx_hal_dma.c **** 
 5675              		.loc 1 561 0 discriminator 69
 5676 16c8 02F58062 		add	r2, r2, #1024
 5677 16cc 9342     		cmp	r3, r2
 5678 16ce 10D0     		beq	.L1612
 561:../Drivers/STM32F4xx_HAL_Driver/Src/stm32f4xx_hal_dma.c **** 
 5679              		.loc 1 561 0 discriminator 71
 5680 16d0 A2F56872 		sub	r2, r2, #928
 5681 16d4 9342     		cmp	r3, r2
 5682 16d6 09D0     		beq	.L1613
 561:../Drivers/STM32F4xx_HAL_Driver/Src/stm32f4xx_hal_dma.c **** 
 5683              		.loc 1 561 0 discriminator 73
 5684 16d8 02F58062 		add	r2, r2, #1024
 5685 16dc 9342     		cmp	r3, r2
 5686 16de 02D1     		bne	.L1614
 561:../Drivers/STM32F4xx_HAL_Driver/Src/stm32f4xx_hal_dma.c **** 
 5687              		.loc 1 561 0
 5688 16e0 4FF40013 		mov	r3, #2097152
 5689 16e4 1EE0     		b	.L977
 5690              	.L1614:
 5691 16e6 4FF00063 		mov	r3, #134217728
 5692 16ea 1BE0     		b	.L977
 5693              	.L1613:
 5694 16ec 4FF40013 		mov	r3, #2097152
 5695 16f0 18E0     		b	.L977
 5696              	.L1612:
 5697 16f2 4FF40013 		mov	r3, #2097152
 5698 16f6 15E0     		b	.L977
 5699              	.L1611:
 5700 16f8 4FF40013 		mov	r3, #2097152
 5701 16fc 12E0     		b	.L977
 5702              	.L1610:
 5703 16fe 4FF40063 		mov	r3, #2048
ARM GAS  /tmp/ccAPlzty.s 			page 132


 5704 1702 0FE0     		b	.L977
 5705              	.L1609:
 5706 1704 4FF40063 		mov	r3, #2048
 5707 1708 0CE0     		b	.L977
 5708              	.L1608:
 5709 170a 4FF40063 		mov	r3, #2048
 5710 170e 09E0     		b	.L977
 5711              	.L1607:
 5712 1710 4FF40063 		mov	r3, #2048
 5713 1714 06E0     		b	.L977
 5714              	.L1606:
 5715 1716 2023     		movs	r3, #32
 5716 1718 04E0     		b	.L977
 5717              	.L1605:
 5718 171a 2023     		movs	r3, #32
 5719 171c 02E0     		b	.L977
 5720              	.L1604:
 5721 171e 2023     		movs	r3, #32
 5722 1720 00E0     		b	.L977
 5723              	.L1603:
 5724 1722 2023     		movs	r3, #32
 5725              	.L977:
 561:../Drivers/STM32F4xx_HAL_Driver/Src/stm32f4xx_hal_dma.c **** 
 5726              		.loc 1 561 0 discriminator 100
 5727 1724 8C4A     		ldr	r2, .L1849+4
 5728 1726 9360     		str	r3, [r2, #8]
 5729 1728 A9E0     		b	.L975
 5730              	.L976:
 561:../Drivers/STM32F4xx_HAL_Driver/Src/stm32f4xx_hal_dma.c **** 
 5731              		.loc 1 561 0 discriminator 52
 5732 172a 8C4A     		ldr	r2, .L1849+8
 5733 172c 9342     		cmp	r3, r2
 5734 172e 53D9     		bls	.L989
 561:../Drivers/STM32F4xx_HAL_Driver/Src/stm32f4xx_hal_dma.c **** 
 5735              		.loc 1 561 0 discriminator 102
 5736 1730 483A     		subs	r2, r2, #72
 5737 1732 9342     		cmp	r3, r2
 5738 1734 4CD0     		beq	.L1615
 561:../Drivers/STM32F4xx_HAL_Driver/Src/stm32f4xx_hal_dma.c **** 
 5739              		.loc 1 561 0 discriminator 104
 5740 1736 02F58062 		add	r2, r2, #1024
 5741 173a 9342     		cmp	r3, r2
 5742 173c 46D0     		beq	.L1616
 561:../Drivers/STM32F4xx_HAL_Driver/Src/stm32f4xx_hal_dma.c **** 
 5743              		.loc 1 561 0 discriminator 106
 5744 173e A2F56872 		sub	r2, r2, #928
 5745 1742 9342     		cmp	r3, r2
 5746 1744 40D0     		beq	.L1617
 561:../Drivers/STM32F4xx_HAL_Driver/Src/stm32f4xx_hal_dma.c **** 
 5747              		.loc 1 561 0 discriminator 108
 5748 1746 02F58062 		add	r2, r2, #1024
 5749 174a 9342     		cmp	r3, r2
 5750 174c 3AD0     		beq	.L1618
 561:../Drivers/STM32F4xx_HAL_Driver/Src/stm32f4xx_hal_dma.c **** 
 5751              		.loc 1 561 0 discriminator 110
 5752 174e A2F58962 		sub	r2, r2, #1096
 5753 1752 9342     		cmp	r3, r2
ARM GAS  /tmp/ccAPlzty.s 			page 133


 5754 1754 33D0     		beq	.L1619
 561:../Drivers/STM32F4xx_HAL_Driver/Src/stm32f4xx_hal_dma.c **** 
 5755              		.loc 1 561 0 discriminator 112
 5756 1756 02F58062 		add	r2, r2, #1024
 5757 175a 9342     		cmp	r3, r2
 5758 175c 2CD0     		beq	.L1620
 561:../Drivers/STM32F4xx_HAL_Driver/Src/stm32f4xx_hal_dma.c **** 
 5759              		.loc 1 561 0 discriminator 114
 5760 175e A2F56872 		sub	r2, r2, #928
 5761 1762 9342     		cmp	r3, r2
 5762 1764 25D0     		beq	.L1621
 561:../Drivers/STM32F4xx_HAL_Driver/Src/stm32f4xx_hal_dma.c **** 
 5763              		.loc 1 561 0 discriminator 116
 5764 1766 02F58062 		add	r2, r2, #1024
 5765 176a 9342     		cmp	r3, r2
 5766 176c 1ED0     		beq	.L1622
 561:../Drivers/STM32F4xx_HAL_Driver/Src/stm32f4xx_hal_dma.c **** 
 5767              		.loc 1 561 0 discriminator 118
 5768 176e A2F58962 		sub	r2, r2, #1096
 5769 1772 9342     		cmp	r3, r2
 5770 1774 17D0     		beq	.L1623
 561:../Drivers/STM32F4xx_HAL_Driver/Src/stm32f4xx_hal_dma.c **** 
 5771              		.loc 1 561 0 discriminator 120
 5772 1776 02F58062 		add	r2, r2, #1024
 5773 177a 9342     		cmp	r3, r2
 5774 177c 10D0     		beq	.L1624
 561:../Drivers/STM32F4xx_HAL_Driver/Src/stm32f4xx_hal_dma.c **** 
 5775              		.loc 1 561 0 discriminator 122
 5776 177e A2F56872 		sub	r2, r2, #928
 5777 1782 9342     		cmp	r3, r2
 5778 1784 09D0     		beq	.L1625
 561:../Drivers/STM32F4xx_HAL_Driver/Src/stm32f4xx_hal_dma.c **** 
 5779              		.loc 1 561 0 discriminator 124
 5780 1786 02F58062 		add	r2, r2, #1024
 5781 178a 9342     		cmp	r3, r2
 5782 178c 02D1     		bne	.L1626
 561:../Drivers/STM32F4xx_HAL_Driver/Src/stm32f4xx_hal_dma.c **** 
 5783              		.loc 1 561 0
 5784 178e 4FF40013 		mov	r3, #2097152
 5785 1792 1EE0     		b	.L990
 5786              	.L1626:
 5787 1794 4FF00063 		mov	r3, #134217728
 5788 1798 1BE0     		b	.L990
 5789              	.L1625:
 5790 179a 4FF40013 		mov	r3, #2097152
 5791 179e 18E0     		b	.L990
 5792              	.L1624:
 5793 17a0 4FF40013 		mov	r3, #2097152
 5794 17a4 15E0     		b	.L990
 5795              	.L1623:
 5796 17a6 4FF40013 		mov	r3, #2097152
 5797 17aa 12E0     		b	.L990
 5798              	.L1622:
 5799 17ac 4FF40063 		mov	r3, #2048
 5800 17b0 0FE0     		b	.L990
 5801              	.L1621:
 5802 17b2 4FF40063 		mov	r3, #2048
ARM GAS  /tmp/ccAPlzty.s 			page 134


 5803 17b6 0CE0     		b	.L990
 5804              	.L1620:
 5805 17b8 4FF40063 		mov	r3, #2048
 5806 17bc 09E0     		b	.L990
 5807              	.L1619:
 5808 17be 4FF40063 		mov	r3, #2048
 5809 17c2 06E0     		b	.L990
 5810              	.L1618:
 5811 17c4 2023     		movs	r3, #32
 5812 17c6 04E0     		b	.L990
 5813              	.L1617:
 5814 17c8 2023     		movs	r3, #32
 5815 17ca 02E0     		b	.L990
 5816              	.L1616:
 5817 17cc 2023     		movs	r3, #32
 5818 17ce 00E0     		b	.L990
 5819              	.L1615:
 5820 17d0 2023     		movs	r3, #32
 5821              	.L990:
 561:../Drivers/STM32F4xx_HAL_Driver/Src/stm32f4xx_hal_dma.c **** 
 5822              		.loc 1 561 0 discriminator 151
 5823 17d2 634A     		ldr	r2, .L1849+12
 5824 17d4 D360     		str	r3, [r2, #12]
 5825 17d6 52E0     		b	.L975
 5826              	.L989:
 561:../Drivers/STM32F4xx_HAL_Driver/Src/stm32f4xx_hal_dma.c **** 
 5827              		.loc 1 561 0 discriminator 103
 5828 17d8 624A     		ldr	r2, .L1849+16
 5829 17da 9342     		cmp	r3, r2
 5830 17dc 4CD0     		beq	.L1627
 561:../Drivers/STM32F4xx_HAL_Driver/Src/stm32f4xx_hal_dma.c **** 
 5831              		.loc 1 561 0 discriminator 153
 5832 17de 02F58062 		add	r2, r2, #1024
 5833 17e2 9342     		cmp	r3, r2
 5834 17e4 46D0     		beq	.L1628
 561:../Drivers/STM32F4xx_HAL_Driver/Src/stm32f4xx_hal_dma.c **** 
 5835              		.loc 1 561 0 discriminator 155
 5836 17e6 A2F56872 		sub	r2, r2, #928
 5837 17ea 9342     		cmp	r3, r2
 5838 17ec 40D0     		beq	.L1629
 561:../Drivers/STM32F4xx_HAL_Driver/Src/stm32f4xx_hal_dma.c **** 
 5839              		.loc 1 561 0 discriminator 157
 5840 17ee 02F58062 		add	r2, r2, #1024
 5841 17f2 9342     		cmp	r3, r2
 5842 17f4 3AD0     		beq	.L1630
 561:../Drivers/STM32F4xx_HAL_Driver/Src/stm32f4xx_hal_dma.c **** 
 5843              		.loc 1 561 0 discriminator 159
 5844 17f6 A2F58962 		sub	r2, r2, #1096
 5845 17fa 9342     		cmp	r3, r2
 5846 17fc 33D0     		beq	.L1631
 561:../Drivers/STM32F4xx_HAL_Driver/Src/stm32f4xx_hal_dma.c **** 
 5847              		.loc 1 561 0 discriminator 161
 5848 17fe 02F58062 		add	r2, r2, #1024
 5849 1802 9342     		cmp	r3, r2
 5850 1804 2CD0     		beq	.L1632
 561:../Drivers/STM32F4xx_HAL_Driver/Src/stm32f4xx_hal_dma.c **** 
 5851              		.loc 1 561 0 discriminator 163
ARM GAS  /tmp/ccAPlzty.s 			page 135


 5852 1806 A2F56872 		sub	r2, r2, #928
 5853 180a 9342     		cmp	r3, r2
 5854 180c 25D0     		beq	.L1633
 561:../Drivers/STM32F4xx_HAL_Driver/Src/stm32f4xx_hal_dma.c **** 
 5855              		.loc 1 561 0 discriminator 165
 5856 180e 02F58062 		add	r2, r2, #1024
 5857 1812 9342     		cmp	r3, r2
 5858 1814 1ED0     		beq	.L1634
 561:../Drivers/STM32F4xx_HAL_Driver/Src/stm32f4xx_hal_dma.c **** 
 5859              		.loc 1 561 0 discriminator 167
 5860 1816 A2F58962 		sub	r2, r2, #1096
 5861 181a 9342     		cmp	r3, r2
 5862 181c 17D0     		beq	.L1635
 561:../Drivers/STM32F4xx_HAL_Driver/Src/stm32f4xx_hal_dma.c **** 
 5863              		.loc 1 561 0 discriminator 169
 5864 181e 02F58062 		add	r2, r2, #1024
 5865 1822 9342     		cmp	r3, r2
 5866 1824 10D0     		beq	.L1636
 561:../Drivers/STM32F4xx_HAL_Driver/Src/stm32f4xx_hal_dma.c **** 
 5867              		.loc 1 561 0 discriminator 171
 5868 1826 A2F56872 		sub	r2, r2, #928
 5869 182a 9342     		cmp	r3, r2
 5870 182c 09D0     		beq	.L1637
 561:../Drivers/STM32F4xx_HAL_Driver/Src/stm32f4xx_hal_dma.c **** 
 5871              		.loc 1 561 0 discriminator 173
 5872 182e 02F58062 		add	r2, r2, #1024
 5873 1832 9342     		cmp	r3, r2
 5874 1834 02D1     		bne	.L1638
 561:../Drivers/STM32F4xx_HAL_Driver/Src/stm32f4xx_hal_dma.c **** 
 5875              		.loc 1 561 0
 5876 1836 4FF40013 		mov	r3, #2097152
 5877 183a 1EE0     		b	.L1003
 5878              	.L1638:
 5879 183c 4FF00063 		mov	r3, #134217728
 5880 1840 1BE0     		b	.L1003
 5881              	.L1637:
 5882 1842 4FF40013 		mov	r3, #2097152
 5883 1846 18E0     		b	.L1003
 5884              	.L1636:
 5885 1848 4FF40013 		mov	r3, #2097152
 5886 184c 15E0     		b	.L1003
 5887              	.L1635:
 5888 184e 4FF40013 		mov	r3, #2097152
 5889 1852 12E0     		b	.L1003
 5890              	.L1634:
 5891 1854 4FF40063 		mov	r3, #2048
 5892 1858 0FE0     		b	.L1003
 5893              	.L1633:
 5894 185a 4FF40063 		mov	r3, #2048
 5895 185e 0CE0     		b	.L1003
 5896              	.L1632:
 5897 1860 4FF40063 		mov	r3, #2048
 5898 1864 09E0     		b	.L1003
 5899              	.L1631:
 5900 1866 4FF40063 		mov	r3, #2048
 5901 186a 06E0     		b	.L1003
 5902              	.L1630:
ARM GAS  /tmp/ccAPlzty.s 			page 136


 5903 186c 2023     		movs	r3, #32
 5904 186e 04E0     		b	.L1003
 5905              	.L1629:
 5906 1870 2023     		movs	r3, #32
 5907 1872 02E0     		b	.L1003
 5908              	.L1628:
 5909 1874 2023     		movs	r3, #32
 5910 1876 00E0     		b	.L1003
 5911              	.L1627:
 5912 1878 2023     		movs	r3, #32
 5913              	.L1003:
 561:../Drivers/STM32F4xx_HAL_Driver/Src/stm32f4xx_hal_dma.c **** 
 5914              		.loc 1 561 0 discriminator 200
 5915 187a 394A     		ldr	r2, .L1849+12
 5916 187c 9360     		str	r3, [r2, #8]
 5917              	.L975:
 564:../Drivers/STM32F4xx_HAL_Driver/Src/stm32f4xx_hal_dma.c ****       {
 5918              		.loc 1 564 0 is_stmt 1
 5919 187e 2368     		ldr	r3, [r4]
 5920 1880 1A68     		ldr	r2, [r3]
 5921 1882 12F4002F 		tst	r2, #524288
 5922 1886 03D1     		bne	.L1015
 567:../Drivers/STM32F4xx_HAL_Driver/Src/stm32f4xx_hal_dma.c ****       }
 5923              		.loc 1 567 0
 5924 1888 1123     		movs	r3, #17
 5925 188a 84F83530 		strb	r3, [r4, #53]
 5926 188e D7E2     		b	.L1016
 5927              	.L1015:
 570:../Drivers/STM32F4xx_HAL_Driver/Src/stm32f4xx_hal_dma.c ****       {
 5928              		.loc 1 570 0
 5929 1890 1B68     		ldr	r3, [r3]
 5930 1892 13F4002F 		tst	r3, #524288
 5931 1896 00F0D382 		beq	.L1016
 573:../Drivers/STM32F4xx_HAL_Driver/Src/stm32f4xx_hal_dma.c ****       }
 5932              		.loc 1 573 0
 5933 189a 2123     		movs	r3, #33
 5934 189c 84F83530 		strb	r3, [r4, #53]
 5935 18a0 CEE2     		b	.L1016
 5936              	.L908:
 579:../Drivers/STM32F4xx_HAL_Driver/Src/stm32f4xx_hal_dma.c ****       /* Clear the transfer complete flag */
 5937              		.loc 1 579 0
 5938 18a2 314B     		ldr	r3, .L1849+20
 5939 18a4 9E45     		cmp	lr, r3
 5940 18a6 61D9     		bls	.L1017
 579:../Drivers/STM32F4xx_HAL_Driver/Src/stm32f4xx_hal_dma.c ****       /* Clear the transfer complete flag */
 5941              		.loc 1 579 0 is_stmt 0 discriminator 1
 5942 18a8 A3F58963 		sub	r3, r3, #1096
 5943 18ac 9E45     		cmp	lr, r3
 5944 18ae 4CD0     		beq	.L1639
 579:../Drivers/STM32F4xx_HAL_Driver/Src/stm32f4xx_hal_dma.c ****       /* Clear the transfer complete flag */
 5945              		.loc 1 579 0 discriminator 3
 5946 18b0 03F58063 		add	r3, r3, #1024
 5947 18b4 9E45     		cmp	lr, r3
 5948 18b6 46D0     		beq	.L1640
 579:../Drivers/STM32F4xx_HAL_Driver/Src/stm32f4xx_hal_dma.c ****       /* Clear the transfer complete flag */
 5949              		.loc 1 579 0 discriminator 5
 5950 18b8 A3F56873 		sub	r3, r3, #928
ARM GAS  /tmp/ccAPlzty.s 			page 137


 5951 18bc 9E45     		cmp	lr, r3
 5952 18be 40D0     		beq	.L1641
 579:../Drivers/STM32F4xx_HAL_Driver/Src/stm32f4xx_hal_dma.c ****       /* Clear the transfer complete flag */
 5953              		.loc 1 579 0 discriminator 7
 5954 18c0 03F58063 		add	r3, r3, #1024
 5955 18c4 9E45     		cmp	lr, r3
 5956 18c6 3AD0     		beq	.L1642
 579:../Drivers/STM32F4xx_HAL_Driver/Src/stm32f4xx_hal_dma.c ****       /* Clear the transfer complete flag */
 5957              		.loc 1 579 0 discriminator 9
 5958 18c8 A3F58963 		sub	r3, r3, #1096
 5959 18cc 9E45     		cmp	lr, r3
 5960 18ce 33D0     		beq	.L1643
 579:../Drivers/STM32F4xx_HAL_Driver/Src/stm32f4xx_hal_dma.c ****       /* Clear the transfer complete flag */
 5961              		.loc 1 579 0 discriminator 11
 5962 18d0 03F58063 		add	r3, r3, #1024
 5963 18d4 9E45     		cmp	lr, r3
 5964 18d6 2CD0     		beq	.L1644
 579:../Drivers/STM32F4xx_HAL_Driver/Src/stm32f4xx_hal_dma.c ****       /* Clear the transfer complete flag */
 5965              		.loc 1 579 0 discriminator 13
 5966 18d8 A3F56873 		sub	r3, r3, #928
 5967 18dc 9E45     		cmp	lr, r3
 5968 18de 25D0     		beq	.L1645
 579:../Drivers/STM32F4xx_HAL_Driver/Src/stm32f4xx_hal_dma.c ****       /* Clear the transfer complete flag */
 5969              		.loc 1 579 0 discriminator 15
 5970 18e0 03F58063 		add	r3, r3, #1024
 5971 18e4 9E45     		cmp	lr, r3
 5972 18e6 1ED0     		beq	.L1646
 579:../Drivers/STM32F4xx_HAL_Driver/Src/stm32f4xx_hal_dma.c ****       /* Clear the transfer complete flag */
 5973              		.loc 1 579 0 discriminator 17
 5974 18e8 A3F58963 		sub	r3, r3, #1096
 5975 18ec 9E45     		cmp	lr, r3
 5976 18ee 17D0     		beq	.L1647
 579:../Drivers/STM32F4xx_HAL_Driver/Src/stm32f4xx_hal_dma.c ****       /* Clear the transfer complete flag */
 5977              		.loc 1 579 0 discriminator 19
 5978 18f0 03F58063 		add	r3, r3, #1024
 5979 18f4 9E45     		cmp	lr, r3
 5980 18f6 10D0     		beq	.L1648
 579:../Drivers/STM32F4xx_HAL_Driver/Src/stm32f4xx_hal_dma.c ****       /* Clear the transfer complete flag */
 5981              		.loc 1 579 0 discriminator 21
 5982 18f8 A3F56873 		sub	r3, r3, #928
 5983 18fc 9E45     		cmp	lr, r3
 5984 18fe 09D0     		beq	.L1649
 579:../Drivers/STM32F4xx_HAL_Driver/Src/stm32f4xx_hal_dma.c ****       /* Clear the transfer complete flag */
 5985              		.loc 1 579 0 discriminator 23
 5986 1900 03F58063 		add	r3, r3, #1024
 5987 1904 9E45     		cmp	lr, r3
 5988 1906 02D1     		bne	.L1650
 579:../Drivers/STM32F4xx_HAL_Driver/Src/stm32f4xx_hal_dma.c ****       /* Clear the transfer complete flag */
 5989              		.loc 1 579 0
 5990 1908 4FF48013 		mov	r3, #1048576
 5991 190c 1EE0     		b	.L1018
 5992              	.L1650:
 5993 190e 4FF08063 		mov	r3, #67108864
 5994 1912 1BE0     		b	.L1018
 5995              	.L1649:
 5996 1914 4FF48013 		mov	r3, #1048576
 5997 1918 18E0     		b	.L1018
ARM GAS  /tmp/ccAPlzty.s 			page 138


 5998              	.L1648:
 5999 191a 4FF48013 		mov	r3, #1048576
 6000 191e 15E0     		b	.L1018
 6001              	.L1647:
 6002 1920 4FF48013 		mov	r3, #1048576
 6003 1924 12E0     		b	.L1018
 6004              	.L1646:
 6005 1926 4FF48063 		mov	r3, #1024
 6006 192a 0FE0     		b	.L1018
 6007              	.L1645:
 6008 192c 4FF48063 		mov	r3, #1024
 6009 1930 0CE0     		b	.L1018
 6010              	.L1644:
 6011 1932 4FF48063 		mov	r3, #1024
 6012 1936 09E0     		b	.L1018
 6013              	.L1643:
 6014 1938 4FF48063 		mov	r3, #1024
 6015 193c 06E0     		b	.L1018
 6016              	.L1642:
 6017 193e 1023     		movs	r3, #16
 6018 1940 04E0     		b	.L1018
 6019              	.L1641:
 6020 1942 1023     		movs	r3, #16
 6021 1944 02E0     		b	.L1018
 6022              	.L1640:
 6023 1946 1023     		movs	r3, #16
 6024 1948 00E0     		b	.L1018
 6025              	.L1639:
 6026 194a 1023     		movs	r3, #16
 6027              	.L1018:
 579:../Drivers/STM32F4xx_HAL_Driver/Src/stm32f4xx_hal_dma.c ****       /* Clear the transfer complete flag */
 6028              		.loc 1 579 0 discriminator 50
 6029 194c 024A     		ldr	r2, .L1849+4
 6030 194e D360     		str	r3, [r2, #12]
 6031 1950 0DE1     		b	.L1030
 6032              	.L1850:
 6033 1952 00BF     		.align	2
 6034              	.L1849:
 6035 1954 B8600240 		.word	1073897656
 6036 1958 00640240 		.word	1073898496
 6037 195c 58600240 		.word	1073897560
 6038 1960 00600240 		.word	1073897472
 6039 1964 10600240 		.word	1073897488
 6040 1968 58640240 		.word	1073898584
 6041              	.L1017:
 579:../Drivers/STM32F4xx_HAL_Driver/Src/stm32f4xx_hal_dma.c ****       /* Clear the transfer complete flag */
 6042              		.loc 1 579 0 discriminator 2
 6043 196c AC4B     		ldr	r3, .L1851
 6044 196e 9E45     		cmp	lr, r3
 6045 1970 53D9     		bls	.L1031
 579:../Drivers/STM32F4xx_HAL_Driver/Src/stm32f4xx_hal_dma.c ****       /* Clear the transfer complete flag */
 6046              		.loc 1 579 0 discriminator 51
 6047 1972 A83B     		subs	r3, r3, #168
 6048 1974 9E45     		cmp	lr, r3
 6049 1976 4CD0     		beq	.L1651
 579:../Drivers/STM32F4xx_HAL_Driver/Src/stm32f4xx_hal_dma.c ****       /* Clear the transfer complete flag */
 6050              		.loc 1 579 0 discriminator 53
ARM GAS  /tmp/ccAPlzty.s 			page 139


 6051 1978 03F58063 		add	r3, r3, #1024
 6052 197c 9E45     		cmp	lr, r3
 6053 197e 46D0     		beq	.L1652
 579:../Drivers/STM32F4xx_HAL_Driver/Src/stm32f4xx_hal_dma.c ****       /* Clear the transfer complete flag */
 6054              		.loc 1 579 0 discriminator 55
 6055 1980 A3F56873 		sub	r3, r3, #928
 6056 1984 9E45     		cmp	lr, r3
 6057 1986 40D0     		beq	.L1653
 579:../Drivers/STM32F4xx_HAL_Driver/Src/stm32f4xx_hal_dma.c ****       /* Clear the transfer complete flag */
 6058              		.loc 1 579 0 discriminator 57
 6059 1988 03F58063 		add	r3, r3, #1024
 6060 198c 9E45     		cmp	lr, r3
 6061 198e 3AD0     		beq	.L1654
 579:../Drivers/STM32F4xx_HAL_Driver/Src/stm32f4xx_hal_dma.c ****       /* Clear the transfer complete flag */
 6062              		.loc 1 579 0 discriminator 59
 6063 1990 A3F58963 		sub	r3, r3, #1096
 6064 1994 9E45     		cmp	lr, r3
 6065 1996 33D0     		beq	.L1655
 579:../Drivers/STM32F4xx_HAL_Driver/Src/stm32f4xx_hal_dma.c ****       /* Clear the transfer complete flag */
 6066              		.loc 1 579 0 discriminator 61
 6067 1998 03F58063 		add	r3, r3, #1024
 6068 199c 9E45     		cmp	lr, r3
 6069 199e 2CD0     		beq	.L1656
 579:../Drivers/STM32F4xx_HAL_Driver/Src/stm32f4xx_hal_dma.c ****       /* Clear the transfer complete flag */
 6070              		.loc 1 579 0 discriminator 63
 6071 19a0 A3F56873 		sub	r3, r3, #928
 6072 19a4 9E45     		cmp	lr, r3
 6073 19a6 25D0     		beq	.L1657
 579:../Drivers/STM32F4xx_HAL_Driver/Src/stm32f4xx_hal_dma.c ****       /* Clear the transfer complete flag */
 6074              		.loc 1 579 0 discriminator 65
 6075 19a8 03F58063 		add	r3, r3, #1024
 6076 19ac 9E45     		cmp	lr, r3
 6077 19ae 1ED0     		beq	.L1658
 579:../Drivers/STM32F4xx_HAL_Driver/Src/stm32f4xx_hal_dma.c ****       /* Clear the transfer complete flag */
 6078              		.loc 1 579 0 discriminator 67
 6079 19b0 A3F58963 		sub	r3, r3, #1096
 6080 19b4 9E45     		cmp	lr, r3
 6081 19b6 17D0     		beq	.L1659
 579:../Drivers/STM32F4xx_HAL_Driver/Src/stm32f4xx_hal_dma.c ****       /* Clear the transfer complete flag */
 6082              		.loc 1 579 0 discriminator 69
 6083 19b8 03F58063 		add	r3, r3, #1024
 6084 19bc 9E45     		cmp	lr, r3
 6085 19be 10D0     		beq	.L1660
 579:../Drivers/STM32F4xx_HAL_Driver/Src/stm32f4xx_hal_dma.c ****       /* Clear the transfer complete flag */
 6086              		.loc 1 579 0 discriminator 71
 6087 19c0 A3F56873 		sub	r3, r3, #928
 6088 19c4 9E45     		cmp	lr, r3
 6089 19c6 09D0     		beq	.L1661
 579:../Drivers/STM32F4xx_HAL_Driver/Src/stm32f4xx_hal_dma.c ****       /* Clear the transfer complete flag */
 6090              		.loc 1 579 0 discriminator 73
 6091 19c8 03F58063 		add	r3, r3, #1024
 6092 19cc 9E45     		cmp	lr, r3
 6093 19ce 02D1     		bne	.L1662
 579:../Drivers/STM32F4xx_HAL_Driver/Src/stm32f4xx_hal_dma.c ****       /* Clear the transfer complete flag */
 6094              		.loc 1 579 0
 6095 19d0 4FF48013 		mov	r3, #1048576
 6096 19d4 1EE0     		b	.L1032
ARM GAS  /tmp/ccAPlzty.s 			page 140


 6097              	.L1662:
 6098 19d6 4FF08063 		mov	r3, #67108864
 6099 19da 1BE0     		b	.L1032
 6100              	.L1661:
 6101 19dc 4FF48013 		mov	r3, #1048576
 6102 19e0 18E0     		b	.L1032
 6103              	.L1660:
 6104 19e2 4FF48013 		mov	r3, #1048576
 6105 19e6 15E0     		b	.L1032
 6106              	.L1659:
 6107 19e8 4FF48013 		mov	r3, #1048576
 6108 19ec 12E0     		b	.L1032
 6109              	.L1658:
 6110 19ee 4FF48063 		mov	r3, #1024
 6111 19f2 0FE0     		b	.L1032
 6112              	.L1657:
 6113 19f4 4FF48063 		mov	r3, #1024
 6114 19f8 0CE0     		b	.L1032
 6115              	.L1656:
 6116 19fa 4FF48063 		mov	r3, #1024
 6117 19fe 09E0     		b	.L1032
 6118              	.L1655:
 6119 1a00 4FF48063 		mov	r3, #1024
 6120 1a04 06E0     		b	.L1032
 6121              	.L1654:
 6122 1a06 1023     		movs	r3, #16
 6123 1a08 04E0     		b	.L1032
 6124              	.L1653:
 6125 1a0a 1023     		movs	r3, #16
 6126 1a0c 02E0     		b	.L1032
 6127              	.L1652:
 6128 1a0e 1023     		movs	r3, #16
 6129 1a10 00E0     		b	.L1032
 6130              	.L1651:
 6131 1a12 1023     		movs	r3, #16
 6132              	.L1032:
 579:../Drivers/STM32F4xx_HAL_Driver/Src/stm32f4xx_hal_dma.c ****       /* Clear the transfer complete flag */
 6133              		.loc 1 579 0 discriminator 100
 6134 1a14 834A     		ldr	r2, .L1851+4
 6135 1a16 9360     		str	r3, [r2, #8]
 6136 1a18 A9E0     		b	.L1030
 6137              	.L1031:
 579:../Drivers/STM32F4xx_HAL_Driver/Src/stm32f4xx_hal_dma.c ****       /* Clear the transfer complete flag */
 6138              		.loc 1 579 0 discriminator 52
 6139 1a1a 834B     		ldr	r3, .L1851+8
 6140 1a1c 9E45     		cmp	lr, r3
 6141 1a1e 53D9     		bls	.L1044
 579:../Drivers/STM32F4xx_HAL_Driver/Src/stm32f4xx_hal_dma.c ****       /* Clear the transfer complete flag */
 6142              		.loc 1 579 0 discriminator 102
 6143 1a20 483B     		subs	r3, r3, #72
 6144 1a22 9E45     		cmp	lr, r3
 6145 1a24 4CD0     		beq	.L1663
 579:../Drivers/STM32F4xx_HAL_Driver/Src/stm32f4xx_hal_dma.c ****       /* Clear the transfer complete flag */
 6146              		.loc 1 579 0 discriminator 104
 6147 1a26 03F58063 		add	r3, r3, #1024
 6148 1a2a 9E45     		cmp	lr, r3
 6149 1a2c 46D0     		beq	.L1664
ARM GAS  /tmp/ccAPlzty.s 			page 141


 579:../Drivers/STM32F4xx_HAL_Driver/Src/stm32f4xx_hal_dma.c ****       /* Clear the transfer complete flag */
 6150              		.loc 1 579 0 discriminator 106
 6151 1a2e A3F56873 		sub	r3, r3, #928
 6152 1a32 9E45     		cmp	lr, r3
 6153 1a34 40D0     		beq	.L1665
 579:../Drivers/STM32F4xx_HAL_Driver/Src/stm32f4xx_hal_dma.c ****       /* Clear the transfer complete flag */
 6154              		.loc 1 579 0 discriminator 108
 6155 1a36 03F58063 		add	r3, r3, #1024
 6156 1a3a 9E45     		cmp	lr, r3
 6157 1a3c 3AD0     		beq	.L1666
 579:../Drivers/STM32F4xx_HAL_Driver/Src/stm32f4xx_hal_dma.c ****       /* Clear the transfer complete flag */
 6158              		.loc 1 579 0 discriminator 110
 6159 1a3e A3F58963 		sub	r3, r3, #1096
 6160 1a42 9E45     		cmp	lr, r3
 6161 1a44 33D0     		beq	.L1667
 579:../Drivers/STM32F4xx_HAL_Driver/Src/stm32f4xx_hal_dma.c ****       /* Clear the transfer complete flag */
 6162              		.loc 1 579 0 discriminator 112
 6163 1a46 03F58063 		add	r3, r3, #1024
 6164 1a4a 9E45     		cmp	lr, r3
 6165 1a4c 2CD0     		beq	.L1668
 579:../Drivers/STM32F4xx_HAL_Driver/Src/stm32f4xx_hal_dma.c ****       /* Clear the transfer complete flag */
 6166              		.loc 1 579 0 discriminator 114
 6167 1a4e A3F56873 		sub	r3, r3, #928
 6168 1a52 9E45     		cmp	lr, r3
 6169 1a54 25D0     		beq	.L1669
 579:../Drivers/STM32F4xx_HAL_Driver/Src/stm32f4xx_hal_dma.c ****       /* Clear the transfer complete flag */
 6170              		.loc 1 579 0 discriminator 116
 6171 1a56 03F58063 		add	r3, r3, #1024
 6172 1a5a 9E45     		cmp	lr, r3
 6173 1a5c 1ED0     		beq	.L1670
 579:../Drivers/STM32F4xx_HAL_Driver/Src/stm32f4xx_hal_dma.c ****       /* Clear the transfer complete flag */
 6174              		.loc 1 579 0 discriminator 118
 6175 1a5e A3F58963 		sub	r3, r3, #1096
 6176 1a62 9E45     		cmp	lr, r3
 6177 1a64 17D0     		beq	.L1671
 579:../Drivers/STM32F4xx_HAL_Driver/Src/stm32f4xx_hal_dma.c ****       /* Clear the transfer complete flag */
 6178              		.loc 1 579 0 discriminator 120
 6179 1a66 03F58063 		add	r3, r3, #1024
 6180 1a6a 9E45     		cmp	lr, r3
 6181 1a6c 10D0     		beq	.L1672
 579:../Drivers/STM32F4xx_HAL_Driver/Src/stm32f4xx_hal_dma.c ****       /* Clear the transfer complete flag */
 6182              		.loc 1 579 0 discriminator 122
 6183 1a6e A3F56873 		sub	r3, r3, #928
 6184 1a72 9E45     		cmp	lr, r3
 6185 1a74 09D0     		beq	.L1673
 579:../Drivers/STM32F4xx_HAL_Driver/Src/stm32f4xx_hal_dma.c ****       /* Clear the transfer complete flag */
 6186              		.loc 1 579 0 discriminator 124
 6187 1a76 03F58063 		add	r3, r3, #1024
 6188 1a7a 9E45     		cmp	lr, r3
 6189 1a7c 02D1     		bne	.L1674
 579:../Drivers/STM32F4xx_HAL_Driver/Src/stm32f4xx_hal_dma.c ****       /* Clear the transfer complete flag */
 6190              		.loc 1 579 0
 6191 1a7e 4FF48013 		mov	r3, #1048576
 6192 1a82 1EE0     		b	.L1045
 6193              	.L1674:
 6194 1a84 4FF08063 		mov	r3, #67108864
 6195 1a88 1BE0     		b	.L1045
ARM GAS  /tmp/ccAPlzty.s 			page 142


 6196              	.L1673:
 6197 1a8a 4FF48013 		mov	r3, #1048576
 6198 1a8e 18E0     		b	.L1045
 6199              	.L1672:
 6200 1a90 4FF48013 		mov	r3, #1048576
 6201 1a94 15E0     		b	.L1045
 6202              	.L1671:
 6203 1a96 4FF48013 		mov	r3, #1048576
 6204 1a9a 12E0     		b	.L1045
 6205              	.L1670:
 6206 1a9c 4FF48063 		mov	r3, #1024
 6207 1aa0 0FE0     		b	.L1045
 6208              	.L1669:
 6209 1aa2 4FF48063 		mov	r3, #1024
 6210 1aa6 0CE0     		b	.L1045
 6211              	.L1668:
 6212 1aa8 4FF48063 		mov	r3, #1024
 6213 1aac 09E0     		b	.L1045
 6214              	.L1667:
 6215 1aae 4FF48063 		mov	r3, #1024
 6216 1ab2 06E0     		b	.L1045
 6217              	.L1666:
 6218 1ab4 1023     		movs	r3, #16
 6219 1ab6 04E0     		b	.L1045
 6220              	.L1665:
 6221 1ab8 1023     		movs	r3, #16
 6222 1aba 02E0     		b	.L1045
 6223              	.L1664:
 6224 1abc 1023     		movs	r3, #16
 6225 1abe 00E0     		b	.L1045
 6226              	.L1663:
 6227 1ac0 1023     		movs	r3, #16
 6228              	.L1045:
 579:../Drivers/STM32F4xx_HAL_Driver/Src/stm32f4xx_hal_dma.c ****       /* Clear the transfer complete flag */
 6229              		.loc 1 579 0 discriminator 151
 6230 1ac2 5A4A     		ldr	r2, .L1851+12
 6231 1ac4 D360     		str	r3, [r2, #12]
 6232 1ac6 52E0     		b	.L1030
 6233              	.L1044:
 579:../Drivers/STM32F4xx_HAL_Driver/Src/stm32f4xx_hal_dma.c ****       /* Clear the transfer complete flag */
 6234              		.loc 1 579 0 discriminator 103
 6235 1ac8 594B     		ldr	r3, .L1851+16
 6236 1aca 9E45     		cmp	lr, r3
 6237 1acc 4CD0     		beq	.L1675
 579:../Drivers/STM32F4xx_HAL_Driver/Src/stm32f4xx_hal_dma.c ****       /* Clear the transfer complete flag */
 6238              		.loc 1 579 0 discriminator 153
 6239 1ace 03F58063 		add	r3, r3, #1024
 6240 1ad2 9E45     		cmp	lr, r3
 6241 1ad4 46D0     		beq	.L1676
 579:../Drivers/STM32F4xx_HAL_Driver/Src/stm32f4xx_hal_dma.c ****       /* Clear the transfer complete flag */
 6242              		.loc 1 579 0 discriminator 155
 6243 1ad6 A3F56873 		sub	r3, r3, #928
 6244 1ada 9E45     		cmp	lr, r3
 6245 1adc 40D0     		beq	.L1677
 579:../Drivers/STM32F4xx_HAL_Driver/Src/stm32f4xx_hal_dma.c ****       /* Clear the transfer complete flag */
 6246              		.loc 1 579 0 discriminator 157
 6247 1ade 03F58063 		add	r3, r3, #1024
ARM GAS  /tmp/ccAPlzty.s 			page 143


 6248 1ae2 9E45     		cmp	lr, r3
 6249 1ae4 3AD0     		beq	.L1678
 579:../Drivers/STM32F4xx_HAL_Driver/Src/stm32f4xx_hal_dma.c ****       /* Clear the transfer complete flag */
 6250              		.loc 1 579 0 discriminator 159
 6251 1ae6 A3F58963 		sub	r3, r3, #1096
 6252 1aea 9E45     		cmp	lr, r3
 6253 1aec 33D0     		beq	.L1679
 579:../Drivers/STM32F4xx_HAL_Driver/Src/stm32f4xx_hal_dma.c ****       /* Clear the transfer complete flag */
 6254              		.loc 1 579 0 discriminator 161
 6255 1aee 03F58063 		add	r3, r3, #1024
 6256 1af2 9E45     		cmp	lr, r3
 6257 1af4 2CD0     		beq	.L1680
 579:../Drivers/STM32F4xx_HAL_Driver/Src/stm32f4xx_hal_dma.c ****       /* Clear the transfer complete flag */
 6258              		.loc 1 579 0 discriminator 163
 6259 1af6 A3F56873 		sub	r3, r3, #928
 6260 1afa 9E45     		cmp	lr, r3
 6261 1afc 25D0     		beq	.L1681
 579:../Drivers/STM32F4xx_HAL_Driver/Src/stm32f4xx_hal_dma.c ****       /* Clear the transfer complete flag */
 6262              		.loc 1 579 0 discriminator 165
 6263 1afe 03F58063 		add	r3, r3, #1024
 6264 1b02 9E45     		cmp	lr, r3
 6265 1b04 1ED0     		beq	.L1682
 579:../Drivers/STM32F4xx_HAL_Driver/Src/stm32f4xx_hal_dma.c ****       /* Clear the transfer complete flag */
 6266              		.loc 1 579 0 discriminator 167
 6267 1b06 A3F58963 		sub	r3, r3, #1096
 6268 1b0a 9E45     		cmp	lr, r3
 6269 1b0c 17D0     		beq	.L1683
 579:../Drivers/STM32F4xx_HAL_Driver/Src/stm32f4xx_hal_dma.c ****       /* Clear the transfer complete flag */
 6270              		.loc 1 579 0 discriminator 169
 6271 1b0e 03F58063 		add	r3, r3, #1024
 6272 1b12 9E45     		cmp	lr, r3
 6273 1b14 10D0     		beq	.L1684
 579:../Drivers/STM32F4xx_HAL_Driver/Src/stm32f4xx_hal_dma.c ****       /* Clear the transfer complete flag */
 6274              		.loc 1 579 0 discriminator 171
 6275 1b16 A3F56873 		sub	r3, r3, #928
 6276 1b1a 9E45     		cmp	lr, r3
 6277 1b1c 09D0     		beq	.L1685
 579:../Drivers/STM32F4xx_HAL_Driver/Src/stm32f4xx_hal_dma.c ****       /* Clear the transfer complete flag */
 6278              		.loc 1 579 0 discriminator 173
 6279 1b1e 03F58063 		add	r3, r3, #1024
 6280 1b22 9E45     		cmp	lr, r3
 6281 1b24 02D1     		bne	.L1686
 579:../Drivers/STM32F4xx_HAL_Driver/Src/stm32f4xx_hal_dma.c ****       /* Clear the transfer complete flag */
 6282              		.loc 1 579 0
 6283 1b26 4FF48013 		mov	r3, #1048576
 6284 1b2a 1EE0     		b	.L1058
 6285              	.L1686:
 6286 1b2c 4FF08063 		mov	r3, #67108864
 6287 1b30 1BE0     		b	.L1058
 6288              	.L1685:
 6289 1b32 4FF48013 		mov	r3, #1048576
 6290 1b36 18E0     		b	.L1058
 6291              	.L1684:
 6292 1b38 4FF48013 		mov	r3, #1048576
 6293 1b3c 15E0     		b	.L1058
 6294              	.L1683:
 6295 1b3e 4FF48013 		mov	r3, #1048576
ARM GAS  /tmp/ccAPlzty.s 			page 144


 6296 1b42 12E0     		b	.L1058
 6297              	.L1682:
 6298 1b44 4FF48063 		mov	r3, #1024
 6299 1b48 0FE0     		b	.L1058
 6300              	.L1681:
 6301 1b4a 4FF48063 		mov	r3, #1024
 6302 1b4e 0CE0     		b	.L1058
 6303              	.L1680:
 6304 1b50 4FF48063 		mov	r3, #1024
 6305 1b54 09E0     		b	.L1058
 6306              	.L1679:
 6307 1b56 4FF48063 		mov	r3, #1024
 6308 1b5a 06E0     		b	.L1058
 6309              	.L1678:
 6310 1b5c 1023     		movs	r3, #16
 6311 1b5e 04E0     		b	.L1058
 6312              	.L1677:
 6313 1b60 1023     		movs	r3, #16
 6314 1b62 02E0     		b	.L1058
 6315              	.L1676:
 6316 1b64 1023     		movs	r3, #16
 6317 1b66 00E0     		b	.L1058
 6318              	.L1675:
 6319 1b68 1023     		movs	r3, #16
 6320              	.L1058:
 579:../Drivers/STM32F4xx_HAL_Driver/Src/stm32f4xx_hal_dma.c ****       /* Clear the transfer complete flag */
 6321              		.loc 1 579 0 discriminator 200
 6322 1b6a 304A     		ldr	r2, .L1851+12
 6323 1b6c 9360     		str	r3, [r2, #8]
 6324              	.L1030:
 581:../Drivers/STM32F4xx_HAL_Driver/Src/stm32f4xx_hal_dma.c **** 
 6325              		.loc 1 581 0 is_stmt 1
 6326 1b6e 2368     		ldr	r3, [r4]
 6327 1b70 304A     		ldr	r2, .L1851+20
 6328 1b72 9342     		cmp	r3, r2
 6329 1b74 60D9     		bls	.L1070
 581:../Drivers/STM32F4xx_HAL_Driver/Src/stm32f4xx_hal_dma.c **** 
 6330              		.loc 1 581 0 is_stmt 0 discriminator 1
 6331 1b76 A2F58962 		sub	r2, r2, #1096
 6332 1b7a 9342     		cmp	r3, r2
 6333 1b7c 4CD0     		beq	.L1687
 581:../Drivers/STM32F4xx_HAL_Driver/Src/stm32f4xx_hal_dma.c **** 
 6334              		.loc 1 581 0 discriminator 3
 6335 1b7e 02F58062 		add	r2, r2, #1024
 6336 1b82 9342     		cmp	r3, r2
 6337 1b84 46D0     		beq	.L1688
 581:../Drivers/STM32F4xx_HAL_Driver/Src/stm32f4xx_hal_dma.c **** 
 6338              		.loc 1 581 0 discriminator 5
 6339 1b86 A2F56872 		sub	r2, r2, #928
 6340 1b8a 9342     		cmp	r3, r2
 6341 1b8c 40D0     		beq	.L1689
 581:../Drivers/STM32F4xx_HAL_Driver/Src/stm32f4xx_hal_dma.c **** 
 6342              		.loc 1 581 0 discriminator 7
 6343 1b8e 02F58062 		add	r2, r2, #1024
 6344 1b92 9342     		cmp	r3, r2
 6345 1b94 3AD0     		beq	.L1690
 581:../Drivers/STM32F4xx_HAL_Driver/Src/stm32f4xx_hal_dma.c **** 
ARM GAS  /tmp/ccAPlzty.s 			page 145


 6346              		.loc 1 581 0 discriminator 9
 6347 1b96 A2F58962 		sub	r2, r2, #1096
 6348 1b9a 9342     		cmp	r3, r2
 6349 1b9c 33D0     		beq	.L1691
 581:../Drivers/STM32F4xx_HAL_Driver/Src/stm32f4xx_hal_dma.c **** 
 6350              		.loc 1 581 0 discriminator 11
 6351 1b9e 02F58062 		add	r2, r2, #1024
 6352 1ba2 9342     		cmp	r3, r2
 6353 1ba4 2CD0     		beq	.L1692
 581:../Drivers/STM32F4xx_HAL_Driver/Src/stm32f4xx_hal_dma.c **** 
 6354              		.loc 1 581 0 discriminator 13
 6355 1ba6 A2F56872 		sub	r2, r2, #928
 6356 1baa 9342     		cmp	r3, r2
 6357 1bac 25D0     		beq	.L1693
 581:../Drivers/STM32F4xx_HAL_Driver/Src/stm32f4xx_hal_dma.c **** 
 6358              		.loc 1 581 0 discriminator 15
 6359 1bae 02F58062 		add	r2, r2, #1024
 6360 1bb2 9342     		cmp	r3, r2
 6361 1bb4 1ED0     		beq	.L1694
 581:../Drivers/STM32F4xx_HAL_Driver/Src/stm32f4xx_hal_dma.c **** 
 6362              		.loc 1 581 0 discriminator 17
 6363 1bb6 A2F58962 		sub	r2, r2, #1096
 6364 1bba 9342     		cmp	r3, r2
 6365 1bbc 17D0     		beq	.L1695
 581:../Drivers/STM32F4xx_HAL_Driver/Src/stm32f4xx_hal_dma.c **** 
 6366              		.loc 1 581 0 discriminator 19
 6367 1bbe 02F58062 		add	r2, r2, #1024
 6368 1bc2 9342     		cmp	r3, r2
 6369 1bc4 10D0     		beq	.L1696
 581:../Drivers/STM32F4xx_HAL_Driver/Src/stm32f4xx_hal_dma.c **** 
 6370              		.loc 1 581 0 discriminator 21
 6371 1bc6 A2F56872 		sub	r2, r2, #928
 6372 1bca 9342     		cmp	r3, r2
 6373 1bcc 09D0     		beq	.L1697
 581:../Drivers/STM32F4xx_HAL_Driver/Src/stm32f4xx_hal_dma.c **** 
 6374              		.loc 1 581 0 discriminator 23
 6375 1bce 02F58062 		add	r2, r2, #1024
 6376 1bd2 9342     		cmp	r3, r2
 6377 1bd4 02D1     		bne	.L1698
 581:../Drivers/STM32F4xx_HAL_Driver/Src/stm32f4xx_hal_dma.c **** 
 6378              		.loc 1 581 0
 6379 1bd6 4FF40013 		mov	r3, #2097152
 6380 1bda 1EE0     		b	.L1071
 6381              	.L1698:
 6382 1bdc 4FF00063 		mov	r3, #134217728
 6383 1be0 1BE0     		b	.L1071
 6384              	.L1697:
 6385 1be2 4FF40013 		mov	r3, #2097152
 6386 1be6 18E0     		b	.L1071
 6387              	.L1696:
 6388 1be8 4FF40013 		mov	r3, #2097152
 6389 1bec 15E0     		b	.L1071
 6390              	.L1695:
 6391 1bee 4FF40013 		mov	r3, #2097152
 6392 1bf2 12E0     		b	.L1071
 6393              	.L1694:
 6394 1bf4 4FF40063 		mov	r3, #2048
ARM GAS  /tmp/ccAPlzty.s 			page 146


 6395 1bf8 0FE0     		b	.L1071
 6396              	.L1693:
 6397 1bfa 4FF40063 		mov	r3, #2048
 6398 1bfe 0CE0     		b	.L1071
 6399              	.L1692:
 6400 1c00 4FF40063 		mov	r3, #2048
 6401 1c04 09E0     		b	.L1071
 6402              	.L1691:
 6403 1c06 4FF40063 		mov	r3, #2048
 6404 1c0a 06E0     		b	.L1071
 6405              	.L1690:
 6406 1c0c 2023     		movs	r3, #32
 6407 1c0e 04E0     		b	.L1071
 6408              	.L1689:
 6409 1c10 2023     		movs	r3, #32
 6410 1c12 02E0     		b	.L1071
 6411              	.L1688:
 6412 1c14 2023     		movs	r3, #32
 6413 1c16 00E0     		b	.L1071
 6414              	.L1687:
 6415 1c18 2023     		movs	r3, #32
 6416              	.L1071:
 581:../Drivers/STM32F4xx_HAL_Driver/Src/stm32f4xx_hal_dma.c **** 
 6417              		.loc 1 581 0 discriminator 50
 6418 1c1a 024A     		ldr	r2, .L1851+4
 6419 1c1c D360     		str	r3, [r2, #12]
 6420 1c1e 0CE1     		b	.L1083
 6421              	.L1852:
 6422              		.align	2
 6423              	.L1851:
 6424 1c20 B8600240 		.word	1073897656
 6425 1c24 00640240 		.word	1073898496
 6426 1c28 58600240 		.word	1073897560
 6427 1c2c 00600240 		.word	1073897472
 6428 1c30 10600240 		.word	1073897488
 6429 1c34 58640240 		.word	1073898584
 6430              	.L1070:
 581:../Drivers/STM32F4xx_HAL_Driver/Src/stm32f4xx_hal_dma.c **** 
 6431              		.loc 1 581 0 discriminator 2
 6432 1c38 B24A     		ldr	r2, .L1853
 6433 1c3a 9342     		cmp	r3, r2
 6434 1c3c 53D9     		bls	.L1084
 581:../Drivers/STM32F4xx_HAL_Driver/Src/stm32f4xx_hal_dma.c **** 
 6435              		.loc 1 581 0 discriminator 51
 6436 1c3e A83A     		subs	r2, r2, #168
 6437 1c40 9342     		cmp	r3, r2
 6438 1c42 4CD0     		beq	.L1699
 581:../Drivers/STM32F4xx_HAL_Driver/Src/stm32f4xx_hal_dma.c **** 
 6439              		.loc 1 581 0 discriminator 53
 6440 1c44 02F58062 		add	r2, r2, #1024
 6441 1c48 9342     		cmp	r3, r2
 6442 1c4a 46D0     		beq	.L1700
 581:../Drivers/STM32F4xx_HAL_Driver/Src/stm32f4xx_hal_dma.c **** 
 6443              		.loc 1 581 0 discriminator 55
 6444 1c4c A2F56872 		sub	r2, r2, #928
 6445 1c50 9342     		cmp	r3, r2
 6446 1c52 40D0     		beq	.L1701
ARM GAS  /tmp/ccAPlzty.s 			page 147


 581:../Drivers/STM32F4xx_HAL_Driver/Src/stm32f4xx_hal_dma.c **** 
 6447              		.loc 1 581 0 discriminator 57
 6448 1c54 02F58062 		add	r2, r2, #1024
 6449 1c58 9342     		cmp	r3, r2
 6450 1c5a 3AD0     		beq	.L1702
 581:../Drivers/STM32F4xx_HAL_Driver/Src/stm32f4xx_hal_dma.c **** 
 6451              		.loc 1 581 0 discriminator 59
 6452 1c5c A2F58962 		sub	r2, r2, #1096
 6453 1c60 9342     		cmp	r3, r2
 6454 1c62 33D0     		beq	.L1703
 581:../Drivers/STM32F4xx_HAL_Driver/Src/stm32f4xx_hal_dma.c **** 
 6455              		.loc 1 581 0 discriminator 61
 6456 1c64 02F58062 		add	r2, r2, #1024
 6457 1c68 9342     		cmp	r3, r2
 6458 1c6a 2CD0     		beq	.L1704
 581:../Drivers/STM32F4xx_HAL_Driver/Src/stm32f4xx_hal_dma.c **** 
 6459              		.loc 1 581 0 discriminator 63
 6460 1c6c A2F56872 		sub	r2, r2, #928
 6461 1c70 9342     		cmp	r3, r2
 6462 1c72 25D0     		beq	.L1705
 581:../Drivers/STM32F4xx_HAL_Driver/Src/stm32f4xx_hal_dma.c **** 
 6463              		.loc 1 581 0 discriminator 65
 6464 1c74 02F58062 		add	r2, r2, #1024
 6465 1c78 9342     		cmp	r3, r2
 6466 1c7a 1ED0     		beq	.L1706
 581:../Drivers/STM32F4xx_HAL_Driver/Src/stm32f4xx_hal_dma.c **** 
 6467              		.loc 1 581 0 discriminator 67
 6468 1c7c A2F58962 		sub	r2, r2, #1096
 6469 1c80 9342     		cmp	r3, r2
 6470 1c82 17D0     		beq	.L1707
 581:../Drivers/STM32F4xx_HAL_Driver/Src/stm32f4xx_hal_dma.c **** 
 6471              		.loc 1 581 0 discriminator 69
 6472 1c84 02F58062 		add	r2, r2, #1024
 6473 1c88 9342     		cmp	r3, r2
 6474 1c8a 10D0     		beq	.L1708
 581:../Drivers/STM32F4xx_HAL_Driver/Src/stm32f4xx_hal_dma.c **** 
 6475              		.loc 1 581 0 discriminator 71
 6476 1c8c A2F56872 		sub	r2, r2, #928
 6477 1c90 9342     		cmp	r3, r2
 6478 1c92 09D0     		beq	.L1709
 581:../Drivers/STM32F4xx_HAL_Driver/Src/stm32f4xx_hal_dma.c **** 
 6479              		.loc 1 581 0 discriminator 73
 6480 1c94 02F58062 		add	r2, r2, #1024
 6481 1c98 9342     		cmp	r3, r2
 6482 1c9a 02D1     		bne	.L1710
 581:../Drivers/STM32F4xx_HAL_Driver/Src/stm32f4xx_hal_dma.c **** 
 6483              		.loc 1 581 0
 6484 1c9c 4FF40013 		mov	r3, #2097152
 6485 1ca0 1EE0     		b	.L1085
 6486              	.L1710:
 6487 1ca2 4FF00063 		mov	r3, #134217728
 6488 1ca6 1BE0     		b	.L1085
 6489              	.L1709:
 6490 1ca8 4FF40013 		mov	r3, #2097152
 6491 1cac 18E0     		b	.L1085
 6492              	.L1708:
 6493 1cae 4FF40013 		mov	r3, #2097152
ARM GAS  /tmp/ccAPlzty.s 			page 148


 6494 1cb2 15E0     		b	.L1085
 6495              	.L1707:
 6496 1cb4 4FF40013 		mov	r3, #2097152
 6497 1cb8 12E0     		b	.L1085
 6498              	.L1706:
 6499 1cba 4FF40063 		mov	r3, #2048
 6500 1cbe 0FE0     		b	.L1085
 6501              	.L1705:
 6502 1cc0 4FF40063 		mov	r3, #2048
 6503 1cc4 0CE0     		b	.L1085
 6504              	.L1704:
 6505 1cc6 4FF40063 		mov	r3, #2048
 6506 1cca 09E0     		b	.L1085
 6507              	.L1703:
 6508 1ccc 4FF40063 		mov	r3, #2048
 6509 1cd0 06E0     		b	.L1085
 6510              	.L1702:
 6511 1cd2 2023     		movs	r3, #32
 6512 1cd4 04E0     		b	.L1085
 6513              	.L1701:
 6514 1cd6 2023     		movs	r3, #32
 6515 1cd8 02E0     		b	.L1085
 6516              	.L1700:
 6517 1cda 2023     		movs	r3, #32
 6518 1cdc 00E0     		b	.L1085
 6519              	.L1699:
 6520 1cde 2023     		movs	r3, #32
 6521              	.L1085:
 581:../Drivers/STM32F4xx_HAL_Driver/Src/stm32f4xx_hal_dma.c **** 
 6522              		.loc 1 581 0 discriminator 100
 6523 1ce0 894A     		ldr	r2, .L1853+4
 6524 1ce2 9360     		str	r3, [r2, #8]
 6525 1ce4 A9E0     		b	.L1083
 6526              	.L1084:
 581:../Drivers/STM32F4xx_HAL_Driver/Src/stm32f4xx_hal_dma.c **** 
 6527              		.loc 1 581 0 discriminator 52
 6528 1ce6 894A     		ldr	r2, .L1853+8
 6529 1ce8 9342     		cmp	r3, r2
 6530 1cea 53D9     		bls	.L1097
 581:../Drivers/STM32F4xx_HAL_Driver/Src/stm32f4xx_hal_dma.c **** 
 6531              		.loc 1 581 0 discriminator 102
 6532 1cec 483A     		subs	r2, r2, #72
 6533 1cee 9342     		cmp	r3, r2
 6534 1cf0 4CD0     		beq	.L1711
 581:../Drivers/STM32F4xx_HAL_Driver/Src/stm32f4xx_hal_dma.c **** 
 6535              		.loc 1 581 0 discriminator 104
 6536 1cf2 02F58062 		add	r2, r2, #1024
 6537 1cf6 9342     		cmp	r3, r2
 6538 1cf8 46D0     		beq	.L1712
 581:../Drivers/STM32F4xx_HAL_Driver/Src/stm32f4xx_hal_dma.c **** 
 6539              		.loc 1 581 0 discriminator 106
 6540 1cfa A2F56872 		sub	r2, r2, #928
 6541 1cfe 9342     		cmp	r3, r2
 6542 1d00 40D0     		beq	.L1713
 581:../Drivers/STM32F4xx_HAL_Driver/Src/stm32f4xx_hal_dma.c **** 
 6543              		.loc 1 581 0 discriminator 108
 6544 1d02 02F58062 		add	r2, r2, #1024
ARM GAS  /tmp/ccAPlzty.s 			page 149


 6545 1d06 9342     		cmp	r3, r2
 6546 1d08 3AD0     		beq	.L1714
 581:../Drivers/STM32F4xx_HAL_Driver/Src/stm32f4xx_hal_dma.c **** 
 6547              		.loc 1 581 0 discriminator 110
 6548 1d0a A2F58962 		sub	r2, r2, #1096
 6549 1d0e 9342     		cmp	r3, r2
 6550 1d10 33D0     		beq	.L1715
 581:../Drivers/STM32F4xx_HAL_Driver/Src/stm32f4xx_hal_dma.c **** 
 6551              		.loc 1 581 0 discriminator 112
 6552 1d12 02F58062 		add	r2, r2, #1024
 6553 1d16 9342     		cmp	r3, r2
 6554 1d18 2CD0     		beq	.L1716
 581:../Drivers/STM32F4xx_HAL_Driver/Src/stm32f4xx_hal_dma.c **** 
 6555              		.loc 1 581 0 discriminator 114
 6556 1d1a A2F56872 		sub	r2, r2, #928
 6557 1d1e 9342     		cmp	r3, r2
 6558 1d20 25D0     		beq	.L1717
 581:../Drivers/STM32F4xx_HAL_Driver/Src/stm32f4xx_hal_dma.c **** 
 6559              		.loc 1 581 0 discriminator 116
 6560 1d22 02F58062 		add	r2, r2, #1024
 6561 1d26 9342     		cmp	r3, r2
 6562 1d28 1ED0     		beq	.L1718
 581:../Drivers/STM32F4xx_HAL_Driver/Src/stm32f4xx_hal_dma.c **** 
 6563              		.loc 1 581 0 discriminator 118
 6564 1d2a A2F58962 		sub	r2, r2, #1096
 6565 1d2e 9342     		cmp	r3, r2
 6566 1d30 17D0     		beq	.L1719
 581:../Drivers/STM32F4xx_HAL_Driver/Src/stm32f4xx_hal_dma.c **** 
 6567              		.loc 1 581 0 discriminator 120
 6568 1d32 02F58062 		add	r2, r2, #1024
 6569 1d36 9342     		cmp	r3, r2
 6570 1d38 10D0     		beq	.L1720
 581:../Drivers/STM32F4xx_HAL_Driver/Src/stm32f4xx_hal_dma.c **** 
 6571              		.loc 1 581 0 discriminator 122
 6572 1d3a A2F56872 		sub	r2, r2, #928
 6573 1d3e 9342     		cmp	r3, r2
 6574 1d40 09D0     		beq	.L1721
 581:../Drivers/STM32F4xx_HAL_Driver/Src/stm32f4xx_hal_dma.c **** 
 6575              		.loc 1 581 0 discriminator 124
 6576 1d42 02F58062 		add	r2, r2, #1024
 6577 1d46 9342     		cmp	r3, r2
 6578 1d48 02D1     		bne	.L1722
 581:../Drivers/STM32F4xx_HAL_Driver/Src/stm32f4xx_hal_dma.c **** 
 6579              		.loc 1 581 0
 6580 1d4a 4FF40013 		mov	r3, #2097152
 6581 1d4e 1EE0     		b	.L1098
 6582              	.L1722:
 6583 1d50 4FF00063 		mov	r3, #134217728
 6584 1d54 1BE0     		b	.L1098
 6585              	.L1721:
 6586 1d56 4FF40013 		mov	r3, #2097152
 6587 1d5a 18E0     		b	.L1098
 6588              	.L1720:
 6589 1d5c 4FF40013 		mov	r3, #2097152
 6590 1d60 15E0     		b	.L1098
 6591              	.L1719:
 6592 1d62 4FF40013 		mov	r3, #2097152
ARM GAS  /tmp/ccAPlzty.s 			page 150


 6593 1d66 12E0     		b	.L1098
 6594              	.L1718:
 6595 1d68 4FF40063 		mov	r3, #2048
 6596 1d6c 0FE0     		b	.L1098
 6597              	.L1717:
 6598 1d6e 4FF40063 		mov	r3, #2048
 6599 1d72 0CE0     		b	.L1098
 6600              	.L1716:
 6601 1d74 4FF40063 		mov	r3, #2048
 6602 1d78 09E0     		b	.L1098
 6603              	.L1715:
 6604 1d7a 4FF40063 		mov	r3, #2048
 6605 1d7e 06E0     		b	.L1098
 6606              	.L1714:
 6607 1d80 2023     		movs	r3, #32
 6608 1d82 04E0     		b	.L1098
 6609              	.L1713:
 6610 1d84 2023     		movs	r3, #32
 6611 1d86 02E0     		b	.L1098
 6612              	.L1712:
 6613 1d88 2023     		movs	r3, #32
 6614 1d8a 00E0     		b	.L1098
 6615              	.L1711:
 6616 1d8c 2023     		movs	r3, #32
 6617              	.L1098:
 581:../Drivers/STM32F4xx_HAL_Driver/Src/stm32f4xx_hal_dma.c **** 
 6618              		.loc 1 581 0 discriminator 151
 6619 1d8e 604A     		ldr	r2, .L1853+12
 6620 1d90 D360     		str	r3, [r2, #12]
 6621 1d92 52E0     		b	.L1083
 6622              	.L1097:
 581:../Drivers/STM32F4xx_HAL_Driver/Src/stm32f4xx_hal_dma.c **** 
 6623              		.loc 1 581 0 discriminator 103
 6624 1d94 5F4A     		ldr	r2, .L1853+16
 6625 1d96 9342     		cmp	r3, r2
 6626 1d98 4CD0     		beq	.L1723
 581:../Drivers/STM32F4xx_HAL_Driver/Src/stm32f4xx_hal_dma.c **** 
 6627              		.loc 1 581 0 discriminator 153
 6628 1d9a 02F58062 		add	r2, r2, #1024
 6629 1d9e 9342     		cmp	r3, r2
 6630 1da0 46D0     		beq	.L1724
 581:../Drivers/STM32F4xx_HAL_Driver/Src/stm32f4xx_hal_dma.c **** 
 6631              		.loc 1 581 0 discriminator 155
 6632 1da2 A2F56872 		sub	r2, r2, #928
 6633 1da6 9342     		cmp	r3, r2
 6634 1da8 40D0     		beq	.L1725
 581:../Drivers/STM32F4xx_HAL_Driver/Src/stm32f4xx_hal_dma.c **** 
 6635              		.loc 1 581 0 discriminator 157
 6636 1daa 02F58062 		add	r2, r2, #1024
 6637 1dae 9342     		cmp	r3, r2
 6638 1db0 3AD0     		beq	.L1726
 581:../Drivers/STM32F4xx_HAL_Driver/Src/stm32f4xx_hal_dma.c **** 
 6639              		.loc 1 581 0 discriminator 159
 6640 1db2 A2F58962 		sub	r2, r2, #1096
 6641 1db6 9342     		cmp	r3, r2
 6642 1db8 33D0     		beq	.L1727
 581:../Drivers/STM32F4xx_HAL_Driver/Src/stm32f4xx_hal_dma.c **** 
ARM GAS  /tmp/ccAPlzty.s 			page 151


 6643              		.loc 1 581 0 discriminator 161
 6644 1dba 02F58062 		add	r2, r2, #1024
 6645 1dbe 9342     		cmp	r3, r2
 6646 1dc0 2CD0     		beq	.L1728
 581:../Drivers/STM32F4xx_HAL_Driver/Src/stm32f4xx_hal_dma.c **** 
 6647              		.loc 1 581 0 discriminator 163
 6648 1dc2 A2F56872 		sub	r2, r2, #928
 6649 1dc6 9342     		cmp	r3, r2
 6650 1dc8 25D0     		beq	.L1729
 581:../Drivers/STM32F4xx_HAL_Driver/Src/stm32f4xx_hal_dma.c **** 
 6651              		.loc 1 581 0 discriminator 165
 6652 1dca 02F58062 		add	r2, r2, #1024
 6653 1dce 9342     		cmp	r3, r2
 6654 1dd0 1ED0     		beq	.L1730
 581:../Drivers/STM32F4xx_HAL_Driver/Src/stm32f4xx_hal_dma.c **** 
 6655              		.loc 1 581 0 discriminator 167
 6656 1dd2 A2F58962 		sub	r2, r2, #1096
 6657 1dd6 9342     		cmp	r3, r2
 6658 1dd8 17D0     		beq	.L1731
 581:../Drivers/STM32F4xx_HAL_Driver/Src/stm32f4xx_hal_dma.c **** 
 6659              		.loc 1 581 0 discriminator 169
 6660 1dda 02F58062 		add	r2, r2, #1024
 6661 1dde 9342     		cmp	r3, r2
 6662 1de0 10D0     		beq	.L1732
 581:../Drivers/STM32F4xx_HAL_Driver/Src/stm32f4xx_hal_dma.c **** 
 6663              		.loc 1 581 0 discriminator 171
 6664 1de2 A2F56872 		sub	r2, r2, #928
 6665 1de6 9342     		cmp	r3, r2
 6666 1de8 09D0     		beq	.L1733
 581:../Drivers/STM32F4xx_HAL_Driver/Src/stm32f4xx_hal_dma.c **** 
 6667              		.loc 1 581 0 discriminator 173
 6668 1dea 02F58062 		add	r2, r2, #1024
 6669 1dee 9342     		cmp	r3, r2
 6670 1df0 02D1     		bne	.L1734
 581:../Drivers/STM32F4xx_HAL_Driver/Src/stm32f4xx_hal_dma.c **** 
 6671              		.loc 1 581 0
 6672 1df2 4FF40013 		mov	r3, #2097152
 6673 1df6 1EE0     		b	.L1111
 6674              	.L1734:
 6675 1df8 4FF00063 		mov	r3, #134217728
 6676 1dfc 1BE0     		b	.L1111
 6677              	.L1733:
 6678 1dfe 4FF40013 		mov	r3, #2097152
 6679 1e02 18E0     		b	.L1111
 6680              	.L1732:
 6681 1e04 4FF40013 		mov	r3, #2097152
 6682 1e08 15E0     		b	.L1111
 6683              	.L1731:
 6684 1e0a 4FF40013 		mov	r3, #2097152
 6685 1e0e 12E0     		b	.L1111
 6686              	.L1730:
 6687 1e10 4FF40063 		mov	r3, #2048
 6688 1e14 0FE0     		b	.L1111
 6689              	.L1729:
 6690 1e16 4FF40063 		mov	r3, #2048
 6691 1e1a 0CE0     		b	.L1111
 6692              	.L1728:
ARM GAS  /tmp/ccAPlzty.s 			page 152


 6693 1e1c 4FF40063 		mov	r3, #2048
 6694 1e20 09E0     		b	.L1111
 6695              	.L1727:
 6696 1e22 4FF40063 		mov	r3, #2048
 6697 1e26 06E0     		b	.L1111
 6698              	.L1726:
 6699 1e28 2023     		movs	r3, #32
 6700 1e2a 04E0     		b	.L1111
 6701              	.L1725:
 6702 1e2c 2023     		movs	r3, #32
 6703 1e2e 02E0     		b	.L1111
 6704              	.L1724:
 6705 1e30 2023     		movs	r3, #32
 6706 1e32 00E0     		b	.L1111
 6707              	.L1723:
 6708 1e34 2023     		movs	r3, #32
 6709              	.L1111:
 581:../Drivers/STM32F4xx_HAL_Driver/Src/stm32f4xx_hal_dma.c **** 
 6710              		.loc 1 581 0 discriminator 200
 6711 1e36 364A     		ldr	r2, .L1853+12
 6712 1e38 9360     		str	r3, [r2, #8]
 6713              	.L1083:
 585:../Drivers/STM32F4xx_HAL_Driver/Src/stm32f4xx_hal_dma.c ****     }
 6714              		.loc 1 585 0 is_stmt 1
 6715 1e3a 1123     		movs	r3, #17
 6716 1e3c 84F83530 		strb	r3, [r4, #53]
 6717              	.L1016:
 588:../Drivers/STM32F4xx_HAL_Driver/Src/stm32f4xx_hal_dma.c ****   }
 6718              		.loc 1 588 0
 6719 1e40 0020     		movs	r0, #0
 6720 1e42 84F83400 		strb	r0, [r4, #52]
 6721 1e46 BDE8F883 		pop	{r3, r4, r5, r6, r7, r8, r9, pc}
 6722              	.LVL61:
 6723              	.L907:
 593:../Drivers/STM32F4xx_HAL_Driver/Src/stm32f4xx_hal_dma.c ****     {
 6724              		.loc 1 593 0
 6725 1e4a 1B68     		ldr	r3, [r3]
 6726 1e4c 13F4802F 		tst	r3, #262144
 6727 1e50 00F07B81 		beq	.L1123
 596:../Drivers/STM32F4xx_HAL_Driver/Src/stm32f4xx_hal_dma.c **** 
 6728              		.loc 1 596 0
 6729 1e54 304B     		ldr	r3, .L1853+20
 6730 1e56 9E45     		cmp	lr, r3
 6731 1e58 60D9     		bls	.L1124
 596:../Drivers/STM32F4xx_HAL_Driver/Src/stm32f4xx_hal_dma.c **** 
 6732              		.loc 1 596 0 is_stmt 0 discriminator 1
 6733 1e5a A3F58963 		sub	r3, r3, #1096
 6734 1e5e 9E45     		cmp	lr, r3
 6735 1e60 4CD0     		beq	.L1735
 596:../Drivers/STM32F4xx_HAL_Driver/Src/stm32f4xx_hal_dma.c **** 
 6736              		.loc 1 596 0 discriminator 3
 6737 1e62 03F58063 		add	r3, r3, #1024
 6738 1e66 9E45     		cmp	lr, r3
 6739 1e68 46D0     		beq	.L1736
 596:../Drivers/STM32F4xx_HAL_Driver/Src/stm32f4xx_hal_dma.c **** 
 6740              		.loc 1 596 0 discriminator 5
 6741 1e6a A3F56873 		sub	r3, r3, #928
ARM GAS  /tmp/ccAPlzty.s 			page 153


 6742 1e6e 9E45     		cmp	lr, r3
 6743 1e70 40D0     		beq	.L1737
 596:../Drivers/STM32F4xx_HAL_Driver/Src/stm32f4xx_hal_dma.c **** 
 6744              		.loc 1 596 0 discriminator 7
 6745 1e72 03F58063 		add	r3, r3, #1024
 6746 1e76 9E45     		cmp	lr, r3
 6747 1e78 3AD0     		beq	.L1738
 596:../Drivers/STM32F4xx_HAL_Driver/Src/stm32f4xx_hal_dma.c **** 
 6748              		.loc 1 596 0 discriminator 9
 6749 1e7a A3F58963 		sub	r3, r3, #1096
 6750 1e7e 9E45     		cmp	lr, r3
 6751 1e80 33D0     		beq	.L1739
 596:../Drivers/STM32F4xx_HAL_Driver/Src/stm32f4xx_hal_dma.c **** 
 6752              		.loc 1 596 0 discriminator 11
 6753 1e82 03F58063 		add	r3, r3, #1024
 6754 1e86 9E45     		cmp	lr, r3
 6755 1e88 2CD0     		beq	.L1740
 596:../Drivers/STM32F4xx_HAL_Driver/Src/stm32f4xx_hal_dma.c **** 
 6756              		.loc 1 596 0 discriminator 13
 6757 1e8a A3F56873 		sub	r3, r3, #928
 6758 1e8e 9E45     		cmp	lr, r3
 6759 1e90 25D0     		beq	.L1741
 596:../Drivers/STM32F4xx_HAL_Driver/Src/stm32f4xx_hal_dma.c **** 
 6760              		.loc 1 596 0 discriminator 15
 6761 1e92 03F58063 		add	r3, r3, #1024
 6762 1e96 9E45     		cmp	lr, r3
 6763 1e98 1ED0     		beq	.L1742
 596:../Drivers/STM32F4xx_HAL_Driver/Src/stm32f4xx_hal_dma.c **** 
 6764              		.loc 1 596 0 discriminator 17
 6765 1e9a A3F58963 		sub	r3, r3, #1096
 6766 1e9e 9E45     		cmp	lr, r3
 6767 1ea0 17D0     		beq	.L1743
 596:../Drivers/STM32F4xx_HAL_Driver/Src/stm32f4xx_hal_dma.c **** 
 6768              		.loc 1 596 0 discriminator 19
 6769 1ea2 03F58063 		add	r3, r3, #1024
 6770 1ea6 9E45     		cmp	lr, r3
 6771 1ea8 10D0     		beq	.L1744
 596:../Drivers/STM32F4xx_HAL_Driver/Src/stm32f4xx_hal_dma.c **** 
 6772              		.loc 1 596 0 discriminator 21
 6773 1eaa A3F56873 		sub	r3, r3, #928
 6774 1eae 9E45     		cmp	lr, r3
 6775 1eb0 09D0     		beq	.L1745
 596:../Drivers/STM32F4xx_HAL_Driver/Src/stm32f4xx_hal_dma.c **** 
 6776              		.loc 1 596 0 discriminator 23
 6777 1eb2 03F58063 		add	r3, r3, #1024
 6778 1eb6 9E45     		cmp	lr, r3
 6779 1eb8 02D1     		bne	.L1746
 596:../Drivers/STM32F4xx_HAL_Driver/Src/stm32f4xx_hal_dma.c **** 
 6780              		.loc 1 596 0
 6781 1eba 4FF48013 		mov	r3, #1048576
 6782 1ebe 1EE0     		b	.L1125
 6783              	.L1746:
 6784 1ec0 4FF08063 		mov	r3, #67108864
 6785 1ec4 1BE0     		b	.L1125
 6786              	.L1745:
 6787 1ec6 4FF48013 		mov	r3, #1048576
 6788 1eca 18E0     		b	.L1125
ARM GAS  /tmp/ccAPlzty.s 			page 154


 6789              	.L1744:
 6790 1ecc 4FF48013 		mov	r3, #1048576
 6791 1ed0 15E0     		b	.L1125
 6792              	.L1743:
 6793 1ed2 4FF48013 		mov	r3, #1048576
 6794 1ed6 12E0     		b	.L1125
 6795              	.L1742:
 6796 1ed8 4FF48063 		mov	r3, #1024
 6797 1edc 0FE0     		b	.L1125
 6798              	.L1741:
 6799 1ede 4FF48063 		mov	r3, #1024
 6800 1ee2 0CE0     		b	.L1125
 6801              	.L1740:
 6802 1ee4 4FF48063 		mov	r3, #1024
 6803 1ee8 09E0     		b	.L1125
 6804              	.L1739:
 6805 1eea 4FF48063 		mov	r3, #1024
 6806 1eee 06E0     		b	.L1125
 6807              	.L1738:
 6808 1ef0 1023     		movs	r3, #16
 6809 1ef2 04E0     		b	.L1125
 6810              	.L1737:
 6811 1ef4 1023     		movs	r3, #16
 6812 1ef6 02E0     		b	.L1125
 6813              	.L1736:
 6814 1ef8 1023     		movs	r3, #16
 6815 1efa 00E0     		b	.L1125
 6816              	.L1735:
 6817 1efc 1023     		movs	r3, #16
 6818              	.L1125:
 596:../Drivers/STM32F4xx_HAL_Driver/Src/stm32f4xx_hal_dma.c **** 
 6819              		.loc 1 596 0 discriminator 50
 6820 1efe 024A     		ldr	r2, .L1853+4
 6821 1f00 D360     		str	r3, [r2, #12]
 6822 1f02 0CE1     		b	.L1137
 6823              	.L1854:
 6824              		.align	2
 6825              	.L1853:
 6826 1f04 B8600240 		.word	1073897656
 6827 1f08 00640240 		.word	1073898496
 6828 1f0c 58600240 		.word	1073897560
 6829 1f10 00600240 		.word	1073897472
 6830 1f14 10600240 		.word	1073897488
 6831 1f18 58640240 		.word	1073898584
 6832              	.L1124:
 596:../Drivers/STM32F4xx_HAL_Driver/Src/stm32f4xx_hal_dma.c **** 
 6833              		.loc 1 596 0 discriminator 2
 6834 1f1c B74B     		ldr	r3, .L1855
 6835 1f1e 9E45     		cmp	lr, r3
 6836 1f20 53D9     		bls	.L1138
 596:../Drivers/STM32F4xx_HAL_Driver/Src/stm32f4xx_hal_dma.c **** 
 6837              		.loc 1 596 0 discriminator 51
 6838 1f22 A83B     		subs	r3, r3, #168
 6839 1f24 9E45     		cmp	lr, r3
 6840 1f26 4CD0     		beq	.L1747
 596:../Drivers/STM32F4xx_HAL_Driver/Src/stm32f4xx_hal_dma.c **** 
 6841              		.loc 1 596 0 discriminator 53
ARM GAS  /tmp/ccAPlzty.s 			page 155


 6842 1f28 03F58063 		add	r3, r3, #1024
 6843 1f2c 9E45     		cmp	lr, r3
 6844 1f2e 46D0     		beq	.L1748
 596:../Drivers/STM32F4xx_HAL_Driver/Src/stm32f4xx_hal_dma.c **** 
 6845              		.loc 1 596 0 discriminator 55
 6846 1f30 A3F56873 		sub	r3, r3, #928
 6847 1f34 9E45     		cmp	lr, r3
 6848 1f36 40D0     		beq	.L1749
 596:../Drivers/STM32F4xx_HAL_Driver/Src/stm32f4xx_hal_dma.c **** 
 6849              		.loc 1 596 0 discriminator 57
 6850 1f38 03F58063 		add	r3, r3, #1024
 6851 1f3c 9E45     		cmp	lr, r3
 6852 1f3e 3AD0     		beq	.L1750
 596:../Drivers/STM32F4xx_HAL_Driver/Src/stm32f4xx_hal_dma.c **** 
 6853              		.loc 1 596 0 discriminator 59
 6854 1f40 A3F58963 		sub	r3, r3, #1096
 6855 1f44 9E45     		cmp	lr, r3
 6856 1f46 33D0     		beq	.L1751
 596:../Drivers/STM32F4xx_HAL_Driver/Src/stm32f4xx_hal_dma.c **** 
 6857              		.loc 1 596 0 discriminator 61
 6858 1f48 03F58063 		add	r3, r3, #1024
 6859 1f4c 9E45     		cmp	lr, r3
 6860 1f4e 2CD0     		beq	.L1752
 596:../Drivers/STM32F4xx_HAL_Driver/Src/stm32f4xx_hal_dma.c **** 
 6861              		.loc 1 596 0 discriminator 63
 6862 1f50 A3F56873 		sub	r3, r3, #928
 6863 1f54 9E45     		cmp	lr, r3
 6864 1f56 25D0     		beq	.L1753
 596:../Drivers/STM32F4xx_HAL_Driver/Src/stm32f4xx_hal_dma.c **** 
 6865              		.loc 1 596 0 discriminator 65
 6866 1f58 03F58063 		add	r3, r3, #1024
 6867 1f5c 9E45     		cmp	lr, r3
 6868 1f5e 1ED0     		beq	.L1754
 596:../Drivers/STM32F4xx_HAL_Driver/Src/stm32f4xx_hal_dma.c **** 
 6869              		.loc 1 596 0 discriminator 67
 6870 1f60 A3F58963 		sub	r3, r3, #1096
 6871 1f64 9E45     		cmp	lr, r3
 6872 1f66 17D0     		beq	.L1755
 596:../Drivers/STM32F4xx_HAL_Driver/Src/stm32f4xx_hal_dma.c **** 
 6873              		.loc 1 596 0 discriminator 69
 6874 1f68 03F58063 		add	r3, r3, #1024
 6875 1f6c 9E45     		cmp	lr, r3
 6876 1f6e 10D0     		beq	.L1756
 596:../Drivers/STM32F4xx_HAL_Driver/Src/stm32f4xx_hal_dma.c **** 
 6877              		.loc 1 596 0 discriminator 71
 6878 1f70 A3F56873 		sub	r3, r3, #928
 6879 1f74 9E45     		cmp	lr, r3
 6880 1f76 09D0     		beq	.L1757
 596:../Drivers/STM32F4xx_HAL_Driver/Src/stm32f4xx_hal_dma.c **** 
 6881              		.loc 1 596 0 discriminator 73
 6882 1f78 03F58063 		add	r3, r3, #1024
 6883 1f7c 9E45     		cmp	lr, r3
 6884 1f7e 02D1     		bne	.L1758
 596:../Drivers/STM32F4xx_HAL_Driver/Src/stm32f4xx_hal_dma.c **** 
 6885              		.loc 1 596 0
 6886 1f80 4FF48013 		mov	r3, #1048576
 6887 1f84 1EE0     		b	.L1139
ARM GAS  /tmp/ccAPlzty.s 			page 156


 6888              	.L1758:
 6889 1f86 4FF08063 		mov	r3, #67108864
 6890 1f8a 1BE0     		b	.L1139
 6891              	.L1757:
 6892 1f8c 4FF48013 		mov	r3, #1048576
 6893 1f90 18E0     		b	.L1139
 6894              	.L1756:
 6895 1f92 4FF48013 		mov	r3, #1048576
 6896 1f96 15E0     		b	.L1139
 6897              	.L1755:
 6898 1f98 4FF48013 		mov	r3, #1048576
 6899 1f9c 12E0     		b	.L1139
 6900              	.L1754:
 6901 1f9e 4FF48063 		mov	r3, #1024
 6902 1fa2 0FE0     		b	.L1139
 6903              	.L1753:
 6904 1fa4 4FF48063 		mov	r3, #1024
 6905 1fa8 0CE0     		b	.L1139
 6906              	.L1752:
 6907 1faa 4FF48063 		mov	r3, #1024
 6908 1fae 09E0     		b	.L1139
 6909              	.L1751:
 6910 1fb0 4FF48063 		mov	r3, #1024
 6911 1fb4 06E0     		b	.L1139
 6912              	.L1750:
 6913 1fb6 1023     		movs	r3, #16
 6914 1fb8 04E0     		b	.L1139
 6915              	.L1749:
 6916 1fba 1023     		movs	r3, #16
 6917 1fbc 02E0     		b	.L1139
 6918              	.L1748:
 6919 1fbe 1023     		movs	r3, #16
 6920 1fc0 00E0     		b	.L1139
 6921              	.L1747:
 6922 1fc2 1023     		movs	r3, #16
 6923              	.L1139:
 596:../Drivers/STM32F4xx_HAL_Driver/Src/stm32f4xx_hal_dma.c **** 
 6924              		.loc 1 596 0 discriminator 100
 6925 1fc4 8E4A     		ldr	r2, .L1855+4
 6926 1fc6 9360     		str	r3, [r2, #8]
 6927 1fc8 A9E0     		b	.L1137
 6928              	.L1138:
 596:../Drivers/STM32F4xx_HAL_Driver/Src/stm32f4xx_hal_dma.c **** 
 6929              		.loc 1 596 0 discriminator 52
 6930 1fca 8E4B     		ldr	r3, .L1855+8
 6931 1fcc 9E45     		cmp	lr, r3
 6932 1fce 53D9     		bls	.L1151
 596:../Drivers/STM32F4xx_HAL_Driver/Src/stm32f4xx_hal_dma.c **** 
 6933              		.loc 1 596 0 discriminator 102
 6934 1fd0 483B     		subs	r3, r3, #72
 6935 1fd2 9E45     		cmp	lr, r3
 6936 1fd4 4CD0     		beq	.L1759
 596:../Drivers/STM32F4xx_HAL_Driver/Src/stm32f4xx_hal_dma.c **** 
 6937              		.loc 1 596 0 discriminator 104
 6938 1fd6 03F58063 		add	r3, r3, #1024
 6939 1fda 9E45     		cmp	lr, r3
 6940 1fdc 46D0     		beq	.L1760
ARM GAS  /tmp/ccAPlzty.s 			page 157


 596:../Drivers/STM32F4xx_HAL_Driver/Src/stm32f4xx_hal_dma.c **** 
 6941              		.loc 1 596 0 discriminator 106
 6942 1fde A3F56873 		sub	r3, r3, #928
 6943 1fe2 9E45     		cmp	lr, r3
 6944 1fe4 40D0     		beq	.L1761
 596:../Drivers/STM32F4xx_HAL_Driver/Src/stm32f4xx_hal_dma.c **** 
 6945              		.loc 1 596 0 discriminator 108
 6946 1fe6 03F58063 		add	r3, r3, #1024
 6947 1fea 9E45     		cmp	lr, r3
 6948 1fec 3AD0     		beq	.L1762
 596:../Drivers/STM32F4xx_HAL_Driver/Src/stm32f4xx_hal_dma.c **** 
 6949              		.loc 1 596 0 discriminator 110
 6950 1fee A3F58963 		sub	r3, r3, #1096
 6951 1ff2 9E45     		cmp	lr, r3
 6952 1ff4 33D0     		beq	.L1763
 596:../Drivers/STM32F4xx_HAL_Driver/Src/stm32f4xx_hal_dma.c **** 
 6953              		.loc 1 596 0 discriminator 112
 6954 1ff6 03F58063 		add	r3, r3, #1024
 6955 1ffa 9E45     		cmp	lr, r3
 6956 1ffc 2CD0     		beq	.L1764
 596:../Drivers/STM32F4xx_HAL_Driver/Src/stm32f4xx_hal_dma.c **** 
 6957              		.loc 1 596 0 discriminator 114
 6958 1ffe A3F56873 		sub	r3, r3, #928
 6959 2002 9E45     		cmp	lr, r3
 6960 2004 25D0     		beq	.L1765
 596:../Drivers/STM32F4xx_HAL_Driver/Src/stm32f4xx_hal_dma.c **** 
 6961              		.loc 1 596 0 discriminator 116
 6962 2006 03F58063 		add	r3, r3, #1024
 6963 200a 9E45     		cmp	lr, r3
 6964 200c 1ED0     		beq	.L1766
 596:../Drivers/STM32F4xx_HAL_Driver/Src/stm32f4xx_hal_dma.c **** 
 6965              		.loc 1 596 0 discriminator 118
 6966 200e A3F58963 		sub	r3, r3, #1096
 6967 2012 9E45     		cmp	lr, r3
 6968 2014 17D0     		beq	.L1767
 596:../Drivers/STM32F4xx_HAL_Driver/Src/stm32f4xx_hal_dma.c **** 
 6969              		.loc 1 596 0 discriminator 120
 6970 2016 03F58063 		add	r3, r3, #1024
 6971 201a 9E45     		cmp	lr, r3
 6972 201c 10D0     		beq	.L1768
 596:../Drivers/STM32F4xx_HAL_Driver/Src/stm32f4xx_hal_dma.c **** 
 6973              		.loc 1 596 0 discriminator 122
 6974 201e A3F56873 		sub	r3, r3, #928
 6975 2022 9E45     		cmp	lr, r3
 6976 2024 09D0     		beq	.L1769
 596:../Drivers/STM32F4xx_HAL_Driver/Src/stm32f4xx_hal_dma.c **** 
 6977              		.loc 1 596 0 discriminator 124
 6978 2026 03F58063 		add	r3, r3, #1024
 6979 202a 9E45     		cmp	lr, r3
 6980 202c 02D1     		bne	.L1770
 596:../Drivers/STM32F4xx_HAL_Driver/Src/stm32f4xx_hal_dma.c **** 
 6981              		.loc 1 596 0
 6982 202e 4FF48013 		mov	r3, #1048576
 6983 2032 1EE0     		b	.L1152
 6984              	.L1770:
 6985 2034 4FF08063 		mov	r3, #67108864
 6986 2038 1BE0     		b	.L1152
ARM GAS  /tmp/ccAPlzty.s 			page 158


 6987              	.L1769:
 6988 203a 4FF48013 		mov	r3, #1048576
 6989 203e 18E0     		b	.L1152
 6990              	.L1768:
 6991 2040 4FF48013 		mov	r3, #1048576
 6992 2044 15E0     		b	.L1152
 6993              	.L1767:
 6994 2046 4FF48013 		mov	r3, #1048576
 6995 204a 12E0     		b	.L1152
 6996              	.L1766:
 6997 204c 4FF48063 		mov	r3, #1024
 6998 2050 0FE0     		b	.L1152
 6999              	.L1765:
 7000 2052 4FF48063 		mov	r3, #1024
 7001 2056 0CE0     		b	.L1152
 7002              	.L1764:
 7003 2058 4FF48063 		mov	r3, #1024
 7004 205c 09E0     		b	.L1152
 7005              	.L1763:
 7006 205e 4FF48063 		mov	r3, #1024
 7007 2062 06E0     		b	.L1152
 7008              	.L1762:
 7009 2064 1023     		movs	r3, #16
 7010 2066 04E0     		b	.L1152
 7011              	.L1761:
 7012 2068 1023     		movs	r3, #16
 7013 206a 02E0     		b	.L1152
 7014              	.L1760:
 7015 206c 1023     		movs	r3, #16
 7016 206e 00E0     		b	.L1152
 7017              	.L1759:
 7018 2070 1023     		movs	r3, #16
 7019              	.L1152:
 596:../Drivers/STM32F4xx_HAL_Driver/Src/stm32f4xx_hal_dma.c **** 
 7020              		.loc 1 596 0 discriminator 151
 7021 2072 654A     		ldr	r2, .L1855+12
 7022 2074 D360     		str	r3, [r2, #12]
 7023 2076 52E0     		b	.L1137
 7024              	.L1151:
 596:../Drivers/STM32F4xx_HAL_Driver/Src/stm32f4xx_hal_dma.c **** 
 7025              		.loc 1 596 0 discriminator 103
 7026 2078 644B     		ldr	r3, .L1855+16
 7027 207a 9E45     		cmp	lr, r3
 7028 207c 4CD0     		beq	.L1771
 596:../Drivers/STM32F4xx_HAL_Driver/Src/stm32f4xx_hal_dma.c **** 
 7029              		.loc 1 596 0 discriminator 153
 7030 207e 03F58063 		add	r3, r3, #1024
 7031 2082 9E45     		cmp	lr, r3
 7032 2084 46D0     		beq	.L1772
 596:../Drivers/STM32F4xx_HAL_Driver/Src/stm32f4xx_hal_dma.c **** 
 7033              		.loc 1 596 0 discriminator 155
 7034 2086 A3F56873 		sub	r3, r3, #928
 7035 208a 9E45     		cmp	lr, r3
 7036 208c 40D0     		beq	.L1773
 596:../Drivers/STM32F4xx_HAL_Driver/Src/stm32f4xx_hal_dma.c **** 
 7037              		.loc 1 596 0 discriminator 157
 7038 208e 03F58063 		add	r3, r3, #1024
ARM GAS  /tmp/ccAPlzty.s 			page 159


 7039 2092 9E45     		cmp	lr, r3
 7040 2094 3AD0     		beq	.L1774
 596:../Drivers/STM32F4xx_HAL_Driver/Src/stm32f4xx_hal_dma.c **** 
 7041              		.loc 1 596 0 discriminator 159
 7042 2096 A3F58963 		sub	r3, r3, #1096
 7043 209a 9E45     		cmp	lr, r3
 7044 209c 33D0     		beq	.L1775
 596:../Drivers/STM32F4xx_HAL_Driver/Src/stm32f4xx_hal_dma.c **** 
 7045              		.loc 1 596 0 discriminator 161
 7046 209e 03F58063 		add	r3, r3, #1024
 7047 20a2 9E45     		cmp	lr, r3
 7048 20a4 2CD0     		beq	.L1776
 596:../Drivers/STM32F4xx_HAL_Driver/Src/stm32f4xx_hal_dma.c **** 
 7049              		.loc 1 596 0 discriminator 163
 7050 20a6 A3F56873 		sub	r3, r3, #928
 7051 20aa 9E45     		cmp	lr, r3
 7052 20ac 25D0     		beq	.L1777
 596:../Drivers/STM32F4xx_HAL_Driver/Src/stm32f4xx_hal_dma.c **** 
 7053              		.loc 1 596 0 discriminator 165
 7054 20ae 03F58063 		add	r3, r3, #1024
 7055 20b2 9E45     		cmp	lr, r3
 7056 20b4 1ED0     		beq	.L1778
 596:../Drivers/STM32F4xx_HAL_Driver/Src/stm32f4xx_hal_dma.c **** 
 7057              		.loc 1 596 0 discriminator 167
 7058 20b6 A3F58963 		sub	r3, r3, #1096
 7059 20ba 9E45     		cmp	lr, r3
 7060 20bc 17D0     		beq	.L1779
 596:../Drivers/STM32F4xx_HAL_Driver/Src/stm32f4xx_hal_dma.c **** 
 7061              		.loc 1 596 0 discriminator 169
 7062 20be 03F58063 		add	r3, r3, #1024
 7063 20c2 9E45     		cmp	lr, r3
 7064 20c4 10D0     		beq	.L1780
 596:../Drivers/STM32F4xx_HAL_Driver/Src/stm32f4xx_hal_dma.c **** 
 7065              		.loc 1 596 0 discriminator 171
 7066 20c6 A3F56873 		sub	r3, r3, #928
 7067 20ca 9E45     		cmp	lr, r3
 7068 20cc 09D0     		beq	.L1781
 596:../Drivers/STM32F4xx_HAL_Driver/Src/stm32f4xx_hal_dma.c **** 
 7069              		.loc 1 596 0 discriminator 173
 7070 20ce 03F58063 		add	r3, r3, #1024
 7071 20d2 9E45     		cmp	lr, r3
 7072 20d4 02D1     		bne	.L1782
 596:../Drivers/STM32F4xx_HAL_Driver/Src/stm32f4xx_hal_dma.c **** 
 7073              		.loc 1 596 0
 7074 20d6 4FF48013 		mov	r3, #1048576
 7075 20da 1EE0     		b	.L1165
 7076              	.L1782:
 7077 20dc 4FF08063 		mov	r3, #67108864
 7078 20e0 1BE0     		b	.L1165
 7079              	.L1781:
 7080 20e2 4FF48013 		mov	r3, #1048576
 7081 20e6 18E0     		b	.L1165
 7082              	.L1780:
 7083 20e8 4FF48013 		mov	r3, #1048576
 7084 20ec 15E0     		b	.L1165
 7085              	.L1779:
 7086 20ee 4FF48013 		mov	r3, #1048576
ARM GAS  /tmp/ccAPlzty.s 			page 160


 7087 20f2 12E0     		b	.L1165
 7088              	.L1778:
 7089 20f4 4FF48063 		mov	r3, #1024
 7090 20f8 0FE0     		b	.L1165
 7091              	.L1777:
 7092 20fa 4FF48063 		mov	r3, #1024
 7093 20fe 0CE0     		b	.L1165
 7094              	.L1776:
 7095 2100 4FF48063 		mov	r3, #1024
 7096 2104 09E0     		b	.L1165
 7097              	.L1775:
 7098 2106 4FF48063 		mov	r3, #1024
 7099 210a 06E0     		b	.L1165
 7100              	.L1774:
 7101 210c 1023     		movs	r3, #16
 7102 210e 04E0     		b	.L1165
 7103              	.L1773:
 7104 2110 1023     		movs	r3, #16
 7105 2112 02E0     		b	.L1165
 7106              	.L1772:
 7107 2114 1023     		movs	r3, #16
 7108 2116 00E0     		b	.L1165
 7109              	.L1771:
 7110 2118 1023     		movs	r3, #16
 7111              	.L1165:
 596:../Drivers/STM32F4xx_HAL_Driver/Src/stm32f4xx_hal_dma.c **** 
 7112              		.loc 1 596 0 discriminator 200
 7113 211a 3B4A     		ldr	r2, .L1855+12
 7114 211c 9360     		str	r3, [r2, #8]
 7115              	.L1137:
 599:../Drivers/STM32F4xx_HAL_Driver/Src/stm32f4xx_hal_dma.c ****       {
 7116              		.loc 1 599 0 is_stmt 1
 7117 211e 2368     		ldr	r3, [r4]
 7118 2120 1A68     		ldr	r2, [r3]
 7119 2122 12F4002F 		tst	r2, #524288
 7120 2126 05D1     		bne	.L1177
 602:../Drivers/STM32F4xx_HAL_Driver/Src/stm32f4xx_hal_dma.c ****       }
 7121              		.loc 1 602 0
 7122 2128 3123     		movs	r3, #49
 7123 212a 84F83530 		strb	r3, [r4, #53]
 620:../Drivers/STM32F4xx_HAL_Driver/Src/stm32f4xx_hal_dma.c **** }
 7124              		.loc 1 620 0
 7125 212e 0020     		movs	r0, #0
 7126 2130 BDE8F883 		pop	{r3, r4, r5, r6, r7, r8, r9, pc}
 7127              	.LVL62:
 7128              	.L1177:
 605:../Drivers/STM32F4xx_HAL_Driver/Src/stm32f4xx_hal_dma.c ****       {
 7129              		.loc 1 605 0
 7130 2134 1B68     		ldr	r3, [r3]
 7131 2136 13F4002F 		tst	r3, #524288
 7132 213a 00F07281 		beq	.L1783
 608:../Drivers/STM32F4xx_HAL_Driver/Src/stm32f4xx_hal_dma.c ****       }
 7133              		.loc 1 608 0
 7134 213e 4123     		movs	r3, #65
 7135 2140 84F83530 		strb	r3, [r4, #53]
 620:../Drivers/STM32F4xx_HAL_Driver/Src/stm32f4xx_hal_dma.c **** }
 7136              		.loc 1 620 0
ARM GAS  /tmp/ccAPlzty.s 			page 161


 7137 2144 0020     		movs	r0, #0
 7138 2146 BDE8F883 		pop	{r3, r4, r5, r6, r7, r8, r9, pc}
 7139              	.LVL63:
 7140              	.L1123:
 614:../Drivers/STM32F4xx_HAL_Driver/Src/stm32f4xx_hal_dma.c **** 
 7141              		.loc 1 614 0
 7142 214a 314B     		ldr	r3, .L1855+20
 7143 214c 9E45     		cmp	lr, r3
 7144 214e 61D9     		bls	.L1178
 614:../Drivers/STM32F4xx_HAL_Driver/Src/stm32f4xx_hal_dma.c **** 
 7145              		.loc 1 614 0 is_stmt 0 discriminator 1
 7146 2150 A3F58963 		sub	r3, r3, #1096
 7147 2154 9E45     		cmp	lr, r3
 7148 2156 4CD0     		beq	.L1784
 614:../Drivers/STM32F4xx_HAL_Driver/Src/stm32f4xx_hal_dma.c **** 
 7149              		.loc 1 614 0 discriminator 3
 7150 2158 03F58063 		add	r3, r3, #1024
 7151 215c 9E45     		cmp	lr, r3
 7152 215e 46D0     		beq	.L1785
 614:../Drivers/STM32F4xx_HAL_Driver/Src/stm32f4xx_hal_dma.c **** 
 7153              		.loc 1 614 0 discriminator 5
 7154 2160 A3F56873 		sub	r3, r3, #928
 7155 2164 9E45     		cmp	lr, r3
 7156 2166 40D0     		beq	.L1786
 614:../Drivers/STM32F4xx_HAL_Driver/Src/stm32f4xx_hal_dma.c **** 
 7157              		.loc 1 614 0 discriminator 7
 7158 2168 03F58063 		add	r3, r3, #1024
 7159 216c 9E45     		cmp	lr, r3
 7160 216e 3AD0     		beq	.L1787
 614:../Drivers/STM32F4xx_HAL_Driver/Src/stm32f4xx_hal_dma.c **** 
 7161              		.loc 1 614 0 discriminator 9
 7162 2170 A3F58963 		sub	r3, r3, #1096
 7163 2174 9E45     		cmp	lr, r3
 7164 2176 33D0     		beq	.L1788
 614:../Drivers/STM32F4xx_HAL_Driver/Src/stm32f4xx_hal_dma.c **** 
 7165              		.loc 1 614 0 discriminator 11
 7166 2178 03F58063 		add	r3, r3, #1024
 7167 217c 9E45     		cmp	lr, r3
 7168 217e 2CD0     		beq	.L1789
 614:../Drivers/STM32F4xx_HAL_Driver/Src/stm32f4xx_hal_dma.c **** 
 7169              		.loc 1 614 0 discriminator 13
 7170 2180 A3F56873 		sub	r3, r3, #928
 7171 2184 9E45     		cmp	lr, r3
 7172 2186 25D0     		beq	.L1790
 614:../Drivers/STM32F4xx_HAL_Driver/Src/stm32f4xx_hal_dma.c **** 
 7173              		.loc 1 614 0 discriminator 15
 7174 2188 03F58063 		add	r3, r3, #1024
 7175 218c 9E45     		cmp	lr, r3
 7176 218e 1ED0     		beq	.L1791
 614:../Drivers/STM32F4xx_HAL_Driver/Src/stm32f4xx_hal_dma.c **** 
 7177              		.loc 1 614 0 discriminator 17
 7178 2190 A3F58963 		sub	r3, r3, #1096
 7179 2194 9E45     		cmp	lr, r3
 7180 2196 17D0     		beq	.L1792
 614:../Drivers/STM32F4xx_HAL_Driver/Src/stm32f4xx_hal_dma.c **** 
 7181              		.loc 1 614 0 discriminator 19
 7182 2198 03F58063 		add	r3, r3, #1024
ARM GAS  /tmp/ccAPlzty.s 			page 162


 7183 219c 9E45     		cmp	lr, r3
 7184 219e 10D0     		beq	.L1793
 614:../Drivers/STM32F4xx_HAL_Driver/Src/stm32f4xx_hal_dma.c **** 
 7185              		.loc 1 614 0 discriminator 21
 7186 21a0 A3F56873 		sub	r3, r3, #928
 7187 21a4 9E45     		cmp	lr, r3
 7188 21a6 09D0     		beq	.L1794
 614:../Drivers/STM32F4xx_HAL_Driver/Src/stm32f4xx_hal_dma.c **** 
 7189              		.loc 1 614 0 discriminator 23
 7190 21a8 03F58063 		add	r3, r3, #1024
 7191 21ac 9E45     		cmp	lr, r3
 7192 21ae 02D1     		bne	.L1795
 614:../Drivers/STM32F4xx_HAL_Driver/Src/stm32f4xx_hal_dma.c **** 
 7193              		.loc 1 614 0
 7194 21b0 4FF48013 		mov	r3, #1048576
 7195 21b4 1EE0     		b	.L1179
 7196              	.L1795:
 7197 21b6 4FF08063 		mov	r3, #67108864
 7198 21ba 1BE0     		b	.L1179
 7199              	.L1794:
 7200 21bc 4FF48013 		mov	r3, #1048576
 7201 21c0 18E0     		b	.L1179
 7202              	.L1793:
 7203 21c2 4FF48013 		mov	r3, #1048576
 7204 21c6 15E0     		b	.L1179
 7205              	.L1792:
 7206 21c8 4FF48013 		mov	r3, #1048576
 7207 21cc 12E0     		b	.L1179
 7208              	.L1791:
 7209 21ce 4FF48063 		mov	r3, #1024
 7210 21d2 0FE0     		b	.L1179
 7211              	.L1790:
 7212 21d4 4FF48063 		mov	r3, #1024
 7213 21d8 0CE0     		b	.L1179
 7214              	.L1789:
 7215 21da 4FF48063 		mov	r3, #1024
 7216 21de 09E0     		b	.L1179
 7217              	.L1788:
 7218 21e0 4FF48063 		mov	r3, #1024
 7219 21e4 06E0     		b	.L1179
 7220              	.L1787:
 7221 21e6 1023     		movs	r3, #16
 7222 21e8 04E0     		b	.L1179
 7223              	.L1786:
 7224 21ea 1023     		movs	r3, #16
 7225 21ec 02E0     		b	.L1179
 7226              	.L1785:
 7227 21ee 1023     		movs	r3, #16
 7228 21f0 00E0     		b	.L1179
 7229              	.L1784:
 7230 21f2 1023     		movs	r3, #16
 7231              	.L1179:
 614:../Drivers/STM32F4xx_HAL_Driver/Src/stm32f4xx_hal_dma.c **** 
 7232              		.loc 1 614 0 discriminator 50
 7233 21f4 024A     		ldr	r2, .L1855+4
 7234 21f6 D360     		str	r3, [r2, #12]
 7235 21f8 0DE1     		b	.L1191
ARM GAS  /tmp/ccAPlzty.s 			page 163


 7236              	.L1856:
 7237 21fa 00BF     		.align	2
 7238              	.L1855:
 7239 21fc B8600240 		.word	1073897656
 7240 2200 00640240 		.word	1073898496
 7241 2204 58600240 		.word	1073897560
 7242 2208 00600240 		.word	1073897472
 7243 220c 10600240 		.word	1073897488
 7244 2210 58640240 		.word	1073898584
 7245              	.L1178:
 614:../Drivers/STM32F4xx_HAL_Driver/Src/stm32f4xx_hal_dma.c **** 
 7246              		.loc 1 614 0 discriminator 2
 7247 2214 844B     		ldr	r3, .L1857
 7248 2216 9E45     		cmp	lr, r3
 7249 2218 53D9     		bls	.L1192
 614:../Drivers/STM32F4xx_HAL_Driver/Src/stm32f4xx_hal_dma.c **** 
 7250              		.loc 1 614 0 discriminator 51
 7251 221a A83B     		subs	r3, r3, #168
 7252 221c 9E45     		cmp	lr, r3
 7253 221e 4CD0     		beq	.L1796
 614:../Drivers/STM32F4xx_HAL_Driver/Src/stm32f4xx_hal_dma.c **** 
 7254              		.loc 1 614 0 discriminator 53
 7255 2220 03F58063 		add	r3, r3, #1024
 7256 2224 9E45     		cmp	lr, r3
 7257 2226 46D0     		beq	.L1797
 614:../Drivers/STM32F4xx_HAL_Driver/Src/stm32f4xx_hal_dma.c **** 
 7258              		.loc 1 614 0 discriminator 55
 7259 2228 A3F56873 		sub	r3, r3, #928
 7260 222c 9E45     		cmp	lr, r3
 7261 222e 40D0     		beq	.L1798
 614:../Drivers/STM32F4xx_HAL_Driver/Src/stm32f4xx_hal_dma.c **** 
 7262              		.loc 1 614 0 discriminator 57
 7263 2230 03F58063 		add	r3, r3, #1024
 7264 2234 9E45     		cmp	lr, r3
 7265 2236 3AD0     		beq	.L1799
 614:../Drivers/STM32F4xx_HAL_Driver/Src/stm32f4xx_hal_dma.c **** 
 7266              		.loc 1 614 0 discriminator 59
 7267 2238 A3F58963 		sub	r3, r3, #1096
 7268 223c 9E45     		cmp	lr, r3
 7269 223e 33D0     		beq	.L1800
 614:../Drivers/STM32F4xx_HAL_Driver/Src/stm32f4xx_hal_dma.c **** 
 7270              		.loc 1 614 0 discriminator 61
 7271 2240 03F58063 		add	r3, r3, #1024
 7272 2244 9E45     		cmp	lr, r3
 7273 2246 2CD0     		beq	.L1801
 614:../Drivers/STM32F4xx_HAL_Driver/Src/stm32f4xx_hal_dma.c **** 
 7274              		.loc 1 614 0 discriminator 63
 7275 2248 A3F56873 		sub	r3, r3, #928
 7276 224c 9E45     		cmp	lr, r3
 7277 224e 25D0     		beq	.L1802
 614:../Drivers/STM32F4xx_HAL_Driver/Src/stm32f4xx_hal_dma.c **** 
 7278              		.loc 1 614 0 discriminator 65
 7279 2250 03F58063 		add	r3, r3, #1024
 7280 2254 9E45     		cmp	lr, r3
 7281 2256 1ED0     		beq	.L1803
 614:../Drivers/STM32F4xx_HAL_Driver/Src/stm32f4xx_hal_dma.c **** 
 7282              		.loc 1 614 0 discriminator 67
ARM GAS  /tmp/ccAPlzty.s 			page 164


 7283 2258 A3F58963 		sub	r3, r3, #1096
 7284 225c 9E45     		cmp	lr, r3
 7285 225e 17D0     		beq	.L1804
 614:../Drivers/STM32F4xx_HAL_Driver/Src/stm32f4xx_hal_dma.c **** 
 7286              		.loc 1 614 0 discriminator 69
 7287 2260 03F58063 		add	r3, r3, #1024
 7288 2264 9E45     		cmp	lr, r3
 7289 2266 10D0     		beq	.L1805
 614:../Drivers/STM32F4xx_HAL_Driver/Src/stm32f4xx_hal_dma.c **** 
 7290              		.loc 1 614 0 discriminator 71
 7291 2268 A3F56873 		sub	r3, r3, #928
 7292 226c 9E45     		cmp	lr, r3
 7293 226e 09D0     		beq	.L1806
 614:../Drivers/STM32F4xx_HAL_Driver/Src/stm32f4xx_hal_dma.c **** 
 7294              		.loc 1 614 0 discriminator 73
 7295 2270 03F58063 		add	r3, r3, #1024
 7296 2274 9E45     		cmp	lr, r3
 7297 2276 02D1     		bne	.L1807
 614:../Drivers/STM32F4xx_HAL_Driver/Src/stm32f4xx_hal_dma.c **** 
 7298              		.loc 1 614 0
 7299 2278 4FF48013 		mov	r3, #1048576
 7300 227c 1EE0     		b	.L1193
 7301              	.L1807:
 7302 227e 4FF08063 		mov	r3, #67108864
 7303 2282 1BE0     		b	.L1193
 7304              	.L1806:
 7305 2284 4FF48013 		mov	r3, #1048576
 7306 2288 18E0     		b	.L1193
 7307              	.L1805:
 7308 228a 4FF48013 		mov	r3, #1048576
 7309 228e 15E0     		b	.L1193
 7310              	.L1804:
 7311 2290 4FF48013 		mov	r3, #1048576
 7312 2294 12E0     		b	.L1193
 7313              	.L1803:
 7314 2296 4FF48063 		mov	r3, #1024
 7315 229a 0FE0     		b	.L1193
 7316              	.L1802:
 7317 229c 4FF48063 		mov	r3, #1024
 7318 22a0 0CE0     		b	.L1193
 7319              	.L1801:
 7320 22a2 4FF48063 		mov	r3, #1024
 7321 22a6 09E0     		b	.L1193
 7322              	.L1800:
 7323 22a8 4FF48063 		mov	r3, #1024
 7324 22ac 06E0     		b	.L1193
 7325              	.L1799:
 7326 22ae 1023     		movs	r3, #16
 7327 22b0 04E0     		b	.L1193
 7328              	.L1798:
 7329 22b2 1023     		movs	r3, #16
 7330 22b4 02E0     		b	.L1193
 7331              	.L1797:
 7332 22b6 1023     		movs	r3, #16
 7333 22b8 00E0     		b	.L1193
 7334              	.L1796:
 7335 22ba 1023     		movs	r3, #16
ARM GAS  /tmp/ccAPlzty.s 			page 165


 7336              	.L1193:
 614:../Drivers/STM32F4xx_HAL_Driver/Src/stm32f4xx_hal_dma.c **** 
 7337              		.loc 1 614 0 discriminator 100
 7338 22bc 5B4A     		ldr	r2, .L1857+4
 7339 22be 9360     		str	r3, [r2, #8]
 7340 22c0 A9E0     		b	.L1191
 7341              	.L1192:
 614:../Drivers/STM32F4xx_HAL_Driver/Src/stm32f4xx_hal_dma.c **** 
 7342              		.loc 1 614 0 discriminator 52
 7343 22c2 5B4B     		ldr	r3, .L1857+8
 7344 22c4 9E45     		cmp	lr, r3
 7345 22c6 53D9     		bls	.L1205
 614:../Drivers/STM32F4xx_HAL_Driver/Src/stm32f4xx_hal_dma.c **** 
 7346              		.loc 1 614 0 discriminator 102
 7347 22c8 483B     		subs	r3, r3, #72
 7348 22ca 9E45     		cmp	lr, r3
 7349 22cc 4CD0     		beq	.L1808
 614:../Drivers/STM32F4xx_HAL_Driver/Src/stm32f4xx_hal_dma.c **** 
 7350              		.loc 1 614 0 discriminator 104
 7351 22ce 03F58063 		add	r3, r3, #1024
 7352 22d2 9E45     		cmp	lr, r3
 7353 22d4 46D0     		beq	.L1809
 614:../Drivers/STM32F4xx_HAL_Driver/Src/stm32f4xx_hal_dma.c **** 
 7354              		.loc 1 614 0 discriminator 106
 7355 22d6 A3F56873 		sub	r3, r3, #928
 7356 22da 9E45     		cmp	lr, r3
 7357 22dc 40D0     		beq	.L1810
 614:../Drivers/STM32F4xx_HAL_Driver/Src/stm32f4xx_hal_dma.c **** 
 7358              		.loc 1 614 0 discriminator 108
 7359 22de 03F58063 		add	r3, r3, #1024
 7360 22e2 9E45     		cmp	lr, r3
 7361 22e4 3AD0     		beq	.L1811
 614:../Drivers/STM32F4xx_HAL_Driver/Src/stm32f4xx_hal_dma.c **** 
 7362              		.loc 1 614 0 discriminator 110
 7363 22e6 A3F58963 		sub	r3, r3, #1096
 7364 22ea 9E45     		cmp	lr, r3
 7365 22ec 33D0     		beq	.L1812
 614:../Drivers/STM32F4xx_HAL_Driver/Src/stm32f4xx_hal_dma.c **** 
 7366              		.loc 1 614 0 discriminator 112
 7367 22ee 03F58063 		add	r3, r3, #1024
 7368 22f2 9E45     		cmp	lr, r3
 7369 22f4 2CD0     		beq	.L1813
 614:../Drivers/STM32F4xx_HAL_Driver/Src/stm32f4xx_hal_dma.c **** 
 7370              		.loc 1 614 0 discriminator 114
 7371 22f6 A3F56873 		sub	r3, r3, #928
 7372 22fa 9E45     		cmp	lr, r3
 7373 22fc 25D0     		beq	.L1814
 614:../Drivers/STM32F4xx_HAL_Driver/Src/stm32f4xx_hal_dma.c **** 
 7374              		.loc 1 614 0 discriminator 116
 7375 22fe 03F58063 		add	r3, r3, #1024
 7376 2302 9E45     		cmp	lr, r3
 7377 2304 1ED0     		beq	.L1815
 614:../Drivers/STM32F4xx_HAL_Driver/Src/stm32f4xx_hal_dma.c **** 
 7378              		.loc 1 614 0 discriminator 118
 7379 2306 A3F58963 		sub	r3, r3, #1096
 7380 230a 9E45     		cmp	lr, r3
 7381 230c 17D0     		beq	.L1816
ARM GAS  /tmp/ccAPlzty.s 			page 166


 614:../Drivers/STM32F4xx_HAL_Driver/Src/stm32f4xx_hal_dma.c **** 
 7382              		.loc 1 614 0 discriminator 120
 7383 230e 03F58063 		add	r3, r3, #1024
 7384 2312 9E45     		cmp	lr, r3
 7385 2314 10D0     		beq	.L1817
 614:../Drivers/STM32F4xx_HAL_Driver/Src/stm32f4xx_hal_dma.c **** 
 7386              		.loc 1 614 0 discriminator 122
 7387 2316 A3F56873 		sub	r3, r3, #928
 7388 231a 9E45     		cmp	lr, r3
 7389 231c 09D0     		beq	.L1818
 614:../Drivers/STM32F4xx_HAL_Driver/Src/stm32f4xx_hal_dma.c **** 
 7390              		.loc 1 614 0 discriminator 124
 7391 231e 03F58063 		add	r3, r3, #1024
 7392 2322 9E45     		cmp	lr, r3
 7393 2324 02D1     		bne	.L1819
 614:../Drivers/STM32F4xx_HAL_Driver/Src/stm32f4xx_hal_dma.c **** 
 7394              		.loc 1 614 0
 7395 2326 4FF48013 		mov	r3, #1048576
 7396 232a 1EE0     		b	.L1206
 7397              	.L1819:
 7398 232c 4FF08063 		mov	r3, #67108864
 7399 2330 1BE0     		b	.L1206
 7400              	.L1818:
 7401 2332 4FF48013 		mov	r3, #1048576
 7402 2336 18E0     		b	.L1206
 7403              	.L1817:
 7404 2338 4FF48013 		mov	r3, #1048576
 7405 233c 15E0     		b	.L1206
 7406              	.L1816:
 7407 233e 4FF48013 		mov	r3, #1048576
 7408 2342 12E0     		b	.L1206
 7409              	.L1815:
 7410 2344 4FF48063 		mov	r3, #1024
 7411 2348 0FE0     		b	.L1206
 7412              	.L1814:
 7413 234a 4FF48063 		mov	r3, #1024
 7414 234e 0CE0     		b	.L1206
 7415              	.L1813:
 7416 2350 4FF48063 		mov	r3, #1024
 7417 2354 09E0     		b	.L1206
 7418              	.L1812:
 7419 2356 4FF48063 		mov	r3, #1024
 7420 235a 06E0     		b	.L1206
 7421              	.L1811:
 7422 235c 1023     		movs	r3, #16
 7423 235e 04E0     		b	.L1206
 7424              	.L1810:
 7425 2360 1023     		movs	r3, #16
 7426 2362 02E0     		b	.L1206
 7427              	.L1809:
 7428 2364 1023     		movs	r3, #16
 7429 2366 00E0     		b	.L1206
 7430              	.L1808:
 7431 2368 1023     		movs	r3, #16
 7432              	.L1206:
 614:../Drivers/STM32F4xx_HAL_Driver/Src/stm32f4xx_hal_dma.c **** 
 7433              		.loc 1 614 0 discriminator 151
ARM GAS  /tmp/ccAPlzty.s 			page 167


 7434 236a 324A     		ldr	r2, .L1857+12
 7435 236c D360     		str	r3, [r2, #12]
 7436 236e 52E0     		b	.L1191
 7437              	.L1205:
 614:../Drivers/STM32F4xx_HAL_Driver/Src/stm32f4xx_hal_dma.c **** 
 7438              		.loc 1 614 0 discriminator 103
 7439 2370 314B     		ldr	r3, .L1857+16
 7440 2372 9E45     		cmp	lr, r3
 7441 2374 4CD0     		beq	.L1820
 614:../Drivers/STM32F4xx_HAL_Driver/Src/stm32f4xx_hal_dma.c **** 
 7442              		.loc 1 614 0 discriminator 153
 7443 2376 03F58063 		add	r3, r3, #1024
 7444 237a 9E45     		cmp	lr, r3
 7445 237c 46D0     		beq	.L1821
 614:../Drivers/STM32F4xx_HAL_Driver/Src/stm32f4xx_hal_dma.c **** 
 7446              		.loc 1 614 0 discriminator 155
 7447 237e A3F56873 		sub	r3, r3, #928
 7448 2382 9E45     		cmp	lr, r3
 7449 2384 40D0     		beq	.L1822
 614:../Drivers/STM32F4xx_HAL_Driver/Src/stm32f4xx_hal_dma.c **** 
 7450              		.loc 1 614 0 discriminator 157
 7451 2386 03F58063 		add	r3, r3, #1024
 7452 238a 9E45     		cmp	lr, r3
 7453 238c 3AD0     		beq	.L1823
 614:../Drivers/STM32F4xx_HAL_Driver/Src/stm32f4xx_hal_dma.c **** 
 7454              		.loc 1 614 0 discriminator 159
 7455 238e A3F58963 		sub	r3, r3, #1096
 7456 2392 9E45     		cmp	lr, r3
 7457 2394 33D0     		beq	.L1824
 614:../Drivers/STM32F4xx_HAL_Driver/Src/stm32f4xx_hal_dma.c **** 
 7458              		.loc 1 614 0 discriminator 161
 7459 2396 03F58063 		add	r3, r3, #1024
 7460 239a 9E45     		cmp	lr, r3
 7461 239c 2CD0     		beq	.L1825
 614:../Drivers/STM32F4xx_HAL_Driver/Src/stm32f4xx_hal_dma.c **** 
 7462              		.loc 1 614 0 discriminator 163
 7463 239e A3F56873 		sub	r3, r3, #928
 7464 23a2 9E45     		cmp	lr, r3
 7465 23a4 25D0     		beq	.L1826
 614:../Drivers/STM32F4xx_HAL_Driver/Src/stm32f4xx_hal_dma.c **** 
 7466              		.loc 1 614 0 discriminator 165
 7467 23a6 03F58063 		add	r3, r3, #1024
 7468 23aa 9E45     		cmp	lr, r3
 7469 23ac 1ED0     		beq	.L1827
 614:../Drivers/STM32F4xx_HAL_Driver/Src/stm32f4xx_hal_dma.c **** 
 7470              		.loc 1 614 0 discriminator 167
 7471 23ae A3F58963 		sub	r3, r3, #1096
 7472 23b2 9E45     		cmp	lr, r3
 7473 23b4 17D0     		beq	.L1828
 614:../Drivers/STM32F4xx_HAL_Driver/Src/stm32f4xx_hal_dma.c **** 
 7474              		.loc 1 614 0 discriminator 169
 7475 23b6 03F58063 		add	r3, r3, #1024
 7476 23ba 9E45     		cmp	lr, r3
 7477 23bc 10D0     		beq	.L1829
 614:../Drivers/STM32F4xx_HAL_Driver/Src/stm32f4xx_hal_dma.c **** 
 7478              		.loc 1 614 0 discriminator 171
 7479 23be A3F56873 		sub	r3, r3, #928
ARM GAS  /tmp/ccAPlzty.s 			page 168


 7480 23c2 9E45     		cmp	lr, r3
 7481 23c4 09D0     		beq	.L1830
 614:../Drivers/STM32F4xx_HAL_Driver/Src/stm32f4xx_hal_dma.c **** 
 7482              		.loc 1 614 0 discriminator 173
 7483 23c6 03F58063 		add	r3, r3, #1024
 7484 23ca 9E45     		cmp	lr, r3
 7485 23cc 02D1     		bne	.L1831
 614:../Drivers/STM32F4xx_HAL_Driver/Src/stm32f4xx_hal_dma.c **** 
 7486              		.loc 1 614 0
 7487 23ce 4FF48013 		mov	r3, #1048576
 7488 23d2 1EE0     		b	.L1219
 7489              	.L1831:
 7490 23d4 4FF08063 		mov	r3, #67108864
 7491 23d8 1BE0     		b	.L1219
 7492              	.L1830:
 7493 23da 4FF48013 		mov	r3, #1048576
 7494 23de 18E0     		b	.L1219
 7495              	.L1829:
 7496 23e0 4FF48013 		mov	r3, #1048576
 7497 23e4 15E0     		b	.L1219
 7498              	.L1828:
 7499 23e6 4FF48013 		mov	r3, #1048576
 7500 23ea 12E0     		b	.L1219
 7501              	.L1827:
 7502 23ec 4FF48063 		mov	r3, #1024
 7503 23f0 0FE0     		b	.L1219
 7504              	.L1826:
 7505 23f2 4FF48063 		mov	r3, #1024
 7506 23f6 0CE0     		b	.L1219
 7507              	.L1825:
 7508 23f8 4FF48063 		mov	r3, #1024
 7509 23fc 09E0     		b	.L1219
 7510              	.L1824:
 7511 23fe 4FF48063 		mov	r3, #1024
 7512 2402 06E0     		b	.L1219
 7513              	.L1823:
 7514 2404 1023     		movs	r3, #16
 7515 2406 04E0     		b	.L1219
 7516              	.L1822:
 7517 2408 1023     		movs	r3, #16
 7518 240a 02E0     		b	.L1219
 7519              	.L1821:
 7520 240c 1023     		movs	r3, #16
 7521 240e 00E0     		b	.L1219
 7522              	.L1820:
 7523 2410 1023     		movs	r3, #16
 7524              	.L1219:
 614:../Drivers/STM32F4xx_HAL_Driver/Src/stm32f4xx_hal_dma.c **** 
 7525              		.loc 1 614 0 discriminator 200
 7526 2412 084A     		ldr	r2, .L1857+12
 7527 2414 9360     		str	r3, [r2, #8]
 7528              	.L1191:
 617:../Drivers/STM32F4xx_HAL_Driver/Src/stm32f4xx_hal_dma.c ****     }
 7529              		.loc 1 617 0 is_stmt 1
 7530 2416 3123     		movs	r3, #49
 7531 2418 84F83530 		strb	r3, [r4, #53]
 620:../Drivers/STM32F4xx_HAL_Driver/Src/stm32f4xx_hal_dma.c **** }
ARM GAS  /tmp/ccAPlzty.s 			page 169


 7532              		.loc 1 620 0
 7533 241c 0020     		movs	r0, #0
 7534 241e BDE8F883 		pop	{r3, r4, r5, r6, r7, r8, r9, pc}
 7535              	.LVL64:
 7536              	.L1783:
 7537 2422 0020     		movs	r0, #0
 621:../Drivers/STM32F4xx_HAL_Driver/Src/stm32f4xx_hal_dma.c **** 
 7538              		.loc 1 621 0
 7539 2424 BDE8F883 		pop	{r3, r4, r5, r6, r7, r8, r9, pc}
 7540              	.LVL65:
 7541              	.L1858:
 7542              		.align	2
 7543              	.L1857:
 7544 2428 B8600240 		.word	1073897656
 7545 242c 00640240 		.word	1073898496
 7546 2430 58600240 		.word	1073897560
 7547 2434 00600240 		.word	1073897472
 7548 2438 10600240 		.word	1073897488
 7549              		.cfi_endproc
 7550              	.LFE117:
 7552              		.section	.text.HAL_DMA_IRQHandler,"ax",%progbits
 7553              		.align	2
 7554              		.global	HAL_DMA_IRQHandler
 7555              		.thumb
 7556              		.thumb_func
 7558              	HAL_DMA_IRQHandler:
 7559              	.LFB118:
 630:../Drivers/STM32F4xx_HAL_Driver/Src/stm32f4xx_hal_dma.c ****   /* Transfer Error Interrupt management ***************************************/
 7560              		.loc 1 630 0
 7561              		.cfi_startproc
 7562              		@ args = 0, pretend = 0, frame = 0
 7563              		@ frame_needed = 0, uses_anonymous_args = 0
 7564              	.LVL66:
 7565 0000 10B5     		push	{r4, lr}
 7566              	.LCFI10:
 7567              		.cfi_def_cfa_offset 8
 7568              		.cfi_offset 4, -8
 7569              		.cfi_offset 14, -4
 7570 0002 0446     		mov	r4, r0
 632:../Drivers/STM32F4xx_HAL_Driver/Src/stm32f4xx_hal_dma.c ****   {
 7571              		.loc 1 632 0
 7572 0004 0368     		ldr	r3, [r0]
 7573 0006 B24A     		ldr	r2, .L3090
 7574 0008 9342     		cmp	r3, r2
 7575 000a 57D9     		bls	.L1860
 632:../Drivers/STM32F4xx_HAL_Driver/Src/stm32f4xx_hal_dma.c ****   {
 7576              		.loc 1 632 0 is_stmt 0 discriminator 1
 7577 000c 583A     		subs	r2, r2, #88
 7578 000e 5268     		ldr	r2, [r2, #4]
 7579 0010 B049     		ldr	r1, .L3090+4
 7580 0012 8B42     		cmp	r3, r1
 7581 0014 4CD0     		beq	.L2513
 632:../Drivers/STM32F4xx_HAL_Driver/Src/stm32f4xx_hal_dma.c ****   {
 7582              		.loc 1 632 0 discriminator 3
 7583 0016 01F58061 		add	r1, r1, #1024
 7584 001a 8B42     		cmp	r3, r1
 7585 001c 46D0     		beq	.L2514
ARM GAS  /tmp/ccAPlzty.s 			page 170


 632:../Drivers/STM32F4xx_HAL_Driver/Src/stm32f4xx_hal_dma.c ****   {
 7586              		.loc 1 632 0 discriminator 5
 7587 001e A1F56871 		sub	r1, r1, #928
 7588 0022 8B42     		cmp	r3, r1
 7589 0024 40D0     		beq	.L2515
 632:../Drivers/STM32F4xx_HAL_Driver/Src/stm32f4xx_hal_dma.c ****   {
 7590              		.loc 1 632 0 discriminator 7
 7591 0026 01F58061 		add	r1, r1, #1024
 7592 002a 8B42     		cmp	r3, r1
 7593 002c 3AD0     		beq	.L2516
 632:../Drivers/STM32F4xx_HAL_Driver/Src/stm32f4xx_hal_dma.c ****   {
 7594              		.loc 1 632 0 discriminator 9
 7595 002e A1F58961 		sub	r1, r1, #1096
 7596 0032 8B42     		cmp	r3, r1
 7597 0034 33D0     		beq	.L2517
 632:../Drivers/STM32F4xx_HAL_Driver/Src/stm32f4xx_hal_dma.c ****   {
 7598              		.loc 1 632 0 discriminator 11
 7599 0036 01F58061 		add	r1, r1, #1024
 7600 003a 8B42     		cmp	r3, r1
 7601 003c 2CD0     		beq	.L2518
 632:../Drivers/STM32F4xx_HAL_Driver/Src/stm32f4xx_hal_dma.c ****   {
 7602              		.loc 1 632 0 discriminator 13
 7603 003e A1F56871 		sub	r1, r1, #928
 7604 0042 8B42     		cmp	r3, r1
 7605 0044 25D0     		beq	.L2519
 632:../Drivers/STM32F4xx_HAL_Driver/Src/stm32f4xx_hal_dma.c ****   {
 7606              		.loc 1 632 0 discriminator 15
 7607 0046 01F58061 		add	r1, r1, #1024
 7608 004a 8B42     		cmp	r3, r1
 7609 004c 1ED0     		beq	.L2520
 632:../Drivers/STM32F4xx_HAL_Driver/Src/stm32f4xx_hal_dma.c ****   {
 7610              		.loc 1 632 0 discriminator 17
 7611 004e A1F58961 		sub	r1, r1, #1096
 7612 0052 8B42     		cmp	r3, r1
 7613 0054 17D0     		beq	.L2521
 632:../Drivers/STM32F4xx_HAL_Driver/Src/stm32f4xx_hal_dma.c ****   {
 7614              		.loc 1 632 0 discriminator 19
 7615 0056 01F58061 		add	r1, r1, #1024
 7616 005a 8B42     		cmp	r3, r1
 7617 005c 10D0     		beq	.L2522
 632:../Drivers/STM32F4xx_HAL_Driver/Src/stm32f4xx_hal_dma.c ****   {
 7618              		.loc 1 632 0 discriminator 21
 7619 005e A1F56871 		sub	r1, r1, #928
 7620 0062 8B42     		cmp	r3, r1
 7621 0064 09D0     		beq	.L2523
 632:../Drivers/STM32F4xx_HAL_Driver/Src/stm32f4xx_hal_dma.c ****   {
 7622              		.loc 1 632 0 discriminator 23
 7623 0066 01F58061 		add	r1, r1, #1024
 7624 006a 8B42     		cmp	r3, r1
 7625 006c 02D1     		bne	.L2524
 632:../Drivers/STM32F4xx_HAL_Driver/Src/stm32f4xx_hal_dma.c ****   {
 7626              		.loc 1 632 0
 7627 006e 4FF40021 		mov	r1, #524288
 7628 0072 1EE0     		b	.L1861
 7629              	.L2524:
 7630 0074 4FF00071 		mov	r1, #33554432
 7631 0078 1BE0     		b	.L1861
ARM GAS  /tmp/ccAPlzty.s 			page 171


 7632              	.L2523:
 7633 007a 4FF40021 		mov	r1, #524288
 7634 007e 18E0     		b	.L1861
 7635              	.L2522:
 7636 0080 4FF40021 		mov	r1, #524288
 7637 0084 15E0     		b	.L1861
 7638              	.L2521:
 7639 0086 4FF40021 		mov	r1, #524288
 7640 008a 12E0     		b	.L1861
 7641              	.L2520:
 7642 008c 4FF40071 		mov	r1, #512
 7643 0090 0FE0     		b	.L1861
 7644              	.L2519:
 7645 0092 4FF40071 		mov	r1, #512
 7646 0096 0CE0     		b	.L1861
 7647              	.L2518:
 7648 0098 4FF40071 		mov	r1, #512
 7649 009c 09E0     		b	.L1861
 7650              	.L2517:
 7651 009e 4FF40071 		mov	r1, #512
 7652 00a2 06E0     		b	.L1861
 7653              	.L2516:
 7654 00a4 0821     		movs	r1, #8
 7655 00a6 04E0     		b	.L1861
 7656              	.L2515:
 7657 00a8 0821     		movs	r1, #8
 7658 00aa 02E0     		b	.L1861
 7659              	.L2514:
 7660 00ac 0821     		movs	r1, #8
 7661 00ae 00E0     		b	.L1861
 7662              	.L2513:
 7663 00b0 0821     		movs	r1, #8
 7664              	.L1861:
 632:../Drivers/STM32F4xx_HAL_Driver/Src/stm32f4xx_hal_dma.c ****   {
 7665              		.loc 1 632 0 discriminator 50
 7666 00b2 0A42     		tst	r2, r1
 7667 00b4 14BF     		ite	ne
 7668 00b6 0122     		movne	r2, #1
 7669 00b8 0022     		moveq	r2, #0
 7670 00ba 18E1     		b	.L1873
 7671              	.L1860:
 632:../Drivers/STM32F4xx_HAL_Driver/Src/stm32f4xx_hal_dma.c ****   {
 7672              		.loc 1 632 0 discriminator 2
 7673 00bc 864A     		ldr	r2, .L3090+8
 7674 00be 9342     		cmp	r3, r2
 7675 00c0 58D9     		bls	.L1874
 632:../Drivers/STM32F4xx_HAL_Driver/Src/stm32f4xx_hal_dma.c ****   {
 7676              		.loc 1 632 0 discriminator 52
 7677 00c2 02F55272 		add	r2, r2, #840
 7678 00c6 1268     		ldr	r2, [r2]
 7679 00c8 8249     		ldr	r1, .L3090+4
 7680 00ca 8B42     		cmp	r3, r1
 7681 00cc 4CD0     		beq	.L2525
 632:../Drivers/STM32F4xx_HAL_Driver/Src/stm32f4xx_hal_dma.c ****   {
 7682              		.loc 1 632 0 discriminator 54
 7683 00ce 01F58061 		add	r1, r1, #1024
 7684 00d2 8B42     		cmp	r3, r1
ARM GAS  /tmp/ccAPlzty.s 			page 172


 7685 00d4 46D0     		beq	.L2526
 632:../Drivers/STM32F4xx_HAL_Driver/Src/stm32f4xx_hal_dma.c ****   {
 7686              		.loc 1 632 0 discriminator 56
 7687 00d6 A1F56871 		sub	r1, r1, #928
 7688 00da 8B42     		cmp	r3, r1
 7689 00dc 40D0     		beq	.L2527
 632:../Drivers/STM32F4xx_HAL_Driver/Src/stm32f4xx_hal_dma.c ****   {
 7690              		.loc 1 632 0 discriminator 58
 7691 00de 01F58061 		add	r1, r1, #1024
 7692 00e2 8B42     		cmp	r3, r1
 7693 00e4 3AD0     		beq	.L2528
 632:../Drivers/STM32F4xx_HAL_Driver/Src/stm32f4xx_hal_dma.c ****   {
 7694              		.loc 1 632 0 discriminator 60
 7695 00e6 A1F58961 		sub	r1, r1, #1096
 7696 00ea 8B42     		cmp	r3, r1
 7697 00ec 33D0     		beq	.L2529
 632:../Drivers/STM32F4xx_HAL_Driver/Src/stm32f4xx_hal_dma.c ****   {
 7698              		.loc 1 632 0 discriminator 62
 7699 00ee 01F58061 		add	r1, r1, #1024
 7700 00f2 8B42     		cmp	r3, r1
 7701 00f4 2CD0     		beq	.L2530
 632:../Drivers/STM32F4xx_HAL_Driver/Src/stm32f4xx_hal_dma.c ****   {
 7702              		.loc 1 632 0 discriminator 64
 7703 00f6 A1F56871 		sub	r1, r1, #928
 7704 00fa 8B42     		cmp	r3, r1
 7705 00fc 25D0     		beq	.L2531
 632:../Drivers/STM32F4xx_HAL_Driver/Src/stm32f4xx_hal_dma.c ****   {
 7706              		.loc 1 632 0 discriminator 66
 7707 00fe 01F58061 		add	r1, r1, #1024
 7708 0102 8B42     		cmp	r3, r1
 7709 0104 1ED0     		beq	.L2532
 632:../Drivers/STM32F4xx_HAL_Driver/Src/stm32f4xx_hal_dma.c ****   {
 7710              		.loc 1 632 0 discriminator 68
 7711 0106 A1F58961 		sub	r1, r1, #1096
 7712 010a 8B42     		cmp	r3, r1
 7713 010c 17D0     		beq	.L2533
 632:../Drivers/STM32F4xx_HAL_Driver/Src/stm32f4xx_hal_dma.c ****   {
 7714              		.loc 1 632 0 discriminator 70
 7715 010e 01F58061 		add	r1, r1, #1024
 7716 0112 8B42     		cmp	r3, r1
 7717 0114 10D0     		beq	.L2534
 632:../Drivers/STM32F4xx_HAL_Driver/Src/stm32f4xx_hal_dma.c ****   {
 7718              		.loc 1 632 0 discriminator 72
 7719 0116 A1F56871 		sub	r1, r1, #928
 7720 011a 8B42     		cmp	r3, r1
 7721 011c 09D0     		beq	.L2535
 632:../Drivers/STM32F4xx_HAL_Driver/Src/stm32f4xx_hal_dma.c ****   {
 7722              		.loc 1 632 0 discriminator 74
 7723 011e 01F58061 		add	r1, r1, #1024
 7724 0122 8B42     		cmp	r3, r1
 7725 0124 02D1     		bne	.L2536
 632:../Drivers/STM32F4xx_HAL_Driver/Src/stm32f4xx_hal_dma.c ****   {
 7726              		.loc 1 632 0
 7727 0126 4FF40021 		mov	r1, #524288
 7728 012a 1EE0     		b	.L1875
 7729              	.L2536:
 7730 012c 4FF00071 		mov	r1, #33554432
ARM GAS  /tmp/ccAPlzty.s 			page 173


 7731 0130 1BE0     		b	.L1875
 7732              	.L2535:
 7733 0132 4FF40021 		mov	r1, #524288
 7734 0136 18E0     		b	.L1875
 7735              	.L2534:
 7736 0138 4FF40021 		mov	r1, #524288
 7737 013c 15E0     		b	.L1875
 7738              	.L2533:
 7739 013e 4FF40021 		mov	r1, #524288
 7740 0142 12E0     		b	.L1875
 7741              	.L2532:
 7742 0144 4FF40071 		mov	r1, #512
 7743 0148 0FE0     		b	.L1875
 7744              	.L2531:
 7745 014a 4FF40071 		mov	r1, #512
 7746 014e 0CE0     		b	.L1875
 7747              	.L2530:
 7748 0150 4FF40071 		mov	r1, #512
 7749 0154 09E0     		b	.L1875
 7750              	.L2529:
 7751 0156 4FF40071 		mov	r1, #512
 7752 015a 06E0     		b	.L1875
 7753              	.L2528:
 7754 015c 0821     		movs	r1, #8
 7755 015e 04E0     		b	.L1875
 7756              	.L2527:
 7757 0160 0821     		movs	r1, #8
 7758 0162 02E0     		b	.L1875
 7759              	.L2526:
 7760 0164 0821     		movs	r1, #8
 7761 0166 00E0     		b	.L1875
 7762              	.L2525:
 7763 0168 0821     		movs	r1, #8
 7764              	.L1875:
 632:../Drivers/STM32F4xx_HAL_Driver/Src/stm32f4xx_hal_dma.c ****   {
 7765              		.loc 1 632 0 discriminator 101
 7766 016a 0A42     		tst	r2, r1
 7767 016c 14BF     		ite	ne
 7768 016e 0122     		movne	r2, #1
 7769 0170 0022     		moveq	r2, #0
 7770 0172 BCE0     		b	.L1873
 7771              	.L1874:
 632:../Drivers/STM32F4xx_HAL_Driver/Src/stm32f4xx_hal_dma.c ****   {
 7772              		.loc 1 632 0 discriminator 53
 7773 0174 594A     		ldr	r2, .L3090+12
 7774 0176 9342     		cmp	r3, r2
 7775 0178 57D9     		bls	.L1888
 632:../Drivers/STM32F4xx_HAL_Driver/Src/stm32f4xx_hal_dma.c ****   {
 7776              		.loc 1 632 0 discriminator 103
 7777 017a 583A     		subs	r2, r2, #88
 7778 017c 5268     		ldr	r2, [r2, #4]
 7779 017e 5549     		ldr	r1, .L3090+4
 7780 0180 8B42     		cmp	r3, r1
 7781 0182 4CD0     		beq	.L2537
 632:../Drivers/STM32F4xx_HAL_Driver/Src/stm32f4xx_hal_dma.c ****   {
 7782              		.loc 1 632 0 discriminator 105
 7783 0184 01F58061 		add	r1, r1, #1024
ARM GAS  /tmp/ccAPlzty.s 			page 174


 7784 0188 8B42     		cmp	r3, r1
 7785 018a 46D0     		beq	.L2538
 632:../Drivers/STM32F4xx_HAL_Driver/Src/stm32f4xx_hal_dma.c ****   {
 7786              		.loc 1 632 0 discriminator 107
 7787 018c A1F56871 		sub	r1, r1, #928
 7788 0190 8B42     		cmp	r3, r1
 7789 0192 40D0     		beq	.L2539
 632:../Drivers/STM32F4xx_HAL_Driver/Src/stm32f4xx_hal_dma.c ****   {
 7790              		.loc 1 632 0 discriminator 109
 7791 0194 01F58061 		add	r1, r1, #1024
 7792 0198 8B42     		cmp	r3, r1
 7793 019a 3AD0     		beq	.L2540
 632:../Drivers/STM32F4xx_HAL_Driver/Src/stm32f4xx_hal_dma.c ****   {
 7794              		.loc 1 632 0 discriminator 111
 7795 019c A1F58961 		sub	r1, r1, #1096
 7796 01a0 8B42     		cmp	r3, r1
 7797 01a2 33D0     		beq	.L2541
 632:../Drivers/STM32F4xx_HAL_Driver/Src/stm32f4xx_hal_dma.c ****   {
 7798              		.loc 1 632 0 discriminator 113
 7799 01a4 01F58061 		add	r1, r1, #1024
 7800 01a8 8B42     		cmp	r3, r1
 7801 01aa 2CD0     		beq	.L2542
 632:../Drivers/STM32F4xx_HAL_Driver/Src/stm32f4xx_hal_dma.c ****   {
 7802              		.loc 1 632 0 discriminator 115
 7803 01ac A1F56871 		sub	r1, r1, #928
 7804 01b0 8B42     		cmp	r3, r1
 7805 01b2 25D0     		beq	.L2543
 632:../Drivers/STM32F4xx_HAL_Driver/Src/stm32f4xx_hal_dma.c ****   {
 7806              		.loc 1 632 0 discriminator 117
 7807 01b4 01F58061 		add	r1, r1, #1024
 7808 01b8 8B42     		cmp	r3, r1
 7809 01ba 1ED0     		beq	.L2544
 632:../Drivers/STM32F4xx_HAL_Driver/Src/stm32f4xx_hal_dma.c ****   {
 7810              		.loc 1 632 0 discriminator 119
 7811 01bc A1F58961 		sub	r1, r1, #1096
 7812 01c0 8B42     		cmp	r3, r1
 7813 01c2 17D0     		beq	.L2545
 632:../Drivers/STM32F4xx_HAL_Driver/Src/stm32f4xx_hal_dma.c ****   {
 7814              		.loc 1 632 0 discriminator 121
 7815 01c4 01F58061 		add	r1, r1, #1024
 7816 01c8 8B42     		cmp	r3, r1
 7817 01ca 10D0     		beq	.L2546
 632:../Drivers/STM32F4xx_HAL_Driver/Src/stm32f4xx_hal_dma.c ****   {
 7818              		.loc 1 632 0 discriminator 123
 7819 01cc A1F56871 		sub	r1, r1, #928
 7820 01d0 8B42     		cmp	r3, r1
 7821 01d2 09D0     		beq	.L2547
 632:../Drivers/STM32F4xx_HAL_Driver/Src/stm32f4xx_hal_dma.c ****   {
 7822              		.loc 1 632 0 discriminator 125
 7823 01d4 01F58061 		add	r1, r1, #1024
 7824 01d8 8B42     		cmp	r3, r1
 7825 01da 02D1     		bne	.L2548
 632:../Drivers/STM32F4xx_HAL_Driver/Src/stm32f4xx_hal_dma.c ****   {
 7826              		.loc 1 632 0
 7827 01dc 4FF40021 		mov	r1, #524288
 7828 01e0 1EE0     		b	.L1889
 7829              	.L2548:
ARM GAS  /tmp/ccAPlzty.s 			page 175


 7830 01e2 4FF00071 		mov	r1, #33554432
 7831 01e6 1BE0     		b	.L1889
 7832              	.L2547:
 7833 01e8 4FF40021 		mov	r1, #524288
 7834 01ec 18E0     		b	.L1889
 7835              	.L2546:
 7836 01ee 4FF40021 		mov	r1, #524288
 7837 01f2 15E0     		b	.L1889
 7838              	.L2545:
 7839 01f4 4FF40021 		mov	r1, #524288
 7840 01f8 12E0     		b	.L1889
 7841              	.L2544:
 7842 01fa 4FF40071 		mov	r1, #512
 7843 01fe 0FE0     		b	.L1889
 7844              	.L2543:
 7845 0200 4FF40071 		mov	r1, #512
 7846 0204 0CE0     		b	.L1889
 7847              	.L2542:
 7848 0206 4FF40071 		mov	r1, #512
 7849 020a 09E0     		b	.L1889
 7850              	.L2541:
 7851 020c 4FF40071 		mov	r1, #512
 7852 0210 06E0     		b	.L1889
 7853              	.L2540:
 7854 0212 0821     		movs	r1, #8
 7855 0214 04E0     		b	.L1889
 7856              	.L2539:
 7857 0216 0821     		movs	r1, #8
 7858 0218 02E0     		b	.L1889
 7859              	.L2538:
 7860 021a 0821     		movs	r1, #8
 7861 021c 00E0     		b	.L1889
 7862              	.L2537:
 7863 021e 0821     		movs	r1, #8
 7864              	.L1889:
 632:../Drivers/STM32F4xx_HAL_Driver/Src/stm32f4xx_hal_dma.c ****   {
 7865              		.loc 1 632 0 discriminator 152
 7866 0220 0A42     		tst	r2, r1
 7867 0222 14BF     		ite	ne
 7868 0224 0122     		movne	r2, #1
 7869 0226 0022     		moveq	r2, #0
 7870 0228 61E0     		b	.L1873
 7871              	.L1888:
 632:../Drivers/STM32F4xx_HAL_Driver/Src/stm32f4xx_hal_dma.c ****   {
 7872              		.loc 1 632 0 discriminator 104
 7873 022a 2D4A     		ldr	r2, .L3090+16
 7874 022c 1268     		ldr	r2, [r2]
 7875 022e 2949     		ldr	r1, .L3090+4
 7876 0230 8B42     		cmp	r3, r1
 7877 0232 57D0     		beq	.L2549
 632:../Drivers/STM32F4xx_HAL_Driver/Src/stm32f4xx_hal_dma.c ****   {
 7878              		.loc 1 632 0 discriminator 154
 7879 0234 01F58061 		add	r1, r1, #1024
 7880 0238 8B42     		cmp	r3, r1
 7881 023a 46D0     		beq	.L2550
 632:../Drivers/STM32F4xx_HAL_Driver/Src/stm32f4xx_hal_dma.c ****   {
 7882              		.loc 1 632 0 discriminator 156
ARM GAS  /tmp/ccAPlzty.s 			page 176


 7883 023c A1F56871 		sub	r1, r1, #928
 7884 0240 8B42     		cmp	r3, r1
 7885 0242 40D0     		beq	.L2551
 632:../Drivers/STM32F4xx_HAL_Driver/Src/stm32f4xx_hal_dma.c ****   {
 7886              		.loc 1 632 0 discriminator 158
 7887 0244 01F58061 		add	r1, r1, #1024
 7888 0248 8B42     		cmp	r3, r1
 7889 024a 3AD0     		beq	.L2552
 632:../Drivers/STM32F4xx_HAL_Driver/Src/stm32f4xx_hal_dma.c ****   {
 7890              		.loc 1 632 0 discriminator 160
 7891 024c A1F58961 		sub	r1, r1, #1096
 7892 0250 8B42     		cmp	r3, r1
 7893 0252 33D0     		beq	.L2553
 632:../Drivers/STM32F4xx_HAL_Driver/Src/stm32f4xx_hal_dma.c ****   {
 7894              		.loc 1 632 0 discriminator 162
 7895 0254 01F58061 		add	r1, r1, #1024
 7896 0258 8B42     		cmp	r3, r1
 7897 025a 2CD0     		beq	.L2554
 632:../Drivers/STM32F4xx_HAL_Driver/Src/stm32f4xx_hal_dma.c ****   {
 7898              		.loc 1 632 0 discriminator 164
 7899 025c A1F56871 		sub	r1, r1, #928
 7900 0260 8B42     		cmp	r3, r1
 7901 0262 25D0     		beq	.L2555
 632:../Drivers/STM32F4xx_HAL_Driver/Src/stm32f4xx_hal_dma.c ****   {
 7902              		.loc 1 632 0 discriminator 166
 7903 0264 01F58061 		add	r1, r1, #1024
 7904 0268 8B42     		cmp	r3, r1
 7905 026a 1ED0     		beq	.L2556
 632:../Drivers/STM32F4xx_HAL_Driver/Src/stm32f4xx_hal_dma.c ****   {
 7906              		.loc 1 632 0 discriminator 168
 7907 026c A1F58961 		sub	r1, r1, #1096
 7908 0270 8B42     		cmp	r3, r1
 7909 0272 17D0     		beq	.L2557
 632:../Drivers/STM32F4xx_HAL_Driver/Src/stm32f4xx_hal_dma.c ****   {
 7910              		.loc 1 632 0 discriminator 170
 7911 0274 01F58061 		add	r1, r1, #1024
 7912 0278 8B42     		cmp	r3, r1
 7913 027a 10D0     		beq	.L2558
 632:../Drivers/STM32F4xx_HAL_Driver/Src/stm32f4xx_hal_dma.c ****   {
 7914              		.loc 1 632 0 discriminator 172
 7915 027c A1F56871 		sub	r1, r1, #928
 7916 0280 8B42     		cmp	r3, r1
 7917 0282 09D0     		beq	.L2559
 632:../Drivers/STM32F4xx_HAL_Driver/Src/stm32f4xx_hal_dma.c ****   {
 7918              		.loc 1 632 0 discriminator 174
 7919 0284 01F58061 		add	r1, r1, #1024
 7920 0288 8B42     		cmp	r3, r1
 7921 028a 02D1     		bne	.L2560
 632:../Drivers/STM32F4xx_HAL_Driver/Src/stm32f4xx_hal_dma.c ****   {
 7922              		.loc 1 632 0
 7923 028c 4FF40021 		mov	r1, #524288
 7924 0290 29E0     		b	.L1902
 7925              	.L2560:
 7926 0292 4FF00071 		mov	r1, #33554432
 7927 0296 26E0     		b	.L1902
 7928              	.L2559:
 7929 0298 4FF40021 		mov	r1, #524288
ARM GAS  /tmp/ccAPlzty.s 			page 177


 7930 029c 23E0     		b	.L1902
 7931              	.L2558:
 7932 029e 4FF40021 		mov	r1, #524288
 7933 02a2 20E0     		b	.L1902
 7934              	.L2557:
 7935 02a4 4FF40021 		mov	r1, #524288
 7936 02a8 1DE0     		b	.L1902
 7937              	.L2556:
 7938 02aa 4FF40071 		mov	r1, #512
 7939 02ae 1AE0     		b	.L1902
 7940              	.L2555:
 7941 02b0 4FF40071 		mov	r1, #512
 7942 02b4 17E0     		b	.L1902
 7943              	.L2554:
 7944 02b6 4FF40071 		mov	r1, #512
 7945 02ba 14E0     		b	.L1902
 7946              	.L2553:
 7947 02bc 4FF40071 		mov	r1, #512
 7948 02c0 11E0     		b	.L1902
 7949              	.L2552:
 7950 02c2 0821     		movs	r1, #8
 7951 02c4 0FE0     		b	.L1902
 7952              	.L2551:
 7953 02c6 0821     		movs	r1, #8
 7954 02c8 0DE0     		b	.L1902
 7955              	.L2550:
 7956 02ca 0821     		movs	r1, #8
 7957 02cc 0BE0     		b	.L1902
 7958              	.L3091:
 7959 02ce 00BF     		.align	2
 7960              	.L3090:
 7961 02d0 58640240 		.word	1073898584
 7962 02d4 10600240 		.word	1073897488
 7963 02d8 B8600240 		.word	1073897656
 7964 02dc 58600240 		.word	1073897560
 7965 02e0 00600240 		.word	1073897472
 7966              	.L2549:
 7967 02e4 0821     		movs	r1, #8
 7968              	.L1902:
 632:../Drivers/STM32F4xx_HAL_Driver/Src/stm32f4xx_hal_dma.c ****   {
 7969              		.loc 1 632 0 discriminator 201
 7970 02e6 0A42     		tst	r2, r1
 7971 02e8 14BF     		ite	ne
 7972 02ea 0122     		movne	r2, #1
 7973 02ec 0022     		moveq	r2, #0
 7974              	.L1873:
 632:../Drivers/STM32F4xx_HAL_Driver/Src/stm32f4xx_hal_dma.c ****   {
 7975              		.loc 1 632 0 discriminator 204
 7976 02ee 002A     		cmp	r2, #0
 7977 02f0 00F07D81 		beq	.L1914
 634:../Drivers/STM32F4xx_HAL_Driver/Src/stm32f4xx_hal_dma.c ****     {
 7978              		.loc 1 634 0 is_stmt 1
 7979 02f4 1A68     		ldr	r2, [r3]
 7980 02f6 12F0040F 		tst	r2, #4
 7981 02fa 00F07881 		beq	.L1914
 637:../Drivers/STM32F4xx_HAL_Driver/Src/stm32f4xx_hal_dma.c **** 
 7982              		.loc 1 637 0
ARM GAS  /tmp/ccAPlzty.s 			page 178


 7983 02fe 1A68     		ldr	r2, [r3]
 7984 0300 22F00402 		bic	r2, r2, #4
 7985 0304 1A60     		str	r2, [r3]
 640:../Drivers/STM32F4xx_HAL_Driver/Src/stm32f4xx_hal_dma.c **** 
 7986              		.loc 1 640 0
 7987 0306 2368     		ldr	r3, [r4]
 7988 0308 AA4A     		ldr	r2, .L3092
 7989 030a 9342     		cmp	r3, r2
 7990 030c 54D9     		bls	.L1915
 640:../Drivers/STM32F4xx_HAL_Driver/Src/stm32f4xx_hal_dma.c **** 
 7991              		.loc 1 640 0 is_stmt 0 discriminator 1
 7992 030e A2F58962 		sub	r2, r2, #1096
 7993 0312 9342     		cmp	r3, r2
 7994 0314 4CD0     		beq	.L2561
 640:../Drivers/STM32F4xx_HAL_Driver/Src/stm32f4xx_hal_dma.c **** 
 7995              		.loc 1 640 0 discriminator 3
 7996 0316 02F58062 		add	r2, r2, #1024
 7997 031a 9342     		cmp	r3, r2
 7998 031c 46D0     		beq	.L2562
 640:../Drivers/STM32F4xx_HAL_Driver/Src/stm32f4xx_hal_dma.c **** 
 7999              		.loc 1 640 0 discriminator 5
 8000 031e A2F56872 		sub	r2, r2, #928
 8001 0322 9342     		cmp	r3, r2
 8002 0324 40D0     		beq	.L2563
 640:../Drivers/STM32F4xx_HAL_Driver/Src/stm32f4xx_hal_dma.c **** 
 8003              		.loc 1 640 0 discriminator 7
 8004 0326 02F58062 		add	r2, r2, #1024
 8005 032a 9342     		cmp	r3, r2
 8006 032c 3AD0     		beq	.L2564
 640:../Drivers/STM32F4xx_HAL_Driver/Src/stm32f4xx_hal_dma.c **** 
 8007              		.loc 1 640 0 discriminator 9
 8008 032e A2F58962 		sub	r2, r2, #1096
 8009 0332 9342     		cmp	r3, r2
 8010 0334 33D0     		beq	.L2565
 640:../Drivers/STM32F4xx_HAL_Driver/Src/stm32f4xx_hal_dma.c **** 
 8011              		.loc 1 640 0 discriminator 11
 8012 0336 02F58062 		add	r2, r2, #1024
 8013 033a 9342     		cmp	r3, r2
 8014 033c 2CD0     		beq	.L2566
 640:../Drivers/STM32F4xx_HAL_Driver/Src/stm32f4xx_hal_dma.c **** 
 8015              		.loc 1 640 0 discriminator 13
 8016 033e A2F56872 		sub	r2, r2, #928
 8017 0342 9342     		cmp	r3, r2
 8018 0344 25D0     		beq	.L2567
 640:../Drivers/STM32F4xx_HAL_Driver/Src/stm32f4xx_hal_dma.c **** 
 8019              		.loc 1 640 0 discriminator 15
 8020 0346 02F58062 		add	r2, r2, #1024
 8021 034a 9342     		cmp	r3, r2
 8022 034c 1ED0     		beq	.L2568
 640:../Drivers/STM32F4xx_HAL_Driver/Src/stm32f4xx_hal_dma.c **** 
 8023              		.loc 1 640 0 discriminator 17
 8024 034e A2F58962 		sub	r2, r2, #1096
 8025 0352 9342     		cmp	r3, r2
 8026 0354 17D0     		beq	.L2569
 640:../Drivers/STM32F4xx_HAL_Driver/Src/stm32f4xx_hal_dma.c **** 
 8027              		.loc 1 640 0 discriminator 19
 8028 0356 02F58062 		add	r2, r2, #1024
ARM GAS  /tmp/ccAPlzty.s 			page 179


 8029 035a 9342     		cmp	r3, r2
 8030 035c 10D0     		beq	.L2570
 640:../Drivers/STM32F4xx_HAL_Driver/Src/stm32f4xx_hal_dma.c **** 
 8031              		.loc 1 640 0 discriminator 21
 8032 035e A2F56872 		sub	r2, r2, #928
 8033 0362 9342     		cmp	r3, r2
 8034 0364 09D0     		beq	.L2571
 640:../Drivers/STM32F4xx_HAL_Driver/Src/stm32f4xx_hal_dma.c **** 
 8035              		.loc 1 640 0 discriminator 23
 8036 0366 02F58062 		add	r2, r2, #1024
 8037 036a 9342     		cmp	r3, r2
 8038 036c 02D1     		bne	.L2572
 640:../Drivers/STM32F4xx_HAL_Driver/Src/stm32f4xx_hal_dma.c **** 
 8039              		.loc 1 640 0
 8040 036e 4FF40022 		mov	r2, #524288
 8041 0372 1EE0     		b	.L1916
 8042              	.L2572:
 8043 0374 4FF00072 		mov	r2, #33554432
 8044 0378 1BE0     		b	.L1916
 8045              	.L2571:
 8046 037a 4FF40022 		mov	r2, #524288
 8047 037e 18E0     		b	.L1916
 8048              	.L2570:
 8049 0380 4FF40022 		mov	r2, #524288
 8050 0384 15E0     		b	.L1916
 8051              	.L2569:
 8052 0386 4FF40022 		mov	r2, #524288
 8053 038a 12E0     		b	.L1916
 8054              	.L2568:
 8055 038c 4FF40072 		mov	r2, #512
 8056 0390 0FE0     		b	.L1916
 8057              	.L2567:
 8058 0392 4FF40072 		mov	r2, #512
 8059 0396 0CE0     		b	.L1916
 8060              	.L2566:
 8061 0398 4FF40072 		mov	r2, #512
 8062 039c 09E0     		b	.L1916
 8063              	.L2565:
 8064 039e 4FF40072 		mov	r2, #512
 8065 03a2 06E0     		b	.L1916
 8066              	.L2564:
 8067 03a4 0822     		movs	r2, #8
 8068 03a6 04E0     		b	.L1916
 8069              	.L2563:
 8070 03a8 0822     		movs	r2, #8
 8071 03aa 02E0     		b	.L1916
 8072              	.L2562:
 8073 03ac 0822     		movs	r2, #8
 8074 03ae 00E0     		b	.L1916
 8075              	.L2561:
 8076 03b0 0822     		movs	r2, #8
 8077              	.L1916:
 640:../Drivers/STM32F4xx_HAL_Driver/Src/stm32f4xx_hal_dma.c **** 
 8078              		.loc 1 640 0 discriminator 50
 8079 03b2 814B     		ldr	r3, .L3092+4
 8080 03b4 DA60     		str	r2, [r3, #12]
 8081 03b6 0CE1     		b	.L1928
ARM GAS  /tmp/ccAPlzty.s 			page 180


 8082              	.L1915:
 640:../Drivers/STM32F4xx_HAL_Driver/Src/stm32f4xx_hal_dma.c **** 
 8083              		.loc 1 640 0 discriminator 2
 8084 03b8 804A     		ldr	r2, .L3092+8
 8085 03ba 9342     		cmp	r3, r2
 8086 03bc 53D9     		bls	.L1929
 640:../Drivers/STM32F4xx_HAL_Driver/Src/stm32f4xx_hal_dma.c **** 
 8087              		.loc 1 640 0 discriminator 51
 8088 03be A83A     		subs	r2, r2, #168
 8089 03c0 9342     		cmp	r3, r2
 8090 03c2 4CD0     		beq	.L2573
 640:../Drivers/STM32F4xx_HAL_Driver/Src/stm32f4xx_hal_dma.c **** 
 8091              		.loc 1 640 0 discriminator 53
 8092 03c4 02F58062 		add	r2, r2, #1024
 8093 03c8 9342     		cmp	r3, r2
 8094 03ca 46D0     		beq	.L2574
 640:../Drivers/STM32F4xx_HAL_Driver/Src/stm32f4xx_hal_dma.c **** 
 8095              		.loc 1 640 0 discriminator 55
 8096 03cc A2F56872 		sub	r2, r2, #928
 8097 03d0 9342     		cmp	r3, r2
 8098 03d2 40D0     		beq	.L2575
 640:../Drivers/STM32F4xx_HAL_Driver/Src/stm32f4xx_hal_dma.c **** 
 8099              		.loc 1 640 0 discriminator 57
 8100 03d4 02F58062 		add	r2, r2, #1024
 8101 03d8 9342     		cmp	r3, r2
 8102 03da 3AD0     		beq	.L2576
 640:../Drivers/STM32F4xx_HAL_Driver/Src/stm32f4xx_hal_dma.c **** 
 8103              		.loc 1 640 0 discriminator 59
 8104 03dc A2F58962 		sub	r2, r2, #1096
 8105 03e0 9342     		cmp	r3, r2
 8106 03e2 33D0     		beq	.L2577
 640:../Drivers/STM32F4xx_HAL_Driver/Src/stm32f4xx_hal_dma.c **** 
 8107              		.loc 1 640 0 discriminator 61
 8108 03e4 02F58062 		add	r2, r2, #1024
 8109 03e8 9342     		cmp	r3, r2
 8110 03ea 2CD0     		beq	.L2578
 640:../Drivers/STM32F4xx_HAL_Driver/Src/stm32f4xx_hal_dma.c **** 
 8111              		.loc 1 640 0 discriminator 63
 8112 03ec A2F56872 		sub	r2, r2, #928
 8113 03f0 9342     		cmp	r3, r2
 8114 03f2 25D0     		beq	.L2579
 640:../Drivers/STM32F4xx_HAL_Driver/Src/stm32f4xx_hal_dma.c **** 
 8115              		.loc 1 640 0 discriminator 65
 8116 03f4 02F58062 		add	r2, r2, #1024
 8117 03f8 9342     		cmp	r3, r2
 8118 03fa 1ED0     		beq	.L2580
 640:../Drivers/STM32F4xx_HAL_Driver/Src/stm32f4xx_hal_dma.c **** 
 8119              		.loc 1 640 0 discriminator 67
 8120 03fc A2F58962 		sub	r2, r2, #1096
 8121 0400 9342     		cmp	r3, r2
 8122 0402 17D0     		beq	.L2581
 640:../Drivers/STM32F4xx_HAL_Driver/Src/stm32f4xx_hal_dma.c **** 
 8123              		.loc 1 640 0 discriminator 69
 8124 0404 02F58062 		add	r2, r2, #1024
 8125 0408 9342     		cmp	r3, r2
 8126 040a 10D0     		beq	.L2582
 640:../Drivers/STM32F4xx_HAL_Driver/Src/stm32f4xx_hal_dma.c **** 
ARM GAS  /tmp/ccAPlzty.s 			page 181


 8127              		.loc 1 640 0 discriminator 71
 8128 040c A2F56872 		sub	r2, r2, #928
 8129 0410 9342     		cmp	r3, r2
 8130 0412 09D0     		beq	.L2583
 640:../Drivers/STM32F4xx_HAL_Driver/Src/stm32f4xx_hal_dma.c **** 
 8131              		.loc 1 640 0 discriminator 73
 8132 0414 02F58062 		add	r2, r2, #1024
 8133 0418 9342     		cmp	r3, r2
 8134 041a 02D1     		bne	.L2584
 640:../Drivers/STM32F4xx_HAL_Driver/Src/stm32f4xx_hal_dma.c **** 
 8135              		.loc 1 640 0
 8136 041c 4FF40022 		mov	r2, #524288
 8137 0420 1EE0     		b	.L1930
 8138              	.L2584:
 8139 0422 4FF00072 		mov	r2, #33554432
 8140 0426 1BE0     		b	.L1930
 8141              	.L2583:
 8142 0428 4FF40022 		mov	r2, #524288
 8143 042c 18E0     		b	.L1930
 8144              	.L2582:
 8145 042e 4FF40022 		mov	r2, #524288
 8146 0432 15E0     		b	.L1930
 8147              	.L2581:
 8148 0434 4FF40022 		mov	r2, #524288
 8149 0438 12E0     		b	.L1930
 8150              	.L2580:
 8151 043a 4FF40072 		mov	r2, #512
 8152 043e 0FE0     		b	.L1930
 8153              	.L2579:
 8154 0440 4FF40072 		mov	r2, #512
 8155 0444 0CE0     		b	.L1930
 8156              	.L2578:
 8157 0446 4FF40072 		mov	r2, #512
 8158 044a 09E0     		b	.L1930
 8159              	.L2577:
 8160 044c 4FF40072 		mov	r2, #512
 8161 0450 06E0     		b	.L1930
 8162              	.L2576:
 8163 0452 0822     		movs	r2, #8
 8164 0454 04E0     		b	.L1930
 8165              	.L2575:
 8166 0456 0822     		movs	r2, #8
 8167 0458 02E0     		b	.L1930
 8168              	.L2574:
 8169 045a 0822     		movs	r2, #8
 8170 045c 00E0     		b	.L1930
 8171              	.L2573:
 8172 045e 0822     		movs	r2, #8
 8173              	.L1930:
 640:../Drivers/STM32F4xx_HAL_Driver/Src/stm32f4xx_hal_dma.c **** 
 8174              		.loc 1 640 0 discriminator 100
 8175 0460 554B     		ldr	r3, .L3092+4
 8176 0462 9A60     		str	r2, [r3, #8]
 8177 0464 B5E0     		b	.L1928
 8178              	.L1929:
 640:../Drivers/STM32F4xx_HAL_Driver/Src/stm32f4xx_hal_dma.c **** 
 8179              		.loc 1 640 0 discriminator 52
ARM GAS  /tmp/ccAPlzty.s 			page 182


 8180 0466 564A     		ldr	r2, .L3092+12
 8181 0468 9342     		cmp	r3, r2
 8182 046a 53D9     		bls	.L1942
 640:../Drivers/STM32F4xx_HAL_Driver/Src/stm32f4xx_hal_dma.c **** 
 8183              		.loc 1 640 0 discriminator 102
 8184 046c 483A     		subs	r2, r2, #72
 8185 046e 9342     		cmp	r3, r2
 8186 0470 4CD0     		beq	.L2585
 640:../Drivers/STM32F4xx_HAL_Driver/Src/stm32f4xx_hal_dma.c **** 
 8187              		.loc 1 640 0 discriminator 104
 8188 0472 02F58062 		add	r2, r2, #1024
 8189 0476 9342     		cmp	r3, r2
 8190 0478 46D0     		beq	.L2586
 640:../Drivers/STM32F4xx_HAL_Driver/Src/stm32f4xx_hal_dma.c **** 
 8191              		.loc 1 640 0 discriminator 106
 8192 047a A2F56872 		sub	r2, r2, #928
 8193 047e 9342     		cmp	r3, r2
 8194 0480 40D0     		beq	.L2587
 640:../Drivers/STM32F4xx_HAL_Driver/Src/stm32f4xx_hal_dma.c **** 
 8195              		.loc 1 640 0 discriminator 108
 8196 0482 02F58062 		add	r2, r2, #1024
 8197 0486 9342     		cmp	r3, r2
 8198 0488 3AD0     		beq	.L2588
 640:../Drivers/STM32F4xx_HAL_Driver/Src/stm32f4xx_hal_dma.c **** 
 8199              		.loc 1 640 0 discriminator 110
 8200 048a A2F58962 		sub	r2, r2, #1096
 8201 048e 9342     		cmp	r3, r2
 8202 0490 33D0     		beq	.L2589
 640:../Drivers/STM32F4xx_HAL_Driver/Src/stm32f4xx_hal_dma.c **** 
 8203              		.loc 1 640 0 discriminator 112
 8204 0492 02F58062 		add	r2, r2, #1024
 8205 0496 9342     		cmp	r3, r2
 8206 0498 2CD0     		beq	.L2590
 640:../Drivers/STM32F4xx_HAL_Driver/Src/stm32f4xx_hal_dma.c **** 
 8207              		.loc 1 640 0 discriminator 114
 8208 049a A2F56872 		sub	r2, r2, #928
 8209 049e 9342     		cmp	r3, r2
 8210 04a0 25D0     		beq	.L2591
 640:../Drivers/STM32F4xx_HAL_Driver/Src/stm32f4xx_hal_dma.c **** 
 8211              		.loc 1 640 0 discriminator 116
 8212 04a2 02F58062 		add	r2, r2, #1024
 8213 04a6 9342     		cmp	r3, r2
 8214 04a8 1ED0     		beq	.L2592
 640:../Drivers/STM32F4xx_HAL_Driver/Src/stm32f4xx_hal_dma.c **** 
 8215              		.loc 1 640 0 discriminator 118
 8216 04aa A2F58962 		sub	r2, r2, #1096
 8217 04ae 9342     		cmp	r3, r2
 8218 04b0 17D0     		beq	.L2593
 640:../Drivers/STM32F4xx_HAL_Driver/Src/stm32f4xx_hal_dma.c **** 
 8219              		.loc 1 640 0 discriminator 120
 8220 04b2 02F58062 		add	r2, r2, #1024
 8221 04b6 9342     		cmp	r3, r2
 8222 04b8 10D0     		beq	.L2594
 640:../Drivers/STM32F4xx_HAL_Driver/Src/stm32f4xx_hal_dma.c **** 
 8223              		.loc 1 640 0 discriminator 122
 8224 04ba A2F56872 		sub	r2, r2, #928
 8225 04be 9342     		cmp	r3, r2
ARM GAS  /tmp/ccAPlzty.s 			page 183


 8226 04c0 09D0     		beq	.L2595
 640:../Drivers/STM32F4xx_HAL_Driver/Src/stm32f4xx_hal_dma.c **** 
 8227              		.loc 1 640 0 discriminator 124
 8228 04c2 02F58062 		add	r2, r2, #1024
 8229 04c6 9342     		cmp	r3, r2
 8230 04c8 02D1     		bne	.L2596
 640:../Drivers/STM32F4xx_HAL_Driver/Src/stm32f4xx_hal_dma.c **** 
 8231              		.loc 1 640 0
 8232 04ca 4FF40022 		mov	r2, #524288
 8233 04ce 1EE0     		b	.L1943
 8234              	.L2596:
 8235 04d0 4FF00072 		mov	r2, #33554432
 8236 04d4 1BE0     		b	.L1943
 8237              	.L2595:
 8238 04d6 4FF40022 		mov	r2, #524288
 8239 04da 18E0     		b	.L1943
 8240              	.L2594:
 8241 04dc 4FF40022 		mov	r2, #524288
 8242 04e0 15E0     		b	.L1943
 8243              	.L2593:
 8244 04e2 4FF40022 		mov	r2, #524288
 8245 04e6 12E0     		b	.L1943
 8246              	.L2592:
 8247 04e8 4FF40072 		mov	r2, #512
 8248 04ec 0FE0     		b	.L1943
 8249              	.L2591:
 8250 04ee 4FF40072 		mov	r2, #512
 8251 04f2 0CE0     		b	.L1943
 8252              	.L2590:
 8253 04f4 4FF40072 		mov	r2, #512
 8254 04f8 09E0     		b	.L1943
 8255              	.L2589:
 8256 04fa 4FF40072 		mov	r2, #512
 8257 04fe 06E0     		b	.L1943
 8258              	.L2588:
 8259 0500 0822     		movs	r2, #8
 8260 0502 04E0     		b	.L1943
 8261              	.L2587:
 8262 0504 0822     		movs	r2, #8
 8263 0506 02E0     		b	.L1943
 8264              	.L2586:
 8265 0508 0822     		movs	r2, #8
 8266 050a 00E0     		b	.L1943
 8267              	.L2585:
 8268 050c 0822     		movs	r2, #8
 8269              	.L1943:
 640:../Drivers/STM32F4xx_HAL_Driver/Src/stm32f4xx_hal_dma.c **** 
 8270              		.loc 1 640 0 discriminator 151
 8271 050e 2D4B     		ldr	r3, .L3092+16
 8272 0510 DA60     		str	r2, [r3, #12]
 8273 0512 5EE0     		b	.L1928
 8274              	.L1942:
 640:../Drivers/STM32F4xx_HAL_Driver/Src/stm32f4xx_hal_dma.c **** 
 8275              		.loc 1 640 0 discriminator 103
 8276 0514 2C4A     		ldr	r2, .L3092+20
 8277 0516 9342     		cmp	r3, r2
 8278 0518 58D0     		beq	.L2597
ARM GAS  /tmp/ccAPlzty.s 			page 184


 640:../Drivers/STM32F4xx_HAL_Driver/Src/stm32f4xx_hal_dma.c **** 
 8279              		.loc 1 640 0 discriminator 153
 8280 051a 02F58062 		add	r2, r2, #1024
 8281 051e 9342     		cmp	r3, r2
 8282 0520 46D0     		beq	.L2598
 640:../Drivers/STM32F4xx_HAL_Driver/Src/stm32f4xx_hal_dma.c **** 
 8283              		.loc 1 640 0 discriminator 155
 8284 0522 A2F56872 		sub	r2, r2, #928
 8285 0526 9342     		cmp	r3, r2
 8286 0528 40D0     		beq	.L2599
 640:../Drivers/STM32F4xx_HAL_Driver/Src/stm32f4xx_hal_dma.c **** 
 8287              		.loc 1 640 0 discriminator 157
 8288 052a 02F58062 		add	r2, r2, #1024
 8289 052e 9342     		cmp	r3, r2
 8290 0530 3AD0     		beq	.L2600
 640:../Drivers/STM32F4xx_HAL_Driver/Src/stm32f4xx_hal_dma.c **** 
 8291              		.loc 1 640 0 discriminator 159
 8292 0532 A2F58962 		sub	r2, r2, #1096
 8293 0536 9342     		cmp	r3, r2
 8294 0538 33D0     		beq	.L2601
 640:../Drivers/STM32F4xx_HAL_Driver/Src/stm32f4xx_hal_dma.c **** 
 8295              		.loc 1 640 0 discriminator 161
 8296 053a 02F58062 		add	r2, r2, #1024
 8297 053e 9342     		cmp	r3, r2
 8298 0540 2CD0     		beq	.L2602
 640:../Drivers/STM32F4xx_HAL_Driver/Src/stm32f4xx_hal_dma.c **** 
 8299              		.loc 1 640 0 discriminator 163
 8300 0542 A2F56872 		sub	r2, r2, #928
 8301 0546 9342     		cmp	r3, r2
 8302 0548 25D0     		beq	.L2603
 640:../Drivers/STM32F4xx_HAL_Driver/Src/stm32f4xx_hal_dma.c **** 
 8303              		.loc 1 640 0 discriminator 165
 8304 054a 02F58062 		add	r2, r2, #1024
 8305 054e 9342     		cmp	r3, r2
 8306 0550 1ED0     		beq	.L2604
 640:../Drivers/STM32F4xx_HAL_Driver/Src/stm32f4xx_hal_dma.c **** 
 8307              		.loc 1 640 0 discriminator 167
 8308 0552 A2F58962 		sub	r2, r2, #1096
 8309 0556 9342     		cmp	r3, r2
 8310 0558 17D0     		beq	.L2605
 640:../Drivers/STM32F4xx_HAL_Driver/Src/stm32f4xx_hal_dma.c **** 
 8311              		.loc 1 640 0 discriminator 169
 8312 055a 02F58062 		add	r2, r2, #1024
 8313 055e 9342     		cmp	r3, r2
 8314 0560 10D0     		beq	.L2606
 640:../Drivers/STM32F4xx_HAL_Driver/Src/stm32f4xx_hal_dma.c **** 
 8315              		.loc 1 640 0 discriminator 171
 8316 0562 A2F56872 		sub	r2, r2, #928
 8317 0566 9342     		cmp	r3, r2
 8318 0568 09D0     		beq	.L2607
 640:../Drivers/STM32F4xx_HAL_Driver/Src/stm32f4xx_hal_dma.c **** 
 8319              		.loc 1 640 0 discriminator 173
 8320 056a 02F58062 		add	r2, r2, #1024
 8321 056e 9342     		cmp	r3, r2
 8322 0570 02D1     		bne	.L2608
 640:../Drivers/STM32F4xx_HAL_Driver/Src/stm32f4xx_hal_dma.c **** 
 8323              		.loc 1 640 0
ARM GAS  /tmp/ccAPlzty.s 			page 185


 8324 0572 4FF40022 		mov	r2, #524288
 8325 0576 2AE0     		b	.L1956
 8326              	.L2608:
 8327 0578 4FF00072 		mov	r2, #33554432
 8328 057c 27E0     		b	.L1956
 8329              	.L2607:
 8330 057e 4FF40022 		mov	r2, #524288
 8331 0582 24E0     		b	.L1956
 8332              	.L2606:
 8333 0584 4FF40022 		mov	r2, #524288
 8334 0588 21E0     		b	.L1956
 8335              	.L2605:
 8336 058a 4FF40022 		mov	r2, #524288
 8337 058e 1EE0     		b	.L1956
 8338              	.L2604:
 8339 0590 4FF40072 		mov	r2, #512
 8340 0594 1BE0     		b	.L1956
 8341              	.L2603:
 8342 0596 4FF40072 		mov	r2, #512
 8343 059a 18E0     		b	.L1956
 8344              	.L2602:
 8345 059c 4FF40072 		mov	r2, #512
 8346 05a0 15E0     		b	.L1956
 8347              	.L2601:
 8348 05a2 4FF40072 		mov	r2, #512
 8349 05a6 12E0     		b	.L1956
 8350              	.L2600:
 8351 05a8 0822     		movs	r2, #8
 8352 05aa 10E0     		b	.L1956
 8353              	.L2599:
 8354 05ac 0822     		movs	r2, #8
 8355 05ae 0EE0     		b	.L1956
 8356              	.L2598:
 8357 05b0 0822     		movs	r2, #8
 8358 05b2 0CE0     		b	.L1956
 8359              	.L3093:
 8360              		.align	2
 8361              	.L3092:
 8362 05b4 58640240 		.word	1073898584
 8363 05b8 00640240 		.word	1073898496
 8364 05bc B8600240 		.word	1073897656
 8365 05c0 58600240 		.word	1073897560
 8366 05c4 00600240 		.word	1073897472
 8367 05c8 10600240 		.word	1073897488
 8368              	.L2597:
 8369 05cc 0822     		movs	r2, #8
 8370              	.L1956:
 640:../Drivers/STM32F4xx_HAL_Driver/Src/stm32f4xx_hal_dma.c **** 
 8371              		.loc 1 640 0 discriminator 200
 8372 05ce B24B     		ldr	r3, .L3094
 8373 05d0 9A60     		str	r2, [r3, #8]
 8374              	.L1928:
 643:../Drivers/STM32F4xx_HAL_Driver/Src/stm32f4xx_hal_dma.c **** 
 8375              		.loc 1 643 0 is_stmt 1
 8376 05d2 E36C     		ldr	r3, [r4, #76]
 8377 05d4 43F00103 		orr	r3, r3, #1
 8378 05d8 E364     		str	r3, [r4, #76]
ARM GAS  /tmp/ccAPlzty.s 			page 186


 646:../Drivers/STM32F4xx_HAL_Driver/Src/stm32f4xx_hal_dma.c **** 
 8379              		.loc 1 646 0
 8380 05da 0423     		movs	r3, #4
 8381 05dc 84F83530 		strb	r3, [r4, #53]
 649:../Drivers/STM32F4xx_HAL_Driver/Src/stm32f4xx_hal_dma.c **** 
 8382              		.loc 1 649 0
 8383 05e0 0023     		movs	r3, #0
 8384 05e2 84F83430 		strb	r3, [r4, #52]
 651:../Drivers/STM32F4xx_HAL_Driver/Src/stm32f4xx_hal_dma.c ****       {
 8385              		.loc 1 651 0
 8386 05e6 A36C     		ldr	r3, [r4, #72]
 8387 05e8 0BB1     		cbz	r3, .L1914
 654:../Drivers/STM32F4xx_HAL_Driver/Src/stm32f4xx_hal_dma.c ****       }
 8388              		.loc 1 654 0
 8389 05ea 2046     		mov	r0, r4
 8390              	.LVL67:
 8391 05ec 9847     		blx	r3
 8392              	.LVL68:
 8393              	.L1914:
 659:../Drivers/STM32F4xx_HAL_Driver/Src/stm32f4xx_hal_dma.c ****   {
 8394              		.loc 1 659 0
 8395 05ee 2368     		ldr	r3, [r4]
 8396 05f0 AA4A     		ldr	r2, .L3094+4
 8397 05f2 9342     		cmp	r3, r2
 8398 05f4 53D9     		bls	.L1968
 659:../Drivers/STM32F4xx_HAL_Driver/Src/stm32f4xx_hal_dma.c ****   {
 8399              		.loc 1 659 0 is_stmt 0 discriminator 1
 8400 05f6 583A     		subs	r2, r2, #88
 8401 05f8 5268     		ldr	r2, [r2, #4]
 8402 05fa A949     		ldr	r1, .L3094+8
 8403 05fc 8B42     		cmp	r3, r1
 8404 05fe 48D0     		beq	.L2609
 659:../Drivers/STM32F4xx_HAL_Driver/Src/stm32f4xx_hal_dma.c ****   {
 8405              		.loc 1 659 0 discriminator 3
 8406 0600 01F58061 		add	r1, r1, #1024
 8407 0604 8B42     		cmp	r3, r1
 8408 0606 42D0     		beq	.L2610
 659:../Drivers/STM32F4xx_HAL_Driver/Src/stm32f4xx_hal_dma.c ****   {
 8409              		.loc 1 659 0 discriminator 5
 8410 0608 A1F56871 		sub	r1, r1, #928
 8411 060c 8B42     		cmp	r3, r1
 8412 060e 3CD0     		beq	.L2611
 659:../Drivers/STM32F4xx_HAL_Driver/Src/stm32f4xx_hal_dma.c ****   {
 8413              		.loc 1 659 0 discriminator 7
 8414 0610 01F58061 		add	r1, r1, #1024
 8415 0614 8B42     		cmp	r3, r1
 8416 0616 36D0     		beq	.L2612
 659:../Drivers/STM32F4xx_HAL_Driver/Src/stm32f4xx_hal_dma.c ****   {
 8417              		.loc 1 659 0 discriminator 9
 8418 0618 A1F58961 		sub	r1, r1, #1096
 8419 061c 8B42     		cmp	r3, r1
 8420 061e 30D0     		beq	.L2613
 659:../Drivers/STM32F4xx_HAL_Driver/Src/stm32f4xx_hal_dma.c ****   {
 8421              		.loc 1 659 0 discriminator 11
 8422 0620 01F58061 		add	r1, r1, #1024
 8423 0624 8B42     		cmp	r3, r1
 8424 0626 2AD0     		beq	.L2614
ARM GAS  /tmp/ccAPlzty.s 			page 187


 659:../Drivers/STM32F4xx_HAL_Driver/Src/stm32f4xx_hal_dma.c ****   {
 8425              		.loc 1 659 0 discriminator 13
 8426 0628 A1F56871 		sub	r1, r1, #928
 8427 062c 8B42     		cmp	r3, r1
 8428 062e 24D0     		beq	.L2615
 659:../Drivers/STM32F4xx_HAL_Driver/Src/stm32f4xx_hal_dma.c ****   {
 8429              		.loc 1 659 0 discriminator 15
 8430 0630 01F58061 		add	r1, r1, #1024
 8431 0634 8B42     		cmp	r3, r1
 8432 0636 1ED0     		beq	.L2616
 659:../Drivers/STM32F4xx_HAL_Driver/Src/stm32f4xx_hal_dma.c ****   {
 8433              		.loc 1 659 0 discriminator 17
 8434 0638 A1F58961 		sub	r1, r1, #1096
 8435 063c 8B42     		cmp	r3, r1
 8436 063e 17D0     		beq	.L2617
 659:../Drivers/STM32F4xx_HAL_Driver/Src/stm32f4xx_hal_dma.c ****   {
 8437              		.loc 1 659 0 discriminator 19
 8438 0640 01F58061 		add	r1, r1, #1024
 8439 0644 8B42     		cmp	r3, r1
 8440 0646 10D0     		beq	.L2618
 659:../Drivers/STM32F4xx_HAL_Driver/Src/stm32f4xx_hal_dma.c ****   {
 8441              		.loc 1 659 0 discriminator 21
 8442 0648 A1F56871 		sub	r1, r1, #928
 8443 064c 8B42     		cmp	r3, r1
 8444 064e 09D0     		beq	.L2619
 659:../Drivers/STM32F4xx_HAL_Driver/Src/stm32f4xx_hal_dma.c ****   {
 8445              		.loc 1 659 0 discriminator 23
 8446 0650 01F58061 		add	r1, r1, #1024
 8447 0654 8B42     		cmp	r3, r1
 8448 0656 02D1     		bne	.L2620
 659:../Drivers/STM32F4xx_HAL_Driver/Src/stm32f4xx_hal_dma.c ****   {
 8449              		.loc 1 659 0
 8450 0658 4FF48031 		mov	r1, #65536
 8451 065c 1AE0     		b	.L1969
 8452              	.L2620:
 8453 065e 4FF48001 		mov	r1, #4194304
 8454 0662 17E0     		b	.L1969
 8455              	.L2619:
 8456 0664 4FF48031 		mov	r1, #65536
 8457 0668 14E0     		b	.L1969
 8458              	.L2618:
 8459 066a 4FF48031 		mov	r1, #65536
 8460 066e 11E0     		b	.L1969
 8461              	.L2617:
 8462 0670 4FF48031 		mov	r1, #65536
 8463 0674 0EE0     		b	.L1969
 8464              	.L2616:
 8465 0676 4021     		movs	r1, #64
 8466 0678 0CE0     		b	.L1969
 8467              	.L2615:
 8468 067a 4021     		movs	r1, #64
 8469 067c 0AE0     		b	.L1969
 8470              	.L2614:
 8471 067e 4021     		movs	r1, #64
 8472 0680 08E0     		b	.L1969
 8473              	.L2613:
 8474 0682 4021     		movs	r1, #64
ARM GAS  /tmp/ccAPlzty.s 			page 188


 8475 0684 06E0     		b	.L1969
 8476              	.L2612:
 8477 0686 8749     		ldr	r1, .L3094+12
 8478 0688 04E0     		b	.L1969
 8479              	.L2611:
 8480 068a 8649     		ldr	r1, .L3094+12
 8481 068c 02E0     		b	.L1969
 8482              	.L2610:
 8483 068e 8549     		ldr	r1, .L3094+12
 8484 0690 00E0     		b	.L1969
 8485              	.L2609:
 8486 0692 8449     		ldr	r1, .L3094+12
 8487              	.L1969:
 659:../Drivers/STM32F4xx_HAL_Driver/Src/stm32f4xx_hal_dma.c ****   {
 8488              		.loc 1 659 0 discriminator 50
 8489 0694 0A42     		tst	r2, r1
 8490 0696 14BF     		ite	ne
 8491 0698 0122     		movne	r2, #1
 8492 069a 0022     		moveq	r2, #0
 8493 069c 0DE1     		b	.L1981
 8494              	.L1968:
 659:../Drivers/STM32F4xx_HAL_Driver/Src/stm32f4xx_hal_dma.c ****   {
 8495              		.loc 1 659 0 discriminator 2
 8496 069e 824A     		ldr	r2, .L3094+16
 8497 06a0 9342     		cmp	r3, r2
 8498 06a2 54D9     		bls	.L1982
 659:../Drivers/STM32F4xx_HAL_Driver/Src/stm32f4xx_hal_dma.c ****   {
 8499              		.loc 1 659 0 discriminator 52
 8500 06a4 02F55272 		add	r2, r2, #840
 8501 06a8 1268     		ldr	r2, [r2]
 8502 06aa 7D49     		ldr	r1, .L3094+8
 8503 06ac 8B42     		cmp	r3, r1
 8504 06ae 48D0     		beq	.L2621
 659:../Drivers/STM32F4xx_HAL_Driver/Src/stm32f4xx_hal_dma.c ****   {
 8505              		.loc 1 659 0 discriminator 54
 8506 06b0 01F58061 		add	r1, r1, #1024
 8507 06b4 8B42     		cmp	r3, r1
 8508 06b6 42D0     		beq	.L2622
 659:../Drivers/STM32F4xx_HAL_Driver/Src/stm32f4xx_hal_dma.c ****   {
 8509              		.loc 1 659 0 discriminator 56
 8510 06b8 A1F56871 		sub	r1, r1, #928
 8511 06bc 8B42     		cmp	r3, r1
 8512 06be 3CD0     		beq	.L2623
 659:../Drivers/STM32F4xx_HAL_Driver/Src/stm32f4xx_hal_dma.c ****   {
 8513              		.loc 1 659 0 discriminator 58
 8514 06c0 01F58061 		add	r1, r1, #1024
 8515 06c4 8B42     		cmp	r3, r1
 8516 06c6 36D0     		beq	.L2624
 659:../Drivers/STM32F4xx_HAL_Driver/Src/stm32f4xx_hal_dma.c ****   {
 8517              		.loc 1 659 0 discriminator 60
 8518 06c8 A1F58961 		sub	r1, r1, #1096
 8519 06cc 8B42     		cmp	r3, r1
 8520 06ce 30D0     		beq	.L2625
 659:../Drivers/STM32F4xx_HAL_Driver/Src/stm32f4xx_hal_dma.c ****   {
 8521              		.loc 1 659 0 discriminator 62
 8522 06d0 01F58061 		add	r1, r1, #1024
 8523 06d4 8B42     		cmp	r3, r1
ARM GAS  /tmp/ccAPlzty.s 			page 189


 8524 06d6 2AD0     		beq	.L2626
 659:../Drivers/STM32F4xx_HAL_Driver/Src/stm32f4xx_hal_dma.c ****   {
 8525              		.loc 1 659 0 discriminator 64
 8526 06d8 A1F56871 		sub	r1, r1, #928
 8527 06dc 8B42     		cmp	r3, r1
 8528 06de 24D0     		beq	.L2627
 659:../Drivers/STM32F4xx_HAL_Driver/Src/stm32f4xx_hal_dma.c ****   {
 8529              		.loc 1 659 0 discriminator 66
 8530 06e0 01F58061 		add	r1, r1, #1024
 8531 06e4 8B42     		cmp	r3, r1
 8532 06e6 1ED0     		beq	.L2628
 659:../Drivers/STM32F4xx_HAL_Driver/Src/stm32f4xx_hal_dma.c ****   {
 8533              		.loc 1 659 0 discriminator 68
 8534 06e8 A1F58961 		sub	r1, r1, #1096
 8535 06ec 8B42     		cmp	r3, r1
 8536 06ee 17D0     		beq	.L2629
 659:../Drivers/STM32F4xx_HAL_Driver/Src/stm32f4xx_hal_dma.c ****   {
 8537              		.loc 1 659 0 discriminator 70
 8538 06f0 01F58061 		add	r1, r1, #1024
 8539 06f4 8B42     		cmp	r3, r1
 8540 06f6 10D0     		beq	.L2630
 659:../Drivers/STM32F4xx_HAL_Driver/Src/stm32f4xx_hal_dma.c ****   {
 8541              		.loc 1 659 0 discriminator 72
 8542 06f8 A1F56871 		sub	r1, r1, #928
 8543 06fc 8B42     		cmp	r3, r1
 8544 06fe 09D0     		beq	.L2631
 659:../Drivers/STM32F4xx_HAL_Driver/Src/stm32f4xx_hal_dma.c ****   {
 8545              		.loc 1 659 0 discriminator 74
 8546 0700 01F58061 		add	r1, r1, #1024
 8547 0704 8B42     		cmp	r3, r1
 8548 0706 02D1     		bne	.L2632
 659:../Drivers/STM32F4xx_HAL_Driver/Src/stm32f4xx_hal_dma.c ****   {
 8549              		.loc 1 659 0
 8550 0708 4FF48031 		mov	r1, #65536
 8551 070c 1AE0     		b	.L1983
 8552              	.L2632:
 8553 070e 4FF48001 		mov	r1, #4194304
 8554 0712 17E0     		b	.L1983
 8555              	.L2631:
 8556 0714 4FF48031 		mov	r1, #65536
 8557 0718 14E0     		b	.L1983
 8558              	.L2630:
 8559 071a 4FF48031 		mov	r1, #65536
 8560 071e 11E0     		b	.L1983
 8561              	.L2629:
 8562 0720 4FF48031 		mov	r1, #65536
 8563 0724 0EE0     		b	.L1983
 8564              	.L2628:
 8565 0726 4021     		movs	r1, #64
 8566 0728 0CE0     		b	.L1983
 8567              	.L2627:
 8568 072a 4021     		movs	r1, #64
 8569 072c 0AE0     		b	.L1983
 8570              	.L2626:
 8571 072e 4021     		movs	r1, #64
 8572 0730 08E0     		b	.L1983
 8573              	.L2625:
ARM GAS  /tmp/ccAPlzty.s 			page 190


 8574 0732 4021     		movs	r1, #64
 8575 0734 06E0     		b	.L1983
 8576              	.L2624:
 8577 0736 5B49     		ldr	r1, .L3094+12
 8578 0738 04E0     		b	.L1983
 8579              	.L2623:
 8580 073a 5A49     		ldr	r1, .L3094+12
 8581 073c 02E0     		b	.L1983
 8582              	.L2622:
 8583 073e 5949     		ldr	r1, .L3094+12
 8584 0740 00E0     		b	.L1983
 8585              	.L2621:
 8586 0742 5849     		ldr	r1, .L3094+12
 8587              	.L1983:
 659:../Drivers/STM32F4xx_HAL_Driver/Src/stm32f4xx_hal_dma.c ****   {
 8588              		.loc 1 659 0 discriminator 101
 8589 0744 0A42     		tst	r2, r1
 8590 0746 14BF     		ite	ne
 8591 0748 0122     		movne	r2, #1
 8592 074a 0022     		moveq	r2, #0
 8593 074c B5E0     		b	.L1981
 8594              	.L1982:
 659:../Drivers/STM32F4xx_HAL_Driver/Src/stm32f4xx_hal_dma.c ****   {
 8595              		.loc 1 659 0 discriminator 53
 8596 074e 574A     		ldr	r2, .L3094+20
 8597 0750 9342     		cmp	r3, r2
 8598 0752 53D9     		bls	.L1996
 659:../Drivers/STM32F4xx_HAL_Driver/Src/stm32f4xx_hal_dma.c ****   {
 8599              		.loc 1 659 0 discriminator 103
 8600 0754 583A     		subs	r2, r2, #88
 8601 0756 5268     		ldr	r2, [r2, #4]
 8602 0758 5149     		ldr	r1, .L3094+8
 8603 075a 8B42     		cmp	r3, r1
 8604 075c 48D0     		beq	.L2633
 659:../Drivers/STM32F4xx_HAL_Driver/Src/stm32f4xx_hal_dma.c ****   {
 8605              		.loc 1 659 0 discriminator 105
 8606 075e 01F58061 		add	r1, r1, #1024
 8607 0762 8B42     		cmp	r3, r1
 8608 0764 42D0     		beq	.L2634
 659:../Drivers/STM32F4xx_HAL_Driver/Src/stm32f4xx_hal_dma.c ****   {
 8609              		.loc 1 659 0 discriminator 107
 8610 0766 A1F56871 		sub	r1, r1, #928
 8611 076a 8B42     		cmp	r3, r1
 8612 076c 3CD0     		beq	.L2635
 659:../Drivers/STM32F4xx_HAL_Driver/Src/stm32f4xx_hal_dma.c ****   {
 8613              		.loc 1 659 0 discriminator 109
 8614 076e 01F58061 		add	r1, r1, #1024
 8615 0772 8B42     		cmp	r3, r1
 8616 0774 36D0     		beq	.L2636
 659:../Drivers/STM32F4xx_HAL_Driver/Src/stm32f4xx_hal_dma.c ****   {
 8617              		.loc 1 659 0 discriminator 111
 8618 0776 A1F58961 		sub	r1, r1, #1096
 8619 077a 8B42     		cmp	r3, r1
 8620 077c 30D0     		beq	.L2637
 659:../Drivers/STM32F4xx_HAL_Driver/Src/stm32f4xx_hal_dma.c ****   {
 8621              		.loc 1 659 0 discriminator 113
 8622 077e 01F58061 		add	r1, r1, #1024
ARM GAS  /tmp/ccAPlzty.s 			page 191


 8623 0782 8B42     		cmp	r3, r1
 8624 0784 2AD0     		beq	.L2638
 659:../Drivers/STM32F4xx_HAL_Driver/Src/stm32f4xx_hal_dma.c ****   {
 8625              		.loc 1 659 0 discriminator 115
 8626 0786 A1F56871 		sub	r1, r1, #928
 8627 078a 8B42     		cmp	r3, r1
 8628 078c 24D0     		beq	.L2639
 659:../Drivers/STM32F4xx_HAL_Driver/Src/stm32f4xx_hal_dma.c ****   {
 8629              		.loc 1 659 0 discriminator 117
 8630 078e 01F58061 		add	r1, r1, #1024
 8631 0792 8B42     		cmp	r3, r1
 8632 0794 1ED0     		beq	.L2640
 659:../Drivers/STM32F4xx_HAL_Driver/Src/stm32f4xx_hal_dma.c ****   {
 8633              		.loc 1 659 0 discriminator 119
 8634 0796 A1F58961 		sub	r1, r1, #1096
 8635 079a 8B42     		cmp	r3, r1
 8636 079c 17D0     		beq	.L2641
 659:../Drivers/STM32F4xx_HAL_Driver/Src/stm32f4xx_hal_dma.c ****   {
 8637              		.loc 1 659 0 discriminator 121
 8638 079e 01F58061 		add	r1, r1, #1024
 8639 07a2 8B42     		cmp	r3, r1
 8640 07a4 10D0     		beq	.L2642
 659:../Drivers/STM32F4xx_HAL_Driver/Src/stm32f4xx_hal_dma.c ****   {
 8641              		.loc 1 659 0 discriminator 123
 8642 07a6 A1F56871 		sub	r1, r1, #928
 8643 07aa 8B42     		cmp	r3, r1
 8644 07ac 09D0     		beq	.L2643
 659:../Drivers/STM32F4xx_HAL_Driver/Src/stm32f4xx_hal_dma.c ****   {
 8645              		.loc 1 659 0 discriminator 125
 8646 07ae 01F58061 		add	r1, r1, #1024
 8647 07b2 8B42     		cmp	r3, r1
 8648 07b4 02D1     		bne	.L2644
 659:../Drivers/STM32F4xx_HAL_Driver/Src/stm32f4xx_hal_dma.c ****   {
 8649              		.loc 1 659 0
 8650 07b6 4FF48031 		mov	r1, #65536
 8651 07ba 1AE0     		b	.L1997
 8652              	.L2644:
 8653 07bc 4FF48001 		mov	r1, #4194304
 8654 07c0 17E0     		b	.L1997
 8655              	.L2643:
 8656 07c2 4FF48031 		mov	r1, #65536
 8657 07c6 14E0     		b	.L1997
 8658              	.L2642:
 8659 07c8 4FF48031 		mov	r1, #65536
 8660 07cc 11E0     		b	.L1997
 8661              	.L2641:
 8662 07ce 4FF48031 		mov	r1, #65536
 8663 07d2 0EE0     		b	.L1997
 8664              	.L2640:
 8665 07d4 4021     		movs	r1, #64
 8666 07d6 0CE0     		b	.L1997
 8667              	.L2639:
 8668 07d8 4021     		movs	r1, #64
 8669 07da 0AE0     		b	.L1997
 8670              	.L2638:
 8671 07dc 4021     		movs	r1, #64
 8672 07de 08E0     		b	.L1997
ARM GAS  /tmp/ccAPlzty.s 			page 192


 8673              	.L2637:
 8674 07e0 4021     		movs	r1, #64
 8675 07e2 06E0     		b	.L1997
 8676              	.L2636:
 8677 07e4 2F49     		ldr	r1, .L3094+12
 8678 07e6 04E0     		b	.L1997
 8679              	.L2635:
 8680 07e8 2E49     		ldr	r1, .L3094+12
 8681 07ea 02E0     		b	.L1997
 8682              	.L2634:
 8683 07ec 2D49     		ldr	r1, .L3094+12
 8684 07ee 00E0     		b	.L1997
 8685              	.L2633:
 8686 07f0 2C49     		ldr	r1, .L3094+12
 8687              	.L1997:
 659:../Drivers/STM32F4xx_HAL_Driver/Src/stm32f4xx_hal_dma.c ****   {
 8688              		.loc 1 659 0 discriminator 152
 8689 07f2 0A42     		tst	r2, r1
 8690 07f4 14BF     		ite	ne
 8691 07f6 0122     		movne	r2, #1
 8692 07f8 0022     		moveq	r2, #0
 8693 07fa 5EE0     		b	.L1981
 8694              	.L1996:
 659:../Drivers/STM32F4xx_HAL_Driver/Src/stm32f4xx_hal_dma.c ****   {
 8695              		.loc 1 659 0 discriminator 104
 8696 07fc 264A     		ldr	r2, .L3094
 8697 07fe 1268     		ldr	r2, [r2]
 8698 0800 2749     		ldr	r1, .L3094+8
 8699 0802 8B42     		cmp	r3, r1
 8700 0804 54D0     		beq	.L2645
 659:../Drivers/STM32F4xx_HAL_Driver/Src/stm32f4xx_hal_dma.c ****   {
 8701              		.loc 1 659 0 discriminator 154
 8702 0806 01F58061 		add	r1, r1, #1024
 8703 080a 8B42     		cmp	r3, r1
 8704 080c 42D0     		beq	.L2646
 659:../Drivers/STM32F4xx_HAL_Driver/Src/stm32f4xx_hal_dma.c ****   {
 8705              		.loc 1 659 0 discriminator 156
 8706 080e A1F56871 		sub	r1, r1, #928
 8707 0812 8B42     		cmp	r3, r1
 8708 0814 3CD0     		beq	.L2647
 659:../Drivers/STM32F4xx_HAL_Driver/Src/stm32f4xx_hal_dma.c ****   {
 8709              		.loc 1 659 0 discriminator 158
 8710 0816 01F58061 		add	r1, r1, #1024
 8711 081a 8B42     		cmp	r3, r1
 8712 081c 36D0     		beq	.L2648
 659:../Drivers/STM32F4xx_HAL_Driver/Src/stm32f4xx_hal_dma.c ****   {
 8713              		.loc 1 659 0 discriminator 160
 8714 081e A1F58961 		sub	r1, r1, #1096
 8715 0822 8B42     		cmp	r3, r1
 8716 0824 30D0     		beq	.L2649
 659:../Drivers/STM32F4xx_HAL_Driver/Src/stm32f4xx_hal_dma.c ****   {
 8717              		.loc 1 659 0 discriminator 162
 8718 0826 01F58061 		add	r1, r1, #1024
 8719 082a 8B42     		cmp	r3, r1
 8720 082c 2AD0     		beq	.L2650
 659:../Drivers/STM32F4xx_HAL_Driver/Src/stm32f4xx_hal_dma.c ****   {
 8721              		.loc 1 659 0 discriminator 164
ARM GAS  /tmp/ccAPlzty.s 			page 193


 8722 082e A1F56871 		sub	r1, r1, #928
 8723 0832 8B42     		cmp	r3, r1
 8724 0834 24D0     		beq	.L2651
 659:../Drivers/STM32F4xx_HAL_Driver/Src/stm32f4xx_hal_dma.c ****   {
 8725              		.loc 1 659 0 discriminator 166
 8726 0836 01F58061 		add	r1, r1, #1024
 8727 083a 8B42     		cmp	r3, r1
 8728 083c 1ED0     		beq	.L2652
 659:../Drivers/STM32F4xx_HAL_Driver/Src/stm32f4xx_hal_dma.c ****   {
 8729              		.loc 1 659 0 discriminator 168
 8730 083e A1F58961 		sub	r1, r1, #1096
 8731 0842 8B42     		cmp	r3, r1
 8732 0844 17D0     		beq	.L2653
 659:../Drivers/STM32F4xx_HAL_Driver/Src/stm32f4xx_hal_dma.c ****   {
 8733              		.loc 1 659 0 discriminator 170
 8734 0846 01F58061 		add	r1, r1, #1024
 8735 084a 8B42     		cmp	r3, r1
 8736 084c 10D0     		beq	.L2654
 659:../Drivers/STM32F4xx_HAL_Driver/Src/stm32f4xx_hal_dma.c ****   {
 8737              		.loc 1 659 0 discriminator 172
 8738 084e A1F56871 		sub	r1, r1, #928
 8739 0852 8B42     		cmp	r3, r1
 8740 0854 09D0     		beq	.L2655
 659:../Drivers/STM32F4xx_HAL_Driver/Src/stm32f4xx_hal_dma.c ****   {
 8741              		.loc 1 659 0 discriminator 174
 8742 0856 01F58061 		add	r1, r1, #1024
 8743 085a 8B42     		cmp	r3, r1
 8744 085c 02D1     		bne	.L2656
 659:../Drivers/STM32F4xx_HAL_Driver/Src/stm32f4xx_hal_dma.c ****   {
 8745              		.loc 1 659 0
 8746 085e 4FF48031 		mov	r1, #65536
 8747 0862 26E0     		b	.L2010
 8748              	.L2656:
 8749 0864 4FF48001 		mov	r1, #4194304
 8750 0868 23E0     		b	.L2010
 8751              	.L2655:
 8752 086a 4FF48031 		mov	r1, #65536
 8753 086e 20E0     		b	.L2010
 8754              	.L2654:
 8755 0870 4FF48031 		mov	r1, #65536
 8756 0874 1DE0     		b	.L2010
 8757              	.L2653:
 8758 0876 4FF48031 		mov	r1, #65536
 8759 087a 1AE0     		b	.L2010
 8760              	.L2652:
 8761 087c 4021     		movs	r1, #64
 8762 087e 18E0     		b	.L2010
 8763              	.L2651:
 8764 0880 4021     		movs	r1, #64
 8765 0882 16E0     		b	.L2010
 8766              	.L2650:
 8767 0884 4021     		movs	r1, #64
 8768 0886 14E0     		b	.L2010
 8769              	.L2649:
 8770 0888 4021     		movs	r1, #64
 8771 088a 12E0     		b	.L2010
 8772              	.L2648:
ARM GAS  /tmp/ccAPlzty.s 			page 194


 8773 088c 0549     		ldr	r1, .L3094+12
 8774 088e 10E0     		b	.L2010
 8775              	.L2647:
 8776 0890 0449     		ldr	r1, .L3094+12
 8777 0892 0EE0     		b	.L2010
 8778              	.L2646:
 8779 0894 0349     		ldr	r1, .L3094+12
 8780 0896 0CE0     		b	.L2010
 8781              	.L3095:
 8782              		.align	2
 8783              	.L3094:
 8784 0898 00600240 		.word	1073897472
 8785 089c 58640240 		.word	1073898584
 8786 08a0 10600240 		.word	1073897488
 8787 08a4 01008000 		.word	8388609
 8788 08a8 B8600240 		.word	1073897656
 8789 08ac 58600240 		.word	1073897560
 8790              	.L2645:
 8791 08b0 AB49     		ldr	r1, .L3096
 8792              	.L2010:
 659:../Drivers/STM32F4xx_HAL_Driver/Src/stm32f4xx_hal_dma.c ****   {
 8793              		.loc 1 659 0 discriminator 201
 8794 08b2 0A42     		tst	r2, r1
 8795 08b4 14BF     		ite	ne
 8796 08b6 0122     		movne	r2, #1
 8797 08b8 0022     		moveq	r2, #0
 8798              	.L1981:
 659:../Drivers/STM32F4xx_HAL_Driver/Src/stm32f4xx_hal_dma.c ****   {
 8799              		.loc 1 659 0 discriminator 204
 8800 08ba 002A     		cmp	r2, #0
 8801 08bc 00F06F81 		beq	.L2022
 661:../Drivers/STM32F4xx_HAL_Driver/Src/stm32f4xx_hal_dma.c ****     {
 8802              		.loc 1 661 0 is_stmt 1
 8803 08c0 5A69     		ldr	r2, [r3, #20]
 8804 08c2 12F0800F 		tst	r2, #128
 8805 08c6 00F06A81 		beq	.L2022
 664:../Drivers/STM32F4xx_HAL_Driver/Src/stm32f4xx_hal_dma.c **** 
 8806              		.loc 1 664 0
 8807 08ca 5A69     		ldr	r2, [r3, #20]
 8808 08cc 22F08002 		bic	r2, r2, #128
 8809 08d0 5A61     		str	r2, [r3, #20]
 667:../Drivers/STM32F4xx_HAL_Driver/Src/stm32f4xx_hal_dma.c **** 
 8810              		.loc 1 667 0
 8811 08d2 2368     		ldr	r3, [r4]
 8812 08d4 A34A     		ldr	r2, .L3096+4
 8813 08d6 9342     		cmp	r3, r2
 8814 08d8 50D9     		bls	.L2023
 667:../Drivers/STM32F4xx_HAL_Driver/Src/stm32f4xx_hal_dma.c **** 
 8815              		.loc 1 667 0 is_stmt 0 discriminator 1
 8816 08da A2F58962 		sub	r2, r2, #1096
 8817 08de 9342     		cmp	r3, r2
 8818 08e0 48D0     		beq	.L2657
 667:../Drivers/STM32F4xx_HAL_Driver/Src/stm32f4xx_hal_dma.c **** 
 8819              		.loc 1 667 0 discriminator 3
 8820 08e2 02F58062 		add	r2, r2, #1024
 8821 08e6 9342     		cmp	r3, r2
 8822 08e8 42D0     		beq	.L2658
ARM GAS  /tmp/ccAPlzty.s 			page 195


 667:../Drivers/STM32F4xx_HAL_Driver/Src/stm32f4xx_hal_dma.c **** 
 8823              		.loc 1 667 0 discriminator 5
 8824 08ea A2F56872 		sub	r2, r2, #928
 8825 08ee 9342     		cmp	r3, r2
 8826 08f0 3CD0     		beq	.L2659
 667:../Drivers/STM32F4xx_HAL_Driver/Src/stm32f4xx_hal_dma.c **** 
 8827              		.loc 1 667 0 discriminator 7
 8828 08f2 02F58062 		add	r2, r2, #1024
 8829 08f6 9342     		cmp	r3, r2
 8830 08f8 36D0     		beq	.L2660
 667:../Drivers/STM32F4xx_HAL_Driver/Src/stm32f4xx_hal_dma.c **** 
 8831              		.loc 1 667 0 discriminator 9
 8832 08fa A2F58962 		sub	r2, r2, #1096
 8833 08fe 9342     		cmp	r3, r2
 8834 0900 30D0     		beq	.L2661
 667:../Drivers/STM32F4xx_HAL_Driver/Src/stm32f4xx_hal_dma.c **** 
 8835              		.loc 1 667 0 discriminator 11
 8836 0902 02F58062 		add	r2, r2, #1024
 8837 0906 9342     		cmp	r3, r2
 8838 0908 2AD0     		beq	.L2662
 667:../Drivers/STM32F4xx_HAL_Driver/Src/stm32f4xx_hal_dma.c **** 
 8839              		.loc 1 667 0 discriminator 13
 8840 090a A2F56872 		sub	r2, r2, #928
 8841 090e 9342     		cmp	r3, r2
 8842 0910 24D0     		beq	.L2663
 667:../Drivers/STM32F4xx_HAL_Driver/Src/stm32f4xx_hal_dma.c **** 
 8843              		.loc 1 667 0 discriminator 15
 8844 0912 02F58062 		add	r2, r2, #1024
 8845 0916 9342     		cmp	r3, r2
 8846 0918 1ED0     		beq	.L2664
 667:../Drivers/STM32F4xx_HAL_Driver/Src/stm32f4xx_hal_dma.c **** 
 8847              		.loc 1 667 0 discriminator 17
 8848 091a A2F58962 		sub	r2, r2, #1096
 8849 091e 9342     		cmp	r3, r2
 8850 0920 17D0     		beq	.L2665
 667:../Drivers/STM32F4xx_HAL_Driver/Src/stm32f4xx_hal_dma.c **** 
 8851              		.loc 1 667 0 discriminator 19
 8852 0922 02F58062 		add	r2, r2, #1024
 8853 0926 9342     		cmp	r3, r2
 8854 0928 10D0     		beq	.L2666
 667:../Drivers/STM32F4xx_HAL_Driver/Src/stm32f4xx_hal_dma.c **** 
 8855              		.loc 1 667 0 discriminator 21
 8856 092a A2F56872 		sub	r2, r2, #928
 8857 092e 9342     		cmp	r3, r2
 8858 0930 09D0     		beq	.L2667
 667:../Drivers/STM32F4xx_HAL_Driver/Src/stm32f4xx_hal_dma.c **** 
 8859              		.loc 1 667 0 discriminator 23
 8860 0932 02F58062 		add	r2, r2, #1024
 8861 0936 9342     		cmp	r3, r2
 8862 0938 02D1     		bne	.L2668
 667:../Drivers/STM32F4xx_HAL_Driver/Src/stm32f4xx_hal_dma.c **** 
 8863              		.loc 1 667 0
 8864 093a 4FF48032 		mov	r2, #65536
 8865 093e 1AE0     		b	.L2024
 8866              	.L2668:
 8867 0940 4FF48002 		mov	r2, #4194304
 8868 0944 17E0     		b	.L2024
ARM GAS  /tmp/ccAPlzty.s 			page 196


 8869              	.L2667:
 8870 0946 4FF48032 		mov	r2, #65536
 8871 094a 14E0     		b	.L2024
 8872              	.L2666:
 8873 094c 4FF48032 		mov	r2, #65536
 8874 0950 11E0     		b	.L2024
 8875              	.L2665:
 8876 0952 4FF48032 		mov	r2, #65536
 8877 0956 0EE0     		b	.L2024
 8878              	.L2664:
 8879 0958 4022     		movs	r2, #64
 8880 095a 0CE0     		b	.L2024
 8881              	.L2663:
 8882 095c 4022     		movs	r2, #64
 8883 095e 0AE0     		b	.L2024
 8884              	.L2662:
 8885 0960 4022     		movs	r2, #64
 8886 0962 08E0     		b	.L2024
 8887              	.L2661:
 8888 0964 4022     		movs	r2, #64
 8889 0966 06E0     		b	.L2024
 8890              	.L2660:
 8891 0968 7D4A     		ldr	r2, .L3096
 8892 096a 04E0     		b	.L2024
 8893              	.L2659:
 8894 096c 7C4A     		ldr	r2, .L3096
 8895 096e 02E0     		b	.L2024
 8896              	.L2658:
 8897 0970 7B4A     		ldr	r2, .L3096
 8898 0972 00E0     		b	.L2024
 8899              	.L2657:
 8900 0974 7A4A     		ldr	r2, .L3096
 8901              	.L2024:
 667:../Drivers/STM32F4xx_HAL_Driver/Src/stm32f4xx_hal_dma.c **** 
 8902              		.loc 1 667 0 discriminator 50
 8903 0976 7C4B     		ldr	r3, .L3096+8
 8904 0978 DA60     		str	r2, [r3, #12]
 8905 097a 02E1     		b	.L2036
 8906              	.L2023:
 667:../Drivers/STM32F4xx_HAL_Driver/Src/stm32f4xx_hal_dma.c **** 
 8907              		.loc 1 667 0 discriminator 2
 8908 097c 7B4A     		ldr	r2, .L3096+12
 8909 097e 9342     		cmp	r3, r2
 8910 0980 4FD9     		bls	.L2037
 667:../Drivers/STM32F4xx_HAL_Driver/Src/stm32f4xx_hal_dma.c **** 
 8911              		.loc 1 667 0 discriminator 51
 8912 0982 A83A     		subs	r2, r2, #168
 8913 0984 9342     		cmp	r3, r2
 8914 0986 48D0     		beq	.L2669
 667:../Drivers/STM32F4xx_HAL_Driver/Src/stm32f4xx_hal_dma.c **** 
 8915              		.loc 1 667 0 discriminator 53
 8916 0988 02F58062 		add	r2, r2, #1024
 8917 098c 9342     		cmp	r3, r2
 8918 098e 42D0     		beq	.L2670
 667:../Drivers/STM32F4xx_HAL_Driver/Src/stm32f4xx_hal_dma.c **** 
 8919              		.loc 1 667 0 discriminator 55
 8920 0990 A2F56872 		sub	r2, r2, #928
ARM GAS  /tmp/ccAPlzty.s 			page 197


 8921 0994 9342     		cmp	r3, r2
 8922 0996 3CD0     		beq	.L2671
 667:../Drivers/STM32F4xx_HAL_Driver/Src/stm32f4xx_hal_dma.c **** 
 8923              		.loc 1 667 0 discriminator 57
 8924 0998 02F58062 		add	r2, r2, #1024
 8925 099c 9342     		cmp	r3, r2
 8926 099e 36D0     		beq	.L2672
 667:../Drivers/STM32F4xx_HAL_Driver/Src/stm32f4xx_hal_dma.c **** 
 8927              		.loc 1 667 0 discriminator 59
 8928 09a0 A2F58962 		sub	r2, r2, #1096
 8929 09a4 9342     		cmp	r3, r2
 8930 09a6 30D0     		beq	.L2673
 667:../Drivers/STM32F4xx_HAL_Driver/Src/stm32f4xx_hal_dma.c **** 
 8931              		.loc 1 667 0 discriminator 61
 8932 09a8 02F58062 		add	r2, r2, #1024
 8933 09ac 9342     		cmp	r3, r2
 8934 09ae 2AD0     		beq	.L2674
 667:../Drivers/STM32F4xx_HAL_Driver/Src/stm32f4xx_hal_dma.c **** 
 8935              		.loc 1 667 0 discriminator 63
 8936 09b0 A2F56872 		sub	r2, r2, #928
 8937 09b4 9342     		cmp	r3, r2
 8938 09b6 24D0     		beq	.L2675
 667:../Drivers/STM32F4xx_HAL_Driver/Src/stm32f4xx_hal_dma.c **** 
 8939              		.loc 1 667 0 discriminator 65
 8940 09b8 02F58062 		add	r2, r2, #1024
 8941 09bc 9342     		cmp	r3, r2
 8942 09be 1ED0     		beq	.L2676
 667:../Drivers/STM32F4xx_HAL_Driver/Src/stm32f4xx_hal_dma.c **** 
 8943              		.loc 1 667 0 discriminator 67
 8944 09c0 A2F58962 		sub	r2, r2, #1096
 8945 09c4 9342     		cmp	r3, r2
 8946 09c6 17D0     		beq	.L2677
 667:../Drivers/STM32F4xx_HAL_Driver/Src/stm32f4xx_hal_dma.c **** 
 8947              		.loc 1 667 0 discriminator 69
 8948 09c8 02F58062 		add	r2, r2, #1024
 8949 09cc 9342     		cmp	r3, r2
 8950 09ce 10D0     		beq	.L2678
 667:../Drivers/STM32F4xx_HAL_Driver/Src/stm32f4xx_hal_dma.c **** 
 8951              		.loc 1 667 0 discriminator 71
 8952 09d0 A2F56872 		sub	r2, r2, #928
 8953 09d4 9342     		cmp	r3, r2
 8954 09d6 09D0     		beq	.L2679
 667:../Drivers/STM32F4xx_HAL_Driver/Src/stm32f4xx_hal_dma.c **** 
 8955              		.loc 1 667 0 discriminator 73
 8956 09d8 02F58062 		add	r2, r2, #1024
 8957 09dc 9342     		cmp	r3, r2
 8958 09de 02D1     		bne	.L2680
 667:../Drivers/STM32F4xx_HAL_Driver/Src/stm32f4xx_hal_dma.c **** 
 8959              		.loc 1 667 0
 8960 09e0 4FF48032 		mov	r2, #65536
 8961 09e4 1AE0     		b	.L2038
 8962              	.L2680:
 8963 09e6 4FF48002 		mov	r2, #4194304
 8964 09ea 17E0     		b	.L2038
 8965              	.L2679:
 8966 09ec 4FF48032 		mov	r2, #65536
 8967 09f0 14E0     		b	.L2038
ARM GAS  /tmp/ccAPlzty.s 			page 198


 8968              	.L2678:
 8969 09f2 4FF48032 		mov	r2, #65536
 8970 09f6 11E0     		b	.L2038
 8971              	.L2677:
 8972 09f8 4FF48032 		mov	r2, #65536
 8973 09fc 0EE0     		b	.L2038
 8974              	.L2676:
 8975 09fe 4022     		movs	r2, #64
 8976 0a00 0CE0     		b	.L2038
 8977              	.L2675:
 8978 0a02 4022     		movs	r2, #64
 8979 0a04 0AE0     		b	.L2038
 8980              	.L2674:
 8981 0a06 4022     		movs	r2, #64
 8982 0a08 08E0     		b	.L2038
 8983              	.L2673:
 8984 0a0a 4022     		movs	r2, #64
 8985 0a0c 06E0     		b	.L2038
 8986              	.L2672:
 8987 0a0e 544A     		ldr	r2, .L3096
 8988 0a10 04E0     		b	.L2038
 8989              	.L2671:
 8990 0a12 534A     		ldr	r2, .L3096
 8991 0a14 02E0     		b	.L2038
 8992              	.L2670:
 8993 0a16 524A     		ldr	r2, .L3096
 8994 0a18 00E0     		b	.L2038
 8995              	.L2669:
 8996 0a1a 514A     		ldr	r2, .L3096
 8997              	.L2038:
 667:../Drivers/STM32F4xx_HAL_Driver/Src/stm32f4xx_hal_dma.c **** 
 8998              		.loc 1 667 0 discriminator 100
 8999 0a1c 524B     		ldr	r3, .L3096+8
 9000 0a1e 9A60     		str	r2, [r3, #8]
 9001 0a20 AFE0     		b	.L2036
 9002              	.L2037:
 667:../Drivers/STM32F4xx_HAL_Driver/Src/stm32f4xx_hal_dma.c **** 
 9003              		.loc 1 667 0 discriminator 52
 9004 0a22 534A     		ldr	r2, .L3096+16
 9005 0a24 9342     		cmp	r3, r2
 9006 0a26 4FD9     		bls	.L2050
 667:../Drivers/STM32F4xx_HAL_Driver/Src/stm32f4xx_hal_dma.c **** 
 9007              		.loc 1 667 0 discriminator 102
 9008 0a28 483A     		subs	r2, r2, #72
 9009 0a2a 9342     		cmp	r3, r2
 9010 0a2c 48D0     		beq	.L2681
 667:../Drivers/STM32F4xx_HAL_Driver/Src/stm32f4xx_hal_dma.c **** 
 9011              		.loc 1 667 0 discriminator 104
 9012 0a2e 02F58062 		add	r2, r2, #1024
 9013 0a32 9342     		cmp	r3, r2
 9014 0a34 42D0     		beq	.L2682
 667:../Drivers/STM32F4xx_HAL_Driver/Src/stm32f4xx_hal_dma.c **** 
 9015              		.loc 1 667 0 discriminator 106
 9016 0a36 A2F56872 		sub	r2, r2, #928
 9017 0a3a 9342     		cmp	r3, r2
 9018 0a3c 3CD0     		beq	.L2683
 667:../Drivers/STM32F4xx_HAL_Driver/Src/stm32f4xx_hal_dma.c **** 
ARM GAS  /tmp/ccAPlzty.s 			page 199


 9019              		.loc 1 667 0 discriminator 108
 9020 0a3e 02F58062 		add	r2, r2, #1024
 9021 0a42 9342     		cmp	r3, r2
 9022 0a44 36D0     		beq	.L2684
 667:../Drivers/STM32F4xx_HAL_Driver/Src/stm32f4xx_hal_dma.c **** 
 9023              		.loc 1 667 0 discriminator 110
 9024 0a46 A2F58962 		sub	r2, r2, #1096
 9025 0a4a 9342     		cmp	r3, r2
 9026 0a4c 30D0     		beq	.L2685
 667:../Drivers/STM32F4xx_HAL_Driver/Src/stm32f4xx_hal_dma.c **** 
 9027              		.loc 1 667 0 discriminator 112
 9028 0a4e 02F58062 		add	r2, r2, #1024
 9029 0a52 9342     		cmp	r3, r2
 9030 0a54 2AD0     		beq	.L2686
 667:../Drivers/STM32F4xx_HAL_Driver/Src/stm32f4xx_hal_dma.c **** 
 9031              		.loc 1 667 0 discriminator 114
 9032 0a56 A2F56872 		sub	r2, r2, #928
 9033 0a5a 9342     		cmp	r3, r2
 9034 0a5c 24D0     		beq	.L2687
 667:../Drivers/STM32F4xx_HAL_Driver/Src/stm32f4xx_hal_dma.c **** 
 9035              		.loc 1 667 0 discriminator 116
 9036 0a5e 02F58062 		add	r2, r2, #1024
 9037 0a62 9342     		cmp	r3, r2
 9038 0a64 1ED0     		beq	.L2688
 667:../Drivers/STM32F4xx_HAL_Driver/Src/stm32f4xx_hal_dma.c **** 
 9039              		.loc 1 667 0 discriminator 118
 9040 0a66 A2F58962 		sub	r2, r2, #1096
 9041 0a6a 9342     		cmp	r3, r2
 9042 0a6c 17D0     		beq	.L2689
 667:../Drivers/STM32F4xx_HAL_Driver/Src/stm32f4xx_hal_dma.c **** 
 9043              		.loc 1 667 0 discriminator 120
 9044 0a6e 02F58062 		add	r2, r2, #1024
 9045 0a72 9342     		cmp	r3, r2
 9046 0a74 10D0     		beq	.L2690
 667:../Drivers/STM32F4xx_HAL_Driver/Src/stm32f4xx_hal_dma.c **** 
 9047              		.loc 1 667 0 discriminator 122
 9048 0a76 A2F56872 		sub	r2, r2, #928
 9049 0a7a 9342     		cmp	r3, r2
 9050 0a7c 09D0     		beq	.L2691
 667:../Drivers/STM32F4xx_HAL_Driver/Src/stm32f4xx_hal_dma.c **** 
 9051              		.loc 1 667 0 discriminator 124
 9052 0a7e 02F58062 		add	r2, r2, #1024
 9053 0a82 9342     		cmp	r3, r2
 9054 0a84 02D1     		bne	.L2692
 667:../Drivers/STM32F4xx_HAL_Driver/Src/stm32f4xx_hal_dma.c **** 
 9055              		.loc 1 667 0
 9056 0a86 4FF48032 		mov	r2, #65536
 9057 0a8a 1AE0     		b	.L2051
 9058              	.L2692:
 9059 0a8c 4FF48002 		mov	r2, #4194304
 9060 0a90 17E0     		b	.L2051
 9061              	.L2691:
 9062 0a92 4FF48032 		mov	r2, #65536
 9063 0a96 14E0     		b	.L2051
 9064              	.L2690:
 9065 0a98 4FF48032 		mov	r2, #65536
 9066 0a9c 11E0     		b	.L2051
ARM GAS  /tmp/ccAPlzty.s 			page 200


 9067              	.L2689:
 9068 0a9e 4FF48032 		mov	r2, #65536
 9069 0aa2 0EE0     		b	.L2051
 9070              	.L2688:
 9071 0aa4 4022     		movs	r2, #64
 9072 0aa6 0CE0     		b	.L2051
 9073              	.L2687:
 9074 0aa8 4022     		movs	r2, #64
 9075 0aaa 0AE0     		b	.L2051
 9076              	.L2686:
 9077 0aac 4022     		movs	r2, #64
 9078 0aae 08E0     		b	.L2051
 9079              	.L2685:
 9080 0ab0 4022     		movs	r2, #64
 9081 0ab2 06E0     		b	.L2051
 9082              	.L2684:
 9083 0ab4 2A4A     		ldr	r2, .L3096
 9084 0ab6 04E0     		b	.L2051
 9085              	.L2683:
 9086 0ab8 294A     		ldr	r2, .L3096
 9087 0aba 02E0     		b	.L2051
 9088              	.L2682:
 9089 0abc 284A     		ldr	r2, .L3096
 9090 0abe 00E0     		b	.L2051
 9091              	.L2681:
 9092 0ac0 274A     		ldr	r2, .L3096
 9093              	.L2051:
 667:../Drivers/STM32F4xx_HAL_Driver/Src/stm32f4xx_hal_dma.c **** 
 9094              		.loc 1 667 0 discriminator 151
 9095 0ac2 2C4B     		ldr	r3, .L3096+20
 9096 0ac4 DA60     		str	r2, [r3, #12]
 9097 0ac6 5CE0     		b	.L2036
 9098              	.L2050:
 667:../Drivers/STM32F4xx_HAL_Driver/Src/stm32f4xx_hal_dma.c **** 
 9099              		.loc 1 667 0 discriminator 103
 9100 0ac8 2B4A     		ldr	r2, .L3096+24
 9101 0aca 9342     		cmp	r3, r2
 9102 0acc 56D0     		beq	.L2693
 667:../Drivers/STM32F4xx_HAL_Driver/Src/stm32f4xx_hal_dma.c **** 
 9103              		.loc 1 667 0 discriminator 153
 9104 0ace 02F58062 		add	r2, r2, #1024
 9105 0ad2 9342     		cmp	r3, r2
 9106 0ad4 42D0     		beq	.L2694
 667:../Drivers/STM32F4xx_HAL_Driver/Src/stm32f4xx_hal_dma.c **** 
 9107              		.loc 1 667 0 discriminator 155
 9108 0ad6 A2F56872 		sub	r2, r2, #928
 9109 0ada 9342     		cmp	r3, r2
 9110 0adc 3CD0     		beq	.L2695
 667:../Drivers/STM32F4xx_HAL_Driver/Src/stm32f4xx_hal_dma.c **** 
 9111              		.loc 1 667 0 discriminator 157
 9112 0ade 02F58062 		add	r2, r2, #1024
 9113 0ae2 9342     		cmp	r3, r2
 9114 0ae4 36D0     		beq	.L2696
 667:../Drivers/STM32F4xx_HAL_Driver/Src/stm32f4xx_hal_dma.c **** 
 9115              		.loc 1 667 0 discriminator 159
 9116 0ae6 A2F58962 		sub	r2, r2, #1096
 9117 0aea 9342     		cmp	r3, r2
ARM GAS  /tmp/ccAPlzty.s 			page 201


 9118 0aec 30D0     		beq	.L2697
 667:../Drivers/STM32F4xx_HAL_Driver/Src/stm32f4xx_hal_dma.c **** 
 9119              		.loc 1 667 0 discriminator 161
 9120 0aee 02F58062 		add	r2, r2, #1024
 9121 0af2 9342     		cmp	r3, r2
 9122 0af4 2AD0     		beq	.L2698
 667:../Drivers/STM32F4xx_HAL_Driver/Src/stm32f4xx_hal_dma.c **** 
 9123              		.loc 1 667 0 discriminator 163
 9124 0af6 A2F56872 		sub	r2, r2, #928
 9125 0afa 9342     		cmp	r3, r2
 9126 0afc 24D0     		beq	.L2699
 667:../Drivers/STM32F4xx_HAL_Driver/Src/stm32f4xx_hal_dma.c **** 
 9127              		.loc 1 667 0 discriminator 165
 9128 0afe 02F58062 		add	r2, r2, #1024
 9129 0b02 9342     		cmp	r3, r2
 9130 0b04 1ED0     		beq	.L2700
 667:../Drivers/STM32F4xx_HAL_Driver/Src/stm32f4xx_hal_dma.c **** 
 9131              		.loc 1 667 0 discriminator 167
 9132 0b06 A2F58962 		sub	r2, r2, #1096
 9133 0b0a 9342     		cmp	r3, r2
 9134 0b0c 17D0     		beq	.L2701
 667:../Drivers/STM32F4xx_HAL_Driver/Src/stm32f4xx_hal_dma.c **** 
 9135              		.loc 1 667 0 discriminator 169
 9136 0b0e 02F58062 		add	r2, r2, #1024
 9137 0b12 9342     		cmp	r3, r2
 9138 0b14 10D0     		beq	.L2702
 667:../Drivers/STM32F4xx_HAL_Driver/Src/stm32f4xx_hal_dma.c **** 
 9139              		.loc 1 667 0 discriminator 171
 9140 0b16 A2F56872 		sub	r2, r2, #928
 9141 0b1a 9342     		cmp	r3, r2
 9142 0b1c 09D0     		beq	.L2703
 667:../Drivers/STM32F4xx_HAL_Driver/Src/stm32f4xx_hal_dma.c **** 
 9143              		.loc 1 667 0 discriminator 173
 9144 0b1e 02F58062 		add	r2, r2, #1024
 9145 0b22 9342     		cmp	r3, r2
 9146 0b24 02D1     		bne	.L2704
 667:../Drivers/STM32F4xx_HAL_Driver/Src/stm32f4xx_hal_dma.c **** 
 9147              		.loc 1 667 0
 9148 0b26 4FF48032 		mov	r2, #65536
 9149 0b2a 28E0     		b	.L2064
 9150              	.L2704:
 9151 0b2c 4FF48002 		mov	r2, #4194304
 9152 0b30 25E0     		b	.L2064
 9153              	.L2703:
 9154 0b32 4FF48032 		mov	r2, #65536
 9155 0b36 22E0     		b	.L2064
 9156              	.L2702:
 9157 0b38 4FF48032 		mov	r2, #65536
 9158 0b3c 1FE0     		b	.L2064
 9159              	.L2701:
 9160 0b3e 4FF48032 		mov	r2, #65536
 9161 0b42 1CE0     		b	.L2064
 9162              	.L2700:
 9163 0b44 4022     		movs	r2, #64
 9164 0b46 1AE0     		b	.L2064
 9165              	.L2699:
 9166 0b48 4022     		movs	r2, #64
ARM GAS  /tmp/ccAPlzty.s 			page 202


 9167 0b4a 18E0     		b	.L2064
 9168              	.L2698:
 9169 0b4c 4022     		movs	r2, #64
 9170 0b4e 16E0     		b	.L2064
 9171              	.L2697:
 9172 0b50 4022     		movs	r2, #64
 9173 0b52 14E0     		b	.L2064
 9174              	.L2696:
 9175 0b54 024A     		ldr	r2, .L3096
 9176 0b56 12E0     		b	.L2064
 9177              	.L2695:
 9178 0b58 014A     		ldr	r2, .L3096
 9179 0b5a 10E0     		b	.L2064
 9180              	.L2694:
 9181 0b5c 004A     		ldr	r2, .L3096
 9182 0b5e 0EE0     		b	.L2064
 9183              	.L3097:
 9184              		.align	2
 9185              	.L3096:
 9186 0b60 01008000 		.word	8388609
 9187 0b64 58640240 		.word	1073898584
 9188 0b68 00640240 		.word	1073898496
 9189 0b6c B8600240 		.word	1073897656
 9190 0b70 58600240 		.word	1073897560
 9191 0b74 00600240 		.word	1073897472
 9192 0b78 10600240 		.word	1073897488
 9193              	.L2693:
 9194 0b7c B44A     		ldr	r2, .L3098
 9195              	.L2064:
 667:../Drivers/STM32F4xx_HAL_Driver/Src/stm32f4xx_hal_dma.c **** 
 9196              		.loc 1 667 0 discriminator 200
 9197 0b7e B54B     		ldr	r3, .L3098+4
 9198 0b80 9A60     		str	r2, [r3, #8]
 9199              	.L2036:
 670:../Drivers/STM32F4xx_HAL_Driver/Src/stm32f4xx_hal_dma.c **** 
 9200              		.loc 1 670 0 is_stmt 1
 9201 0b82 E36C     		ldr	r3, [r4, #76]
 9202 0b84 43F00203 		orr	r3, r3, #2
 9203 0b88 E364     		str	r3, [r4, #76]
 673:../Drivers/STM32F4xx_HAL_Driver/Src/stm32f4xx_hal_dma.c **** 
 9204              		.loc 1 673 0
 9205 0b8a 0423     		movs	r3, #4
 9206 0b8c 84F83530 		strb	r3, [r4, #53]
 676:../Drivers/STM32F4xx_HAL_Driver/Src/stm32f4xx_hal_dma.c **** 
 9207              		.loc 1 676 0
 9208 0b90 0023     		movs	r3, #0
 9209 0b92 84F83430 		strb	r3, [r4, #52]
 678:../Drivers/STM32F4xx_HAL_Driver/Src/stm32f4xx_hal_dma.c ****       {
 9210              		.loc 1 678 0
 9211 0b96 A36C     		ldr	r3, [r4, #72]
 9212 0b98 0BB1     		cbz	r3, .L2022
 681:../Drivers/STM32F4xx_HAL_Driver/Src/stm32f4xx_hal_dma.c ****       }
 9213              		.loc 1 681 0
 9214 0b9a 2046     		mov	r0, r4
 9215 0b9c 9847     		blx	r3
 9216              	.LVL69:
 9217              	.L2022:
ARM GAS  /tmp/ccAPlzty.s 			page 203


 686:../Drivers/STM32F4xx_HAL_Driver/Src/stm32f4xx_hal_dma.c ****   {
 9218              		.loc 1 686 0
 9219 0b9e 2368     		ldr	r3, [r4]
 9220 0ba0 AD4A     		ldr	r2, .L3098+8
 9221 0ba2 9342     		cmp	r3, r2
 9222 0ba4 57D9     		bls	.L2076
 686:../Drivers/STM32F4xx_HAL_Driver/Src/stm32f4xx_hal_dma.c ****   {
 9223              		.loc 1 686 0 is_stmt 0 discriminator 1
 9224 0ba6 583A     		subs	r2, r2, #88
 9225 0ba8 5268     		ldr	r2, [r2, #4]
 9226 0baa AC49     		ldr	r1, .L3098+12
 9227 0bac 8B42     		cmp	r3, r1
 9228 0bae 4CD0     		beq	.L2705
 686:../Drivers/STM32F4xx_HAL_Driver/Src/stm32f4xx_hal_dma.c ****   {
 9229              		.loc 1 686 0 discriminator 3
 9230 0bb0 01F58061 		add	r1, r1, #1024
 9231 0bb4 8B42     		cmp	r3, r1
 9232 0bb6 46D0     		beq	.L2706
 686:../Drivers/STM32F4xx_HAL_Driver/Src/stm32f4xx_hal_dma.c ****   {
 9233              		.loc 1 686 0 discriminator 5
 9234 0bb8 A1F56871 		sub	r1, r1, #928
 9235 0bbc 8B42     		cmp	r3, r1
 9236 0bbe 40D0     		beq	.L2707
 686:../Drivers/STM32F4xx_HAL_Driver/Src/stm32f4xx_hal_dma.c ****   {
 9237              		.loc 1 686 0 discriminator 7
 9238 0bc0 01F58061 		add	r1, r1, #1024
 9239 0bc4 8B42     		cmp	r3, r1
 9240 0bc6 3AD0     		beq	.L2708
 686:../Drivers/STM32F4xx_HAL_Driver/Src/stm32f4xx_hal_dma.c ****   {
 9241              		.loc 1 686 0 discriminator 9
 9242 0bc8 A1F58961 		sub	r1, r1, #1096
 9243 0bcc 8B42     		cmp	r3, r1
 9244 0bce 33D0     		beq	.L2709
 686:../Drivers/STM32F4xx_HAL_Driver/Src/stm32f4xx_hal_dma.c ****   {
 9245              		.loc 1 686 0 discriminator 11
 9246 0bd0 01F58061 		add	r1, r1, #1024
 9247 0bd4 8B42     		cmp	r3, r1
 9248 0bd6 2CD0     		beq	.L2710
 686:../Drivers/STM32F4xx_HAL_Driver/Src/stm32f4xx_hal_dma.c ****   {
 9249              		.loc 1 686 0 discriminator 13
 9250 0bd8 A1F56871 		sub	r1, r1, #928
 9251 0bdc 8B42     		cmp	r3, r1
 9252 0bde 25D0     		beq	.L2711
 686:../Drivers/STM32F4xx_HAL_Driver/Src/stm32f4xx_hal_dma.c ****   {
 9253              		.loc 1 686 0 discriminator 15
 9254 0be0 01F58061 		add	r1, r1, #1024
 9255 0be4 8B42     		cmp	r3, r1
 9256 0be6 1ED0     		beq	.L2712
 686:../Drivers/STM32F4xx_HAL_Driver/Src/stm32f4xx_hal_dma.c ****   {
 9257              		.loc 1 686 0 discriminator 17
 9258 0be8 A1F58961 		sub	r1, r1, #1096
 9259 0bec 8B42     		cmp	r3, r1
 9260 0bee 17D0     		beq	.L2713
 686:../Drivers/STM32F4xx_HAL_Driver/Src/stm32f4xx_hal_dma.c ****   {
 9261              		.loc 1 686 0 discriminator 19
 9262 0bf0 01F58061 		add	r1, r1, #1024
 9263 0bf4 8B42     		cmp	r3, r1
ARM GAS  /tmp/ccAPlzty.s 			page 204


 9264 0bf6 10D0     		beq	.L2714
 686:../Drivers/STM32F4xx_HAL_Driver/Src/stm32f4xx_hal_dma.c ****   {
 9265              		.loc 1 686 0 discriminator 21
 9266 0bf8 A1F56871 		sub	r1, r1, #928
 9267 0bfc 8B42     		cmp	r3, r1
 9268 0bfe 09D0     		beq	.L2715
 686:../Drivers/STM32F4xx_HAL_Driver/Src/stm32f4xx_hal_dma.c ****   {
 9269              		.loc 1 686 0 discriminator 23
 9270 0c00 01F58061 		add	r1, r1, #1024
 9271 0c04 8B42     		cmp	r3, r1
 9272 0c06 02D1     		bne	.L2716
 686:../Drivers/STM32F4xx_HAL_Driver/Src/stm32f4xx_hal_dma.c ****   {
 9273              		.loc 1 686 0
 9274 0c08 4FF48021 		mov	r1, #262144
 9275 0c0c 1EE0     		b	.L2077
 9276              	.L2716:
 9277 0c0e 4FF08071 		mov	r1, #16777216
 9278 0c12 1BE0     		b	.L2077
 9279              	.L2715:
 9280 0c14 4FF48021 		mov	r1, #262144
 9281 0c18 18E0     		b	.L2077
 9282              	.L2714:
 9283 0c1a 4FF48021 		mov	r1, #262144
 9284 0c1e 15E0     		b	.L2077
 9285              	.L2713:
 9286 0c20 4FF48021 		mov	r1, #262144
 9287 0c24 12E0     		b	.L2077
 9288              	.L2712:
 9289 0c26 4FF48071 		mov	r1, #256
 9290 0c2a 0FE0     		b	.L2077
 9291              	.L2711:
 9292 0c2c 4FF48071 		mov	r1, #256
 9293 0c30 0CE0     		b	.L2077
 9294              	.L2710:
 9295 0c32 4FF48071 		mov	r1, #256
 9296 0c36 09E0     		b	.L2077
 9297              	.L2709:
 9298 0c38 4FF48071 		mov	r1, #256
 9299 0c3c 06E0     		b	.L2077
 9300              	.L2708:
 9301 0c3e 8849     		ldr	r1, .L3098+16
 9302 0c40 04E0     		b	.L2077
 9303              	.L2707:
 9304 0c42 8749     		ldr	r1, .L3098+16
 9305 0c44 02E0     		b	.L2077
 9306              	.L2706:
 9307 0c46 8649     		ldr	r1, .L3098+16
 9308 0c48 00E0     		b	.L2077
 9309              	.L2705:
 9310 0c4a 8549     		ldr	r1, .L3098+16
 9311              	.L2077:
 686:../Drivers/STM32F4xx_HAL_Driver/Src/stm32f4xx_hal_dma.c ****   {
 9312              		.loc 1 686 0 discriminator 50
 9313 0c4c 0A42     		tst	r2, r1
 9314 0c4e 14BF     		ite	ne
 9315 0c50 0122     		movne	r2, #1
 9316 0c52 0022     		moveq	r2, #0
ARM GAS  /tmp/ccAPlzty.s 			page 205


 9317 0c54 1BE1     		b	.L2089
 9318              	.L2076:
 686:../Drivers/STM32F4xx_HAL_Driver/Src/stm32f4xx_hal_dma.c ****   {
 9319              		.loc 1 686 0 discriminator 2
 9320 0c56 834A     		ldr	r2, .L3098+20
 9321 0c58 9342     		cmp	r3, r2
 9322 0c5a 58D9     		bls	.L2090
 686:../Drivers/STM32F4xx_HAL_Driver/Src/stm32f4xx_hal_dma.c ****   {
 9323              		.loc 1 686 0 discriminator 52
 9324 0c5c 02F55272 		add	r2, r2, #840
 9325 0c60 1268     		ldr	r2, [r2]
 9326 0c62 7E49     		ldr	r1, .L3098+12
 9327 0c64 8B42     		cmp	r3, r1
 9328 0c66 4CD0     		beq	.L2717
 686:../Drivers/STM32F4xx_HAL_Driver/Src/stm32f4xx_hal_dma.c ****   {
 9329              		.loc 1 686 0 discriminator 54
 9330 0c68 01F58061 		add	r1, r1, #1024
 9331 0c6c 8B42     		cmp	r3, r1
 9332 0c6e 46D0     		beq	.L2718
 686:../Drivers/STM32F4xx_HAL_Driver/Src/stm32f4xx_hal_dma.c ****   {
 9333              		.loc 1 686 0 discriminator 56
 9334 0c70 A1F56871 		sub	r1, r1, #928
 9335 0c74 8B42     		cmp	r3, r1
 9336 0c76 40D0     		beq	.L2719
 686:../Drivers/STM32F4xx_HAL_Driver/Src/stm32f4xx_hal_dma.c ****   {
 9337              		.loc 1 686 0 discriminator 58
 9338 0c78 01F58061 		add	r1, r1, #1024
 9339 0c7c 8B42     		cmp	r3, r1
 9340 0c7e 3AD0     		beq	.L2720
 686:../Drivers/STM32F4xx_HAL_Driver/Src/stm32f4xx_hal_dma.c ****   {
 9341              		.loc 1 686 0 discriminator 60
 9342 0c80 A1F58961 		sub	r1, r1, #1096
 9343 0c84 8B42     		cmp	r3, r1
 9344 0c86 33D0     		beq	.L2721
 686:../Drivers/STM32F4xx_HAL_Driver/Src/stm32f4xx_hal_dma.c ****   {
 9345              		.loc 1 686 0 discriminator 62
 9346 0c88 01F58061 		add	r1, r1, #1024
 9347 0c8c 8B42     		cmp	r3, r1
 9348 0c8e 2CD0     		beq	.L2722
 686:../Drivers/STM32F4xx_HAL_Driver/Src/stm32f4xx_hal_dma.c ****   {
 9349              		.loc 1 686 0 discriminator 64
 9350 0c90 A1F56871 		sub	r1, r1, #928
 9351 0c94 8B42     		cmp	r3, r1
 9352 0c96 25D0     		beq	.L2723
 686:../Drivers/STM32F4xx_HAL_Driver/Src/stm32f4xx_hal_dma.c ****   {
 9353              		.loc 1 686 0 discriminator 66
 9354 0c98 01F58061 		add	r1, r1, #1024
 9355 0c9c 8B42     		cmp	r3, r1
 9356 0c9e 1ED0     		beq	.L2724
 686:../Drivers/STM32F4xx_HAL_Driver/Src/stm32f4xx_hal_dma.c ****   {
 9357              		.loc 1 686 0 discriminator 68
 9358 0ca0 A1F58961 		sub	r1, r1, #1096
 9359 0ca4 8B42     		cmp	r3, r1
 9360 0ca6 17D0     		beq	.L2725
 686:../Drivers/STM32F4xx_HAL_Driver/Src/stm32f4xx_hal_dma.c ****   {
 9361              		.loc 1 686 0 discriminator 70
 9362 0ca8 01F58061 		add	r1, r1, #1024
ARM GAS  /tmp/ccAPlzty.s 			page 206


 9363 0cac 8B42     		cmp	r3, r1
 9364 0cae 10D0     		beq	.L2726
 686:../Drivers/STM32F4xx_HAL_Driver/Src/stm32f4xx_hal_dma.c ****   {
 9365              		.loc 1 686 0 discriminator 72
 9366 0cb0 A1F56871 		sub	r1, r1, #928
 9367 0cb4 8B42     		cmp	r3, r1
 9368 0cb6 09D0     		beq	.L2727
 686:../Drivers/STM32F4xx_HAL_Driver/Src/stm32f4xx_hal_dma.c ****   {
 9369              		.loc 1 686 0 discriminator 74
 9370 0cb8 01F58061 		add	r1, r1, #1024
 9371 0cbc 8B42     		cmp	r3, r1
 9372 0cbe 02D1     		bne	.L2728
 686:../Drivers/STM32F4xx_HAL_Driver/Src/stm32f4xx_hal_dma.c ****   {
 9373              		.loc 1 686 0
 9374 0cc0 4FF48021 		mov	r1, #262144
 9375 0cc4 1EE0     		b	.L2091
 9376              	.L2728:
 9377 0cc6 4FF08071 		mov	r1, #16777216
 9378 0cca 1BE0     		b	.L2091
 9379              	.L2727:
 9380 0ccc 4FF48021 		mov	r1, #262144
 9381 0cd0 18E0     		b	.L2091
 9382              	.L2726:
 9383 0cd2 4FF48021 		mov	r1, #262144
 9384 0cd6 15E0     		b	.L2091
 9385              	.L2725:
 9386 0cd8 4FF48021 		mov	r1, #262144
 9387 0cdc 12E0     		b	.L2091
 9388              	.L2724:
 9389 0cde 4FF48071 		mov	r1, #256
 9390 0ce2 0FE0     		b	.L2091
 9391              	.L2723:
 9392 0ce4 4FF48071 		mov	r1, #256
 9393 0ce8 0CE0     		b	.L2091
 9394              	.L2722:
 9395 0cea 4FF48071 		mov	r1, #256
 9396 0cee 09E0     		b	.L2091
 9397              	.L2721:
 9398 0cf0 4FF48071 		mov	r1, #256
 9399 0cf4 06E0     		b	.L2091
 9400              	.L2720:
 9401 0cf6 5A49     		ldr	r1, .L3098+16
 9402 0cf8 04E0     		b	.L2091
 9403              	.L2719:
 9404 0cfa 5949     		ldr	r1, .L3098+16
 9405 0cfc 02E0     		b	.L2091
 9406              	.L2718:
 9407 0cfe 5849     		ldr	r1, .L3098+16
 9408 0d00 00E0     		b	.L2091
 9409              	.L2717:
 9410 0d02 5749     		ldr	r1, .L3098+16
 9411              	.L2091:
 686:../Drivers/STM32F4xx_HAL_Driver/Src/stm32f4xx_hal_dma.c ****   {
 9412              		.loc 1 686 0 discriminator 101
 9413 0d04 0A42     		tst	r2, r1
 9414 0d06 14BF     		ite	ne
 9415 0d08 0122     		movne	r2, #1
ARM GAS  /tmp/ccAPlzty.s 			page 207


 9416 0d0a 0022     		moveq	r2, #0
 9417 0d0c BFE0     		b	.L2089
 9418              	.L2090:
 686:../Drivers/STM32F4xx_HAL_Driver/Src/stm32f4xx_hal_dma.c ****   {
 9419              		.loc 1 686 0 discriminator 53
 9420 0d0e 564A     		ldr	r2, .L3098+24
 9421 0d10 9342     		cmp	r3, r2
 9422 0d12 57D9     		bls	.L2104
 686:../Drivers/STM32F4xx_HAL_Driver/Src/stm32f4xx_hal_dma.c ****   {
 9423              		.loc 1 686 0 discriminator 103
 9424 0d14 583A     		subs	r2, r2, #88
 9425 0d16 5268     		ldr	r2, [r2, #4]
 9426 0d18 5049     		ldr	r1, .L3098+12
 9427 0d1a 8B42     		cmp	r3, r1
 9428 0d1c 4CD0     		beq	.L2729
 686:../Drivers/STM32F4xx_HAL_Driver/Src/stm32f4xx_hal_dma.c ****   {
 9429              		.loc 1 686 0 discriminator 105
 9430 0d1e 01F58061 		add	r1, r1, #1024
 9431 0d22 8B42     		cmp	r3, r1
 9432 0d24 46D0     		beq	.L2730
 686:../Drivers/STM32F4xx_HAL_Driver/Src/stm32f4xx_hal_dma.c ****   {
 9433              		.loc 1 686 0 discriminator 107
 9434 0d26 A1F56871 		sub	r1, r1, #928
 9435 0d2a 8B42     		cmp	r3, r1
 9436 0d2c 40D0     		beq	.L2731
 686:../Drivers/STM32F4xx_HAL_Driver/Src/stm32f4xx_hal_dma.c ****   {
 9437              		.loc 1 686 0 discriminator 109
 9438 0d2e 01F58061 		add	r1, r1, #1024
 9439 0d32 8B42     		cmp	r3, r1
 9440 0d34 3AD0     		beq	.L2732
 686:../Drivers/STM32F4xx_HAL_Driver/Src/stm32f4xx_hal_dma.c ****   {
 9441              		.loc 1 686 0 discriminator 111
 9442 0d36 A1F58961 		sub	r1, r1, #1096
 9443 0d3a 8B42     		cmp	r3, r1
 9444 0d3c 33D0     		beq	.L2733
 686:../Drivers/STM32F4xx_HAL_Driver/Src/stm32f4xx_hal_dma.c ****   {
 9445              		.loc 1 686 0 discriminator 113
 9446 0d3e 01F58061 		add	r1, r1, #1024
 9447 0d42 8B42     		cmp	r3, r1
 9448 0d44 2CD0     		beq	.L2734
 686:../Drivers/STM32F4xx_HAL_Driver/Src/stm32f4xx_hal_dma.c ****   {
 9449              		.loc 1 686 0 discriminator 115
 9450 0d46 A1F56871 		sub	r1, r1, #928
 9451 0d4a 8B42     		cmp	r3, r1
 9452 0d4c 25D0     		beq	.L2735
 686:../Drivers/STM32F4xx_HAL_Driver/Src/stm32f4xx_hal_dma.c ****   {
 9453              		.loc 1 686 0 discriminator 117
 9454 0d4e 01F58061 		add	r1, r1, #1024
 9455 0d52 8B42     		cmp	r3, r1
 9456 0d54 1ED0     		beq	.L2736
 686:../Drivers/STM32F4xx_HAL_Driver/Src/stm32f4xx_hal_dma.c ****   {
 9457              		.loc 1 686 0 discriminator 119
 9458 0d56 A1F58961 		sub	r1, r1, #1096
 9459 0d5a 8B42     		cmp	r3, r1
 9460 0d5c 17D0     		beq	.L2737
 686:../Drivers/STM32F4xx_HAL_Driver/Src/stm32f4xx_hal_dma.c ****   {
 9461              		.loc 1 686 0 discriminator 121
ARM GAS  /tmp/ccAPlzty.s 			page 208


 9462 0d5e 01F58061 		add	r1, r1, #1024
 9463 0d62 8B42     		cmp	r3, r1
 9464 0d64 10D0     		beq	.L2738
 686:../Drivers/STM32F4xx_HAL_Driver/Src/stm32f4xx_hal_dma.c ****   {
 9465              		.loc 1 686 0 discriminator 123
 9466 0d66 A1F56871 		sub	r1, r1, #928
 9467 0d6a 8B42     		cmp	r3, r1
 9468 0d6c 09D0     		beq	.L2739
 686:../Drivers/STM32F4xx_HAL_Driver/Src/stm32f4xx_hal_dma.c ****   {
 9469              		.loc 1 686 0 discriminator 125
 9470 0d6e 01F58061 		add	r1, r1, #1024
 9471 0d72 8B42     		cmp	r3, r1
 9472 0d74 02D1     		bne	.L2740
 686:../Drivers/STM32F4xx_HAL_Driver/Src/stm32f4xx_hal_dma.c ****   {
 9473              		.loc 1 686 0
 9474 0d76 4FF48021 		mov	r1, #262144
 9475 0d7a 1EE0     		b	.L2105
 9476              	.L2740:
 9477 0d7c 4FF08071 		mov	r1, #16777216
 9478 0d80 1BE0     		b	.L2105
 9479              	.L2739:
 9480 0d82 4FF48021 		mov	r1, #262144
 9481 0d86 18E0     		b	.L2105
 9482              	.L2738:
 9483 0d88 4FF48021 		mov	r1, #262144
 9484 0d8c 15E0     		b	.L2105
 9485              	.L2737:
 9486 0d8e 4FF48021 		mov	r1, #262144
 9487 0d92 12E0     		b	.L2105
 9488              	.L2736:
 9489 0d94 4FF48071 		mov	r1, #256
 9490 0d98 0FE0     		b	.L2105
 9491              	.L2735:
 9492 0d9a 4FF48071 		mov	r1, #256
 9493 0d9e 0CE0     		b	.L2105
 9494              	.L2734:
 9495 0da0 4FF48071 		mov	r1, #256
 9496 0da4 09E0     		b	.L2105
 9497              	.L2733:
 9498 0da6 4FF48071 		mov	r1, #256
 9499 0daa 06E0     		b	.L2105
 9500              	.L2732:
 9501 0dac 2C49     		ldr	r1, .L3098+16
 9502 0dae 04E0     		b	.L2105
 9503              	.L2731:
 9504 0db0 2B49     		ldr	r1, .L3098+16
 9505 0db2 02E0     		b	.L2105
 9506              	.L2730:
 9507 0db4 2A49     		ldr	r1, .L3098+16
 9508 0db6 00E0     		b	.L2105
 9509              	.L2729:
 9510 0db8 2949     		ldr	r1, .L3098+16
 9511              	.L2105:
 686:../Drivers/STM32F4xx_HAL_Driver/Src/stm32f4xx_hal_dma.c ****   {
 9512              		.loc 1 686 0 discriminator 152
 9513 0dba 0A42     		tst	r2, r1
 9514 0dbc 14BF     		ite	ne
ARM GAS  /tmp/ccAPlzty.s 			page 209


 9515 0dbe 0122     		movne	r2, #1
 9516 0dc0 0022     		moveq	r2, #0
 9517 0dc2 64E0     		b	.L2089
 9518              	.L2104:
 686:../Drivers/STM32F4xx_HAL_Driver/Src/stm32f4xx_hal_dma.c ****   {
 9519              		.loc 1 686 0 discriminator 104
 9520 0dc4 234A     		ldr	r2, .L3098+4
 9521 0dc6 1268     		ldr	r2, [r2]
 9522 0dc8 2449     		ldr	r1, .L3098+12
 9523 0dca 8B42     		cmp	r3, r1
 9524 0dcc 5AD0     		beq	.L2741
 686:../Drivers/STM32F4xx_HAL_Driver/Src/stm32f4xx_hal_dma.c ****   {
 9525              		.loc 1 686 0 discriminator 154
 9526 0dce 01F58061 		add	r1, r1, #1024
 9527 0dd2 8B42     		cmp	r3, r1
 9528 0dd4 54D0     		beq	.L2742
 686:../Drivers/STM32F4xx_HAL_Driver/Src/stm32f4xx_hal_dma.c ****   {
 9529              		.loc 1 686 0 discriminator 156
 9530 0dd6 A1F56871 		sub	r1, r1, #928
 9531 0dda 8B42     		cmp	r3, r1
 9532 0ddc 4ED0     		beq	.L2743
 686:../Drivers/STM32F4xx_HAL_Driver/Src/stm32f4xx_hal_dma.c ****   {
 9533              		.loc 1 686 0 discriminator 158
 9534 0dde 01F58061 		add	r1, r1, #1024
 9535 0de2 8B42     		cmp	r3, r1
 9536 0de4 48D0     		beq	.L2744
 686:../Drivers/STM32F4xx_HAL_Driver/Src/stm32f4xx_hal_dma.c ****   {
 9537              		.loc 1 686 0 discriminator 160
 9538 0de6 A1F58961 		sub	r1, r1, #1096
 9539 0dea 8B42     		cmp	r3, r1
 9540 0dec 41D0     		beq	.L2745
 686:../Drivers/STM32F4xx_HAL_Driver/Src/stm32f4xx_hal_dma.c ****   {
 9541              		.loc 1 686 0 discriminator 162
 9542 0dee 01F58061 		add	r1, r1, #1024
 9543 0df2 8B42     		cmp	r3, r1
 9544 0df4 3AD0     		beq	.L2746
 686:../Drivers/STM32F4xx_HAL_Driver/Src/stm32f4xx_hal_dma.c ****   {
 9545              		.loc 1 686 0 discriminator 164
 9546 0df6 A1F56871 		sub	r1, r1, #928
 9547 0dfa 8B42     		cmp	r3, r1
 9548 0dfc 25D0     		beq	.L2747
 686:../Drivers/STM32F4xx_HAL_Driver/Src/stm32f4xx_hal_dma.c ****   {
 9549              		.loc 1 686 0 discriminator 166
 9550 0dfe 01F58061 		add	r1, r1, #1024
 9551 0e02 8B42     		cmp	r3, r1
 9552 0e04 1ED0     		beq	.L2748
 686:../Drivers/STM32F4xx_HAL_Driver/Src/stm32f4xx_hal_dma.c ****   {
 9553              		.loc 1 686 0 discriminator 168
 9554 0e06 A1F58961 		sub	r1, r1, #1096
 9555 0e0a 8B42     		cmp	r3, r1
 9556 0e0c 17D0     		beq	.L2749
 686:../Drivers/STM32F4xx_HAL_Driver/Src/stm32f4xx_hal_dma.c ****   {
 9557              		.loc 1 686 0 discriminator 170
 9558 0e0e 01F58061 		add	r1, r1, #1024
 9559 0e12 8B42     		cmp	r3, r1
 9560 0e14 10D0     		beq	.L2750
 686:../Drivers/STM32F4xx_HAL_Driver/Src/stm32f4xx_hal_dma.c ****   {
ARM GAS  /tmp/ccAPlzty.s 			page 210


 9561              		.loc 1 686 0 discriminator 172
 9562 0e16 A1F56871 		sub	r1, r1, #928
 9563 0e1a 8B42     		cmp	r3, r1
 9564 0e1c 09D0     		beq	.L2751
 686:../Drivers/STM32F4xx_HAL_Driver/Src/stm32f4xx_hal_dma.c ****   {
 9565              		.loc 1 686 0 discriminator 174
 9566 0e1e 01F58061 		add	r1, r1, #1024
 9567 0e22 8B42     		cmp	r3, r1
 9568 0e24 02D1     		bne	.L2752
 686:../Drivers/STM32F4xx_HAL_Driver/Src/stm32f4xx_hal_dma.c ****   {
 9569              		.loc 1 686 0
 9570 0e26 4FF48021 		mov	r1, #262144
 9571 0e2a 2CE0     		b	.L2118
 9572              	.L2752:
 9573 0e2c 4FF08071 		mov	r1, #16777216
 9574 0e30 29E0     		b	.L2118
 9575              	.L2751:
 9576 0e32 4FF48021 		mov	r1, #262144
 9577 0e36 26E0     		b	.L2118
 9578              	.L2750:
 9579 0e38 4FF48021 		mov	r1, #262144
 9580 0e3c 23E0     		b	.L2118
 9581              	.L2749:
 9582 0e3e 4FF48021 		mov	r1, #262144
 9583 0e42 20E0     		b	.L2118
 9584              	.L2748:
 9585 0e44 4FF48071 		mov	r1, #256
 9586 0e48 1DE0     		b	.L2118
 9587              	.L2747:
 9588 0e4a 4FF48071 		mov	r1, #256
 9589 0e4e 1AE0     		b	.L2118
 9590              	.L3099:
 9591              		.align	2
 9592              	.L3098:
 9593 0e50 01008000 		.word	8388609
 9594 0e54 00600240 		.word	1073897472
 9595 0e58 58640240 		.word	1073898584
 9596 0e5c 10600240 		.word	1073897488
 9597 0e60 04008000 		.word	8388612
 9598 0e64 B8600240 		.word	1073897656
 9599 0e68 58600240 		.word	1073897560
 9600              	.L2746:
 9601 0e6c 4FF48071 		mov	r1, #256
 9602 0e70 09E0     		b	.L2118
 9603              	.L2745:
 9604 0e72 4FF48071 		mov	r1, #256
 9605 0e76 06E0     		b	.L2118
 9606              	.L2744:
 9607 0e78 B549     		ldr	r1, .L3100
 9608 0e7a 04E0     		b	.L2118
 9609              	.L2743:
 9610 0e7c B449     		ldr	r1, .L3100
 9611 0e7e 02E0     		b	.L2118
 9612              	.L2742:
 9613 0e80 B349     		ldr	r1, .L3100
 9614 0e82 00E0     		b	.L2118
 9615              	.L2741:
ARM GAS  /tmp/ccAPlzty.s 			page 211


 9616 0e84 B249     		ldr	r1, .L3100
 9617              	.L2118:
 686:../Drivers/STM32F4xx_HAL_Driver/Src/stm32f4xx_hal_dma.c ****   {
 9618              		.loc 1 686 0 discriminator 201
 9619 0e86 0A42     		tst	r2, r1
 9620 0e88 14BF     		ite	ne
 9621 0e8a 0122     		movne	r2, #1
 9622 0e8c 0022     		moveq	r2, #0
 9623              	.L2089:
 686:../Drivers/STM32F4xx_HAL_Driver/Src/stm32f4xx_hal_dma.c ****   {
 9624              		.loc 1 686 0 discriminator 204
 9625 0e8e 002A     		cmp	r2, #0
 9626 0e90 00F07F81 		beq	.L2130
 688:../Drivers/STM32F4xx_HAL_Driver/Src/stm32f4xx_hal_dma.c ****     {
 9627              		.loc 1 688 0 is_stmt 1
 9628 0e94 1A68     		ldr	r2, [r3]
 9629 0e96 12F0020F 		tst	r2, #2
 9630 0e9a 00F07A81 		beq	.L2130
 691:../Drivers/STM32F4xx_HAL_Driver/Src/stm32f4xx_hal_dma.c **** 
 9631              		.loc 1 691 0
 9632 0e9e 1A68     		ldr	r2, [r3]
 9633 0ea0 22F00202 		bic	r2, r2, #2
 9634 0ea4 1A60     		str	r2, [r3]
 694:../Drivers/STM32F4xx_HAL_Driver/Src/stm32f4xx_hal_dma.c **** 
 9635              		.loc 1 694 0
 9636 0ea6 2368     		ldr	r3, [r4]
 9637 0ea8 AA4A     		ldr	r2, .L3100+4
 9638 0eaa 9342     		cmp	r3, r2
 9639 0eac 54D9     		bls	.L2131
 694:../Drivers/STM32F4xx_HAL_Driver/Src/stm32f4xx_hal_dma.c **** 
 9640              		.loc 1 694 0 is_stmt 0 discriminator 1
 9641 0eae A2F58962 		sub	r2, r2, #1096
 9642 0eb2 9342     		cmp	r3, r2
 9643 0eb4 4CD0     		beq	.L2753
 694:../Drivers/STM32F4xx_HAL_Driver/Src/stm32f4xx_hal_dma.c **** 
 9644              		.loc 1 694 0 discriminator 3
 9645 0eb6 02F58062 		add	r2, r2, #1024
 9646 0eba 9342     		cmp	r3, r2
 9647 0ebc 46D0     		beq	.L2754
 694:../Drivers/STM32F4xx_HAL_Driver/Src/stm32f4xx_hal_dma.c **** 
 9648              		.loc 1 694 0 discriminator 5
 9649 0ebe A2F56872 		sub	r2, r2, #928
 9650 0ec2 9342     		cmp	r3, r2
 9651 0ec4 40D0     		beq	.L2755
 694:../Drivers/STM32F4xx_HAL_Driver/Src/stm32f4xx_hal_dma.c **** 
 9652              		.loc 1 694 0 discriminator 7
 9653 0ec6 02F58062 		add	r2, r2, #1024
 9654 0eca 9342     		cmp	r3, r2
 9655 0ecc 3AD0     		beq	.L2756
 694:../Drivers/STM32F4xx_HAL_Driver/Src/stm32f4xx_hal_dma.c **** 
 9656              		.loc 1 694 0 discriminator 9
 9657 0ece A2F58962 		sub	r2, r2, #1096
 9658 0ed2 9342     		cmp	r3, r2
 9659 0ed4 33D0     		beq	.L2757
 694:../Drivers/STM32F4xx_HAL_Driver/Src/stm32f4xx_hal_dma.c **** 
 9660              		.loc 1 694 0 discriminator 11
 9661 0ed6 02F58062 		add	r2, r2, #1024
ARM GAS  /tmp/ccAPlzty.s 			page 212


 9662 0eda 9342     		cmp	r3, r2
 9663 0edc 2CD0     		beq	.L2758
 694:../Drivers/STM32F4xx_HAL_Driver/Src/stm32f4xx_hal_dma.c **** 
 9664              		.loc 1 694 0 discriminator 13
 9665 0ede A2F56872 		sub	r2, r2, #928
 9666 0ee2 9342     		cmp	r3, r2
 9667 0ee4 25D0     		beq	.L2759
 694:../Drivers/STM32F4xx_HAL_Driver/Src/stm32f4xx_hal_dma.c **** 
 9668              		.loc 1 694 0 discriminator 15
 9669 0ee6 02F58062 		add	r2, r2, #1024
 9670 0eea 9342     		cmp	r3, r2
 9671 0eec 1ED0     		beq	.L2760
 694:../Drivers/STM32F4xx_HAL_Driver/Src/stm32f4xx_hal_dma.c **** 
 9672              		.loc 1 694 0 discriminator 17
 9673 0eee A2F58962 		sub	r2, r2, #1096
 9674 0ef2 9342     		cmp	r3, r2
 9675 0ef4 17D0     		beq	.L2761
 694:../Drivers/STM32F4xx_HAL_Driver/Src/stm32f4xx_hal_dma.c **** 
 9676              		.loc 1 694 0 discriminator 19
 9677 0ef6 02F58062 		add	r2, r2, #1024
 9678 0efa 9342     		cmp	r3, r2
 9679 0efc 10D0     		beq	.L2762
 694:../Drivers/STM32F4xx_HAL_Driver/Src/stm32f4xx_hal_dma.c **** 
 9680              		.loc 1 694 0 discriminator 21
 9681 0efe A2F56872 		sub	r2, r2, #928
 9682 0f02 9342     		cmp	r3, r2
 9683 0f04 09D0     		beq	.L2763
 694:../Drivers/STM32F4xx_HAL_Driver/Src/stm32f4xx_hal_dma.c **** 
 9684              		.loc 1 694 0 discriminator 23
 9685 0f06 02F58062 		add	r2, r2, #1024
 9686 0f0a 9342     		cmp	r3, r2
 9687 0f0c 02D1     		bne	.L2764
 694:../Drivers/STM32F4xx_HAL_Driver/Src/stm32f4xx_hal_dma.c **** 
 9688              		.loc 1 694 0
 9689 0f0e 4FF48022 		mov	r2, #262144
 9690 0f12 1EE0     		b	.L2132
 9691              	.L2764:
 9692 0f14 4FF08072 		mov	r2, #16777216
 9693 0f18 1BE0     		b	.L2132
 9694              	.L2763:
 9695 0f1a 4FF48022 		mov	r2, #262144
 9696 0f1e 18E0     		b	.L2132
 9697              	.L2762:
 9698 0f20 4FF48022 		mov	r2, #262144
 9699 0f24 15E0     		b	.L2132
 9700              	.L2761:
 9701 0f26 4FF48022 		mov	r2, #262144
 9702 0f2a 12E0     		b	.L2132
 9703              	.L2760:
 9704 0f2c 4FF48072 		mov	r2, #256
 9705 0f30 0FE0     		b	.L2132
 9706              	.L2759:
 9707 0f32 4FF48072 		mov	r2, #256
 9708 0f36 0CE0     		b	.L2132
 9709              	.L2758:
 9710 0f38 4FF48072 		mov	r2, #256
 9711 0f3c 09E0     		b	.L2132
ARM GAS  /tmp/ccAPlzty.s 			page 213


 9712              	.L2757:
 9713 0f3e 4FF48072 		mov	r2, #256
 9714 0f42 06E0     		b	.L2132
 9715              	.L2756:
 9716 0f44 824A     		ldr	r2, .L3100
 9717 0f46 04E0     		b	.L2132
 9718              	.L2755:
 9719 0f48 814A     		ldr	r2, .L3100
 9720 0f4a 02E0     		b	.L2132
 9721              	.L2754:
 9722 0f4c 804A     		ldr	r2, .L3100
 9723 0f4e 00E0     		b	.L2132
 9724              	.L2753:
 9725 0f50 7F4A     		ldr	r2, .L3100
 9726              	.L2132:
 694:../Drivers/STM32F4xx_HAL_Driver/Src/stm32f4xx_hal_dma.c **** 
 9727              		.loc 1 694 0 discriminator 50
 9728 0f52 814B     		ldr	r3, .L3100+8
 9729 0f54 DA60     		str	r2, [r3, #12]
 9730 0f56 0EE1     		b	.L2144
 9731              	.L2131:
 694:../Drivers/STM32F4xx_HAL_Driver/Src/stm32f4xx_hal_dma.c **** 
 9732              		.loc 1 694 0 discriminator 2
 9733 0f58 804A     		ldr	r2, .L3100+12
 9734 0f5a 9342     		cmp	r3, r2
 9735 0f5c 53D9     		bls	.L2145
 694:../Drivers/STM32F4xx_HAL_Driver/Src/stm32f4xx_hal_dma.c **** 
 9736              		.loc 1 694 0 discriminator 51
 9737 0f5e A83A     		subs	r2, r2, #168
 9738 0f60 9342     		cmp	r3, r2
 9739 0f62 4CD0     		beq	.L2765
 694:../Drivers/STM32F4xx_HAL_Driver/Src/stm32f4xx_hal_dma.c **** 
 9740              		.loc 1 694 0 discriminator 53
 9741 0f64 02F58062 		add	r2, r2, #1024
 9742 0f68 9342     		cmp	r3, r2
 9743 0f6a 46D0     		beq	.L2766
 694:../Drivers/STM32F4xx_HAL_Driver/Src/stm32f4xx_hal_dma.c **** 
 9744              		.loc 1 694 0 discriminator 55
 9745 0f6c A2F56872 		sub	r2, r2, #928
 9746 0f70 9342     		cmp	r3, r2
 9747 0f72 40D0     		beq	.L2767
 694:../Drivers/STM32F4xx_HAL_Driver/Src/stm32f4xx_hal_dma.c **** 
 9748              		.loc 1 694 0 discriminator 57
 9749 0f74 02F58062 		add	r2, r2, #1024
 9750 0f78 9342     		cmp	r3, r2
 9751 0f7a 3AD0     		beq	.L2768
 694:../Drivers/STM32F4xx_HAL_Driver/Src/stm32f4xx_hal_dma.c **** 
 9752              		.loc 1 694 0 discriminator 59
 9753 0f7c A2F58962 		sub	r2, r2, #1096
 9754 0f80 9342     		cmp	r3, r2
 9755 0f82 33D0     		beq	.L2769
 694:../Drivers/STM32F4xx_HAL_Driver/Src/stm32f4xx_hal_dma.c **** 
 9756              		.loc 1 694 0 discriminator 61
 9757 0f84 02F58062 		add	r2, r2, #1024
 9758 0f88 9342     		cmp	r3, r2
 9759 0f8a 2CD0     		beq	.L2770
 694:../Drivers/STM32F4xx_HAL_Driver/Src/stm32f4xx_hal_dma.c **** 
ARM GAS  /tmp/ccAPlzty.s 			page 214


 9760              		.loc 1 694 0 discriminator 63
 9761 0f8c A2F56872 		sub	r2, r2, #928
 9762 0f90 9342     		cmp	r3, r2
 9763 0f92 25D0     		beq	.L2771
 694:../Drivers/STM32F4xx_HAL_Driver/Src/stm32f4xx_hal_dma.c **** 
 9764              		.loc 1 694 0 discriminator 65
 9765 0f94 02F58062 		add	r2, r2, #1024
 9766 0f98 9342     		cmp	r3, r2
 9767 0f9a 1ED0     		beq	.L2772
 694:../Drivers/STM32F4xx_HAL_Driver/Src/stm32f4xx_hal_dma.c **** 
 9768              		.loc 1 694 0 discriminator 67
 9769 0f9c A2F58962 		sub	r2, r2, #1096
 9770 0fa0 9342     		cmp	r3, r2
 9771 0fa2 17D0     		beq	.L2773
 694:../Drivers/STM32F4xx_HAL_Driver/Src/stm32f4xx_hal_dma.c **** 
 9772              		.loc 1 694 0 discriminator 69
 9773 0fa4 02F58062 		add	r2, r2, #1024
 9774 0fa8 9342     		cmp	r3, r2
 9775 0faa 10D0     		beq	.L2774
 694:../Drivers/STM32F4xx_HAL_Driver/Src/stm32f4xx_hal_dma.c **** 
 9776              		.loc 1 694 0 discriminator 71
 9777 0fac A2F56872 		sub	r2, r2, #928
 9778 0fb0 9342     		cmp	r3, r2
 9779 0fb2 09D0     		beq	.L2775
 694:../Drivers/STM32F4xx_HAL_Driver/Src/stm32f4xx_hal_dma.c **** 
 9780              		.loc 1 694 0 discriminator 73
 9781 0fb4 02F58062 		add	r2, r2, #1024
 9782 0fb8 9342     		cmp	r3, r2
 9783 0fba 02D1     		bne	.L2776
 694:../Drivers/STM32F4xx_HAL_Driver/Src/stm32f4xx_hal_dma.c **** 
 9784              		.loc 1 694 0
 9785 0fbc 4FF48022 		mov	r2, #262144
 9786 0fc0 1EE0     		b	.L2146
 9787              	.L2776:
 9788 0fc2 4FF08072 		mov	r2, #16777216
 9789 0fc6 1BE0     		b	.L2146
 9790              	.L2775:
 9791 0fc8 4FF48022 		mov	r2, #262144
 9792 0fcc 18E0     		b	.L2146
 9793              	.L2774:
 9794 0fce 4FF48022 		mov	r2, #262144
 9795 0fd2 15E0     		b	.L2146
 9796              	.L2773:
 9797 0fd4 4FF48022 		mov	r2, #262144
 9798 0fd8 12E0     		b	.L2146
 9799              	.L2772:
 9800 0fda 4FF48072 		mov	r2, #256
 9801 0fde 0FE0     		b	.L2146
 9802              	.L2771:
 9803 0fe0 4FF48072 		mov	r2, #256
 9804 0fe4 0CE0     		b	.L2146
 9805              	.L2770:
 9806 0fe6 4FF48072 		mov	r2, #256
 9807 0fea 09E0     		b	.L2146
 9808              	.L2769:
 9809 0fec 4FF48072 		mov	r2, #256
 9810 0ff0 06E0     		b	.L2146
ARM GAS  /tmp/ccAPlzty.s 			page 215


 9811              	.L2768:
 9812 0ff2 574A     		ldr	r2, .L3100
 9813 0ff4 04E0     		b	.L2146
 9814              	.L2767:
 9815 0ff6 564A     		ldr	r2, .L3100
 9816 0ff8 02E0     		b	.L2146
 9817              	.L2766:
 9818 0ffa 554A     		ldr	r2, .L3100
 9819 0ffc 00E0     		b	.L2146
 9820              	.L2765:
 9821 0ffe 544A     		ldr	r2, .L3100
 9822              	.L2146:
 694:../Drivers/STM32F4xx_HAL_Driver/Src/stm32f4xx_hal_dma.c **** 
 9823              		.loc 1 694 0 discriminator 100
 9824 1000 554B     		ldr	r3, .L3100+8
 9825 1002 9A60     		str	r2, [r3, #8]
 9826 1004 B7E0     		b	.L2144
 9827              	.L2145:
 694:../Drivers/STM32F4xx_HAL_Driver/Src/stm32f4xx_hal_dma.c **** 
 9828              		.loc 1 694 0 discriminator 52
 9829 1006 564A     		ldr	r2, .L3100+16
 9830 1008 9342     		cmp	r3, r2
 9831 100a 53D9     		bls	.L2158
 694:../Drivers/STM32F4xx_HAL_Driver/Src/stm32f4xx_hal_dma.c **** 
 9832              		.loc 1 694 0 discriminator 102
 9833 100c 483A     		subs	r2, r2, #72
 9834 100e 9342     		cmp	r3, r2
 9835 1010 4CD0     		beq	.L2777
 694:../Drivers/STM32F4xx_HAL_Driver/Src/stm32f4xx_hal_dma.c **** 
 9836              		.loc 1 694 0 discriminator 104
 9837 1012 02F58062 		add	r2, r2, #1024
 9838 1016 9342     		cmp	r3, r2
 9839 1018 46D0     		beq	.L2778
 694:../Drivers/STM32F4xx_HAL_Driver/Src/stm32f4xx_hal_dma.c **** 
 9840              		.loc 1 694 0 discriminator 106
 9841 101a A2F56872 		sub	r2, r2, #928
 9842 101e 9342     		cmp	r3, r2
 9843 1020 40D0     		beq	.L2779
 694:../Drivers/STM32F4xx_HAL_Driver/Src/stm32f4xx_hal_dma.c **** 
 9844              		.loc 1 694 0 discriminator 108
 9845 1022 02F58062 		add	r2, r2, #1024
 9846 1026 9342     		cmp	r3, r2
 9847 1028 3AD0     		beq	.L2780
 694:../Drivers/STM32F4xx_HAL_Driver/Src/stm32f4xx_hal_dma.c **** 
 9848              		.loc 1 694 0 discriminator 110
 9849 102a A2F58962 		sub	r2, r2, #1096
 9850 102e 9342     		cmp	r3, r2
 9851 1030 33D0     		beq	.L2781
 694:../Drivers/STM32F4xx_HAL_Driver/Src/stm32f4xx_hal_dma.c **** 
 9852              		.loc 1 694 0 discriminator 112
 9853 1032 02F58062 		add	r2, r2, #1024
 9854 1036 9342     		cmp	r3, r2
 9855 1038 2CD0     		beq	.L2782
 694:../Drivers/STM32F4xx_HAL_Driver/Src/stm32f4xx_hal_dma.c **** 
 9856              		.loc 1 694 0 discriminator 114
 9857 103a A2F56872 		sub	r2, r2, #928
 9858 103e 9342     		cmp	r3, r2
ARM GAS  /tmp/ccAPlzty.s 			page 216


 9859 1040 25D0     		beq	.L2783
 694:../Drivers/STM32F4xx_HAL_Driver/Src/stm32f4xx_hal_dma.c **** 
 9860              		.loc 1 694 0 discriminator 116
 9861 1042 02F58062 		add	r2, r2, #1024
 9862 1046 9342     		cmp	r3, r2
 9863 1048 1ED0     		beq	.L2784
 694:../Drivers/STM32F4xx_HAL_Driver/Src/stm32f4xx_hal_dma.c **** 
 9864              		.loc 1 694 0 discriminator 118
 9865 104a A2F58962 		sub	r2, r2, #1096
 9866 104e 9342     		cmp	r3, r2
 9867 1050 17D0     		beq	.L2785
 694:../Drivers/STM32F4xx_HAL_Driver/Src/stm32f4xx_hal_dma.c **** 
 9868              		.loc 1 694 0 discriminator 120
 9869 1052 02F58062 		add	r2, r2, #1024
 9870 1056 9342     		cmp	r3, r2
 9871 1058 10D0     		beq	.L2786
 694:../Drivers/STM32F4xx_HAL_Driver/Src/stm32f4xx_hal_dma.c **** 
 9872              		.loc 1 694 0 discriminator 122
 9873 105a A2F56872 		sub	r2, r2, #928
 9874 105e 9342     		cmp	r3, r2
 9875 1060 09D0     		beq	.L2787
 694:../Drivers/STM32F4xx_HAL_Driver/Src/stm32f4xx_hal_dma.c **** 
 9876              		.loc 1 694 0 discriminator 124
 9877 1062 02F58062 		add	r2, r2, #1024
 9878 1066 9342     		cmp	r3, r2
 9879 1068 02D1     		bne	.L2788
 694:../Drivers/STM32F4xx_HAL_Driver/Src/stm32f4xx_hal_dma.c **** 
 9880              		.loc 1 694 0
 9881 106a 4FF48022 		mov	r2, #262144
 9882 106e 1EE0     		b	.L2159
 9883              	.L2788:
 9884 1070 4FF08072 		mov	r2, #16777216
 9885 1074 1BE0     		b	.L2159
 9886              	.L2787:
 9887 1076 4FF48022 		mov	r2, #262144
 9888 107a 18E0     		b	.L2159
 9889              	.L2786:
 9890 107c 4FF48022 		mov	r2, #262144
 9891 1080 15E0     		b	.L2159
 9892              	.L2785:
 9893 1082 4FF48022 		mov	r2, #262144
 9894 1086 12E0     		b	.L2159
 9895              	.L2784:
 9896 1088 4FF48072 		mov	r2, #256
 9897 108c 0FE0     		b	.L2159
 9898              	.L2783:
 9899 108e 4FF48072 		mov	r2, #256
 9900 1092 0CE0     		b	.L2159
 9901              	.L2782:
 9902 1094 4FF48072 		mov	r2, #256
 9903 1098 09E0     		b	.L2159
 9904              	.L2781:
 9905 109a 4FF48072 		mov	r2, #256
 9906 109e 06E0     		b	.L2159
 9907              	.L2780:
 9908 10a0 2B4A     		ldr	r2, .L3100
 9909 10a2 04E0     		b	.L2159
ARM GAS  /tmp/ccAPlzty.s 			page 217


 9910              	.L2779:
 9911 10a4 2A4A     		ldr	r2, .L3100
 9912 10a6 02E0     		b	.L2159
 9913              	.L2778:
 9914 10a8 294A     		ldr	r2, .L3100
 9915 10aa 00E0     		b	.L2159
 9916              	.L2777:
 9917 10ac 284A     		ldr	r2, .L3100
 9918              	.L2159:
 694:../Drivers/STM32F4xx_HAL_Driver/Src/stm32f4xx_hal_dma.c **** 
 9919              		.loc 1 694 0 discriminator 151
 9920 10ae 2D4B     		ldr	r3, .L3100+20
 9921 10b0 DA60     		str	r2, [r3, #12]
 9922 10b2 60E0     		b	.L2144
 9923              	.L2158:
 694:../Drivers/STM32F4xx_HAL_Driver/Src/stm32f4xx_hal_dma.c **** 
 9924              		.loc 1 694 0 discriminator 103
 9925 10b4 2C4A     		ldr	r2, .L3100+24
 9926 10b6 9342     		cmp	r3, r2
 9927 10b8 5AD0     		beq	.L2789
 694:../Drivers/STM32F4xx_HAL_Driver/Src/stm32f4xx_hal_dma.c **** 
 9928              		.loc 1 694 0 discriminator 153
 9929 10ba 02F58062 		add	r2, r2, #1024
 9930 10be 9342     		cmp	r3, r2
 9931 10c0 54D0     		beq	.L2790
 694:../Drivers/STM32F4xx_HAL_Driver/Src/stm32f4xx_hal_dma.c **** 
 9932              		.loc 1 694 0 discriminator 155
 9933 10c2 A2F56872 		sub	r2, r2, #928
 9934 10c6 9342     		cmp	r3, r2
 9935 10c8 40D0     		beq	.L2791
 694:../Drivers/STM32F4xx_HAL_Driver/Src/stm32f4xx_hal_dma.c **** 
 9936              		.loc 1 694 0 discriminator 157
 9937 10ca 02F58062 		add	r2, r2, #1024
 9938 10ce 9342     		cmp	r3, r2
 9939 10d0 3AD0     		beq	.L2792
 694:../Drivers/STM32F4xx_HAL_Driver/Src/stm32f4xx_hal_dma.c **** 
 9940              		.loc 1 694 0 discriminator 159
 9941 10d2 A2F58962 		sub	r2, r2, #1096
 9942 10d6 9342     		cmp	r3, r2
 9943 10d8 33D0     		beq	.L2793
 694:../Drivers/STM32F4xx_HAL_Driver/Src/stm32f4xx_hal_dma.c **** 
 9944              		.loc 1 694 0 discriminator 161
 9945 10da 02F58062 		add	r2, r2, #1024
 9946 10de 9342     		cmp	r3, r2
 9947 10e0 2CD0     		beq	.L2794
 694:../Drivers/STM32F4xx_HAL_Driver/Src/stm32f4xx_hal_dma.c **** 
 9948              		.loc 1 694 0 discriminator 163
 9949 10e2 A2F56872 		sub	r2, r2, #928
 9950 10e6 9342     		cmp	r3, r2
 9951 10e8 25D0     		beq	.L2795
 694:../Drivers/STM32F4xx_HAL_Driver/Src/stm32f4xx_hal_dma.c **** 
 9952              		.loc 1 694 0 discriminator 165
 9953 10ea 02F58062 		add	r2, r2, #1024
 9954 10ee 9342     		cmp	r3, r2
 9955 10f0 1ED0     		beq	.L2796
 694:../Drivers/STM32F4xx_HAL_Driver/Src/stm32f4xx_hal_dma.c **** 
 9956              		.loc 1 694 0 discriminator 167
ARM GAS  /tmp/ccAPlzty.s 			page 218


 9957 10f2 A2F58962 		sub	r2, r2, #1096
 9958 10f6 9342     		cmp	r3, r2
 9959 10f8 17D0     		beq	.L2797
 694:../Drivers/STM32F4xx_HAL_Driver/Src/stm32f4xx_hal_dma.c **** 
 9960              		.loc 1 694 0 discriminator 169
 9961 10fa 02F58062 		add	r2, r2, #1024
 9962 10fe 9342     		cmp	r3, r2
 9963 1100 10D0     		beq	.L2798
 694:../Drivers/STM32F4xx_HAL_Driver/Src/stm32f4xx_hal_dma.c **** 
 9964              		.loc 1 694 0 discriminator 171
 9965 1102 A2F56872 		sub	r2, r2, #928
 9966 1106 9342     		cmp	r3, r2
 9967 1108 09D0     		beq	.L2799
 694:../Drivers/STM32F4xx_HAL_Driver/Src/stm32f4xx_hal_dma.c **** 
 9968              		.loc 1 694 0 discriminator 173
 9969 110a 02F58062 		add	r2, r2, #1024
 9970 110e 9342     		cmp	r3, r2
 9971 1110 02D1     		bne	.L2800
 694:../Drivers/STM32F4xx_HAL_Driver/Src/stm32f4xx_hal_dma.c **** 
 9972              		.loc 1 694 0
 9973 1112 4FF48022 		mov	r2, #262144
 9974 1116 2CE0     		b	.L2172
 9975              	.L2800:
 9976 1118 4FF08072 		mov	r2, #16777216
 9977 111c 29E0     		b	.L2172
 9978              	.L2799:
 9979 111e 4FF48022 		mov	r2, #262144
 9980 1122 26E0     		b	.L2172
 9981              	.L2798:
 9982 1124 4FF48022 		mov	r2, #262144
 9983 1128 23E0     		b	.L2172
 9984              	.L2797:
 9985 112a 4FF48022 		mov	r2, #262144
 9986 112e 20E0     		b	.L2172
 9987              	.L2796:
 9988 1130 4FF48072 		mov	r2, #256
 9989 1134 1DE0     		b	.L2172
 9990              	.L2795:
 9991 1136 4FF48072 		mov	r2, #256
 9992 113a 1AE0     		b	.L2172
 9993              	.L2794:
 9994 113c 4FF48072 		mov	r2, #256
 9995 1140 17E0     		b	.L2172
 9996              	.L2793:
 9997 1142 4FF48072 		mov	r2, #256
 9998 1146 14E0     		b	.L2172
 9999              	.L2792:
 10000 1148 014A     		ldr	r2, .L3100
 10001 114a 12E0     		b	.L2172
 10002              	.L2791:
 10003 114c 004A     		ldr	r2, .L3100
 10004 114e 10E0     		b	.L2172
 10005              	.L3101:
 10006              		.align	2
 10007              	.L3100:
 10008 1150 04008000 		.word	8388612
 10009 1154 58640240 		.word	1073898584
ARM GAS  /tmp/ccAPlzty.s 			page 219


 10010 1158 00640240 		.word	1073898496
 10011 115c B8600240 		.word	1073897656
 10012 1160 58600240 		.word	1073897560
 10013 1164 00600240 		.word	1073897472
 10014 1168 10600240 		.word	1073897488
 10015              	.L2790:
 10016 116c B84A     		ldr	r2, .L3102
 10017 116e 00E0     		b	.L2172
 10018              	.L2789:
 10019 1170 B74A     		ldr	r2, .L3102
 10020              	.L2172:
 694:../Drivers/STM32F4xx_HAL_Driver/Src/stm32f4xx_hal_dma.c **** 
 10021              		.loc 1 694 0 discriminator 200
 10022 1172 B84B     		ldr	r3, .L3102+4
 10023 1174 9A60     		str	r2, [r3, #8]
 10024              	.L2144:
 697:../Drivers/STM32F4xx_HAL_Driver/Src/stm32f4xx_hal_dma.c **** 
 10025              		.loc 1 697 0 is_stmt 1
 10026 1176 E36C     		ldr	r3, [r4, #76]
 10027 1178 43F00403 		orr	r3, r3, #4
 10028 117c E364     		str	r3, [r4, #76]
 700:../Drivers/STM32F4xx_HAL_Driver/Src/stm32f4xx_hal_dma.c **** 
 10029              		.loc 1 700 0
 10030 117e 0423     		movs	r3, #4
 10031 1180 84F83530 		strb	r3, [r4, #53]
 703:../Drivers/STM32F4xx_HAL_Driver/Src/stm32f4xx_hal_dma.c **** 
 10032              		.loc 1 703 0
 10033 1184 0023     		movs	r3, #0
 10034 1186 84F83430 		strb	r3, [r4, #52]
 705:../Drivers/STM32F4xx_HAL_Driver/Src/stm32f4xx_hal_dma.c ****       {
 10035              		.loc 1 705 0
 10036 118a A36C     		ldr	r3, [r4, #72]
 10037 118c 0BB1     		cbz	r3, .L2130
 708:../Drivers/STM32F4xx_HAL_Driver/Src/stm32f4xx_hal_dma.c ****       }
 10038              		.loc 1 708 0
 10039 118e 2046     		mov	r0, r4
 10040 1190 9847     		blx	r3
 10041              	.LVL70:
 10042              	.L2130:
 713:../Drivers/STM32F4xx_HAL_Driver/Src/stm32f4xx_hal_dma.c ****   {
 10043              		.loc 1 713 0
 10044 1192 2368     		ldr	r3, [r4]
 10045 1194 B04A     		ldr	r2, .L3102+8
 10046 1196 9342     		cmp	r3, r2
 10047 1198 57D9     		bls	.L2184
 713:../Drivers/STM32F4xx_HAL_Driver/Src/stm32f4xx_hal_dma.c ****   {
 10048              		.loc 1 713 0 is_stmt 0 discriminator 1
 10049 119a 583A     		subs	r2, r2, #88
 10050 119c 5268     		ldr	r2, [r2, #4]
 10051 119e AF49     		ldr	r1, .L3102+12
 10052 11a0 8B42     		cmp	r3, r1
 10053 11a2 4CD0     		beq	.L2801
 713:../Drivers/STM32F4xx_HAL_Driver/Src/stm32f4xx_hal_dma.c ****   {
 10054              		.loc 1 713 0 discriminator 3
 10055 11a4 01F58061 		add	r1, r1, #1024
 10056 11a8 8B42     		cmp	r3, r1
 10057 11aa 46D0     		beq	.L2802
ARM GAS  /tmp/ccAPlzty.s 			page 220


 713:../Drivers/STM32F4xx_HAL_Driver/Src/stm32f4xx_hal_dma.c ****   {
 10058              		.loc 1 713 0 discriminator 5
 10059 11ac A1F56871 		sub	r1, r1, #928
 10060 11b0 8B42     		cmp	r3, r1
 10061 11b2 40D0     		beq	.L2803
 713:../Drivers/STM32F4xx_HAL_Driver/Src/stm32f4xx_hal_dma.c ****   {
 10062              		.loc 1 713 0 discriminator 7
 10063 11b4 01F58061 		add	r1, r1, #1024
 10064 11b8 8B42     		cmp	r3, r1
 10065 11ba 3AD0     		beq	.L2804
 713:../Drivers/STM32F4xx_HAL_Driver/Src/stm32f4xx_hal_dma.c ****   {
 10066              		.loc 1 713 0 discriminator 9
 10067 11bc A1F58961 		sub	r1, r1, #1096
 10068 11c0 8B42     		cmp	r3, r1
 10069 11c2 33D0     		beq	.L2805
 713:../Drivers/STM32F4xx_HAL_Driver/Src/stm32f4xx_hal_dma.c ****   {
 10070              		.loc 1 713 0 discriminator 11
 10071 11c4 01F58061 		add	r1, r1, #1024
 10072 11c8 8B42     		cmp	r3, r1
 10073 11ca 2CD0     		beq	.L2806
 713:../Drivers/STM32F4xx_HAL_Driver/Src/stm32f4xx_hal_dma.c ****   {
 10074              		.loc 1 713 0 discriminator 13
 10075 11cc A1F56871 		sub	r1, r1, #928
 10076 11d0 8B42     		cmp	r3, r1
 10077 11d2 25D0     		beq	.L2807
 713:../Drivers/STM32F4xx_HAL_Driver/Src/stm32f4xx_hal_dma.c ****   {
 10078              		.loc 1 713 0 discriminator 15
 10079 11d4 01F58061 		add	r1, r1, #1024
 10080 11d8 8B42     		cmp	r3, r1
 10081 11da 1ED0     		beq	.L2808
 713:../Drivers/STM32F4xx_HAL_Driver/Src/stm32f4xx_hal_dma.c ****   {
 10082              		.loc 1 713 0 discriminator 17
 10083 11dc A1F58961 		sub	r1, r1, #1096
 10084 11e0 8B42     		cmp	r3, r1
 10085 11e2 17D0     		beq	.L2809
 713:../Drivers/STM32F4xx_HAL_Driver/Src/stm32f4xx_hal_dma.c ****   {
 10086              		.loc 1 713 0 discriminator 19
 10087 11e4 01F58061 		add	r1, r1, #1024
 10088 11e8 8B42     		cmp	r3, r1
 10089 11ea 10D0     		beq	.L2810
 713:../Drivers/STM32F4xx_HAL_Driver/Src/stm32f4xx_hal_dma.c ****   {
 10090              		.loc 1 713 0 discriminator 21
 10091 11ec A1F56871 		sub	r1, r1, #928
 10092 11f0 8B42     		cmp	r3, r1
 10093 11f2 09D0     		beq	.L2811
 713:../Drivers/STM32F4xx_HAL_Driver/Src/stm32f4xx_hal_dma.c ****   {
 10094              		.loc 1 713 0 discriminator 23
 10095 11f4 01F58061 		add	r1, r1, #1024
 10096 11f8 8B42     		cmp	r3, r1
 10097 11fa 02D1     		bne	.L2812
 713:../Drivers/STM32F4xx_HAL_Driver/Src/stm32f4xx_hal_dma.c ****   {
 10098              		.loc 1 713 0
 10099 11fc 4FF48011 		mov	r1, #1048576
 10100 1200 1EE0     		b	.L2185
 10101              	.L2812:
 10102 1202 4FF08061 		mov	r1, #67108864
 10103 1206 1BE0     		b	.L2185
ARM GAS  /tmp/ccAPlzty.s 			page 221


 10104              	.L2811:
 10105 1208 4FF48011 		mov	r1, #1048576
 10106 120c 18E0     		b	.L2185
 10107              	.L2810:
 10108 120e 4FF48011 		mov	r1, #1048576
 10109 1212 15E0     		b	.L2185
 10110              	.L2809:
 10111 1214 4FF48011 		mov	r1, #1048576
 10112 1218 12E0     		b	.L2185
 10113              	.L2808:
 10114 121a 4FF48061 		mov	r1, #1024
 10115 121e 0FE0     		b	.L2185
 10116              	.L2807:
 10117 1220 4FF48061 		mov	r1, #1024
 10118 1224 0CE0     		b	.L2185
 10119              	.L2806:
 10120 1226 4FF48061 		mov	r1, #1024
 10121 122a 09E0     		b	.L2185
 10122              	.L2805:
 10123 122c 4FF48061 		mov	r1, #1024
 10124 1230 06E0     		b	.L2185
 10125              	.L2804:
 10126 1232 1021     		movs	r1, #16
 10127 1234 04E0     		b	.L2185
 10128              	.L2803:
 10129 1236 1021     		movs	r1, #16
 10130 1238 02E0     		b	.L2185
 10131              	.L2802:
 10132 123a 1021     		movs	r1, #16
 10133 123c 00E0     		b	.L2185
 10134              	.L2801:
 10135 123e 1021     		movs	r1, #16
 10136              	.L2185:
 713:../Drivers/STM32F4xx_HAL_Driver/Src/stm32f4xx_hal_dma.c ****   {
 10137              		.loc 1 713 0 discriminator 50
 10138 1240 0A42     		tst	r2, r1
 10139 1242 14BF     		ite	ne
 10140 1244 0122     		movne	r2, #1
 10141 1246 0022     		moveq	r2, #0
 10142 1248 19E1     		b	.L2197
 10143              	.L2184:
 713:../Drivers/STM32F4xx_HAL_Driver/Src/stm32f4xx_hal_dma.c ****   {
 10144              		.loc 1 713 0 discriminator 2
 10145 124a 854A     		ldr	r2, .L3102+16
 10146 124c 9342     		cmp	r3, r2
 10147 124e 58D9     		bls	.L2198
 713:../Drivers/STM32F4xx_HAL_Driver/Src/stm32f4xx_hal_dma.c ****   {
 10148              		.loc 1 713 0 discriminator 52
 10149 1250 02F55272 		add	r2, r2, #840
 10150 1254 1268     		ldr	r2, [r2]
 10151 1256 8149     		ldr	r1, .L3102+12
 10152 1258 8B42     		cmp	r3, r1
 10153 125a 4CD0     		beq	.L2813
 713:../Drivers/STM32F4xx_HAL_Driver/Src/stm32f4xx_hal_dma.c ****   {
 10154              		.loc 1 713 0 discriminator 54
 10155 125c 01F58061 		add	r1, r1, #1024
 10156 1260 8B42     		cmp	r3, r1
ARM GAS  /tmp/ccAPlzty.s 			page 222


 10157 1262 46D0     		beq	.L2814
 713:../Drivers/STM32F4xx_HAL_Driver/Src/stm32f4xx_hal_dma.c ****   {
 10158              		.loc 1 713 0 discriminator 56
 10159 1264 A1F56871 		sub	r1, r1, #928
 10160 1268 8B42     		cmp	r3, r1
 10161 126a 40D0     		beq	.L2815
 713:../Drivers/STM32F4xx_HAL_Driver/Src/stm32f4xx_hal_dma.c ****   {
 10162              		.loc 1 713 0 discriminator 58
 10163 126c 01F58061 		add	r1, r1, #1024
 10164 1270 8B42     		cmp	r3, r1
 10165 1272 3AD0     		beq	.L2816
 713:../Drivers/STM32F4xx_HAL_Driver/Src/stm32f4xx_hal_dma.c ****   {
 10166              		.loc 1 713 0 discriminator 60
 10167 1274 A1F58961 		sub	r1, r1, #1096
 10168 1278 8B42     		cmp	r3, r1
 10169 127a 33D0     		beq	.L2817
 713:../Drivers/STM32F4xx_HAL_Driver/Src/stm32f4xx_hal_dma.c ****   {
 10170              		.loc 1 713 0 discriminator 62
 10171 127c 01F58061 		add	r1, r1, #1024
 10172 1280 8B42     		cmp	r3, r1
 10173 1282 2CD0     		beq	.L2818
 713:../Drivers/STM32F4xx_HAL_Driver/Src/stm32f4xx_hal_dma.c ****   {
 10174              		.loc 1 713 0 discriminator 64
 10175 1284 A1F56871 		sub	r1, r1, #928
 10176 1288 8B42     		cmp	r3, r1
 10177 128a 25D0     		beq	.L2819
 713:../Drivers/STM32F4xx_HAL_Driver/Src/stm32f4xx_hal_dma.c ****   {
 10178              		.loc 1 713 0 discriminator 66
 10179 128c 01F58061 		add	r1, r1, #1024
 10180 1290 8B42     		cmp	r3, r1
 10181 1292 1ED0     		beq	.L2820
 713:../Drivers/STM32F4xx_HAL_Driver/Src/stm32f4xx_hal_dma.c ****   {
 10182              		.loc 1 713 0 discriminator 68
 10183 1294 A1F58961 		sub	r1, r1, #1096
 10184 1298 8B42     		cmp	r3, r1
 10185 129a 17D0     		beq	.L2821
 713:../Drivers/STM32F4xx_HAL_Driver/Src/stm32f4xx_hal_dma.c ****   {
 10186              		.loc 1 713 0 discriminator 70
 10187 129c 01F58061 		add	r1, r1, #1024
 10188 12a0 8B42     		cmp	r3, r1
 10189 12a2 10D0     		beq	.L2822
 713:../Drivers/STM32F4xx_HAL_Driver/Src/stm32f4xx_hal_dma.c ****   {
 10190              		.loc 1 713 0 discriminator 72
 10191 12a4 A1F56871 		sub	r1, r1, #928
 10192 12a8 8B42     		cmp	r3, r1
 10193 12aa 09D0     		beq	.L2823
 713:../Drivers/STM32F4xx_HAL_Driver/Src/stm32f4xx_hal_dma.c ****   {
 10194              		.loc 1 713 0 discriminator 74
 10195 12ac 01F58061 		add	r1, r1, #1024
 10196 12b0 8B42     		cmp	r3, r1
 10197 12b2 02D1     		bne	.L2824
 713:../Drivers/STM32F4xx_HAL_Driver/Src/stm32f4xx_hal_dma.c ****   {
 10198              		.loc 1 713 0
 10199 12b4 4FF48011 		mov	r1, #1048576
 10200 12b8 1EE0     		b	.L2199
 10201              	.L2824:
 10202 12ba 4FF08061 		mov	r1, #67108864
ARM GAS  /tmp/ccAPlzty.s 			page 223


 10203 12be 1BE0     		b	.L2199
 10204              	.L2823:
 10205 12c0 4FF48011 		mov	r1, #1048576
 10206 12c4 18E0     		b	.L2199
 10207              	.L2822:
 10208 12c6 4FF48011 		mov	r1, #1048576
 10209 12ca 15E0     		b	.L2199
 10210              	.L2821:
 10211 12cc 4FF48011 		mov	r1, #1048576
 10212 12d0 12E0     		b	.L2199
 10213              	.L2820:
 10214 12d2 4FF48061 		mov	r1, #1024
 10215 12d6 0FE0     		b	.L2199
 10216              	.L2819:
 10217 12d8 4FF48061 		mov	r1, #1024
 10218 12dc 0CE0     		b	.L2199
 10219              	.L2818:
 10220 12de 4FF48061 		mov	r1, #1024
 10221 12e2 09E0     		b	.L2199
 10222              	.L2817:
 10223 12e4 4FF48061 		mov	r1, #1024
 10224 12e8 06E0     		b	.L2199
 10225              	.L2816:
 10226 12ea 1021     		movs	r1, #16
 10227 12ec 04E0     		b	.L2199
 10228              	.L2815:
 10229 12ee 1021     		movs	r1, #16
 10230 12f0 02E0     		b	.L2199
 10231              	.L2814:
 10232 12f2 1021     		movs	r1, #16
 10233 12f4 00E0     		b	.L2199
 10234              	.L2813:
 10235 12f6 1021     		movs	r1, #16
 10236              	.L2199:
 713:../Drivers/STM32F4xx_HAL_Driver/Src/stm32f4xx_hal_dma.c ****   {
 10237              		.loc 1 713 0 discriminator 101
 10238 12f8 0A42     		tst	r2, r1
 10239 12fa 14BF     		ite	ne
 10240 12fc 0122     		movne	r2, #1
 10241 12fe 0022     		moveq	r2, #0
 10242 1300 BDE0     		b	.L2197
 10243              	.L2198:
 713:../Drivers/STM32F4xx_HAL_Driver/Src/stm32f4xx_hal_dma.c ****   {
 10244              		.loc 1 713 0 discriminator 53
 10245 1302 584A     		ldr	r2, .L3102+20
 10246 1304 9342     		cmp	r3, r2
 10247 1306 57D9     		bls	.L2212
 713:../Drivers/STM32F4xx_HAL_Driver/Src/stm32f4xx_hal_dma.c ****   {
 10248              		.loc 1 713 0 discriminator 103
 10249 1308 583A     		subs	r2, r2, #88
 10250 130a 5268     		ldr	r2, [r2, #4]
 10251 130c 5349     		ldr	r1, .L3102+12
 10252 130e 8B42     		cmp	r3, r1
 10253 1310 4CD0     		beq	.L2825
 713:../Drivers/STM32F4xx_HAL_Driver/Src/stm32f4xx_hal_dma.c ****   {
 10254              		.loc 1 713 0 discriminator 105
 10255 1312 01F58061 		add	r1, r1, #1024
ARM GAS  /tmp/ccAPlzty.s 			page 224


 10256 1316 8B42     		cmp	r3, r1
 10257 1318 46D0     		beq	.L2826
 713:../Drivers/STM32F4xx_HAL_Driver/Src/stm32f4xx_hal_dma.c ****   {
 10258              		.loc 1 713 0 discriminator 107
 10259 131a A1F56871 		sub	r1, r1, #928
 10260 131e 8B42     		cmp	r3, r1
 10261 1320 40D0     		beq	.L2827
 713:../Drivers/STM32F4xx_HAL_Driver/Src/stm32f4xx_hal_dma.c ****   {
 10262              		.loc 1 713 0 discriminator 109
 10263 1322 01F58061 		add	r1, r1, #1024
 10264 1326 8B42     		cmp	r3, r1
 10265 1328 3AD0     		beq	.L2828
 713:../Drivers/STM32F4xx_HAL_Driver/Src/stm32f4xx_hal_dma.c ****   {
 10266              		.loc 1 713 0 discriminator 111
 10267 132a A1F58961 		sub	r1, r1, #1096
 10268 132e 8B42     		cmp	r3, r1
 10269 1330 33D0     		beq	.L2829
 713:../Drivers/STM32F4xx_HAL_Driver/Src/stm32f4xx_hal_dma.c ****   {
 10270              		.loc 1 713 0 discriminator 113
 10271 1332 01F58061 		add	r1, r1, #1024
 10272 1336 8B42     		cmp	r3, r1
 10273 1338 2CD0     		beq	.L2830
 713:../Drivers/STM32F4xx_HAL_Driver/Src/stm32f4xx_hal_dma.c ****   {
 10274              		.loc 1 713 0 discriminator 115
 10275 133a A1F56871 		sub	r1, r1, #928
 10276 133e 8B42     		cmp	r3, r1
 10277 1340 25D0     		beq	.L2831
 713:../Drivers/STM32F4xx_HAL_Driver/Src/stm32f4xx_hal_dma.c ****   {
 10278              		.loc 1 713 0 discriminator 117
 10279 1342 01F58061 		add	r1, r1, #1024
 10280 1346 8B42     		cmp	r3, r1
 10281 1348 1ED0     		beq	.L2832
 713:../Drivers/STM32F4xx_HAL_Driver/Src/stm32f4xx_hal_dma.c ****   {
 10282              		.loc 1 713 0 discriminator 119
 10283 134a A1F58961 		sub	r1, r1, #1096
 10284 134e 8B42     		cmp	r3, r1
 10285 1350 17D0     		beq	.L2833
 713:../Drivers/STM32F4xx_HAL_Driver/Src/stm32f4xx_hal_dma.c ****   {
 10286              		.loc 1 713 0 discriminator 121
 10287 1352 01F58061 		add	r1, r1, #1024
 10288 1356 8B42     		cmp	r3, r1
 10289 1358 10D0     		beq	.L2834
 713:../Drivers/STM32F4xx_HAL_Driver/Src/stm32f4xx_hal_dma.c ****   {
 10290              		.loc 1 713 0 discriminator 123
 10291 135a A1F56871 		sub	r1, r1, #928
 10292 135e 8B42     		cmp	r3, r1
 10293 1360 09D0     		beq	.L2835
 713:../Drivers/STM32F4xx_HAL_Driver/Src/stm32f4xx_hal_dma.c ****   {
 10294              		.loc 1 713 0 discriminator 125
 10295 1362 01F58061 		add	r1, r1, #1024
 10296 1366 8B42     		cmp	r3, r1
 10297 1368 02D1     		bne	.L2836
 713:../Drivers/STM32F4xx_HAL_Driver/Src/stm32f4xx_hal_dma.c ****   {
 10298              		.loc 1 713 0
 10299 136a 4FF48011 		mov	r1, #1048576
 10300 136e 1EE0     		b	.L2213
 10301              	.L2836:
ARM GAS  /tmp/ccAPlzty.s 			page 225


 10302 1370 4FF08061 		mov	r1, #67108864
 10303 1374 1BE0     		b	.L2213
 10304              	.L2835:
 10305 1376 4FF48011 		mov	r1, #1048576
 10306 137a 18E0     		b	.L2213
 10307              	.L2834:
 10308 137c 4FF48011 		mov	r1, #1048576
 10309 1380 15E0     		b	.L2213
 10310              	.L2833:
 10311 1382 4FF48011 		mov	r1, #1048576
 10312 1386 12E0     		b	.L2213
 10313              	.L2832:
 10314 1388 4FF48061 		mov	r1, #1024
 10315 138c 0FE0     		b	.L2213
 10316              	.L2831:
 10317 138e 4FF48061 		mov	r1, #1024
 10318 1392 0CE0     		b	.L2213
 10319              	.L2830:
 10320 1394 4FF48061 		mov	r1, #1024
 10321 1398 09E0     		b	.L2213
 10322              	.L2829:
 10323 139a 4FF48061 		mov	r1, #1024
 10324 139e 06E0     		b	.L2213
 10325              	.L2828:
 10326 13a0 1021     		movs	r1, #16
 10327 13a2 04E0     		b	.L2213
 10328              	.L2827:
 10329 13a4 1021     		movs	r1, #16
 10330 13a6 02E0     		b	.L2213
 10331              	.L2826:
 10332 13a8 1021     		movs	r1, #16
 10333 13aa 00E0     		b	.L2213
 10334              	.L2825:
 10335 13ac 1021     		movs	r1, #16
 10336              	.L2213:
 713:../Drivers/STM32F4xx_HAL_Driver/Src/stm32f4xx_hal_dma.c ****   {
 10337              		.loc 1 713 0 discriminator 152
 10338 13ae 0A42     		tst	r2, r1
 10339 13b0 14BF     		ite	ne
 10340 13b2 0122     		movne	r2, #1
 10341 13b4 0022     		moveq	r2, #0
 10342 13b6 62E0     		b	.L2197
 10343              	.L2212:
 713:../Drivers/STM32F4xx_HAL_Driver/Src/stm32f4xx_hal_dma.c ****   {
 10344              		.loc 1 713 0 discriminator 104
 10345 13b8 264A     		ldr	r2, .L3102+4
 10346 13ba 1268     		ldr	r2, [r2]
 10347 13bc 2749     		ldr	r1, .L3102+12
 10348 13be 8B42     		cmp	r3, r1
 10349 13c0 58D0     		beq	.L2837
 713:../Drivers/STM32F4xx_HAL_Driver/Src/stm32f4xx_hal_dma.c ****   {
 10350              		.loc 1 713 0 discriminator 154
 10351 13c2 01F58061 		add	r1, r1, #1024
 10352 13c6 8B42     		cmp	r3, r1
 10353 13c8 52D0     		beq	.L2838
 713:../Drivers/STM32F4xx_HAL_Driver/Src/stm32f4xx_hal_dma.c ****   {
 10354              		.loc 1 713 0 discriminator 156
ARM GAS  /tmp/ccAPlzty.s 			page 226


 10355 13ca A1F56871 		sub	r1, r1, #928
 10356 13ce 8B42     		cmp	r3, r1
 10357 13d0 4CD0     		beq	.L2839
 713:../Drivers/STM32F4xx_HAL_Driver/Src/stm32f4xx_hal_dma.c ****   {
 10358              		.loc 1 713 0 discriminator 158
 10359 13d2 01F58061 		add	r1, r1, #1024
 10360 13d6 8B42     		cmp	r3, r1
 10361 13d8 46D0     		beq	.L2840
 713:../Drivers/STM32F4xx_HAL_Driver/Src/stm32f4xx_hal_dma.c ****   {
 10362              		.loc 1 713 0 discriminator 160
 10363 13da A1F58961 		sub	r1, r1, #1096
 10364 13de 8B42     		cmp	r3, r1
 10365 13e0 33D0     		beq	.L2841
 713:../Drivers/STM32F4xx_HAL_Driver/Src/stm32f4xx_hal_dma.c ****   {
 10366              		.loc 1 713 0 discriminator 162
 10367 13e2 01F58061 		add	r1, r1, #1024
 10368 13e6 8B42     		cmp	r3, r1
 10369 13e8 2CD0     		beq	.L2842
 713:../Drivers/STM32F4xx_HAL_Driver/Src/stm32f4xx_hal_dma.c ****   {
 10370              		.loc 1 713 0 discriminator 164
 10371 13ea A1F56871 		sub	r1, r1, #928
 10372 13ee 8B42     		cmp	r3, r1
 10373 13f0 25D0     		beq	.L2843
 713:../Drivers/STM32F4xx_HAL_Driver/Src/stm32f4xx_hal_dma.c ****   {
 10374              		.loc 1 713 0 discriminator 166
 10375 13f2 01F58061 		add	r1, r1, #1024
 10376 13f6 8B42     		cmp	r3, r1
 10377 13f8 1ED0     		beq	.L2844
 713:../Drivers/STM32F4xx_HAL_Driver/Src/stm32f4xx_hal_dma.c ****   {
 10378              		.loc 1 713 0 discriminator 168
 10379 13fa A1F58961 		sub	r1, r1, #1096
 10380 13fe 8B42     		cmp	r3, r1
 10381 1400 17D0     		beq	.L2845
 713:../Drivers/STM32F4xx_HAL_Driver/Src/stm32f4xx_hal_dma.c ****   {
 10382              		.loc 1 713 0 discriminator 170
 10383 1402 01F58061 		add	r1, r1, #1024
 10384 1406 8B42     		cmp	r3, r1
 10385 1408 10D0     		beq	.L2846
 713:../Drivers/STM32F4xx_HAL_Driver/Src/stm32f4xx_hal_dma.c ****   {
 10386              		.loc 1 713 0 discriminator 172
 10387 140a A1F56871 		sub	r1, r1, #928
 10388 140e 8B42     		cmp	r3, r1
 10389 1410 09D0     		beq	.L2847
 713:../Drivers/STM32F4xx_HAL_Driver/Src/stm32f4xx_hal_dma.c ****   {
 10390              		.loc 1 713 0 discriminator 174
 10391 1412 01F58061 		add	r1, r1, #1024
 10392 1416 8B42     		cmp	r3, r1
 10393 1418 02D1     		bne	.L2848
 713:../Drivers/STM32F4xx_HAL_Driver/Src/stm32f4xx_hal_dma.c ****   {
 10394              		.loc 1 713 0
 10395 141a 4FF48011 		mov	r1, #1048576
 10396 141e 2AE0     		b	.L2226
 10397              	.L2848:
 10398 1420 4FF08061 		mov	r1, #67108864
 10399 1424 27E0     		b	.L2226
 10400              	.L2847:
 10401 1426 4FF48011 		mov	r1, #1048576
ARM GAS  /tmp/ccAPlzty.s 			page 227


 10402 142a 24E0     		b	.L2226
 10403              	.L2846:
 10404 142c 4FF48011 		mov	r1, #1048576
 10405 1430 21E0     		b	.L2226
 10406              	.L2845:
 10407 1432 4FF48011 		mov	r1, #1048576
 10408 1436 1EE0     		b	.L2226
 10409              	.L2844:
 10410 1438 4FF48061 		mov	r1, #1024
 10411 143c 1BE0     		b	.L2226
 10412              	.L2843:
 10413 143e 4FF48061 		mov	r1, #1024
 10414 1442 18E0     		b	.L2226
 10415              	.L2842:
 10416 1444 4FF48061 		mov	r1, #1024
 10417 1448 15E0     		b	.L2226
 10418              	.L2841:
 10419 144a 4FF48061 		mov	r1, #1024
 10420 144e 12E0     		b	.L2226
 10421              	.L3103:
 10422              		.align	2
 10423              	.L3102:
 10424 1450 04008000 		.word	8388612
 10425 1454 00600240 		.word	1073897472
 10426 1458 58640240 		.word	1073898584
 10427 145c 10600240 		.word	1073897488
 10428 1460 B8600240 		.word	1073897656
 10429 1464 58600240 		.word	1073897560
 10430              	.L2840:
 10431 1468 1021     		movs	r1, #16
 10432 146a 04E0     		b	.L2226
 10433              	.L2839:
 10434 146c 1021     		movs	r1, #16
 10435 146e 02E0     		b	.L2226
 10436              	.L2838:
 10437 1470 1021     		movs	r1, #16
 10438 1472 00E0     		b	.L2226
 10439              	.L2837:
 10440 1474 1021     		movs	r1, #16
 10441              	.L2226:
 713:../Drivers/STM32F4xx_HAL_Driver/Src/stm32f4xx_hal_dma.c ****   {
 10442              		.loc 1 713 0 discriminator 201
 10443 1476 0A42     		tst	r2, r1
 10444 1478 14BF     		ite	ne
 10445 147a 0122     		movne	r2, #1
 10446 147c 0022     		moveq	r2, #0
 10447              	.L2197:
 713:../Drivers/STM32F4xx_HAL_Driver/Src/stm32f4xx_hal_dma.c ****   {
 10448              		.loc 1 713 0 discriminator 204
 10449 147e 002A     		cmp	r2, #0
 10450 1480 00F0F882 		beq	.L2238
 715:../Drivers/STM32F4xx_HAL_Driver/Src/stm32f4xx_hal_dma.c ****     { 
 10451              		.loc 1 715 0 is_stmt 1
 10452 1484 1A68     		ldr	r2, [r3]
 10453 1486 12F0080F 		tst	r2, #8
 10454 148a 00F0F382 		beq	.L2238
 718:../Drivers/STM32F4xx_HAL_Driver/Src/stm32f4xx_hal_dma.c ****       {
ARM GAS  /tmp/ccAPlzty.s 			page 228


 10455              		.loc 1 718 0
 10456 148e 1A68     		ldr	r2, [r3]
 10457 1490 12F4802F 		tst	r2, #262144
 10458 1494 00F07881 		beq	.L2239
 721:../Drivers/STM32F4xx_HAL_Driver/Src/stm32f4xx_hal_dma.c **** 
 10459              		.loc 1 721 0
 10460 1498 B54A     		ldr	r2, .L3104
 10461 149a 9342     		cmp	r3, r2
 10462 149c 54D9     		bls	.L2240
 721:../Drivers/STM32F4xx_HAL_Driver/Src/stm32f4xx_hal_dma.c **** 
 10463              		.loc 1 721 0 is_stmt 0 discriminator 1
 10464 149e A2F58962 		sub	r2, r2, #1096
 10465 14a2 9342     		cmp	r3, r2
 10466 14a4 4CD0     		beq	.L2849
 721:../Drivers/STM32F4xx_HAL_Driver/Src/stm32f4xx_hal_dma.c **** 
 10467              		.loc 1 721 0 discriminator 3
 10468 14a6 02F58062 		add	r2, r2, #1024
 10469 14aa 9342     		cmp	r3, r2
 10470 14ac 46D0     		beq	.L2850
 721:../Drivers/STM32F4xx_HAL_Driver/Src/stm32f4xx_hal_dma.c **** 
 10471              		.loc 1 721 0 discriminator 5
 10472 14ae A2F56872 		sub	r2, r2, #928
 10473 14b2 9342     		cmp	r3, r2
 10474 14b4 40D0     		beq	.L2851
 721:../Drivers/STM32F4xx_HAL_Driver/Src/stm32f4xx_hal_dma.c **** 
 10475              		.loc 1 721 0 discriminator 7
 10476 14b6 02F58062 		add	r2, r2, #1024
 10477 14ba 9342     		cmp	r3, r2
 10478 14bc 3AD0     		beq	.L2852
 721:../Drivers/STM32F4xx_HAL_Driver/Src/stm32f4xx_hal_dma.c **** 
 10479              		.loc 1 721 0 discriminator 9
 10480 14be A2F58962 		sub	r2, r2, #1096
 10481 14c2 9342     		cmp	r3, r2
 10482 14c4 33D0     		beq	.L2853
 721:../Drivers/STM32F4xx_HAL_Driver/Src/stm32f4xx_hal_dma.c **** 
 10483              		.loc 1 721 0 discriminator 11
 10484 14c6 02F58062 		add	r2, r2, #1024
 10485 14ca 9342     		cmp	r3, r2
 10486 14cc 2CD0     		beq	.L2854
 721:../Drivers/STM32F4xx_HAL_Driver/Src/stm32f4xx_hal_dma.c **** 
 10487              		.loc 1 721 0 discriminator 13
 10488 14ce A2F56872 		sub	r2, r2, #928
 10489 14d2 9342     		cmp	r3, r2
 10490 14d4 25D0     		beq	.L2855
 721:../Drivers/STM32F4xx_HAL_Driver/Src/stm32f4xx_hal_dma.c **** 
 10491              		.loc 1 721 0 discriminator 15
 10492 14d6 02F58062 		add	r2, r2, #1024
 10493 14da 9342     		cmp	r3, r2
 10494 14dc 1ED0     		beq	.L2856
 721:../Drivers/STM32F4xx_HAL_Driver/Src/stm32f4xx_hal_dma.c **** 
 10495              		.loc 1 721 0 discriminator 17
 10496 14de A2F58962 		sub	r2, r2, #1096
 10497 14e2 9342     		cmp	r3, r2
 10498 14e4 17D0     		beq	.L2857
 721:../Drivers/STM32F4xx_HAL_Driver/Src/stm32f4xx_hal_dma.c **** 
 10499              		.loc 1 721 0 discriminator 19
 10500 14e6 02F58062 		add	r2, r2, #1024
ARM GAS  /tmp/ccAPlzty.s 			page 229


 10501 14ea 9342     		cmp	r3, r2
 10502 14ec 10D0     		beq	.L2858
 721:../Drivers/STM32F4xx_HAL_Driver/Src/stm32f4xx_hal_dma.c **** 
 10503              		.loc 1 721 0 discriminator 21
 10504 14ee A2F56872 		sub	r2, r2, #928
 10505 14f2 9342     		cmp	r3, r2
 10506 14f4 09D0     		beq	.L2859
 721:../Drivers/STM32F4xx_HAL_Driver/Src/stm32f4xx_hal_dma.c **** 
 10507              		.loc 1 721 0 discriminator 23
 10508 14f6 02F58062 		add	r2, r2, #1024
 10509 14fa 9342     		cmp	r3, r2
 10510 14fc 02D1     		bne	.L2860
 721:../Drivers/STM32F4xx_HAL_Driver/Src/stm32f4xx_hal_dma.c **** 
 10511              		.loc 1 721 0
 10512 14fe 4FF48012 		mov	r2, #1048576
 10513 1502 1EE0     		b	.L2241
 10514              	.L2860:
 10515 1504 4FF08062 		mov	r2, #67108864
 10516 1508 1BE0     		b	.L2241
 10517              	.L2859:
 10518 150a 4FF48012 		mov	r2, #1048576
 10519 150e 18E0     		b	.L2241
 10520              	.L2858:
 10521 1510 4FF48012 		mov	r2, #1048576
 10522 1514 15E0     		b	.L2241
 10523              	.L2857:
 10524 1516 4FF48012 		mov	r2, #1048576
 10525 151a 12E0     		b	.L2241
 10526              	.L2856:
 10527 151c 4FF48062 		mov	r2, #1024
 10528 1520 0FE0     		b	.L2241
 10529              	.L2855:
 10530 1522 4FF48062 		mov	r2, #1024
 10531 1526 0CE0     		b	.L2241
 10532              	.L2854:
 10533 1528 4FF48062 		mov	r2, #1024
 10534 152c 09E0     		b	.L2241
 10535              	.L2853:
 10536 152e 4FF48062 		mov	r2, #1024
 10537 1532 06E0     		b	.L2241
 10538              	.L2852:
 10539 1534 1022     		movs	r2, #16
 10540 1536 04E0     		b	.L2241
 10541              	.L2851:
 10542 1538 1022     		movs	r2, #16
 10543 153a 02E0     		b	.L2241
 10544              	.L2850:
 10545 153c 1022     		movs	r2, #16
 10546 153e 00E0     		b	.L2241
 10547              	.L2849:
 10548 1540 1022     		movs	r2, #16
 10549              	.L2241:
 721:../Drivers/STM32F4xx_HAL_Driver/Src/stm32f4xx_hal_dma.c **** 
 10550              		.loc 1 721 0 discriminator 50
 10551 1542 8C4B     		ldr	r3, .L3104+4
 10552 1544 DA60     		str	r2, [r3, #12]
 10553 1546 00E1     		b	.L2253
ARM GAS  /tmp/ccAPlzty.s 			page 230


 10554              	.L2240:
 721:../Drivers/STM32F4xx_HAL_Driver/Src/stm32f4xx_hal_dma.c **** 
 10555              		.loc 1 721 0 discriminator 2
 10556 1548 8B4A     		ldr	r2, .L3104+8
 10557 154a 9342     		cmp	r3, r2
 10558 154c 53D9     		bls	.L2254
 721:../Drivers/STM32F4xx_HAL_Driver/Src/stm32f4xx_hal_dma.c **** 
 10559              		.loc 1 721 0 discriminator 51
 10560 154e A83A     		subs	r2, r2, #168
 10561 1550 9342     		cmp	r3, r2
 10562 1552 4CD0     		beq	.L2861
 721:../Drivers/STM32F4xx_HAL_Driver/Src/stm32f4xx_hal_dma.c **** 
 10563              		.loc 1 721 0 discriminator 53
 10564 1554 02F58062 		add	r2, r2, #1024
 10565 1558 9342     		cmp	r3, r2
 10566 155a 46D0     		beq	.L2862
 721:../Drivers/STM32F4xx_HAL_Driver/Src/stm32f4xx_hal_dma.c **** 
 10567              		.loc 1 721 0 discriminator 55
 10568 155c A2F56872 		sub	r2, r2, #928
 10569 1560 9342     		cmp	r3, r2
 10570 1562 40D0     		beq	.L2863
 721:../Drivers/STM32F4xx_HAL_Driver/Src/stm32f4xx_hal_dma.c **** 
 10571              		.loc 1 721 0 discriminator 57
 10572 1564 02F58062 		add	r2, r2, #1024
 10573 1568 9342     		cmp	r3, r2
 10574 156a 3AD0     		beq	.L2864
 721:../Drivers/STM32F4xx_HAL_Driver/Src/stm32f4xx_hal_dma.c **** 
 10575              		.loc 1 721 0 discriminator 59
 10576 156c A2F58962 		sub	r2, r2, #1096
 10577 1570 9342     		cmp	r3, r2
 10578 1572 33D0     		beq	.L2865
 721:../Drivers/STM32F4xx_HAL_Driver/Src/stm32f4xx_hal_dma.c **** 
 10579              		.loc 1 721 0 discriminator 61
 10580 1574 02F58062 		add	r2, r2, #1024
 10581 1578 9342     		cmp	r3, r2
 10582 157a 2CD0     		beq	.L2866
 721:../Drivers/STM32F4xx_HAL_Driver/Src/stm32f4xx_hal_dma.c **** 
 10583              		.loc 1 721 0 discriminator 63
 10584 157c A2F56872 		sub	r2, r2, #928
 10585 1580 9342     		cmp	r3, r2
 10586 1582 25D0     		beq	.L2867
 721:../Drivers/STM32F4xx_HAL_Driver/Src/stm32f4xx_hal_dma.c **** 
 10587              		.loc 1 721 0 discriminator 65
 10588 1584 02F58062 		add	r2, r2, #1024
 10589 1588 9342     		cmp	r3, r2
 10590 158a 1ED0     		beq	.L2868
 721:../Drivers/STM32F4xx_HAL_Driver/Src/stm32f4xx_hal_dma.c **** 
 10591              		.loc 1 721 0 discriminator 67
 10592 158c A2F58962 		sub	r2, r2, #1096
 10593 1590 9342     		cmp	r3, r2
 10594 1592 17D0     		beq	.L2869
 721:../Drivers/STM32F4xx_HAL_Driver/Src/stm32f4xx_hal_dma.c **** 
 10595              		.loc 1 721 0 discriminator 69
 10596 1594 02F58062 		add	r2, r2, #1024
 10597 1598 9342     		cmp	r3, r2
 10598 159a 10D0     		beq	.L2870
 721:../Drivers/STM32F4xx_HAL_Driver/Src/stm32f4xx_hal_dma.c **** 
ARM GAS  /tmp/ccAPlzty.s 			page 231


 10599              		.loc 1 721 0 discriminator 71
 10600 159c A2F56872 		sub	r2, r2, #928
 10601 15a0 9342     		cmp	r3, r2
 10602 15a2 09D0     		beq	.L2871
 721:../Drivers/STM32F4xx_HAL_Driver/Src/stm32f4xx_hal_dma.c **** 
 10603              		.loc 1 721 0 discriminator 73
 10604 15a4 02F58062 		add	r2, r2, #1024
 10605 15a8 9342     		cmp	r3, r2
 10606 15aa 02D1     		bne	.L2872
 721:../Drivers/STM32F4xx_HAL_Driver/Src/stm32f4xx_hal_dma.c **** 
 10607              		.loc 1 721 0
 10608 15ac 4FF48012 		mov	r2, #1048576
 10609 15b0 1EE0     		b	.L2255
 10610              	.L2872:
 10611 15b2 4FF08062 		mov	r2, #67108864
 10612 15b6 1BE0     		b	.L2255
 10613              	.L2871:
 10614 15b8 4FF48012 		mov	r2, #1048576
 10615 15bc 18E0     		b	.L2255
 10616              	.L2870:
 10617 15be 4FF48012 		mov	r2, #1048576
 10618 15c2 15E0     		b	.L2255
 10619              	.L2869:
 10620 15c4 4FF48012 		mov	r2, #1048576
 10621 15c8 12E0     		b	.L2255
 10622              	.L2868:
 10623 15ca 4FF48062 		mov	r2, #1024
 10624 15ce 0FE0     		b	.L2255
 10625              	.L2867:
 10626 15d0 4FF48062 		mov	r2, #1024
 10627 15d4 0CE0     		b	.L2255
 10628              	.L2866:
 10629 15d6 4FF48062 		mov	r2, #1024
 10630 15da 09E0     		b	.L2255
 10631              	.L2865:
 10632 15dc 4FF48062 		mov	r2, #1024
 10633 15e0 06E0     		b	.L2255
 10634              	.L2864:
 10635 15e2 1022     		movs	r2, #16
 10636 15e4 04E0     		b	.L2255
 10637              	.L2863:
 10638 15e6 1022     		movs	r2, #16
 10639 15e8 02E0     		b	.L2255
 10640              	.L2862:
 10641 15ea 1022     		movs	r2, #16
 10642 15ec 00E0     		b	.L2255
 10643              	.L2861:
 10644 15ee 1022     		movs	r2, #16
 10645              	.L2255:
 721:../Drivers/STM32F4xx_HAL_Driver/Src/stm32f4xx_hal_dma.c **** 
 10646              		.loc 1 721 0 discriminator 100
 10647 15f0 604B     		ldr	r3, .L3104+4
 10648 15f2 9A60     		str	r2, [r3, #8]
 10649 15f4 A9E0     		b	.L2253
 10650              	.L2254:
 721:../Drivers/STM32F4xx_HAL_Driver/Src/stm32f4xx_hal_dma.c **** 
 10651              		.loc 1 721 0 discriminator 52
ARM GAS  /tmp/ccAPlzty.s 			page 232


 10652 15f6 614A     		ldr	r2, .L3104+12
 10653 15f8 9342     		cmp	r3, r2
 10654 15fa 53D9     		bls	.L2267
 721:../Drivers/STM32F4xx_HAL_Driver/Src/stm32f4xx_hal_dma.c **** 
 10655              		.loc 1 721 0 discriminator 102
 10656 15fc 483A     		subs	r2, r2, #72
 10657 15fe 9342     		cmp	r3, r2
 10658 1600 4CD0     		beq	.L2873
 721:../Drivers/STM32F4xx_HAL_Driver/Src/stm32f4xx_hal_dma.c **** 
 10659              		.loc 1 721 0 discriminator 104
 10660 1602 02F58062 		add	r2, r2, #1024
 10661 1606 9342     		cmp	r3, r2
 10662 1608 46D0     		beq	.L2874
 721:../Drivers/STM32F4xx_HAL_Driver/Src/stm32f4xx_hal_dma.c **** 
 10663              		.loc 1 721 0 discriminator 106
 10664 160a A2F56872 		sub	r2, r2, #928
 10665 160e 9342     		cmp	r3, r2
 10666 1610 40D0     		beq	.L2875
 721:../Drivers/STM32F4xx_HAL_Driver/Src/stm32f4xx_hal_dma.c **** 
 10667              		.loc 1 721 0 discriminator 108
 10668 1612 02F58062 		add	r2, r2, #1024
 10669 1616 9342     		cmp	r3, r2
 10670 1618 3AD0     		beq	.L2876
 721:../Drivers/STM32F4xx_HAL_Driver/Src/stm32f4xx_hal_dma.c **** 
 10671              		.loc 1 721 0 discriminator 110
 10672 161a A2F58962 		sub	r2, r2, #1096
 10673 161e 9342     		cmp	r3, r2
 10674 1620 33D0     		beq	.L2877
 721:../Drivers/STM32F4xx_HAL_Driver/Src/stm32f4xx_hal_dma.c **** 
 10675              		.loc 1 721 0 discriminator 112
 10676 1622 02F58062 		add	r2, r2, #1024
 10677 1626 9342     		cmp	r3, r2
 10678 1628 2CD0     		beq	.L2878
 721:../Drivers/STM32F4xx_HAL_Driver/Src/stm32f4xx_hal_dma.c **** 
 10679              		.loc 1 721 0 discriminator 114
 10680 162a A2F56872 		sub	r2, r2, #928
 10681 162e 9342     		cmp	r3, r2
 10682 1630 25D0     		beq	.L2879
 721:../Drivers/STM32F4xx_HAL_Driver/Src/stm32f4xx_hal_dma.c **** 
 10683              		.loc 1 721 0 discriminator 116
 10684 1632 02F58062 		add	r2, r2, #1024
 10685 1636 9342     		cmp	r3, r2
 10686 1638 1ED0     		beq	.L2880
 721:../Drivers/STM32F4xx_HAL_Driver/Src/stm32f4xx_hal_dma.c **** 
 10687              		.loc 1 721 0 discriminator 118
 10688 163a A2F58962 		sub	r2, r2, #1096
 10689 163e 9342     		cmp	r3, r2
 10690 1640 17D0     		beq	.L2881
 721:../Drivers/STM32F4xx_HAL_Driver/Src/stm32f4xx_hal_dma.c **** 
 10691              		.loc 1 721 0 discriminator 120
 10692 1642 02F58062 		add	r2, r2, #1024
 10693 1646 9342     		cmp	r3, r2
 10694 1648 10D0     		beq	.L2882
 721:../Drivers/STM32F4xx_HAL_Driver/Src/stm32f4xx_hal_dma.c **** 
 10695              		.loc 1 721 0 discriminator 122
 10696 164a A2F56872 		sub	r2, r2, #928
 10697 164e 9342     		cmp	r3, r2
ARM GAS  /tmp/ccAPlzty.s 			page 233


 10698 1650 09D0     		beq	.L2883
 721:../Drivers/STM32F4xx_HAL_Driver/Src/stm32f4xx_hal_dma.c **** 
 10699              		.loc 1 721 0 discriminator 124
 10700 1652 02F58062 		add	r2, r2, #1024
 10701 1656 9342     		cmp	r3, r2
 10702 1658 02D1     		bne	.L2884
 721:../Drivers/STM32F4xx_HAL_Driver/Src/stm32f4xx_hal_dma.c **** 
 10703              		.loc 1 721 0
 10704 165a 4FF48013 		mov	r3, #1048576
 10705 165e 1EE0     		b	.L2268
 10706              	.L2884:
 10707 1660 4FF08063 		mov	r3, #67108864
 10708 1664 1BE0     		b	.L2268
 10709              	.L2883:
 10710 1666 4FF48013 		mov	r3, #1048576
 10711 166a 18E0     		b	.L2268
 10712              	.L2882:
 10713 166c 4FF48013 		mov	r3, #1048576
 10714 1670 15E0     		b	.L2268
 10715              	.L2881:
 10716 1672 4FF48013 		mov	r3, #1048576
 10717 1676 12E0     		b	.L2268
 10718              	.L2880:
 10719 1678 4FF48063 		mov	r3, #1024
 10720 167c 0FE0     		b	.L2268
 10721              	.L2879:
 10722 167e 4FF48063 		mov	r3, #1024
 10723 1682 0CE0     		b	.L2268
 10724              	.L2878:
 10725 1684 4FF48063 		mov	r3, #1024
 10726 1688 09E0     		b	.L2268
 10727              	.L2877:
 10728 168a 4FF48063 		mov	r3, #1024
 10729 168e 06E0     		b	.L2268
 10730              	.L2876:
 10731 1690 1023     		movs	r3, #16
 10732 1692 04E0     		b	.L2268
 10733              	.L2875:
 10734 1694 1023     		movs	r3, #16
 10735 1696 02E0     		b	.L2268
 10736              	.L2874:
 10737 1698 1023     		movs	r3, #16
 10738 169a 00E0     		b	.L2268
 10739              	.L2873:
 10740 169c 1023     		movs	r3, #16
 10741              	.L2268:
 721:../Drivers/STM32F4xx_HAL_Driver/Src/stm32f4xx_hal_dma.c **** 
 10742              		.loc 1 721 0 discriminator 151
 10743 169e 384A     		ldr	r2, .L3104+16
 10744 16a0 D360     		str	r3, [r2, #12]
 10745 16a2 52E0     		b	.L2253
 10746              	.L2267:
 721:../Drivers/STM32F4xx_HAL_Driver/Src/stm32f4xx_hal_dma.c **** 
 10747              		.loc 1 721 0 discriminator 103
 10748 16a4 374A     		ldr	r2, .L3104+20
 10749 16a6 9342     		cmp	r3, r2
 10750 16a8 4CD0     		beq	.L2885
ARM GAS  /tmp/ccAPlzty.s 			page 234


 721:../Drivers/STM32F4xx_HAL_Driver/Src/stm32f4xx_hal_dma.c **** 
 10751              		.loc 1 721 0 discriminator 153
 10752 16aa 02F58062 		add	r2, r2, #1024
 10753 16ae 9342     		cmp	r3, r2
 10754 16b0 46D0     		beq	.L2886
 721:../Drivers/STM32F4xx_HAL_Driver/Src/stm32f4xx_hal_dma.c **** 
 10755              		.loc 1 721 0 discriminator 155
 10756 16b2 A2F56872 		sub	r2, r2, #928
 10757 16b6 9342     		cmp	r3, r2
 10758 16b8 40D0     		beq	.L2887
 721:../Drivers/STM32F4xx_HAL_Driver/Src/stm32f4xx_hal_dma.c **** 
 10759              		.loc 1 721 0 discriminator 157
 10760 16ba 02F58062 		add	r2, r2, #1024
 10761 16be 9342     		cmp	r3, r2
 10762 16c0 3AD0     		beq	.L2888
 721:../Drivers/STM32F4xx_HAL_Driver/Src/stm32f4xx_hal_dma.c **** 
 10763              		.loc 1 721 0 discriminator 159
 10764 16c2 A2F58962 		sub	r2, r2, #1096
 10765 16c6 9342     		cmp	r3, r2
 10766 16c8 33D0     		beq	.L2889
 721:../Drivers/STM32F4xx_HAL_Driver/Src/stm32f4xx_hal_dma.c **** 
 10767              		.loc 1 721 0 discriminator 161
 10768 16ca 02F58062 		add	r2, r2, #1024
 10769 16ce 9342     		cmp	r3, r2
 10770 16d0 2CD0     		beq	.L2890
 721:../Drivers/STM32F4xx_HAL_Driver/Src/stm32f4xx_hal_dma.c **** 
 10771              		.loc 1 721 0 discriminator 163
 10772 16d2 A2F56872 		sub	r2, r2, #928
 10773 16d6 9342     		cmp	r3, r2
 10774 16d8 25D0     		beq	.L2891
 721:../Drivers/STM32F4xx_HAL_Driver/Src/stm32f4xx_hal_dma.c **** 
 10775              		.loc 1 721 0 discriminator 165
 10776 16da 02F58062 		add	r2, r2, #1024
 10777 16de 9342     		cmp	r3, r2
 10778 16e0 1ED0     		beq	.L2892
 721:../Drivers/STM32F4xx_HAL_Driver/Src/stm32f4xx_hal_dma.c **** 
 10779              		.loc 1 721 0 discriminator 167
 10780 16e2 A2F58962 		sub	r2, r2, #1096
 10781 16e6 9342     		cmp	r3, r2
 10782 16e8 17D0     		beq	.L2893
 721:../Drivers/STM32F4xx_HAL_Driver/Src/stm32f4xx_hal_dma.c **** 
 10783              		.loc 1 721 0 discriminator 169
 10784 16ea 02F58062 		add	r2, r2, #1024
 10785 16ee 9342     		cmp	r3, r2
 10786 16f0 10D0     		beq	.L2894
 721:../Drivers/STM32F4xx_HAL_Driver/Src/stm32f4xx_hal_dma.c **** 
 10787              		.loc 1 721 0 discriminator 171
 10788 16f2 A2F56872 		sub	r2, r2, #928
 10789 16f6 9342     		cmp	r3, r2
 10790 16f8 09D0     		beq	.L2895
 721:../Drivers/STM32F4xx_HAL_Driver/Src/stm32f4xx_hal_dma.c **** 
 10791              		.loc 1 721 0 discriminator 173
 10792 16fa 02F58062 		add	r2, r2, #1024
 10793 16fe 9342     		cmp	r3, r2
 10794 1700 02D1     		bne	.L2896
 721:../Drivers/STM32F4xx_HAL_Driver/Src/stm32f4xx_hal_dma.c **** 
 10795              		.loc 1 721 0
ARM GAS  /tmp/ccAPlzty.s 			page 235


 10796 1702 4FF48013 		mov	r3, #1048576
 10797 1706 1EE0     		b	.L2281
 10798              	.L2896:
 10799 1708 4FF08063 		mov	r3, #67108864
 10800 170c 1BE0     		b	.L2281
 10801              	.L2895:
 10802 170e 4FF48013 		mov	r3, #1048576
 10803 1712 18E0     		b	.L2281
 10804              	.L2894:
 10805 1714 4FF48013 		mov	r3, #1048576
 10806 1718 15E0     		b	.L2281
 10807              	.L2893:
 10808 171a 4FF48013 		mov	r3, #1048576
 10809 171e 12E0     		b	.L2281
 10810              	.L2892:
 10811 1720 4FF48063 		mov	r3, #1024
 10812 1724 0FE0     		b	.L2281
 10813              	.L2891:
 10814 1726 4FF48063 		mov	r3, #1024
 10815 172a 0CE0     		b	.L2281
 10816              	.L2890:
 10817 172c 4FF48063 		mov	r3, #1024
 10818 1730 09E0     		b	.L2281
 10819              	.L2889:
 10820 1732 4FF48063 		mov	r3, #1024
 10821 1736 06E0     		b	.L2281
 10822              	.L2888:
 10823 1738 1023     		movs	r3, #16
 10824 173a 04E0     		b	.L2281
 10825              	.L2887:
 10826 173c 1023     		movs	r3, #16
 10827 173e 02E0     		b	.L2281
 10828              	.L2886:
 10829 1740 1023     		movs	r3, #16
 10830 1742 00E0     		b	.L2281
 10831              	.L2885:
 10832 1744 1023     		movs	r3, #16
 10833              	.L2281:
 721:../Drivers/STM32F4xx_HAL_Driver/Src/stm32f4xx_hal_dma.c **** 
 10834              		.loc 1 721 0 discriminator 200
 10835 1746 0E4A     		ldr	r2, .L3104+16
 10836 1748 9360     		str	r3, [r2, #8]
 10837              	.L2253:
 724:../Drivers/STM32F4xx_HAL_Driver/Src/stm32f4xx_hal_dma.c ****         {
 10838              		.loc 1 724 0 is_stmt 1
 10839 174a 2368     		ldr	r3, [r4]
 10840 174c 1A68     		ldr	r2, [r3]
 10841 174e 12F4002F 		tst	r2, #524288
 10842 1752 03D1     		bne	.L2293
 727:../Drivers/STM32F4xx_HAL_Driver/Src/stm32f4xx_hal_dma.c ****         }
 10843              		.loc 1 727 0
 10844 1754 3123     		movs	r3, #49
 10845 1756 84F83530 		strb	r3, [r4, #53]
 10846 175a 87E1     		b	.L2294
 10847              	.L2293:
 730:../Drivers/STM32F4xx_HAL_Driver/Src/stm32f4xx_hal_dma.c ****         {
 10848              		.loc 1 730 0
ARM GAS  /tmp/ccAPlzty.s 			page 236


 10849 175c 1B68     		ldr	r3, [r3]
 10850 175e 13F4002F 		tst	r3, #524288
 10851 1762 00F08381 		beq	.L2294
 733:../Drivers/STM32F4xx_HAL_Driver/Src/stm32f4xx_hal_dma.c ****         }
 10852              		.loc 1 733 0
 10853 1766 4123     		movs	r3, #65
 10854 1768 84F83530 		strb	r3, [r4, #53]
 10855 176c 7EE1     		b	.L2294
 10856              	.L3105:
 10857 176e 00BF     		.align	2
 10858              	.L3104:
 10859 1770 58640240 		.word	1073898584
 10860 1774 00640240 		.word	1073898496
 10861 1778 B8600240 		.word	1073897656
 10862 177c 58600240 		.word	1073897560
 10863 1780 00600240 		.word	1073897472
 10864 1784 10600240 		.word	1073897488
 10865              	.L2239:
 739:../Drivers/STM32F4xx_HAL_Driver/Src/stm32f4xx_hal_dma.c ****         {
 10866              		.loc 1 739 0
 10867 1788 1A68     		ldr	r2, [r3]
 10868 178a 12F4807F 		tst	r2, #256
 10869 178e 03D1     		bne	.L2295
 742:../Drivers/STM32F4xx_HAL_Driver/Src/stm32f4xx_hal_dma.c ****         }
 10870              		.loc 1 742 0
 10871 1790 1A68     		ldr	r2, [r3]
 10872 1792 22F00802 		bic	r2, r2, #8
 10873 1796 1A60     		str	r2, [r3]
 10874              	.L2295:
 745:../Drivers/STM32F4xx_HAL_Driver/Src/stm32f4xx_hal_dma.c **** 
 10875              		.loc 1 745 0
 10876 1798 2368     		ldr	r3, [r4]
 10877 179a AB4A     		ldr	r2, .L3106
 10878 179c 9342     		cmp	r3, r2
 10879 179e 54D9     		bls	.L2296
 745:../Drivers/STM32F4xx_HAL_Driver/Src/stm32f4xx_hal_dma.c **** 
 10880              		.loc 1 745 0 is_stmt 0 discriminator 1
 10881 17a0 A2F58962 		sub	r2, r2, #1096
 10882 17a4 9342     		cmp	r3, r2
 10883 17a6 4CD0     		beq	.L2897
 745:../Drivers/STM32F4xx_HAL_Driver/Src/stm32f4xx_hal_dma.c **** 
 10884              		.loc 1 745 0 discriminator 3
 10885 17a8 02F58062 		add	r2, r2, #1024
 10886 17ac 9342     		cmp	r3, r2
 10887 17ae 46D0     		beq	.L2898
 745:../Drivers/STM32F4xx_HAL_Driver/Src/stm32f4xx_hal_dma.c **** 
 10888              		.loc 1 745 0 discriminator 5
 10889 17b0 A2F56872 		sub	r2, r2, #928
 10890 17b4 9342     		cmp	r3, r2
 10891 17b6 40D0     		beq	.L2899
 745:../Drivers/STM32F4xx_HAL_Driver/Src/stm32f4xx_hal_dma.c **** 
 10892              		.loc 1 745 0 discriminator 7
 10893 17b8 02F58062 		add	r2, r2, #1024
 10894 17bc 9342     		cmp	r3, r2
 10895 17be 3AD0     		beq	.L2900
 745:../Drivers/STM32F4xx_HAL_Driver/Src/stm32f4xx_hal_dma.c **** 
 10896              		.loc 1 745 0 discriminator 9
ARM GAS  /tmp/ccAPlzty.s 			page 237


 10897 17c0 A2F58962 		sub	r2, r2, #1096
 10898 17c4 9342     		cmp	r3, r2
 10899 17c6 33D0     		beq	.L2901
 745:../Drivers/STM32F4xx_HAL_Driver/Src/stm32f4xx_hal_dma.c **** 
 10900              		.loc 1 745 0 discriminator 11
 10901 17c8 02F58062 		add	r2, r2, #1024
 10902 17cc 9342     		cmp	r3, r2
 10903 17ce 2CD0     		beq	.L2902
 745:../Drivers/STM32F4xx_HAL_Driver/Src/stm32f4xx_hal_dma.c **** 
 10904              		.loc 1 745 0 discriminator 13
 10905 17d0 A2F56872 		sub	r2, r2, #928
 10906 17d4 9342     		cmp	r3, r2
 10907 17d6 25D0     		beq	.L2903
 745:../Drivers/STM32F4xx_HAL_Driver/Src/stm32f4xx_hal_dma.c **** 
 10908              		.loc 1 745 0 discriminator 15
 10909 17d8 02F58062 		add	r2, r2, #1024
 10910 17dc 9342     		cmp	r3, r2
 10911 17de 1ED0     		beq	.L2904
 745:../Drivers/STM32F4xx_HAL_Driver/Src/stm32f4xx_hal_dma.c **** 
 10912              		.loc 1 745 0 discriminator 17
 10913 17e0 A2F58962 		sub	r2, r2, #1096
 10914 17e4 9342     		cmp	r3, r2
 10915 17e6 17D0     		beq	.L2905
 745:../Drivers/STM32F4xx_HAL_Driver/Src/stm32f4xx_hal_dma.c **** 
 10916              		.loc 1 745 0 discriminator 19
 10917 17e8 02F58062 		add	r2, r2, #1024
 10918 17ec 9342     		cmp	r3, r2
 10919 17ee 10D0     		beq	.L2906
 745:../Drivers/STM32F4xx_HAL_Driver/Src/stm32f4xx_hal_dma.c **** 
 10920              		.loc 1 745 0 discriminator 21
 10921 17f0 A2F56872 		sub	r2, r2, #928
 10922 17f4 9342     		cmp	r3, r2
 10923 17f6 09D0     		beq	.L2907
 745:../Drivers/STM32F4xx_HAL_Driver/Src/stm32f4xx_hal_dma.c **** 
 10924              		.loc 1 745 0 discriminator 23
 10925 17f8 02F58062 		add	r2, r2, #1024
 10926 17fc 9342     		cmp	r3, r2
 10927 17fe 02D1     		bne	.L2908
 745:../Drivers/STM32F4xx_HAL_Driver/Src/stm32f4xx_hal_dma.c **** 
 10928              		.loc 1 745 0
 10929 1800 4FF48012 		mov	r2, #1048576
 10930 1804 1EE0     		b	.L2297
 10931              	.L2908:
 10932 1806 4FF08062 		mov	r2, #67108864
 10933 180a 1BE0     		b	.L2297
 10934              	.L2907:
 10935 180c 4FF48012 		mov	r2, #1048576
 10936 1810 18E0     		b	.L2297
 10937              	.L2906:
 10938 1812 4FF48012 		mov	r2, #1048576
 10939 1816 15E0     		b	.L2297
 10940              	.L2905:
 10941 1818 4FF48012 		mov	r2, #1048576
 10942 181c 12E0     		b	.L2297
 10943              	.L2904:
 10944 181e 4FF48062 		mov	r2, #1024
 10945 1822 0FE0     		b	.L2297
ARM GAS  /tmp/ccAPlzty.s 			page 238


 10946              	.L2903:
 10947 1824 4FF48062 		mov	r2, #1024
 10948 1828 0CE0     		b	.L2297
 10949              	.L2902:
 10950 182a 4FF48062 		mov	r2, #1024
 10951 182e 09E0     		b	.L2297
 10952              	.L2901:
 10953 1830 4FF48062 		mov	r2, #1024
 10954 1834 06E0     		b	.L2297
 10955              	.L2900:
 10956 1836 1022     		movs	r2, #16
 10957 1838 04E0     		b	.L2297
 10958              	.L2899:
 10959 183a 1022     		movs	r2, #16
 10960 183c 02E0     		b	.L2297
 10961              	.L2898:
 10962 183e 1022     		movs	r2, #16
 10963 1840 00E0     		b	.L2297
 10964              	.L2897:
 10965 1842 1022     		movs	r2, #16
 10966              	.L2297:
 745:../Drivers/STM32F4xx_HAL_Driver/Src/stm32f4xx_hal_dma.c **** 
 10967              		.loc 1 745 0 discriminator 50
 10968 1844 814B     		ldr	r3, .L3106+4
 10969 1846 DA60     		str	r2, [r3, #12]
 10970 1848 0DE1     		b	.L2309
 10971              	.L2296:
 745:../Drivers/STM32F4xx_HAL_Driver/Src/stm32f4xx_hal_dma.c **** 
 10972              		.loc 1 745 0 discriminator 2
 10973 184a 814A     		ldr	r2, .L3106+8
 10974 184c 9342     		cmp	r3, r2
 10975 184e 53D9     		bls	.L2310
 745:../Drivers/STM32F4xx_HAL_Driver/Src/stm32f4xx_hal_dma.c **** 
 10976              		.loc 1 745 0 discriminator 51
 10977 1850 A83A     		subs	r2, r2, #168
 10978 1852 9342     		cmp	r3, r2
 10979 1854 4CD0     		beq	.L2909
 745:../Drivers/STM32F4xx_HAL_Driver/Src/stm32f4xx_hal_dma.c **** 
 10980              		.loc 1 745 0 discriminator 53
 10981 1856 02F58062 		add	r2, r2, #1024
 10982 185a 9342     		cmp	r3, r2
 10983 185c 46D0     		beq	.L2910
 745:../Drivers/STM32F4xx_HAL_Driver/Src/stm32f4xx_hal_dma.c **** 
 10984              		.loc 1 745 0 discriminator 55
 10985 185e A2F56872 		sub	r2, r2, #928
 10986 1862 9342     		cmp	r3, r2
 10987 1864 40D0     		beq	.L2911
 745:../Drivers/STM32F4xx_HAL_Driver/Src/stm32f4xx_hal_dma.c **** 
 10988              		.loc 1 745 0 discriminator 57
 10989 1866 02F58062 		add	r2, r2, #1024
 10990 186a 9342     		cmp	r3, r2
 10991 186c 3AD0     		beq	.L2912
 745:../Drivers/STM32F4xx_HAL_Driver/Src/stm32f4xx_hal_dma.c **** 
 10992              		.loc 1 745 0 discriminator 59
 10993 186e A2F58962 		sub	r2, r2, #1096
 10994 1872 9342     		cmp	r3, r2
 10995 1874 33D0     		beq	.L2913
ARM GAS  /tmp/ccAPlzty.s 			page 239


 745:../Drivers/STM32F4xx_HAL_Driver/Src/stm32f4xx_hal_dma.c **** 
 10996              		.loc 1 745 0 discriminator 61
 10997 1876 02F58062 		add	r2, r2, #1024
 10998 187a 9342     		cmp	r3, r2
 10999 187c 2CD0     		beq	.L2914
 745:../Drivers/STM32F4xx_HAL_Driver/Src/stm32f4xx_hal_dma.c **** 
 11000              		.loc 1 745 0 discriminator 63
 11001 187e A2F56872 		sub	r2, r2, #928
 11002 1882 9342     		cmp	r3, r2
 11003 1884 25D0     		beq	.L2915
 745:../Drivers/STM32F4xx_HAL_Driver/Src/stm32f4xx_hal_dma.c **** 
 11004              		.loc 1 745 0 discriminator 65
 11005 1886 02F58062 		add	r2, r2, #1024
 11006 188a 9342     		cmp	r3, r2
 11007 188c 1ED0     		beq	.L2916
 745:../Drivers/STM32F4xx_HAL_Driver/Src/stm32f4xx_hal_dma.c **** 
 11008              		.loc 1 745 0 discriminator 67
 11009 188e A2F58962 		sub	r2, r2, #1096
 11010 1892 9342     		cmp	r3, r2
 11011 1894 17D0     		beq	.L2917
 745:../Drivers/STM32F4xx_HAL_Driver/Src/stm32f4xx_hal_dma.c **** 
 11012              		.loc 1 745 0 discriminator 69
 11013 1896 02F58062 		add	r2, r2, #1024
 11014 189a 9342     		cmp	r3, r2
 11015 189c 10D0     		beq	.L2918
 745:../Drivers/STM32F4xx_HAL_Driver/Src/stm32f4xx_hal_dma.c **** 
 11016              		.loc 1 745 0 discriminator 71
 11017 189e A2F56872 		sub	r2, r2, #928
 11018 18a2 9342     		cmp	r3, r2
 11019 18a4 09D0     		beq	.L2919
 745:../Drivers/STM32F4xx_HAL_Driver/Src/stm32f4xx_hal_dma.c **** 
 11020              		.loc 1 745 0 discriminator 73
 11021 18a6 02F58062 		add	r2, r2, #1024
 11022 18aa 9342     		cmp	r3, r2
 11023 18ac 02D1     		bne	.L2920
 745:../Drivers/STM32F4xx_HAL_Driver/Src/stm32f4xx_hal_dma.c **** 
 11024              		.loc 1 745 0
 11025 18ae 4FF48012 		mov	r2, #1048576
 11026 18b2 1EE0     		b	.L2311
 11027              	.L2920:
 11028 18b4 4FF08062 		mov	r2, #67108864
 11029 18b8 1BE0     		b	.L2311
 11030              	.L2919:
 11031 18ba 4FF48012 		mov	r2, #1048576
 11032 18be 18E0     		b	.L2311
 11033              	.L2918:
 11034 18c0 4FF48012 		mov	r2, #1048576
 11035 18c4 15E0     		b	.L2311
 11036              	.L2917:
 11037 18c6 4FF48012 		mov	r2, #1048576
 11038 18ca 12E0     		b	.L2311
 11039              	.L2916:
 11040 18cc 4FF48062 		mov	r2, #1024
 11041 18d0 0FE0     		b	.L2311
 11042              	.L2915:
 11043 18d2 4FF48062 		mov	r2, #1024
 11044 18d6 0CE0     		b	.L2311
ARM GAS  /tmp/ccAPlzty.s 			page 240


 11045              	.L2914:
 11046 18d8 4FF48062 		mov	r2, #1024
 11047 18dc 09E0     		b	.L2311
 11048              	.L2913:
 11049 18de 4FF48062 		mov	r2, #1024
 11050 18e2 06E0     		b	.L2311
 11051              	.L2912:
 11052 18e4 1022     		movs	r2, #16
 11053 18e6 04E0     		b	.L2311
 11054              	.L2911:
 11055 18e8 1022     		movs	r2, #16
 11056 18ea 02E0     		b	.L2311
 11057              	.L2910:
 11058 18ec 1022     		movs	r2, #16
 11059 18ee 00E0     		b	.L2311
 11060              	.L2909:
 11061 18f0 1022     		movs	r2, #16
 11062              	.L2311:
 745:../Drivers/STM32F4xx_HAL_Driver/Src/stm32f4xx_hal_dma.c **** 
 11063              		.loc 1 745 0 discriminator 100
 11064 18f2 564B     		ldr	r3, .L3106+4
 11065 18f4 9A60     		str	r2, [r3, #8]
 11066 18f6 B6E0     		b	.L2309
 11067              	.L2310:
 745:../Drivers/STM32F4xx_HAL_Driver/Src/stm32f4xx_hal_dma.c **** 
 11068              		.loc 1 745 0 discriminator 52
 11069 18f8 564A     		ldr	r2, .L3106+12
 11070 18fa 9342     		cmp	r3, r2
 11071 18fc 53D9     		bls	.L2323
 745:../Drivers/STM32F4xx_HAL_Driver/Src/stm32f4xx_hal_dma.c **** 
 11072              		.loc 1 745 0 discriminator 102
 11073 18fe 483A     		subs	r2, r2, #72
 11074 1900 9342     		cmp	r3, r2
 11075 1902 4CD0     		beq	.L2921
 745:../Drivers/STM32F4xx_HAL_Driver/Src/stm32f4xx_hal_dma.c **** 
 11076              		.loc 1 745 0 discriminator 104
 11077 1904 02F58062 		add	r2, r2, #1024
 11078 1908 9342     		cmp	r3, r2
 11079 190a 46D0     		beq	.L2922
 745:../Drivers/STM32F4xx_HAL_Driver/Src/stm32f4xx_hal_dma.c **** 
 11080              		.loc 1 745 0 discriminator 106
 11081 190c A2F56872 		sub	r2, r2, #928
 11082 1910 9342     		cmp	r3, r2
 11083 1912 40D0     		beq	.L2923
 745:../Drivers/STM32F4xx_HAL_Driver/Src/stm32f4xx_hal_dma.c **** 
 11084              		.loc 1 745 0 discriminator 108
 11085 1914 02F58062 		add	r2, r2, #1024
 11086 1918 9342     		cmp	r3, r2
 11087 191a 3AD0     		beq	.L2924
 745:../Drivers/STM32F4xx_HAL_Driver/Src/stm32f4xx_hal_dma.c **** 
 11088              		.loc 1 745 0 discriminator 110
 11089 191c A2F58962 		sub	r2, r2, #1096
 11090 1920 9342     		cmp	r3, r2
 11091 1922 33D0     		beq	.L2925
 745:../Drivers/STM32F4xx_HAL_Driver/Src/stm32f4xx_hal_dma.c **** 
 11092              		.loc 1 745 0 discriminator 112
 11093 1924 02F58062 		add	r2, r2, #1024
ARM GAS  /tmp/ccAPlzty.s 			page 241


 11094 1928 9342     		cmp	r3, r2
 11095 192a 2CD0     		beq	.L2926
 745:../Drivers/STM32F4xx_HAL_Driver/Src/stm32f4xx_hal_dma.c **** 
 11096              		.loc 1 745 0 discriminator 114
 11097 192c A2F56872 		sub	r2, r2, #928
 11098 1930 9342     		cmp	r3, r2
 11099 1932 25D0     		beq	.L2927
 745:../Drivers/STM32F4xx_HAL_Driver/Src/stm32f4xx_hal_dma.c **** 
 11100              		.loc 1 745 0 discriminator 116
 11101 1934 02F58062 		add	r2, r2, #1024
 11102 1938 9342     		cmp	r3, r2
 11103 193a 1ED0     		beq	.L2928
 745:../Drivers/STM32F4xx_HAL_Driver/Src/stm32f4xx_hal_dma.c **** 
 11104              		.loc 1 745 0 discriminator 118
 11105 193c A2F58962 		sub	r2, r2, #1096
 11106 1940 9342     		cmp	r3, r2
 11107 1942 17D0     		beq	.L2929
 745:../Drivers/STM32F4xx_HAL_Driver/Src/stm32f4xx_hal_dma.c **** 
 11108              		.loc 1 745 0 discriminator 120
 11109 1944 02F58062 		add	r2, r2, #1024
 11110 1948 9342     		cmp	r3, r2
 11111 194a 10D0     		beq	.L2930
 745:../Drivers/STM32F4xx_HAL_Driver/Src/stm32f4xx_hal_dma.c **** 
 11112              		.loc 1 745 0 discriminator 122
 11113 194c A2F56872 		sub	r2, r2, #928
 11114 1950 9342     		cmp	r3, r2
 11115 1952 09D0     		beq	.L2931
 745:../Drivers/STM32F4xx_HAL_Driver/Src/stm32f4xx_hal_dma.c **** 
 11116              		.loc 1 745 0 discriminator 124
 11117 1954 02F58062 		add	r2, r2, #1024
 11118 1958 9342     		cmp	r3, r2
 11119 195a 02D1     		bne	.L2932
 745:../Drivers/STM32F4xx_HAL_Driver/Src/stm32f4xx_hal_dma.c **** 
 11120              		.loc 1 745 0
 11121 195c 4FF48013 		mov	r3, #1048576
 11122 1960 1EE0     		b	.L2324
 11123              	.L2932:
 11124 1962 4FF08063 		mov	r3, #67108864
 11125 1966 1BE0     		b	.L2324
 11126              	.L2931:
 11127 1968 4FF48013 		mov	r3, #1048576
 11128 196c 18E0     		b	.L2324
 11129              	.L2930:
 11130 196e 4FF48013 		mov	r3, #1048576
 11131 1972 15E0     		b	.L2324
 11132              	.L2929:
 11133 1974 4FF48013 		mov	r3, #1048576
 11134 1978 12E0     		b	.L2324
 11135              	.L2928:
 11136 197a 4FF48063 		mov	r3, #1024
 11137 197e 0FE0     		b	.L2324
 11138              	.L2927:
 11139 1980 4FF48063 		mov	r3, #1024
 11140 1984 0CE0     		b	.L2324
 11141              	.L2926:
 11142 1986 4FF48063 		mov	r3, #1024
 11143 198a 09E0     		b	.L2324
ARM GAS  /tmp/ccAPlzty.s 			page 242


 11144              	.L2925:
 11145 198c 4FF48063 		mov	r3, #1024
 11146 1990 06E0     		b	.L2324
 11147              	.L2924:
 11148 1992 1023     		movs	r3, #16
 11149 1994 04E0     		b	.L2324
 11150              	.L2923:
 11151 1996 1023     		movs	r3, #16
 11152 1998 02E0     		b	.L2324
 11153              	.L2922:
 11154 199a 1023     		movs	r3, #16
 11155 199c 00E0     		b	.L2324
 11156              	.L2921:
 11157 199e 1023     		movs	r3, #16
 11158              	.L2324:
 745:../Drivers/STM32F4xx_HAL_Driver/Src/stm32f4xx_hal_dma.c **** 
 11159              		.loc 1 745 0 discriminator 151
 11160 19a0 2D4A     		ldr	r2, .L3106+16
 11161 19a2 D360     		str	r3, [r2, #12]
 11162 19a4 5FE0     		b	.L2309
 11163              	.L2323:
 745:../Drivers/STM32F4xx_HAL_Driver/Src/stm32f4xx_hal_dma.c **** 
 11164              		.loc 1 745 0 discriminator 103
 11165 19a6 2D4A     		ldr	r2, .L3106+20
 11166 19a8 9342     		cmp	r3, r2
 11167 19aa 59D0     		beq	.L2933
 745:../Drivers/STM32F4xx_HAL_Driver/Src/stm32f4xx_hal_dma.c **** 
 11168              		.loc 1 745 0 discriminator 153
 11169 19ac 02F58062 		add	r2, r2, #1024
 11170 19b0 9342     		cmp	r3, r2
 11171 19b2 46D0     		beq	.L2934
 745:../Drivers/STM32F4xx_HAL_Driver/Src/stm32f4xx_hal_dma.c **** 
 11172              		.loc 1 745 0 discriminator 155
 11173 19b4 A2F56872 		sub	r2, r2, #928
 11174 19b8 9342     		cmp	r3, r2
 11175 19ba 40D0     		beq	.L2935
 745:../Drivers/STM32F4xx_HAL_Driver/Src/stm32f4xx_hal_dma.c **** 
 11176              		.loc 1 745 0 discriminator 157
 11177 19bc 02F58062 		add	r2, r2, #1024
 11178 19c0 9342     		cmp	r3, r2
 11179 19c2 3AD0     		beq	.L2936
 745:../Drivers/STM32F4xx_HAL_Driver/Src/stm32f4xx_hal_dma.c **** 
 11180              		.loc 1 745 0 discriminator 159
 11181 19c4 A2F58962 		sub	r2, r2, #1096
 11182 19c8 9342     		cmp	r3, r2
 11183 19ca 33D0     		beq	.L2937
 745:../Drivers/STM32F4xx_HAL_Driver/Src/stm32f4xx_hal_dma.c **** 
 11184              		.loc 1 745 0 discriminator 161
 11185 19cc 02F58062 		add	r2, r2, #1024
 11186 19d0 9342     		cmp	r3, r2
 11187 19d2 2CD0     		beq	.L2938
 745:../Drivers/STM32F4xx_HAL_Driver/Src/stm32f4xx_hal_dma.c **** 
 11188              		.loc 1 745 0 discriminator 163
 11189 19d4 A2F56872 		sub	r2, r2, #928
 11190 19d8 9342     		cmp	r3, r2
 11191 19da 25D0     		beq	.L2939
 745:../Drivers/STM32F4xx_HAL_Driver/Src/stm32f4xx_hal_dma.c **** 
ARM GAS  /tmp/ccAPlzty.s 			page 243


 11192              		.loc 1 745 0 discriminator 165
 11193 19dc 02F58062 		add	r2, r2, #1024
 11194 19e0 9342     		cmp	r3, r2
 11195 19e2 1ED0     		beq	.L2940
 745:../Drivers/STM32F4xx_HAL_Driver/Src/stm32f4xx_hal_dma.c **** 
 11196              		.loc 1 745 0 discriminator 167
 11197 19e4 A2F58962 		sub	r2, r2, #1096
 11198 19e8 9342     		cmp	r3, r2
 11199 19ea 17D0     		beq	.L2941
 745:../Drivers/STM32F4xx_HAL_Driver/Src/stm32f4xx_hal_dma.c **** 
 11200              		.loc 1 745 0 discriminator 169
 11201 19ec 02F58062 		add	r2, r2, #1024
 11202 19f0 9342     		cmp	r3, r2
 11203 19f2 10D0     		beq	.L2942
 745:../Drivers/STM32F4xx_HAL_Driver/Src/stm32f4xx_hal_dma.c **** 
 11204              		.loc 1 745 0 discriminator 171
 11205 19f4 A2F56872 		sub	r2, r2, #928
 11206 19f8 9342     		cmp	r3, r2
 11207 19fa 09D0     		beq	.L2943
 745:../Drivers/STM32F4xx_HAL_Driver/Src/stm32f4xx_hal_dma.c **** 
 11208              		.loc 1 745 0 discriminator 173
 11209 19fc 02F58062 		add	r2, r2, #1024
 11210 1a00 9342     		cmp	r3, r2
 11211 1a02 02D1     		bne	.L2944
 745:../Drivers/STM32F4xx_HAL_Driver/Src/stm32f4xx_hal_dma.c **** 
 11212              		.loc 1 745 0
 11213 1a04 4FF48013 		mov	r3, #1048576
 11214 1a08 2BE0     		b	.L2337
 11215              	.L2944:
 11216 1a0a 4FF08063 		mov	r3, #67108864
 11217 1a0e 28E0     		b	.L2337
 11218              	.L2943:
 11219 1a10 4FF48013 		mov	r3, #1048576
 11220 1a14 25E0     		b	.L2337
 11221              	.L2942:
 11222 1a16 4FF48013 		mov	r3, #1048576
 11223 1a1a 22E0     		b	.L2337
 11224              	.L2941:
 11225 1a1c 4FF48013 		mov	r3, #1048576
 11226 1a20 1FE0     		b	.L2337
 11227              	.L2940:
 11228 1a22 4FF48063 		mov	r3, #1024
 11229 1a26 1CE0     		b	.L2337
 11230              	.L2939:
 11231 1a28 4FF48063 		mov	r3, #1024
 11232 1a2c 19E0     		b	.L2337
 11233              	.L2938:
 11234 1a2e 4FF48063 		mov	r3, #1024
 11235 1a32 16E0     		b	.L2337
 11236              	.L2937:
 11237 1a34 4FF48063 		mov	r3, #1024
 11238 1a38 13E0     		b	.L2337
 11239              	.L2936:
 11240 1a3a 1023     		movs	r3, #16
 11241 1a3c 11E0     		b	.L2337
 11242              	.L2935:
 11243 1a3e 1023     		movs	r3, #16
ARM GAS  /tmp/ccAPlzty.s 			page 244


 11244 1a40 0FE0     		b	.L2337
 11245              	.L2934:
 11246 1a42 1023     		movs	r3, #16
 11247 1a44 0DE0     		b	.L2337
 11248              	.L3107:
 11249 1a46 00BF     		.align	2
 11250              	.L3106:
 11251 1a48 58640240 		.word	1073898584
 11252 1a4c 00640240 		.word	1073898496
 11253 1a50 B8600240 		.word	1073897656
 11254 1a54 58600240 		.word	1073897560
 11255 1a58 00600240 		.word	1073897472
 11256 1a5c 10600240 		.word	1073897488
 11257              	.L2933:
 11258 1a60 1023     		movs	r3, #16
 11259              	.L2337:
 745:../Drivers/STM32F4xx_HAL_Driver/Src/stm32f4xx_hal_dma.c **** 
 11260              		.loc 1 745 0 discriminator 200
 11261 1a62 B74A     		ldr	r2, .L3108
 11262 1a64 9360     		str	r3, [r2, #8]
 11263              	.L2309:
 748:../Drivers/STM32F4xx_HAL_Driver/Src/stm32f4xx_hal_dma.c ****       }
 11264              		.loc 1 748 0 is_stmt 1
 11265 1a66 3123     		movs	r3, #49
 11266 1a68 84F83530 		strb	r3, [r4, #53]
 11267              	.L2294:
 751:../Drivers/STM32F4xx_HAL_Driver/Src/stm32f4xx_hal_dma.c ****       {
 11268              		.loc 1 751 0
 11269 1a6c 236C     		ldr	r3, [r4, #64]
 11270 1a6e 0BB1     		cbz	r3, .L2238
 754:../Drivers/STM32F4xx_HAL_Driver/Src/stm32f4xx_hal_dma.c ****       }
 11271              		.loc 1 754 0
 11272 1a70 2046     		mov	r0, r4
 11273 1a72 9847     		blx	r3
 11274              	.LVL71:
 11275              	.L2238:
 759:../Drivers/STM32F4xx_HAL_Driver/Src/stm32f4xx_hal_dma.c ****   {
 11276              		.loc 1 759 0
 11277 1a74 2368     		ldr	r3, [r4]
 11278 1a76 B34A     		ldr	r2, .L3108+4
 11279 1a78 9342     		cmp	r3, r2
 11280 1a7a 57D9     		bls	.L2349
 759:../Drivers/STM32F4xx_HAL_Driver/Src/stm32f4xx_hal_dma.c ****   {
 11281              		.loc 1 759 0 is_stmt 0 discriminator 1
 11282 1a7c 583A     		subs	r2, r2, #88
 11283 1a7e 5268     		ldr	r2, [r2, #4]
 11284 1a80 B149     		ldr	r1, .L3108+8
 11285 1a82 8B42     		cmp	r3, r1
 11286 1a84 4CD0     		beq	.L2945
 759:../Drivers/STM32F4xx_HAL_Driver/Src/stm32f4xx_hal_dma.c ****   {
 11287              		.loc 1 759 0 discriminator 3
 11288 1a86 01F58061 		add	r1, r1, #1024
 11289 1a8a 8B42     		cmp	r3, r1
 11290 1a8c 46D0     		beq	.L2946
 759:../Drivers/STM32F4xx_HAL_Driver/Src/stm32f4xx_hal_dma.c ****   {
 11291              		.loc 1 759 0 discriminator 5
 11292 1a8e A1F56871 		sub	r1, r1, #928
ARM GAS  /tmp/ccAPlzty.s 			page 245


 11293 1a92 8B42     		cmp	r3, r1
 11294 1a94 40D0     		beq	.L2947
 759:../Drivers/STM32F4xx_HAL_Driver/Src/stm32f4xx_hal_dma.c ****   {
 11295              		.loc 1 759 0 discriminator 7
 11296 1a96 01F58061 		add	r1, r1, #1024
 11297 1a9a 8B42     		cmp	r3, r1
 11298 1a9c 3AD0     		beq	.L2948
 759:../Drivers/STM32F4xx_HAL_Driver/Src/stm32f4xx_hal_dma.c ****   {
 11299              		.loc 1 759 0 discriminator 9
 11300 1a9e A1F58961 		sub	r1, r1, #1096
 11301 1aa2 8B42     		cmp	r3, r1
 11302 1aa4 33D0     		beq	.L2949
 759:../Drivers/STM32F4xx_HAL_Driver/Src/stm32f4xx_hal_dma.c ****   {
 11303              		.loc 1 759 0 discriminator 11
 11304 1aa6 01F58061 		add	r1, r1, #1024
 11305 1aaa 8B42     		cmp	r3, r1
 11306 1aac 2CD0     		beq	.L2950
 759:../Drivers/STM32F4xx_HAL_Driver/Src/stm32f4xx_hal_dma.c ****   {
 11307              		.loc 1 759 0 discriminator 13
 11308 1aae A1F56871 		sub	r1, r1, #928
 11309 1ab2 8B42     		cmp	r3, r1
 11310 1ab4 25D0     		beq	.L2951
 759:../Drivers/STM32F4xx_HAL_Driver/Src/stm32f4xx_hal_dma.c ****   {
 11311              		.loc 1 759 0 discriminator 15
 11312 1ab6 01F58061 		add	r1, r1, #1024
 11313 1aba 8B42     		cmp	r3, r1
 11314 1abc 1ED0     		beq	.L2952
 759:../Drivers/STM32F4xx_HAL_Driver/Src/stm32f4xx_hal_dma.c ****   {
 11315              		.loc 1 759 0 discriminator 17
 11316 1abe A1F58961 		sub	r1, r1, #1096
 11317 1ac2 8B42     		cmp	r3, r1
 11318 1ac4 17D0     		beq	.L2953
 759:../Drivers/STM32F4xx_HAL_Driver/Src/stm32f4xx_hal_dma.c ****   {
 11319              		.loc 1 759 0 discriminator 19
 11320 1ac6 01F58061 		add	r1, r1, #1024
 11321 1aca 8B42     		cmp	r3, r1
 11322 1acc 10D0     		beq	.L2954
 759:../Drivers/STM32F4xx_HAL_Driver/Src/stm32f4xx_hal_dma.c ****   {
 11323              		.loc 1 759 0 discriminator 21
 11324 1ace A1F56871 		sub	r1, r1, #928
 11325 1ad2 8B42     		cmp	r3, r1
 11326 1ad4 09D0     		beq	.L2955
 759:../Drivers/STM32F4xx_HAL_Driver/Src/stm32f4xx_hal_dma.c ****   {
 11327              		.loc 1 759 0 discriminator 23
 11328 1ad6 01F58061 		add	r1, r1, #1024
 11329 1ada 8B42     		cmp	r3, r1
 11330 1adc 02D1     		bne	.L2956
 759:../Drivers/STM32F4xx_HAL_Driver/Src/stm32f4xx_hal_dma.c ****   {
 11331              		.loc 1 759 0
 11332 1ade 4FF40011 		mov	r1, #2097152
 11333 1ae2 1EE0     		b	.L2350
 11334              	.L2956:
 11335 1ae4 4FF00061 		mov	r1, #134217728
 11336 1ae8 1BE0     		b	.L2350
 11337              	.L2955:
 11338 1aea 4FF40011 		mov	r1, #2097152
 11339 1aee 18E0     		b	.L2350
ARM GAS  /tmp/ccAPlzty.s 			page 246


 11340              	.L2954:
 11341 1af0 4FF40011 		mov	r1, #2097152
 11342 1af4 15E0     		b	.L2350
 11343              	.L2953:
 11344 1af6 4FF40011 		mov	r1, #2097152
 11345 1afa 12E0     		b	.L2350
 11346              	.L2952:
 11347 1afc 4FF40061 		mov	r1, #2048
 11348 1b00 0FE0     		b	.L2350
 11349              	.L2951:
 11350 1b02 4FF40061 		mov	r1, #2048
 11351 1b06 0CE0     		b	.L2350
 11352              	.L2950:
 11353 1b08 4FF40061 		mov	r1, #2048
 11354 1b0c 09E0     		b	.L2350
 11355              	.L2949:
 11356 1b0e 4FF40061 		mov	r1, #2048
 11357 1b12 06E0     		b	.L2350
 11358              	.L2948:
 11359 1b14 2021     		movs	r1, #32
 11360 1b16 04E0     		b	.L2350
 11361              	.L2947:
 11362 1b18 2021     		movs	r1, #32
 11363 1b1a 02E0     		b	.L2350
 11364              	.L2946:
 11365 1b1c 2021     		movs	r1, #32
 11366 1b1e 00E0     		b	.L2350
 11367              	.L2945:
 11368 1b20 2021     		movs	r1, #32
 11369              	.L2350:
 759:../Drivers/STM32F4xx_HAL_Driver/Src/stm32f4xx_hal_dma.c ****   {
 11370              		.loc 1 759 0 discriminator 50
 11371 1b22 0A42     		tst	r2, r1
 11372 1b24 14BF     		ite	ne
 11373 1b26 0122     		movne	r2, #1
 11374 1b28 0022     		moveq	r2, #0
 11375 1b2a 18E1     		b	.L2362
 11376              	.L2349:
 759:../Drivers/STM32F4xx_HAL_Driver/Src/stm32f4xx_hal_dma.c ****   {
 11377              		.loc 1 759 0 discriminator 2
 11378 1b2c 874A     		ldr	r2, .L3108+12
 11379 1b2e 9342     		cmp	r3, r2
 11380 1b30 58D9     		bls	.L2363
 759:../Drivers/STM32F4xx_HAL_Driver/Src/stm32f4xx_hal_dma.c ****   {
 11381              		.loc 1 759 0 discriminator 52
 11382 1b32 02F55272 		add	r2, r2, #840
 11383 1b36 1268     		ldr	r2, [r2]
 11384 1b38 8349     		ldr	r1, .L3108+8
 11385 1b3a 8B42     		cmp	r3, r1
 11386 1b3c 4CD0     		beq	.L2957
 759:../Drivers/STM32F4xx_HAL_Driver/Src/stm32f4xx_hal_dma.c ****   {
 11387              		.loc 1 759 0 discriminator 54
 11388 1b3e 01F58061 		add	r1, r1, #1024
 11389 1b42 8B42     		cmp	r3, r1
 11390 1b44 46D0     		beq	.L2958
 759:../Drivers/STM32F4xx_HAL_Driver/Src/stm32f4xx_hal_dma.c ****   {
 11391              		.loc 1 759 0 discriminator 56
ARM GAS  /tmp/ccAPlzty.s 			page 247


 11392 1b46 A1F56871 		sub	r1, r1, #928
 11393 1b4a 8B42     		cmp	r3, r1
 11394 1b4c 40D0     		beq	.L2959
 759:../Drivers/STM32F4xx_HAL_Driver/Src/stm32f4xx_hal_dma.c ****   {
 11395              		.loc 1 759 0 discriminator 58
 11396 1b4e 01F58061 		add	r1, r1, #1024
 11397 1b52 8B42     		cmp	r3, r1
 11398 1b54 3AD0     		beq	.L2960
 759:../Drivers/STM32F4xx_HAL_Driver/Src/stm32f4xx_hal_dma.c ****   {
 11399              		.loc 1 759 0 discriminator 60
 11400 1b56 A1F58961 		sub	r1, r1, #1096
 11401 1b5a 8B42     		cmp	r3, r1
 11402 1b5c 33D0     		beq	.L2961
 759:../Drivers/STM32F4xx_HAL_Driver/Src/stm32f4xx_hal_dma.c ****   {
 11403              		.loc 1 759 0 discriminator 62
 11404 1b5e 01F58061 		add	r1, r1, #1024
 11405 1b62 8B42     		cmp	r3, r1
 11406 1b64 2CD0     		beq	.L2962
 759:../Drivers/STM32F4xx_HAL_Driver/Src/stm32f4xx_hal_dma.c ****   {
 11407              		.loc 1 759 0 discriminator 64
 11408 1b66 A1F56871 		sub	r1, r1, #928
 11409 1b6a 8B42     		cmp	r3, r1
 11410 1b6c 25D0     		beq	.L2963
 759:../Drivers/STM32F4xx_HAL_Driver/Src/stm32f4xx_hal_dma.c ****   {
 11411              		.loc 1 759 0 discriminator 66
 11412 1b6e 01F58061 		add	r1, r1, #1024
 11413 1b72 8B42     		cmp	r3, r1
 11414 1b74 1ED0     		beq	.L2964
 759:../Drivers/STM32F4xx_HAL_Driver/Src/stm32f4xx_hal_dma.c ****   {
 11415              		.loc 1 759 0 discriminator 68
 11416 1b76 A1F58961 		sub	r1, r1, #1096
 11417 1b7a 8B42     		cmp	r3, r1
 11418 1b7c 17D0     		beq	.L2965
 759:../Drivers/STM32F4xx_HAL_Driver/Src/stm32f4xx_hal_dma.c ****   {
 11419              		.loc 1 759 0 discriminator 70
 11420 1b7e 01F58061 		add	r1, r1, #1024
 11421 1b82 8B42     		cmp	r3, r1
 11422 1b84 10D0     		beq	.L2966
 759:../Drivers/STM32F4xx_HAL_Driver/Src/stm32f4xx_hal_dma.c ****   {
 11423              		.loc 1 759 0 discriminator 72
 11424 1b86 A1F56871 		sub	r1, r1, #928
 11425 1b8a 8B42     		cmp	r3, r1
 11426 1b8c 09D0     		beq	.L2967
 759:../Drivers/STM32F4xx_HAL_Driver/Src/stm32f4xx_hal_dma.c ****   {
 11427              		.loc 1 759 0 discriminator 74
 11428 1b8e 01F58061 		add	r1, r1, #1024
 11429 1b92 8B42     		cmp	r3, r1
 11430 1b94 02D1     		bne	.L2968
 759:../Drivers/STM32F4xx_HAL_Driver/Src/stm32f4xx_hal_dma.c ****   {
 11431              		.loc 1 759 0
 11432 1b96 4FF40011 		mov	r1, #2097152
 11433 1b9a 1EE0     		b	.L2364
 11434              	.L2968:
 11435 1b9c 4FF00061 		mov	r1, #134217728
 11436 1ba0 1BE0     		b	.L2364
 11437              	.L2967:
 11438 1ba2 4FF40011 		mov	r1, #2097152
ARM GAS  /tmp/ccAPlzty.s 			page 248


 11439 1ba6 18E0     		b	.L2364
 11440              	.L2966:
 11441 1ba8 4FF40011 		mov	r1, #2097152
 11442 1bac 15E0     		b	.L2364
 11443              	.L2965:
 11444 1bae 4FF40011 		mov	r1, #2097152
 11445 1bb2 12E0     		b	.L2364
 11446              	.L2964:
 11447 1bb4 4FF40061 		mov	r1, #2048
 11448 1bb8 0FE0     		b	.L2364
 11449              	.L2963:
 11450 1bba 4FF40061 		mov	r1, #2048
 11451 1bbe 0CE0     		b	.L2364
 11452              	.L2962:
 11453 1bc0 4FF40061 		mov	r1, #2048
 11454 1bc4 09E0     		b	.L2364
 11455              	.L2961:
 11456 1bc6 4FF40061 		mov	r1, #2048
 11457 1bca 06E0     		b	.L2364
 11458              	.L2960:
 11459 1bcc 2021     		movs	r1, #32
 11460 1bce 04E0     		b	.L2364
 11461              	.L2959:
 11462 1bd0 2021     		movs	r1, #32
 11463 1bd2 02E0     		b	.L2364
 11464              	.L2958:
 11465 1bd4 2021     		movs	r1, #32
 11466 1bd6 00E0     		b	.L2364
 11467              	.L2957:
 11468 1bd8 2021     		movs	r1, #32
 11469              	.L2364:
 759:../Drivers/STM32F4xx_HAL_Driver/Src/stm32f4xx_hal_dma.c ****   {
 11470              		.loc 1 759 0 discriminator 101
 11471 1bda 0A42     		tst	r2, r1
 11472 1bdc 14BF     		ite	ne
 11473 1bde 0122     		movne	r2, #1
 11474 1be0 0022     		moveq	r2, #0
 11475 1be2 BCE0     		b	.L2362
 11476              	.L2363:
 759:../Drivers/STM32F4xx_HAL_Driver/Src/stm32f4xx_hal_dma.c ****   {
 11477              		.loc 1 759 0 discriminator 53
 11478 1be4 5A4A     		ldr	r2, .L3108+16
 11479 1be6 9342     		cmp	r3, r2
 11480 1be8 57D9     		bls	.L2377
 759:../Drivers/STM32F4xx_HAL_Driver/Src/stm32f4xx_hal_dma.c ****   {
 11481              		.loc 1 759 0 discriminator 103
 11482 1bea 583A     		subs	r2, r2, #88
 11483 1bec 5268     		ldr	r2, [r2, #4]
 11484 1bee 5649     		ldr	r1, .L3108+8
 11485 1bf0 8B42     		cmp	r3, r1
 11486 1bf2 4CD0     		beq	.L2969
 759:../Drivers/STM32F4xx_HAL_Driver/Src/stm32f4xx_hal_dma.c ****   {
 11487              		.loc 1 759 0 discriminator 105
 11488 1bf4 01F58061 		add	r1, r1, #1024
 11489 1bf8 8B42     		cmp	r3, r1
 11490 1bfa 46D0     		beq	.L2970
 759:../Drivers/STM32F4xx_HAL_Driver/Src/stm32f4xx_hal_dma.c ****   {
ARM GAS  /tmp/ccAPlzty.s 			page 249


 11491              		.loc 1 759 0 discriminator 107
 11492 1bfc A1F56871 		sub	r1, r1, #928
 11493 1c00 8B42     		cmp	r3, r1
 11494 1c02 40D0     		beq	.L2971
 759:../Drivers/STM32F4xx_HAL_Driver/Src/stm32f4xx_hal_dma.c ****   {
 11495              		.loc 1 759 0 discriminator 109
 11496 1c04 01F58061 		add	r1, r1, #1024
 11497 1c08 8B42     		cmp	r3, r1
 11498 1c0a 3AD0     		beq	.L2972
 759:../Drivers/STM32F4xx_HAL_Driver/Src/stm32f4xx_hal_dma.c ****   {
 11499              		.loc 1 759 0 discriminator 111
 11500 1c0c A1F58961 		sub	r1, r1, #1096
 11501 1c10 8B42     		cmp	r3, r1
 11502 1c12 33D0     		beq	.L2973
 759:../Drivers/STM32F4xx_HAL_Driver/Src/stm32f4xx_hal_dma.c ****   {
 11503              		.loc 1 759 0 discriminator 113
 11504 1c14 01F58061 		add	r1, r1, #1024
 11505 1c18 8B42     		cmp	r3, r1
 11506 1c1a 2CD0     		beq	.L2974
 759:../Drivers/STM32F4xx_HAL_Driver/Src/stm32f4xx_hal_dma.c ****   {
 11507              		.loc 1 759 0 discriminator 115
 11508 1c1c A1F56871 		sub	r1, r1, #928
 11509 1c20 8B42     		cmp	r3, r1
 11510 1c22 25D0     		beq	.L2975
 759:../Drivers/STM32F4xx_HAL_Driver/Src/stm32f4xx_hal_dma.c ****   {
 11511              		.loc 1 759 0 discriminator 117
 11512 1c24 01F58061 		add	r1, r1, #1024
 11513 1c28 8B42     		cmp	r3, r1
 11514 1c2a 1ED0     		beq	.L2976
 759:../Drivers/STM32F4xx_HAL_Driver/Src/stm32f4xx_hal_dma.c ****   {
 11515              		.loc 1 759 0 discriminator 119
 11516 1c2c A1F58961 		sub	r1, r1, #1096
 11517 1c30 8B42     		cmp	r3, r1
 11518 1c32 17D0     		beq	.L2977
 759:../Drivers/STM32F4xx_HAL_Driver/Src/stm32f4xx_hal_dma.c ****   {
 11519              		.loc 1 759 0 discriminator 121
 11520 1c34 01F58061 		add	r1, r1, #1024
 11521 1c38 8B42     		cmp	r3, r1
 11522 1c3a 10D0     		beq	.L2978
 759:../Drivers/STM32F4xx_HAL_Driver/Src/stm32f4xx_hal_dma.c ****   {
 11523              		.loc 1 759 0 discriminator 123
 11524 1c3c A1F56871 		sub	r1, r1, #928
 11525 1c40 8B42     		cmp	r3, r1
 11526 1c42 09D0     		beq	.L2979
 759:../Drivers/STM32F4xx_HAL_Driver/Src/stm32f4xx_hal_dma.c ****   {
 11527              		.loc 1 759 0 discriminator 125
 11528 1c44 01F58061 		add	r1, r1, #1024
 11529 1c48 8B42     		cmp	r3, r1
 11530 1c4a 02D1     		bne	.L2980
 759:../Drivers/STM32F4xx_HAL_Driver/Src/stm32f4xx_hal_dma.c ****   {
 11531              		.loc 1 759 0
 11532 1c4c 4FF40011 		mov	r1, #2097152
 11533 1c50 1EE0     		b	.L2378
 11534              	.L2980:
 11535 1c52 4FF00061 		mov	r1, #134217728
 11536 1c56 1BE0     		b	.L2378
 11537              	.L2979:
ARM GAS  /tmp/ccAPlzty.s 			page 250


 11538 1c58 4FF40011 		mov	r1, #2097152
 11539 1c5c 18E0     		b	.L2378
 11540              	.L2978:
 11541 1c5e 4FF40011 		mov	r1, #2097152
 11542 1c62 15E0     		b	.L2378
 11543              	.L2977:
 11544 1c64 4FF40011 		mov	r1, #2097152
 11545 1c68 12E0     		b	.L2378
 11546              	.L2976:
 11547 1c6a 4FF40061 		mov	r1, #2048
 11548 1c6e 0FE0     		b	.L2378
 11549              	.L2975:
 11550 1c70 4FF40061 		mov	r1, #2048
 11551 1c74 0CE0     		b	.L2378
 11552              	.L2974:
 11553 1c76 4FF40061 		mov	r1, #2048
 11554 1c7a 09E0     		b	.L2378
 11555              	.L2973:
 11556 1c7c 4FF40061 		mov	r1, #2048
 11557 1c80 06E0     		b	.L2378
 11558              	.L2972:
 11559 1c82 2021     		movs	r1, #32
 11560 1c84 04E0     		b	.L2378
 11561              	.L2971:
 11562 1c86 2021     		movs	r1, #32
 11563 1c88 02E0     		b	.L2378
 11564              	.L2970:
 11565 1c8a 2021     		movs	r1, #32
 11566 1c8c 00E0     		b	.L2378
 11567              	.L2969:
 11568 1c8e 2021     		movs	r1, #32
 11569              	.L2378:
 759:../Drivers/STM32F4xx_HAL_Driver/Src/stm32f4xx_hal_dma.c ****   {
 11570              		.loc 1 759 0 discriminator 152
 11571 1c90 0A42     		tst	r2, r1
 11572 1c92 14BF     		ite	ne
 11573 1c94 0122     		movne	r2, #1
 11574 1c96 0022     		moveq	r2, #0
 11575 1c98 61E0     		b	.L2362
 11576              	.L2377:
 759:../Drivers/STM32F4xx_HAL_Driver/Src/stm32f4xx_hal_dma.c ****   {
 11577              		.loc 1 759 0 discriminator 104
 11578 1c9a 294A     		ldr	r2, .L3108
 11579 1c9c 1268     		ldr	r2, [r2]
 11580 1c9e 2A49     		ldr	r1, .L3108+8
 11581 1ca0 8B42     		cmp	r3, r1
 11582 1ca2 57D0     		beq	.L2981
 759:../Drivers/STM32F4xx_HAL_Driver/Src/stm32f4xx_hal_dma.c ****   {
 11583              		.loc 1 759 0 discriminator 154
 11584 1ca4 01F58061 		add	r1, r1, #1024
 11585 1ca8 8B42     		cmp	r3, r1
 11586 1caa 46D0     		beq	.L2982
 759:../Drivers/STM32F4xx_HAL_Driver/Src/stm32f4xx_hal_dma.c ****   {
 11587              		.loc 1 759 0 discriminator 156
 11588 1cac A1F56871 		sub	r1, r1, #928
 11589 1cb0 8B42     		cmp	r3, r1
 11590 1cb2 40D0     		beq	.L2983
ARM GAS  /tmp/ccAPlzty.s 			page 251


 759:../Drivers/STM32F4xx_HAL_Driver/Src/stm32f4xx_hal_dma.c ****   {
 11591              		.loc 1 759 0 discriminator 158
 11592 1cb4 01F58061 		add	r1, r1, #1024
 11593 1cb8 8B42     		cmp	r3, r1
 11594 1cba 3AD0     		beq	.L2984
 759:../Drivers/STM32F4xx_HAL_Driver/Src/stm32f4xx_hal_dma.c ****   {
 11595              		.loc 1 759 0 discriminator 160
 11596 1cbc A1F58961 		sub	r1, r1, #1096
 11597 1cc0 8B42     		cmp	r3, r1
 11598 1cc2 33D0     		beq	.L2985
 759:../Drivers/STM32F4xx_HAL_Driver/Src/stm32f4xx_hal_dma.c ****   {
 11599              		.loc 1 759 0 discriminator 162
 11600 1cc4 01F58061 		add	r1, r1, #1024
 11601 1cc8 8B42     		cmp	r3, r1
 11602 1cca 2CD0     		beq	.L2986
 759:../Drivers/STM32F4xx_HAL_Driver/Src/stm32f4xx_hal_dma.c ****   {
 11603              		.loc 1 759 0 discriminator 164
 11604 1ccc A1F56871 		sub	r1, r1, #928
 11605 1cd0 8B42     		cmp	r3, r1
 11606 1cd2 25D0     		beq	.L2987
 759:../Drivers/STM32F4xx_HAL_Driver/Src/stm32f4xx_hal_dma.c ****   {
 11607              		.loc 1 759 0 discriminator 166
 11608 1cd4 01F58061 		add	r1, r1, #1024
 11609 1cd8 8B42     		cmp	r3, r1
 11610 1cda 1ED0     		beq	.L2988
 759:../Drivers/STM32F4xx_HAL_Driver/Src/stm32f4xx_hal_dma.c ****   {
 11611              		.loc 1 759 0 discriminator 168
 11612 1cdc A1F58961 		sub	r1, r1, #1096
 11613 1ce0 8B42     		cmp	r3, r1
 11614 1ce2 17D0     		beq	.L2989
 759:../Drivers/STM32F4xx_HAL_Driver/Src/stm32f4xx_hal_dma.c ****   {
 11615              		.loc 1 759 0 discriminator 170
 11616 1ce4 01F58061 		add	r1, r1, #1024
 11617 1ce8 8B42     		cmp	r3, r1
 11618 1cea 10D0     		beq	.L2990
 759:../Drivers/STM32F4xx_HAL_Driver/Src/stm32f4xx_hal_dma.c ****   {
 11619              		.loc 1 759 0 discriminator 172
 11620 1cec A1F56871 		sub	r1, r1, #928
 11621 1cf0 8B42     		cmp	r3, r1
 11622 1cf2 09D0     		beq	.L2991
 759:../Drivers/STM32F4xx_HAL_Driver/Src/stm32f4xx_hal_dma.c ****   {
 11623              		.loc 1 759 0 discriminator 174
 11624 1cf4 01F58061 		add	r1, r1, #1024
 11625 1cf8 8B42     		cmp	r3, r1
 11626 1cfa 02D1     		bne	.L2992
 759:../Drivers/STM32F4xx_HAL_Driver/Src/stm32f4xx_hal_dma.c ****   {
 11627              		.loc 1 759 0
 11628 1cfc 4FF40011 		mov	r1, #2097152
 11629 1d00 29E0     		b	.L2391
 11630              	.L2992:
 11631 1d02 4FF00061 		mov	r1, #134217728
 11632 1d06 26E0     		b	.L2391
 11633              	.L2991:
 11634 1d08 4FF40011 		mov	r1, #2097152
 11635 1d0c 23E0     		b	.L2391
 11636              	.L2990:
 11637 1d0e 4FF40011 		mov	r1, #2097152
ARM GAS  /tmp/ccAPlzty.s 			page 252


 11638 1d12 20E0     		b	.L2391
 11639              	.L2989:
 11640 1d14 4FF40011 		mov	r1, #2097152
 11641 1d18 1DE0     		b	.L2391
 11642              	.L2988:
 11643 1d1a 4FF40061 		mov	r1, #2048
 11644 1d1e 1AE0     		b	.L2391
 11645              	.L2987:
 11646 1d20 4FF40061 		mov	r1, #2048
 11647 1d24 17E0     		b	.L2391
 11648              	.L2986:
 11649 1d26 4FF40061 		mov	r1, #2048
 11650 1d2a 14E0     		b	.L2391
 11651              	.L2985:
 11652 1d2c 4FF40061 		mov	r1, #2048
 11653 1d30 11E0     		b	.L2391
 11654              	.L2984:
 11655 1d32 2021     		movs	r1, #32
 11656 1d34 0FE0     		b	.L2391
 11657              	.L2983:
 11658 1d36 2021     		movs	r1, #32
 11659 1d38 0DE0     		b	.L2391
 11660              	.L2982:
 11661 1d3a 2021     		movs	r1, #32
 11662 1d3c 0BE0     		b	.L2391
 11663              	.L3109:
 11664 1d3e 00BF     		.align	2
 11665              	.L3108:
 11666 1d40 00600240 		.word	1073897472
 11667 1d44 58640240 		.word	1073898584
 11668 1d48 10600240 		.word	1073897488
 11669 1d4c B8600240 		.word	1073897656
 11670 1d50 58600240 		.word	1073897560
 11671              	.L2981:
 11672 1d54 2021     		movs	r1, #32
 11673              	.L2391:
 759:../Drivers/STM32F4xx_HAL_Driver/Src/stm32f4xx_hal_dma.c ****   {
 11674              		.loc 1 759 0 discriminator 201
 11675 1d56 0A42     		tst	r2, r1
 11676 1d58 14BF     		ite	ne
 11677 1d5a 0122     		movne	r2, #1
 11678 1d5c 0022     		moveq	r2, #0
 11679              	.L2362:
 759:../Drivers/STM32F4xx_HAL_Driver/Src/stm32f4xx_hal_dma.c ****   {
 11680              		.loc 1 759 0 discriminator 204
 11681 1d5e 002A     		cmp	r2, #0
 11682 1d60 00F0F682 		beq	.L1859
 761:../Drivers/STM32F4xx_HAL_Driver/Src/stm32f4xx_hal_dma.c ****     {
 11683              		.loc 1 761 0 is_stmt 1
 11684 1d64 1A68     		ldr	r2, [r3]
 11685 1d66 12F0100F 		tst	r2, #16
 11686 1d6a 00F0F182 		beq	.L1859
 763:../Drivers/STM32F4xx_HAL_Driver/Src/stm32f4xx_hal_dma.c ****       {
 11687              		.loc 1 763 0
 11688 1d6e 1A68     		ldr	r2, [r3]
 11689 1d70 12F4802F 		tst	r2, #262144
 11690 1d74 00F07E81 		beq	.L2404
ARM GAS  /tmp/ccAPlzty.s 			page 253


 766:../Drivers/STM32F4xx_HAL_Driver/Src/stm32f4xx_hal_dma.c **** 
 11691              		.loc 1 766 0
 11692 1d78 B84A     		ldr	r2, .L3110
 11693 1d7a 9342     		cmp	r3, r2
 11694 1d7c 54D9     		bls	.L2405
 766:../Drivers/STM32F4xx_HAL_Driver/Src/stm32f4xx_hal_dma.c **** 
 11695              		.loc 1 766 0 is_stmt 0 discriminator 1
 11696 1d7e A2F58962 		sub	r2, r2, #1096
 11697 1d82 9342     		cmp	r3, r2
 11698 1d84 4CD0     		beq	.L2993
 766:../Drivers/STM32F4xx_HAL_Driver/Src/stm32f4xx_hal_dma.c **** 
 11699              		.loc 1 766 0 discriminator 3
 11700 1d86 02F58062 		add	r2, r2, #1024
 11701 1d8a 9342     		cmp	r3, r2
 11702 1d8c 46D0     		beq	.L2994
 766:../Drivers/STM32F4xx_HAL_Driver/Src/stm32f4xx_hal_dma.c **** 
 11703              		.loc 1 766 0 discriminator 5
 11704 1d8e A2F56872 		sub	r2, r2, #928
 11705 1d92 9342     		cmp	r3, r2
 11706 1d94 40D0     		beq	.L2995
 766:../Drivers/STM32F4xx_HAL_Driver/Src/stm32f4xx_hal_dma.c **** 
 11707              		.loc 1 766 0 discriminator 7
 11708 1d96 02F58062 		add	r2, r2, #1024
 11709 1d9a 9342     		cmp	r3, r2
 11710 1d9c 3AD0     		beq	.L2996
 766:../Drivers/STM32F4xx_HAL_Driver/Src/stm32f4xx_hal_dma.c **** 
 11711              		.loc 1 766 0 discriminator 9
 11712 1d9e A2F58962 		sub	r2, r2, #1096
 11713 1da2 9342     		cmp	r3, r2
 11714 1da4 33D0     		beq	.L2997
 766:../Drivers/STM32F4xx_HAL_Driver/Src/stm32f4xx_hal_dma.c **** 
 11715              		.loc 1 766 0 discriminator 11
 11716 1da6 02F58062 		add	r2, r2, #1024
 11717 1daa 9342     		cmp	r3, r2
 11718 1dac 2CD0     		beq	.L2998
 766:../Drivers/STM32F4xx_HAL_Driver/Src/stm32f4xx_hal_dma.c **** 
 11719              		.loc 1 766 0 discriminator 13
 11720 1dae A2F56872 		sub	r2, r2, #928
 11721 1db2 9342     		cmp	r3, r2
 11722 1db4 25D0     		beq	.L2999
 766:../Drivers/STM32F4xx_HAL_Driver/Src/stm32f4xx_hal_dma.c **** 
 11723              		.loc 1 766 0 discriminator 15
 11724 1db6 02F58062 		add	r2, r2, #1024
 11725 1dba 9342     		cmp	r3, r2
 11726 1dbc 1ED0     		beq	.L3000
 766:../Drivers/STM32F4xx_HAL_Driver/Src/stm32f4xx_hal_dma.c **** 
 11727              		.loc 1 766 0 discriminator 17
 11728 1dbe A2F58962 		sub	r2, r2, #1096
 11729 1dc2 9342     		cmp	r3, r2
 11730 1dc4 17D0     		beq	.L3001
 766:../Drivers/STM32F4xx_HAL_Driver/Src/stm32f4xx_hal_dma.c **** 
 11731              		.loc 1 766 0 discriminator 19
 11732 1dc6 02F58062 		add	r2, r2, #1024
 11733 1dca 9342     		cmp	r3, r2
 11734 1dcc 10D0     		beq	.L3002
 766:../Drivers/STM32F4xx_HAL_Driver/Src/stm32f4xx_hal_dma.c **** 
 11735              		.loc 1 766 0 discriminator 21
ARM GAS  /tmp/ccAPlzty.s 			page 254


 11736 1dce A2F56872 		sub	r2, r2, #928
 11737 1dd2 9342     		cmp	r3, r2
 11738 1dd4 09D0     		beq	.L3003
 766:../Drivers/STM32F4xx_HAL_Driver/Src/stm32f4xx_hal_dma.c **** 
 11739              		.loc 1 766 0 discriminator 23
 11740 1dd6 02F58062 		add	r2, r2, #1024
 11741 1dda 9342     		cmp	r3, r2
 11742 1ddc 02D1     		bne	.L3004
 766:../Drivers/STM32F4xx_HAL_Driver/Src/stm32f4xx_hal_dma.c **** 
 11743              		.loc 1 766 0
 11744 1dde 4FF40012 		mov	r2, #2097152
 11745 1de2 1EE0     		b	.L2406
 11746              	.L3004:
 11747 1de4 4FF00062 		mov	r2, #134217728
 11748 1de8 1BE0     		b	.L2406
 11749              	.L3003:
 11750 1dea 4FF40012 		mov	r2, #2097152
 11751 1dee 18E0     		b	.L2406
 11752              	.L3002:
 11753 1df0 4FF40012 		mov	r2, #2097152
 11754 1df4 15E0     		b	.L2406
 11755              	.L3001:
 11756 1df6 4FF40012 		mov	r2, #2097152
 11757 1dfa 12E0     		b	.L2406
 11758              	.L3000:
 11759 1dfc 4FF40062 		mov	r2, #2048
 11760 1e00 0FE0     		b	.L2406
 11761              	.L2999:
 11762 1e02 4FF40062 		mov	r2, #2048
 11763 1e06 0CE0     		b	.L2406
 11764              	.L2998:
 11765 1e08 4FF40062 		mov	r2, #2048
 11766 1e0c 09E0     		b	.L2406
 11767              	.L2997:
 11768 1e0e 4FF40062 		mov	r2, #2048
 11769 1e12 06E0     		b	.L2406
 11770              	.L2996:
 11771 1e14 2022     		movs	r2, #32
 11772 1e16 04E0     		b	.L2406
 11773              	.L2995:
 11774 1e18 2022     		movs	r2, #32
 11775 1e1a 02E0     		b	.L2406
 11776              	.L2994:
 11777 1e1c 2022     		movs	r2, #32
 11778 1e1e 00E0     		b	.L2406
 11779              	.L2993:
 11780 1e20 2022     		movs	r2, #32
 11781              	.L2406:
 766:../Drivers/STM32F4xx_HAL_Driver/Src/stm32f4xx_hal_dma.c **** 
 11782              		.loc 1 766 0 discriminator 50
 11783 1e22 8F4B     		ldr	r3, .L3110+4
 11784 1e24 DA60     		str	r2, [r3, #12]
 11785 1e26 00E1     		b	.L2418
 11786              	.L2405:
 766:../Drivers/STM32F4xx_HAL_Driver/Src/stm32f4xx_hal_dma.c **** 
 11787              		.loc 1 766 0 discriminator 2
 11788 1e28 8E4A     		ldr	r2, .L3110+8
ARM GAS  /tmp/ccAPlzty.s 			page 255


 11789 1e2a 9342     		cmp	r3, r2
 11790 1e2c 53D9     		bls	.L2419
 766:../Drivers/STM32F4xx_HAL_Driver/Src/stm32f4xx_hal_dma.c **** 
 11791              		.loc 1 766 0 discriminator 51
 11792 1e2e A83A     		subs	r2, r2, #168
 11793 1e30 9342     		cmp	r3, r2
 11794 1e32 4CD0     		beq	.L3005
 766:../Drivers/STM32F4xx_HAL_Driver/Src/stm32f4xx_hal_dma.c **** 
 11795              		.loc 1 766 0 discriminator 53
 11796 1e34 02F58062 		add	r2, r2, #1024
 11797 1e38 9342     		cmp	r3, r2
 11798 1e3a 46D0     		beq	.L3006
 766:../Drivers/STM32F4xx_HAL_Driver/Src/stm32f4xx_hal_dma.c **** 
 11799              		.loc 1 766 0 discriminator 55
 11800 1e3c A2F56872 		sub	r2, r2, #928
 11801 1e40 9342     		cmp	r3, r2
 11802 1e42 40D0     		beq	.L3007
 766:../Drivers/STM32F4xx_HAL_Driver/Src/stm32f4xx_hal_dma.c **** 
 11803              		.loc 1 766 0 discriminator 57
 11804 1e44 02F58062 		add	r2, r2, #1024
 11805 1e48 9342     		cmp	r3, r2
 11806 1e4a 3AD0     		beq	.L3008
 766:../Drivers/STM32F4xx_HAL_Driver/Src/stm32f4xx_hal_dma.c **** 
 11807              		.loc 1 766 0 discriminator 59
 11808 1e4c A2F58962 		sub	r2, r2, #1096
 11809 1e50 9342     		cmp	r3, r2
 11810 1e52 33D0     		beq	.L3009
 766:../Drivers/STM32F4xx_HAL_Driver/Src/stm32f4xx_hal_dma.c **** 
 11811              		.loc 1 766 0 discriminator 61
 11812 1e54 02F58062 		add	r2, r2, #1024
 11813 1e58 9342     		cmp	r3, r2
 11814 1e5a 2CD0     		beq	.L3010
 766:../Drivers/STM32F4xx_HAL_Driver/Src/stm32f4xx_hal_dma.c **** 
 11815              		.loc 1 766 0 discriminator 63
 11816 1e5c A2F56872 		sub	r2, r2, #928
 11817 1e60 9342     		cmp	r3, r2
 11818 1e62 25D0     		beq	.L3011
 766:../Drivers/STM32F4xx_HAL_Driver/Src/stm32f4xx_hal_dma.c **** 
 11819              		.loc 1 766 0 discriminator 65
 11820 1e64 02F58062 		add	r2, r2, #1024
 11821 1e68 9342     		cmp	r3, r2
 11822 1e6a 1ED0     		beq	.L3012
 766:../Drivers/STM32F4xx_HAL_Driver/Src/stm32f4xx_hal_dma.c **** 
 11823              		.loc 1 766 0 discriminator 67
 11824 1e6c A2F58962 		sub	r2, r2, #1096
 11825 1e70 9342     		cmp	r3, r2
 11826 1e72 17D0     		beq	.L3013
 766:../Drivers/STM32F4xx_HAL_Driver/Src/stm32f4xx_hal_dma.c **** 
 11827              		.loc 1 766 0 discriminator 69
 11828 1e74 02F58062 		add	r2, r2, #1024
 11829 1e78 9342     		cmp	r3, r2
 11830 1e7a 10D0     		beq	.L3014
 766:../Drivers/STM32F4xx_HAL_Driver/Src/stm32f4xx_hal_dma.c **** 
 11831              		.loc 1 766 0 discriminator 71
 11832 1e7c A2F56872 		sub	r2, r2, #928
 11833 1e80 9342     		cmp	r3, r2
 11834 1e82 09D0     		beq	.L3015
ARM GAS  /tmp/ccAPlzty.s 			page 256


 766:../Drivers/STM32F4xx_HAL_Driver/Src/stm32f4xx_hal_dma.c **** 
 11835              		.loc 1 766 0 discriminator 73
 11836 1e84 02F58062 		add	r2, r2, #1024
 11837 1e88 9342     		cmp	r3, r2
 11838 1e8a 02D1     		bne	.L3016
 766:../Drivers/STM32F4xx_HAL_Driver/Src/stm32f4xx_hal_dma.c **** 
 11839              		.loc 1 766 0
 11840 1e8c 4FF40012 		mov	r2, #2097152
 11841 1e90 1EE0     		b	.L2420
 11842              	.L3016:
 11843 1e92 4FF00062 		mov	r2, #134217728
 11844 1e96 1BE0     		b	.L2420
 11845              	.L3015:
 11846 1e98 4FF40012 		mov	r2, #2097152
 11847 1e9c 18E0     		b	.L2420
 11848              	.L3014:
 11849 1e9e 4FF40012 		mov	r2, #2097152
 11850 1ea2 15E0     		b	.L2420
 11851              	.L3013:
 11852 1ea4 4FF40012 		mov	r2, #2097152
 11853 1ea8 12E0     		b	.L2420
 11854              	.L3012:
 11855 1eaa 4FF40062 		mov	r2, #2048
 11856 1eae 0FE0     		b	.L2420
 11857              	.L3011:
 11858 1eb0 4FF40062 		mov	r2, #2048
 11859 1eb4 0CE0     		b	.L2420
 11860              	.L3010:
 11861 1eb6 4FF40062 		mov	r2, #2048
 11862 1eba 09E0     		b	.L2420
 11863              	.L3009:
 11864 1ebc 4FF40062 		mov	r2, #2048
 11865 1ec0 06E0     		b	.L2420
 11866              	.L3008:
 11867 1ec2 2022     		movs	r2, #32
 11868 1ec4 04E0     		b	.L2420
 11869              	.L3007:
 11870 1ec6 2022     		movs	r2, #32
 11871 1ec8 02E0     		b	.L2420
 11872              	.L3006:
 11873 1eca 2022     		movs	r2, #32
 11874 1ecc 00E0     		b	.L2420
 11875              	.L3005:
 11876 1ece 2022     		movs	r2, #32
 11877              	.L2420:
 766:../Drivers/STM32F4xx_HAL_Driver/Src/stm32f4xx_hal_dma.c **** 
 11878              		.loc 1 766 0 discriminator 100
 11879 1ed0 634B     		ldr	r3, .L3110+4
 11880 1ed2 9A60     		str	r2, [r3, #8]
 11881 1ed4 A9E0     		b	.L2418
 11882              	.L2419:
 766:../Drivers/STM32F4xx_HAL_Driver/Src/stm32f4xx_hal_dma.c **** 
 11883              		.loc 1 766 0 discriminator 52
 11884 1ed6 644A     		ldr	r2, .L3110+12
 11885 1ed8 9342     		cmp	r3, r2
 11886 1eda 53D9     		bls	.L2432
 766:../Drivers/STM32F4xx_HAL_Driver/Src/stm32f4xx_hal_dma.c **** 
ARM GAS  /tmp/ccAPlzty.s 			page 257


 11887              		.loc 1 766 0 discriminator 102
 11888 1edc 483A     		subs	r2, r2, #72
 11889 1ede 9342     		cmp	r3, r2
 11890 1ee0 4CD0     		beq	.L3017
 766:../Drivers/STM32F4xx_HAL_Driver/Src/stm32f4xx_hal_dma.c **** 
 11891              		.loc 1 766 0 discriminator 104
 11892 1ee2 02F58062 		add	r2, r2, #1024
 11893 1ee6 9342     		cmp	r3, r2
 11894 1ee8 46D0     		beq	.L3018
 766:../Drivers/STM32F4xx_HAL_Driver/Src/stm32f4xx_hal_dma.c **** 
 11895              		.loc 1 766 0 discriminator 106
 11896 1eea A2F56872 		sub	r2, r2, #928
 11897 1eee 9342     		cmp	r3, r2
 11898 1ef0 40D0     		beq	.L3019
 766:../Drivers/STM32F4xx_HAL_Driver/Src/stm32f4xx_hal_dma.c **** 
 11899              		.loc 1 766 0 discriminator 108
 11900 1ef2 02F58062 		add	r2, r2, #1024
 11901 1ef6 9342     		cmp	r3, r2
 11902 1ef8 3AD0     		beq	.L3020
 766:../Drivers/STM32F4xx_HAL_Driver/Src/stm32f4xx_hal_dma.c **** 
 11903              		.loc 1 766 0 discriminator 110
 11904 1efa A2F58962 		sub	r2, r2, #1096
 11905 1efe 9342     		cmp	r3, r2
 11906 1f00 33D0     		beq	.L3021
 766:../Drivers/STM32F4xx_HAL_Driver/Src/stm32f4xx_hal_dma.c **** 
 11907              		.loc 1 766 0 discriminator 112
 11908 1f02 02F58062 		add	r2, r2, #1024
 11909 1f06 9342     		cmp	r3, r2
 11910 1f08 2CD0     		beq	.L3022
 766:../Drivers/STM32F4xx_HAL_Driver/Src/stm32f4xx_hal_dma.c **** 
 11911              		.loc 1 766 0 discriminator 114
 11912 1f0a A2F56872 		sub	r2, r2, #928
 11913 1f0e 9342     		cmp	r3, r2
 11914 1f10 25D0     		beq	.L3023
 766:../Drivers/STM32F4xx_HAL_Driver/Src/stm32f4xx_hal_dma.c **** 
 11915              		.loc 1 766 0 discriminator 116
 11916 1f12 02F58062 		add	r2, r2, #1024
 11917 1f16 9342     		cmp	r3, r2
 11918 1f18 1ED0     		beq	.L3024
 766:../Drivers/STM32F4xx_HAL_Driver/Src/stm32f4xx_hal_dma.c **** 
 11919              		.loc 1 766 0 discriminator 118
 11920 1f1a A2F58962 		sub	r2, r2, #1096
 11921 1f1e 9342     		cmp	r3, r2
 11922 1f20 17D0     		beq	.L3025
 766:../Drivers/STM32F4xx_HAL_Driver/Src/stm32f4xx_hal_dma.c **** 
 11923              		.loc 1 766 0 discriminator 120
 11924 1f22 02F58062 		add	r2, r2, #1024
 11925 1f26 9342     		cmp	r3, r2
 11926 1f28 10D0     		beq	.L3026
 766:../Drivers/STM32F4xx_HAL_Driver/Src/stm32f4xx_hal_dma.c **** 
 11927              		.loc 1 766 0 discriminator 122
 11928 1f2a A2F56872 		sub	r2, r2, #928
 11929 1f2e 9342     		cmp	r3, r2
 11930 1f30 09D0     		beq	.L3027
 766:../Drivers/STM32F4xx_HAL_Driver/Src/stm32f4xx_hal_dma.c **** 
 11931              		.loc 1 766 0 discriminator 124
 11932 1f32 02F58062 		add	r2, r2, #1024
ARM GAS  /tmp/ccAPlzty.s 			page 258


 11933 1f36 9342     		cmp	r3, r2
 11934 1f38 02D1     		bne	.L3028
 766:../Drivers/STM32F4xx_HAL_Driver/Src/stm32f4xx_hal_dma.c **** 
 11935              		.loc 1 766 0
 11936 1f3a 4FF40013 		mov	r3, #2097152
 11937 1f3e 1EE0     		b	.L2433
 11938              	.L3028:
 11939 1f40 4FF00063 		mov	r3, #134217728
 11940 1f44 1BE0     		b	.L2433
 11941              	.L3027:
 11942 1f46 4FF40013 		mov	r3, #2097152
 11943 1f4a 18E0     		b	.L2433
 11944              	.L3026:
 11945 1f4c 4FF40013 		mov	r3, #2097152
 11946 1f50 15E0     		b	.L2433
 11947              	.L3025:
 11948 1f52 4FF40013 		mov	r3, #2097152
 11949 1f56 12E0     		b	.L2433
 11950              	.L3024:
 11951 1f58 4FF40063 		mov	r3, #2048
 11952 1f5c 0FE0     		b	.L2433
 11953              	.L3023:
 11954 1f5e 4FF40063 		mov	r3, #2048
 11955 1f62 0CE0     		b	.L2433
 11956              	.L3022:
 11957 1f64 4FF40063 		mov	r3, #2048
 11958 1f68 09E0     		b	.L2433
 11959              	.L3021:
 11960 1f6a 4FF40063 		mov	r3, #2048
 11961 1f6e 06E0     		b	.L2433
 11962              	.L3020:
 11963 1f70 2023     		movs	r3, #32
 11964 1f72 04E0     		b	.L2433
 11965              	.L3019:
 11966 1f74 2023     		movs	r3, #32
 11967 1f76 02E0     		b	.L2433
 11968              	.L3018:
 11969 1f78 2023     		movs	r3, #32
 11970 1f7a 00E0     		b	.L2433
 11971              	.L3017:
 11972 1f7c 2023     		movs	r3, #32
 11973              	.L2433:
 766:../Drivers/STM32F4xx_HAL_Driver/Src/stm32f4xx_hal_dma.c **** 
 11974              		.loc 1 766 0 discriminator 151
 11975 1f7e 3B4A     		ldr	r2, .L3110+16
 11976 1f80 D360     		str	r3, [r2, #12]
 11977 1f82 52E0     		b	.L2418
 11978              	.L2432:
 766:../Drivers/STM32F4xx_HAL_Driver/Src/stm32f4xx_hal_dma.c **** 
 11979              		.loc 1 766 0 discriminator 103
 11980 1f84 3A4A     		ldr	r2, .L3110+20
 11981 1f86 9342     		cmp	r3, r2
 11982 1f88 4CD0     		beq	.L3029
 766:../Drivers/STM32F4xx_HAL_Driver/Src/stm32f4xx_hal_dma.c **** 
 11983              		.loc 1 766 0 discriminator 153
 11984 1f8a 02F58062 		add	r2, r2, #1024
 11985 1f8e 9342     		cmp	r3, r2
ARM GAS  /tmp/ccAPlzty.s 			page 259


 11986 1f90 46D0     		beq	.L3030
 766:../Drivers/STM32F4xx_HAL_Driver/Src/stm32f4xx_hal_dma.c **** 
 11987              		.loc 1 766 0 discriminator 155
 11988 1f92 A2F56872 		sub	r2, r2, #928
 11989 1f96 9342     		cmp	r3, r2
 11990 1f98 40D0     		beq	.L3031
 766:../Drivers/STM32F4xx_HAL_Driver/Src/stm32f4xx_hal_dma.c **** 
 11991              		.loc 1 766 0 discriminator 157
 11992 1f9a 02F58062 		add	r2, r2, #1024
 11993 1f9e 9342     		cmp	r3, r2
 11994 1fa0 3AD0     		beq	.L3032
 766:../Drivers/STM32F4xx_HAL_Driver/Src/stm32f4xx_hal_dma.c **** 
 11995              		.loc 1 766 0 discriminator 159
 11996 1fa2 A2F58962 		sub	r2, r2, #1096
 11997 1fa6 9342     		cmp	r3, r2
 11998 1fa8 33D0     		beq	.L3033
 766:../Drivers/STM32F4xx_HAL_Driver/Src/stm32f4xx_hal_dma.c **** 
 11999              		.loc 1 766 0 discriminator 161
 12000 1faa 02F58062 		add	r2, r2, #1024
 12001 1fae 9342     		cmp	r3, r2
 12002 1fb0 2CD0     		beq	.L3034
 766:../Drivers/STM32F4xx_HAL_Driver/Src/stm32f4xx_hal_dma.c **** 
 12003              		.loc 1 766 0 discriminator 163
 12004 1fb2 A2F56872 		sub	r2, r2, #928
 12005 1fb6 9342     		cmp	r3, r2
 12006 1fb8 25D0     		beq	.L3035
 766:../Drivers/STM32F4xx_HAL_Driver/Src/stm32f4xx_hal_dma.c **** 
 12007              		.loc 1 766 0 discriminator 165
 12008 1fba 02F58062 		add	r2, r2, #1024
 12009 1fbe 9342     		cmp	r3, r2
 12010 1fc0 1ED0     		beq	.L3036
 766:../Drivers/STM32F4xx_HAL_Driver/Src/stm32f4xx_hal_dma.c **** 
 12011              		.loc 1 766 0 discriminator 167
 12012 1fc2 A2F58962 		sub	r2, r2, #1096
 12013 1fc6 9342     		cmp	r3, r2
 12014 1fc8 17D0     		beq	.L3037
 766:../Drivers/STM32F4xx_HAL_Driver/Src/stm32f4xx_hal_dma.c **** 
 12015              		.loc 1 766 0 discriminator 169
 12016 1fca 02F58062 		add	r2, r2, #1024
 12017 1fce 9342     		cmp	r3, r2
 12018 1fd0 10D0     		beq	.L3038
 766:../Drivers/STM32F4xx_HAL_Driver/Src/stm32f4xx_hal_dma.c **** 
 12019              		.loc 1 766 0 discriminator 171
 12020 1fd2 A2F56872 		sub	r2, r2, #928
 12021 1fd6 9342     		cmp	r3, r2
 12022 1fd8 09D0     		beq	.L3039
 766:../Drivers/STM32F4xx_HAL_Driver/Src/stm32f4xx_hal_dma.c **** 
 12023              		.loc 1 766 0 discriminator 173
 12024 1fda 02F58062 		add	r2, r2, #1024
 12025 1fde 9342     		cmp	r3, r2
 12026 1fe0 02D1     		bne	.L3040
 766:../Drivers/STM32F4xx_HAL_Driver/Src/stm32f4xx_hal_dma.c **** 
 12027              		.loc 1 766 0
 12028 1fe2 4FF40013 		mov	r3, #2097152
 12029 1fe6 1EE0     		b	.L2446
 12030              	.L3040:
 12031 1fe8 4FF00063 		mov	r3, #134217728
ARM GAS  /tmp/ccAPlzty.s 			page 260


 12032 1fec 1BE0     		b	.L2446
 12033              	.L3039:
 12034 1fee 4FF40013 		mov	r3, #2097152
 12035 1ff2 18E0     		b	.L2446
 12036              	.L3038:
 12037 1ff4 4FF40013 		mov	r3, #2097152
 12038 1ff8 15E0     		b	.L2446
 12039              	.L3037:
 12040 1ffa 4FF40013 		mov	r3, #2097152
 12041 1ffe 12E0     		b	.L2446
 12042              	.L3036:
 12043 2000 4FF40063 		mov	r3, #2048
 12044 2004 0FE0     		b	.L2446
 12045              	.L3035:
 12046 2006 4FF40063 		mov	r3, #2048
 12047 200a 0CE0     		b	.L2446
 12048              	.L3034:
 12049 200c 4FF40063 		mov	r3, #2048
 12050 2010 09E0     		b	.L2446
 12051              	.L3033:
 12052 2012 4FF40063 		mov	r3, #2048
 12053 2016 06E0     		b	.L2446
 12054              	.L3032:
 12055 2018 2023     		movs	r3, #32
 12056 201a 04E0     		b	.L2446
 12057              	.L3031:
 12058 201c 2023     		movs	r3, #32
 12059 201e 02E0     		b	.L2446
 12060              	.L3030:
 12061 2020 2023     		movs	r3, #32
 12062 2022 00E0     		b	.L2446
 12063              	.L3029:
 12064 2024 2023     		movs	r3, #32
 12065              	.L2446:
 766:../Drivers/STM32F4xx_HAL_Driver/Src/stm32f4xx_hal_dma.c **** 
 12066              		.loc 1 766 0 discriminator 200
 12067 2026 114A     		ldr	r2, .L3110+16
 12068 2028 9360     		str	r3, [r2, #8]
 12069              	.L2418:
 769:../Drivers/STM32F4xx_HAL_Driver/Src/stm32f4xx_hal_dma.c ****         {
 12070              		.loc 1 769 0 is_stmt 1
 12071 202a 2368     		ldr	r3, [r4]
 12072 202c 1A68     		ldr	r2, [r3]
 12073 202e 12F4002F 		tst	r2, #524288
 12074 2032 06D1     		bne	.L2458
 771:../Drivers/STM32F4xx_HAL_Driver/Src/stm32f4xx_hal_dma.c ****           {
 12075              		.loc 1 771 0
 12076 2034 636C     		ldr	r3, [r4, #68]
 12077 2036 002B     		cmp	r3, #0
 12078 2038 00F08A81 		beq	.L1859
 774:../Drivers/STM32F4xx_HAL_Driver/Src/stm32f4xx_hal_dma.c ****           }
 12079              		.loc 1 774 0
 12080 203c 2046     		mov	r0, r4
 12081 203e 9847     		blx	r3
 12082              	.LVL72:
 12083 2040 10BD     		pop	{r4, pc}
 12084              	.LVL73:
ARM GAS  /tmp/ccAPlzty.s 			page 261


 12085              	.L2458:
 778:../Drivers/STM32F4xx_HAL_Driver/Src/stm32f4xx_hal_dma.c ****         {
 12086              		.loc 1 778 0
 12087 2042 1B68     		ldr	r3, [r3]
 12088 2044 13F4002F 		tst	r3, #524288
 12089 2048 00F08281 		beq	.L1859
 780:../Drivers/STM32F4xx_HAL_Driver/Src/stm32f4xx_hal_dma.c ****           {
 12090              		.loc 1 780 0
 12091 204c E36B     		ldr	r3, [r4, #60]
 12092 204e 002B     		cmp	r3, #0
 12093 2050 00F07E81 		beq	.L1859
 783:../Drivers/STM32F4xx_HAL_Driver/Src/stm32f4xx_hal_dma.c ****           }
 12094              		.loc 1 783 0
 12095 2054 2046     		mov	r0, r4
 12096 2056 9847     		blx	r3
 12097              	.LVL74:
 12098 2058 10BD     		pop	{r4, pc}
 12099              	.LVL75:
 12100              	.L3111:
 12101 205a 00BF     		.align	2
 12102              	.L3110:
 12103 205c 58640240 		.word	1073898584
 12104 2060 00640240 		.word	1073898496
 12105 2064 B8600240 		.word	1073897656
 12106 2068 58600240 		.word	1073897560
 12107 206c 00600240 		.word	1073897472
 12108 2070 10600240 		.word	1073897488
 12109              	.LVL76:
 12110              	.L2404:
 790:../Drivers/STM32F4xx_HAL_Driver/Src/stm32f4xx_hal_dma.c ****         {
 12111              		.loc 1 790 0
 12112 2074 1A68     		ldr	r2, [r3]
 12113 2076 12F4807F 		tst	r2, #256
 12114 207a 03D1     		bne	.L2459
 793:../Drivers/STM32F4xx_HAL_Driver/Src/stm32f4xx_hal_dma.c ****         }
 12115              		.loc 1 793 0
 12116 207c 1A68     		ldr	r2, [r3]
 12117 207e 22F01002 		bic	r2, r2, #16
 12118 2082 1A60     		str	r2, [r3]
 12119              	.L2459:
 796:../Drivers/STM32F4xx_HAL_Driver/Src/stm32f4xx_hal_dma.c **** 
 12120              		.loc 1 796 0
 12121 2084 2368     		ldr	r3, [r4]
 12122 2086 B34A     		ldr	r2, .L3112
 12123 2088 9342     		cmp	r3, r2
 12124 208a 54D9     		bls	.L2460
 796:../Drivers/STM32F4xx_HAL_Driver/Src/stm32f4xx_hal_dma.c **** 
 12125              		.loc 1 796 0 is_stmt 0 discriminator 1
 12126 208c A2F58962 		sub	r2, r2, #1096
 12127 2090 9342     		cmp	r3, r2
 12128 2092 4CD0     		beq	.L3041
 796:../Drivers/STM32F4xx_HAL_Driver/Src/stm32f4xx_hal_dma.c **** 
 12129              		.loc 1 796 0 discriminator 3
 12130 2094 02F58062 		add	r2, r2, #1024
 12131 2098 9342     		cmp	r3, r2
 12132 209a 46D0     		beq	.L3042
 796:../Drivers/STM32F4xx_HAL_Driver/Src/stm32f4xx_hal_dma.c **** 
ARM GAS  /tmp/ccAPlzty.s 			page 262


 12133              		.loc 1 796 0 discriminator 5
 12134 209c A2F56872 		sub	r2, r2, #928
 12135 20a0 9342     		cmp	r3, r2
 12136 20a2 40D0     		beq	.L3043
 796:../Drivers/STM32F4xx_HAL_Driver/Src/stm32f4xx_hal_dma.c **** 
 12137              		.loc 1 796 0 discriminator 7
 12138 20a4 02F58062 		add	r2, r2, #1024
 12139 20a8 9342     		cmp	r3, r2
 12140 20aa 3AD0     		beq	.L3044
 796:../Drivers/STM32F4xx_HAL_Driver/Src/stm32f4xx_hal_dma.c **** 
 12141              		.loc 1 796 0 discriminator 9
 12142 20ac A2F58962 		sub	r2, r2, #1096
 12143 20b0 9342     		cmp	r3, r2
 12144 20b2 33D0     		beq	.L3045
 796:../Drivers/STM32F4xx_HAL_Driver/Src/stm32f4xx_hal_dma.c **** 
 12145              		.loc 1 796 0 discriminator 11
 12146 20b4 02F58062 		add	r2, r2, #1024
 12147 20b8 9342     		cmp	r3, r2
 12148 20ba 2CD0     		beq	.L3046
 796:../Drivers/STM32F4xx_HAL_Driver/Src/stm32f4xx_hal_dma.c **** 
 12149              		.loc 1 796 0 discriminator 13
 12150 20bc A2F56872 		sub	r2, r2, #928
 12151 20c0 9342     		cmp	r3, r2
 12152 20c2 25D0     		beq	.L3047
 796:../Drivers/STM32F4xx_HAL_Driver/Src/stm32f4xx_hal_dma.c **** 
 12153              		.loc 1 796 0 discriminator 15
 12154 20c4 02F58062 		add	r2, r2, #1024
 12155 20c8 9342     		cmp	r3, r2
 12156 20ca 1ED0     		beq	.L3048
 796:../Drivers/STM32F4xx_HAL_Driver/Src/stm32f4xx_hal_dma.c **** 
 12157              		.loc 1 796 0 discriminator 17
 12158 20cc A2F58962 		sub	r2, r2, #1096
 12159 20d0 9342     		cmp	r3, r2
 12160 20d2 17D0     		beq	.L3049
 796:../Drivers/STM32F4xx_HAL_Driver/Src/stm32f4xx_hal_dma.c **** 
 12161              		.loc 1 796 0 discriminator 19
 12162 20d4 02F58062 		add	r2, r2, #1024
 12163 20d8 9342     		cmp	r3, r2
 12164 20da 10D0     		beq	.L3050
 796:../Drivers/STM32F4xx_HAL_Driver/Src/stm32f4xx_hal_dma.c **** 
 12165              		.loc 1 796 0 discriminator 21
 12166 20dc A2F56872 		sub	r2, r2, #928
 12167 20e0 9342     		cmp	r3, r2
 12168 20e2 09D0     		beq	.L3051
 796:../Drivers/STM32F4xx_HAL_Driver/Src/stm32f4xx_hal_dma.c **** 
 12169              		.loc 1 796 0 discriminator 23
 12170 20e4 02F58062 		add	r2, r2, #1024
 12171 20e8 9342     		cmp	r3, r2
 12172 20ea 02D1     		bne	.L3052
 796:../Drivers/STM32F4xx_HAL_Driver/Src/stm32f4xx_hal_dma.c **** 
 12173              		.loc 1 796 0
 12174 20ec 4FF40012 		mov	r2, #2097152
 12175 20f0 1EE0     		b	.L2461
 12176              	.L3052:
 12177 20f2 4FF00062 		mov	r2, #134217728
 12178 20f6 1BE0     		b	.L2461
 12179              	.L3051:
ARM GAS  /tmp/ccAPlzty.s 			page 263


 12180 20f8 4FF40012 		mov	r2, #2097152
 12181 20fc 18E0     		b	.L2461
 12182              	.L3050:
 12183 20fe 4FF40012 		mov	r2, #2097152
 12184 2102 15E0     		b	.L2461
 12185              	.L3049:
 12186 2104 4FF40012 		mov	r2, #2097152
 12187 2108 12E0     		b	.L2461
 12188              	.L3048:
 12189 210a 4FF40062 		mov	r2, #2048
 12190 210e 0FE0     		b	.L2461
 12191              	.L3047:
 12192 2110 4FF40062 		mov	r2, #2048
 12193 2114 0CE0     		b	.L2461
 12194              	.L3046:
 12195 2116 4FF40062 		mov	r2, #2048
 12196 211a 09E0     		b	.L2461
 12197              	.L3045:
 12198 211c 4FF40062 		mov	r2, #2048
 12199 2120 06E0     		b	.L2461
 12200              	.L3044:
 12201 2122 2022     		movs	r2, #32
 12202 2124 04E0     		b	.L2461
 12203              	.L3043:
 12204 2126 2022     		movs	r2, #32
 12205 2128 02E0     		b	.L2461
 12206              	.L3042:
 12207 212a 2022     		movs	r2, #32
 12208 212c 00E0     		b	.L2461
 12209              	.L3041:
 12210 212e 2022     		movs	r2, #32
 12211              	.L2461:
 796:../Drivers/STM32F4xx_HAL_Driver/Src/stm32f4xx_hal_dma.c **** 
 12212              		.loc 1 796 0 discriminator 50
 12213 2130 894B     		ldr	r3, .L3112+4
 12214 2132 DA60     		str	r2, [r3, #12]
 12215 2134 00E1     		b	.L2473
 12216              	.L2460:
 796:../Drivers/STM32F4xx_HAL_Driver/Src/stm32f4xx_hal_dma.c **** 
 12217              		.loc 1 796 0 discriminator 2
 12218 2136 894A     		ldr	r2, .L3112+8
 12219 2138 9342     		cmp	r3, r2
 12220 213a 53D9     		bls	.L2474
 796:../Drivers/STM32F4xx_HAL_Driver/Src/stm32f4xx_hal_dma.c **** 
 12221              		.loc 1 796 0 discriminator 51
 12222 213c A83A     		subs	r2, r2, #168
 12223 213e 9342     		cmp	r3, r2
 12224 2140 4CD0     		beq	.L3053
 796:../Drivers/STM32F4xx_HAL_Driver/Src/stm32f4xx_hal_dma.c **** 
 12225              		.loc 1 796 0 discriminator 53
 12226 2142 02F58062 		add	r2, r2, #1024
 12227 2146 9342     		cmp	r3, r2
 12228 2148 46D0     		beq	.L3054
 796:../Drivers/STM32F4xx_HAL_Driver/Src/stm32f4xx_hal_dma.c **** 
 12229              		.loc 1 796 0 discriminator 55
 12230 214a A2F56872 		sub	r2, r2, #928
 12231 214e 9342     		cmp	r3, r2
ARM GAS  /tmp/ccAPlzty.s 			page 264


 12232 2150 40D0     		beq	.L3055
 796:../Drivers/STM32F4xx_HAL_Driver/Src/stm32f4xx_hal_dma.c **** 
 12233              		.loc 1 796 0 discriminator 57
 12234 2152 02F58062 		add	r2, r2, #1024
 12235 2156 9342     		cmp	r3, r2
 12236 2158 3AD0     		beq	.L3056
 796:../Drivers/STM32F4xx_HAL_Driver/Src/stm32f4xx_hal_dma.c **** 
 12237              		.loc 1 796 0 discriminator 59
 12238 215a A2F58962 		sub	r2, r2, #1096
 12239 215e 9342     		cmp	r3, r2
 12240 2160 33D0     		beq	.L3057
 796:../Drivers/STM32F4xx_HAL_Driver/Src/stm32f4xx_hal_dma.c **** 
 12241              		.loc 1 796 0 discriminator 61
 12242 2162 02F58062 		add	r2, r2, #1024
 12243 2166 9342     		cmp	r3, r2
 12244 2168 2CD0     		beq	.L3058
 796:../Drivers/STM32F4xx_HAL_Driver/Src/stm32f4xx_hal_dma.c **** 
 12245              		.loc 1 796 0 discriminator 63
 12246 216a A2F56872 		sub	r2, r2, #928
 12247 216e 9342     		cmp	r3, r2
 12248 2170 25D0     		beq	.L3059
 796:../Drivers/STM32F4xx_HAL_Driver/Src/stm32f4xx_hal_dma.c **** 
 12249              		.loc 1 796 0 discriminator 65
 12250 2172 02F58062 		add	r2, r2, #1024
 12251 2176 9342     		cmp	r3, r2
 12252 2178 1ED0     		beq	.L3060
 796:../Drivers/STM32F4xx_HAL_Driver/Src/stm32f4xx_hal_dma.c **** 
 12253              		.loc 1 796 0 discriminator 67
 12254 217a A2F58962 		sub	r2, r2, #1096
 12255 217e 9342     		cmp	r3, r2
 12256 2180 17D0     		beq	.L3061
 796:../Drivers/STM32F4xx_HAL_Driver/Src/stm32f4xx_hal_dma.c **** 
 12257              		.loc 1 796 0 discriminator 69
 12258 2182 02F58062 		add	r2, r2, #1024
 12259 2186 9342     		cmp	r3, r2
 12260 2188 10D0     		beq	.L3062
 796:../Drivers/STM32F4xx_HAL_Driver/Src/stm32f4xx_hal_dma.c **** 
 12261              		.loc 1 796 0 discriminator 71
 12262 218a A2F56872 		sub	r2, r2, #928
 12263 218e 9342     		cmp	r3, r2
 12264 2190 09D0     		beq	.L3063
 796:../Drivers/STM32F4xx_HAL_Driver/Src/stm32f4xx_hal_dma.c **** 
 12265              		.loc 1 796 0 discriminator 73
 12266 2192 02F58062 		add	r2, r2, #1024
 12267 2196 9342     		cmp	r3, r2
 12268 2198 02D1     		bne	.L3064
 796:../Drivers/STM32F4xx_HAL_Driver/Src/stm32f4xx_hal_dma.c **** 
 12269              		.loc 1 796 0
 12270 219a 4FF40012 		mov	r2, #2097152
 12271 219e 1EE0     		b	.L2475
 12272              	.L3064:
 12273 21a0 4FF00062 		mov	r2, #134217728
 12274 21a4 1BE0     		b	.L2475
 12275              	.L3063:
 12276 21a6 4FF40012 		mov	r2, #2097152
 12277 21aa 18E0     		b	.L2475
 12278              	.L3062:
ARM GAS  /tmp/ccAPlzty.s 			page 265


 12279 21ac 4FF40012 		mov	r2, #2097152
 12280 21b0 15E0     		b	.L2475
 12281              	.L3061:
 12282 21b2 4FF40012 		mov	r2, #2097152
 12283 21b6 12E0     		b	.L2475
 12284              	.L3060:
 12285 21b8 4FF40062 		mov	r2, #2048
 12286 21bc 0FE0     		b	.L2475
 12287              	.L3059:
 12288 21be 4FF40062 		mov	r2, #2048
 12289 21c2 0CE0     		b	.L2475
 12290              	.L3058:
 12291 21c4 4FF40062 		mov	r2, #2048
 12292 21c8 09E0     		b	.L2475
 12293              	.L3057:
 12294 21ca 4FF40062 		mov	r2, #2048
 12295 21ce 06E0     		b	.L2475
 12296              	.L3056:
 12297 21d0 2022     		movs	r2, #32
 12298 21d2 04E0     		b	.L2475
 12299              	.L3055:
 12300 21d4 2022     		movs	r2, #32
 12301 21d6 02E0     		b	.L2475
 12302              	.L3054:
 12303 21d8 2022     		movs	r2, #32
 12304 21da 00E0     		b	.L2475
 12305              	.L3053:
 12306 21dc 2022     		movs	r2, #32
 12307              	.L2475:
 796:../Drivers/STM32F4xx_HAL_Driver/Src/stm32f4xx_hal_dma.c **** 
 12308              		.loc 1 796 0 discriminator 100
 12309 21de 5E4B     		ldr	r3, .L3112+4
 12310 21e0 9A60     		str	r2, [r3, #8]
 12311 21e2 A9E0     		b	.L2473
 12312              	.L2474:
 796:../Drivers/STM32F4xx_HAL_Driver/Src/stm32f4xx_hal_dma.c **** 
 12313              		.loc 1 796 0 discriminator 52
 12314 21e4 5E4A     		ldr	r2, .L3112+12
 12315 21e6 9342     		cmp	r3, r2
 12316 21e8 53D9     		bls	.L2487
 796:../Drivers/STM32F4xx_HAL_Driver/Src/stm32f4xx_hal_dma.c **** 
 12317              		.loc 1 796 0 discriminator 102
 12318 21ea 483A     		subs	r2, r2, #72
 12319 21ec 9342     		cmp	r3, r2
 12320 21ee 4CD0     		beq	.L3065
 796:../Drivers/STM32F4xx_HAL_Driver/Src/stm32f4xx_hal_dma.c **** 
 12321              		.loc 1 796 0 discriminator 104
 12322 21f0 02F58062 		add	r2, r2, #1024
 12323 21f4 9342     		cmp	r3, r2
 12324 21f6 46D0     		beq	.L3066
 796:../Drivers/STM32F4xx_HAL_Driver/Src/stm32f4xx_hal_dma.c **** 
 12325              		.loc 1 796 0 discriminator 106
 12326 21f8 A2F56872 		sub	r2, r2, #928
 12327 21fc 9342     		cmp	r3, r2
 12328 21fe 40D0     		beq	.L3067
 796:../Drivers/STM32F4xx_HAL_Driver/Src/stm32f4xx_hal_dma.c **** 
 12329              		.loc 1 796 0 discriminator 108
ARM GAS  /tmp/ccAPlzty.s 			page 266


 12330 2200 02F58062 		add	r2, r2, #1024
 12331 2204 9342     		cmp	r3, r2
 12332 2206 3AD0     		beq	.L3068
 796:../Drivers/STM32F4xx_HAL_Driver/Src/stm32f4xx_hal_dma.c **** 
 12333              		.loc 1 796 0 discriminator 110
 12334 2208 A2F58962 		sub	r2, r2, #1096
 12335 220c 9342     		cmp	r3, r2
 12336 220e 33D0     		beq	.L3069
 796:../Drivers/STM32F4xx_HAL_Driver/Src/stm32f4xx_hal_dma.c **** 
 12337              		.loc 1 796 0 discriminator 112
 12338 2210 02F58062 		add	r2, r2, #1024
 12339 2214 9342     		cmp	r3, r2
 12340 2216 2CD0     		beq	.L3070
 796:../Drivers/STM32F4xx_HAL_Driver/Src/stm32f4xx_hal_dma.c **** 
 12341              		.loc 1 796 0 discriminator 114
 12342 2218 A2F56872 		sub	r2, r2, #928
 12343 221c 9342     		cmp	r3, r2
 12344 221e 25D0     		beq	.L3071
 796:../Drivers/STM32F4xx_HAL_Driver/Src/stm32f4xx_hal_dma.c **** 
 12345              		.loc 1 796 0 discriminator 116
 12346 2220 02F58062 		add	r2, r2, #1024
 12347 2224 9342     		cmp	r3, r2
 12348 2226 1ED0     		beq	.L3072
 796:../Drivers/STM32F4xx_HAL_Driver/Src/stm32f4xx_hal_dma.c **** 
 12349              		.loc 1 796 0 discriminator 118
 12350 2228 A2F58962 		sub	r2, r2, #1096
 12351 222c 9342     		cmp	r3, r2
 12352 222e 17D0     		beq	.L3073
 796:../Drivers/STM32F4xx_HAL_Driver/Src/stm32f4xx_hal_dma.c **** 
 12353              		.loc 1 796 0 discriminator 120
 12354 2230 02F58062 		add	r2, r2, #1024
 12355 2234 9342     		cmp	r3, r2
 12356 2236 10D0     		beq	.L3074
 796:../Drivers/STM32F4xx_HAL_Driver/Src/stm32f4xx_hal_dma.c **** 
 12357              		.loc 1 796 0 discriminator 122
 12358 2238 A2F56872 		sub	r2, r2, #928
 12359 223c 9342     		cmp	r3, r2
 12360 223e 09D0     		beq	.L3075
 796:../Drivers/STM32F4xx_HAL_Driver/Src/stm32f4xx_hal_dma.c **** 
 12361              		.loc 1 796 0 discriminator 124
 12362 2240 02F58062 		add	r2, r2, #1024
 12363 2244 9342     		cmp	r3, r2
 12364 2246 02D1     		bne	.L3076
 796:../Drivers/STM32F4xx_HAL_Driver/Src/stm32f4xx_hal_dma.c **** 
 12365              		.loc 1 796 0
 12366 2248 4FF40013 		mov	r3, #2097152
 12367 224c 1EE0     		b	.L2488
 12368              	.L3076:
 12369 224e 4FF00063 		mov	r3, #134217728
 12370 2252 1BE0     		b	.L2488
 12371              	.L3075:
 12372 2254 4FF40013 		mov	r3, #2097152
 12373 2258 18E0     		b	.L2488
 12374              	.L3074:
 12375 225a 4FF40013 		mov	r3, #2097152
 12376 225e 15E0     		b	.L2488
 12377              	.L3073:
ARM GAS  /tmp/ccAPlzty.s 			page 267


 12378 2260 4FF40013 		mov	r3, #2097152
 12379 2264 12E0     		b	.L2488
 12380              	.L3072:
 12381 2266 4FF40063 		mov	r3, #2048
 12382 226a 0FE0     		b	.L2488
 12383              	.L3071:
 12384 226c 4FF40063 		mov	r3, #2048
 12385 2270 0CE0     		b	.L2488
 12386              	.L3070:
 12387 2272 4FF40063 		mov	r3, #2048
 12388 2276 09E0     		b	.L2488
 12389              	.L3069:
 12390 2278 4FF40063 		mov	r3, #2048
 12391 227c 06E0     		b	.L2488
 12392              	.L3068:
 12393 227e 2023     		movs	r3, #32
 12394 2280 04E0     		b	.L2488
 12395              	.L3067:
 12396 2282 2023     		movs	r3, #32
 12397 2284 02E0     		b	.L2488
 12398              	.L3066:
 12399 2286 2023     		movs	r3, #32
 12400 2288 00E0     		b	.L2488
 12401              	.L3065:
 12402 228a 2023     		movs	r3, #32
 12403              	.L2488:
 796:../Drivers/STM32F4xx_HAL_Driver/Src/stm32f4xx_hal_dma.c **** 
 12404              		.loc 1 796 0 discriminator 151
 12405 228c 354A     		ldr	r2, .L3112+16
 12406 228e D360     		str	r3, [r2, #12]
 12407 2290 52E0     		b	.L2473
 12408              	.L2487:
 796:../Drivers/STM32F4xx_HAL_Driver/Src/stm32f4xx_hal_dma.c **** 
 12409              		.loc 1 796 0 discriminator 103
 12410 2292 354A     		ldr	r2, .L3112+20
 12411 2294 9342     		cmp	r3, r2
 12412 2296 4CD0     		beq	.L3077
 796:../Drivers/STM32F4xx_HAL_Driver/Src/stm32f4xx_hal_dma.c **** 
 12413              		.loc 1 796 0 discriminator 153
 12414 2298 02F58062 		add	r2, r2, #1024
 12415 229c 9342     		cmp	r3, r2
 12416 229e 46D0     		beq	.L3078
 796:../Drivers/STM32F4xx_HAL_Driver/Src/stm32f4xx_hal_dma.c **** 
 12417              		.loc 1 796 0 discriminator 155
 12418 22a0 A2F56872 		sub	r2, r2, #928
 12419 22a4 9342     		cmp	r3, r2
 12420 22a6 40D0     		beq	.L3079
 796:../Drivers/STM32F4xx_HAL_Driver/Src/stm32f4xx_hal_dma.c **** 
 12421              		.loc 1 796 0 discriminator 157
 12422 22a8 02F58062 		add	r2, r2, #1024
 12423 22ac 9342     		cmp	r3, r2
 12424 22ae 3AD0     		beq	.L3080
 796:../Drivers/STM32F4xx_HAL_Driver/Src/stm32f4xx_hal_dma.c **** 
 12425              		.loc 1 796 0 discriminator 159
 12426 22b0 A2F58962 		sub	r2, r2, #1096
 12427 22b4 9342     		cmp	r3, r2
 12428 22b6 33D0     		beq	.L3081
ARM GAS  /tmp/ccAPlzty.s 			page 268


 796:../Drivers/STM32F4xx_HAL_Driver/Src/stm32f4xx_hal_dma.c **** 
 12429              		.loc 1 796 0 discriminator 161
 12430 22b8 02F58062 		add	r2, r2, #1024
 12431 22bc 9342     		cmp	r3, r2
 12432 22be 2CD0     		beq	.L3082
 796:../Drivers/STM32F4xx_HAL_Driver/Src/stm32f4xx_hal_dma.c **** 
 12433              		.loc 1 796 0 discriminator 163
 12434 22c0 A2F56872 		sub	r2, r2, #928
 12435 22c4 9342     		cmp	r3, r2
 12436 22c6 25D0     		beq	.L3083
 796:../Drivers/STM32F4xx_HAL_Driver/Src/stm32f4xx_hal_dma.c **** 
 12437              		.loc 1 796 0 discriminator 165
 12438 22c8 02F58062 		add	r2, r2, #1024
 12439 22cc 9342     		cmp	r3, r2
 12440 22ce 1ED0     		beq	.L3084
 796:../Drivers/STM32F4xx_HAL_Driver/Src/stm32f4xx_hal_dma.c **** 
 12441              		.loc 1 796 0 discriminator 167
 12442 22d0 A2F58962 		sub	r2, r2, #1096
 12443 22d4 9342     		cmp	r3, r2
 12444 22d6 17D0     		beq	.L3085
 796:../Drivers/STM32F4xx_HAL_Driver/Src/stm32f4xx_hal_dma.c **** 
 12445              		.loc 1 796 0 discriminator 169
 12446 22d8 02F58062 		add	r2, r2, #1024
 12447 22dc 9342     		cmp	r3, r2
 12448 22de 10D0     		beq	.L3086
 796:../Drivers/STM32F4xx_HAL_Driver/Src/stm32f4xx_hal_dma.c **** 
 12449              		.loc 1 796 0 discriminator 171
 12450 22e0 A2F56872 		sub	r2, r2, #928
 12451 22e4 9342     		cmp	r3, r2
 12452 22e6 09D0     		beq	.L3087
 796:../Drivers/STM32F4xx_HAL_Driver/Src/stm32f4xx_hal_dma.c **** 
 12453              		.loc 1 796 0 discriminator 173
 12454 22e8 02F58062 		add	r2, r2, #1024
 12455 22ec 9342     		cmp	r3, r2
 12456 22ee 02D1     		bne	.L3088
 796:../Drivers/STM32F4xx_HAL_Driver/Src/stm32f4xx_hal_dma.c **** 
 12457              		.loc 1 796 0
 12458 22f0 4FF40013 		mov	r3, #2097152
 12459 22f4 1EE0     		b	.L2501
 12460              	.L3088:
 12461 22f6 4FF00063 		mov	r3, #134217728
 12462 22fa 1BE0     		b	.L2501
 12463              	.L3087:
 12464 22fc 4FF40013 		mov	r3, #2097152
 12465 2300 18E0     		b	.L2501
 12466              	.L3086:
 12467 2302 4FF40013 		mov	r3, #2097152
 12468 2306 15E0     		b	.L2501
 12469              	.L3085:
 12470 2308 4FF40013 		mov	r3, #2097152
 12471 230c 12E0     		b	.L2501
 12472              	.L3084:
 12473 230e 4FF40063 		mov	r3, #2048
 12474 2312 0FE0     		b	.L2501
 12475              	.L3083:
 12476 2314 4FF40063 		mov	r3, #2048
 12477 2318 0CE0     		b	.L2501
ARM GAS  /tmp/ccAPlzty.s 			page 269


 12478              	.L3082:
 12479 231a 4FF40063 		mov	r3, #2048
 12480 231e 09E0     		b	.L2501
 12481              	.L3081:
 12482 2320 4FF40063 		mov	r3, #2048
 12483 2324 06E0     		b	.L2501
 12484              	.L3080:
 12485 2326 2023     		movs	r3, #32
 12486 2328 04E0     		b	.L2501
 12487              	.L3079:
 12488 232a 2023     		movs	r3, #32
 12489 232c 02E0     		b	.L2501
 12490              	.L3078:
 12491 232e 2023     		movs	r3, #32
 12492 2330 00E0     		b	.L2501
 12493              	.L3077:
 12494 2332 2023     		movs	r3, #32
 12495              	.L2501:
 796:../Drivers/STM32F4xx_HAL_Driver/Src/stm32f4xx_hal_dma.c **** 
 12496              		.loc 1 796 0 discriminator 200
 12497 2334 0B4A     		ldr	r2, .L3112+16
 12498 2336 9360     		str	r3, [r2, #8]
 12499              	.L2473:
 799:../Drivers/STM32F4xx_HAL_Driver/Src/stm32f4xx_hal_dma.c **** 
 12500              		.loc 1 799 0 is_stmt 1
 12501 2338 E36C     		ldr	r3, [r4, #76]
 12502 233a E364     		str	r3, [r4, #76]
 802:../Drivers/STM32F4xx_HAL_Driver/Src/stm32f4xx_hal_dma.c **** 
 12503              		.loc 1 802 0
 12504 233c 1123     		movs	r3, #17
 12505 233e 84F83530 		strb	r3, [r4, #53]
 805:../Drivers/STM32F4xx_HAL_Driver/Src/stm32f4xx_hal_dma.c **** 
 12506              		.loc 1 805 0
 12507 2342 0023     		movs	r3, #0
 12508 2344 84F83430 		strb	r3, [r4, #52]
 807:../Drivers/STM32F4xx_HAL_Driver/Src/stm32f4xx_hal_dma.c ****         {
 12509              		.loc 1 807 0
 12510 2348 E36B     		ldr	r3, [r4, #60]
 12511 234a 0BB1     		cbz	r3, .L1859
 810:../Drivers/STM32F4xx_HAL_Driver/Src/stm32f4xx_hal_dma.c ****         }
 12512              		.loc 1 810 0
 12513 234c 2046     		mov	r0, r4
 12514 234e 9847     		blx	r3
 12515              	.LVL77:
 12516              	.L1859:
 12517 2350 10BD     		pop	{r4, pc}
 12518              	.LVL78:
 12519              	.L3113:
 12520 2352 00BF     		.align	2
 12521              	.L3112:
 12522 2354 58640240 		.word	1073898584
 12523 2358 00640240 		.word	1073898496
 12524 235c B8600240 		.word	1073897656
 12525 2360 58600240 		.word	1073897560
 12526 2364 00600240 		.word	1073897472
 12527 2368 10600240 		.word	1073897488
 12528              		.cfi_endproc
ARM GAS  /tmp/ccAPlzty.s 			page 270


 12529              	.LFE118:
 12531              		.section	.text.HAL_DMA_GetState,"ax",%progbits
 12532              		.align	2
 12533              		.global	HAL_DMA_GetState
 12534              		.thumb
 12535              		.thumb_func
 12537              	HAL_DMA_GetState:
 12538              	.LFB119:
 844:../Drivers/STM32F4xx_HAL_Driver/Src/stm32f4xx_hal_dma.c ****   return hdma->State;
 12539              		.loc 1 844 0
 12540              		.cfi_startproc
 12541              		@ args = 0, pretend = 0, frame = 0
 12542              		@ frame_needed = 0, uses_anonymous_args = 0
 12543              		@ link register save eliminated.
 12544              	.LVL79:
 845:../Drivers/STM32F4xx_HAL_Driver/Src/stm32f4xx_hal_dma.c **** }
 12545              		.loc 1 845 0
 12546 0000 90F83500 		ldrb	r0, [r0, #53]	@ zero_extendqisi2
 12547              	.LVL80:
 846:../Drivers/STM32F4xx_HAL_Driver/Src/stm32f4xx_hal_dma.c **** 
 12548              		.loc 1 846 0
 12549 0004 7047     		bx	lr
 12550              		.cfi_endproc
 12551              	.LFE119:
 12553 0006 00BF     		.section	.text.HAL_DMA_GetError,"ax",%progbits
 12554              		.align	2
 12555              		.global	HAL_DMA_GetError
 12556              		.thumb
 12557              		.thumb_func
 12559              	HAL_DMA_GetError:
 12560              	.LFB120:
 855:../Drivers/STM32F4xx_HAL_Driver/Src/stm32f4xx_hal_dma.c ****   return hdma->ErrorCode;
 12561              		.loc 1 855 0
 12562              		.cfi_startproc
 12563              		@ args = 0, pretend = 0, frame = 0
 12564              		@ frame_needed = 0, uses_anonymous_args = 0
 12565              		@ link register save eliminated.
 12566              	.LVL81:
 856:../Drivers/STM32F4xx_HAL_Driver/Src/stm32f4xx_hal_dma.c **** }
 12567              		.loc 1 856 0
 12568 0000 C06C     		ldr	r0, [r0, #76]
 12569              	.LVL82:
 857:../Drivers/STM32F4xx_HAL_Driver/Src/stm32f4xx_hal_dma.c **** 
 12570              		.loc 1 857 0
 12571 0002 7047     		bx	lr
 12572              		.cfi_endproc
 12573              	.LFE120:
 12575              		.text
 12576              	.Letext0:
 12577              		.file 2 "/usr/include/newlib/machine/_default_types.h"
 12578              		.file 3 "/usr/include/newlib/sys/_stdint.h"
 12579              		.file 4 "../Drivers/CMSIS/Device/ST/STM32F4xx/Include/stm32f401xe.h"
 12580              		.file 5 "../Drivers/CMSIS/Device/ST/STM32F4xx/Include/stm32f4xx.h"
 12581              		.file 6 "../Drivers/STM32F4xx_HAL_Driver/Inc/stm32f4xx_hal_def.h"
 12582              		.file 7 "../Drivers/STM32F4xx_HAL_Driver/Inc/stm32f4xx_hal_dma.h"
 12583              		.file 8 "../Drivers/CMSIS/Include/core_cm4.h"
 12584              		.file 9 "../Drivers/STM32F4xx_HAL_Driver/Inc/stm32f4xx_hal.h"
ARM GAS  /tmp/ccAPlzty.s 			page 271


ARM GAS  /tmp/ccAPlzty.s 			page 272


DEFINED SYMBOLS
                            *ABS*:0000000000000000 stm32f4xx_hal_dma.c
     /tmp/ccAPlzty.s:21     .text.DMA_SetConfig:0000000000000000 $t
     /tmp/ccAPlzty.s:25     .text.DMA_SetConfig:0000000000000000 DMA_SetConfig
     /tmp/ccAPlzty.s:74     .text.HAL_DMA_Init:0000000000000000 $t
     /tmp/ccAPlzty.s:79     .text.HAL_DMA_Init:0000000000000000 HAL_DMA_Init
     /tmp/ccAPlzty.s:202    .text.HAL_DMA_Init:0000000000000074 $d
     /tmp/ccAPlzty.s:207    .text.HAL_DMA_DeInit:0000000000000000 $t
     /tmp/ccAPlzty.s:212    .text.HAL_DMA_DeInit:0000000000000000 HAL_DMA_DeInit
     /tmp/ccAPlzty.s:630    .text.HAL_DMA_DeInit:00000000000002e8 $d
     /tmp/ccAPlzty.s:638    .text.HAL_DMA_DeInit:0000000000000304 $t
     /tmp/ccAPlzty.s:1020   .text.HAL_DMA_DeInit:00000000000005b8 $d
     /tmp/ccAPlzty.s:1028   .text.HAL_DMA_DeInit:00000000000005d4 $t
     /tmp/ccAPlzty.s:1410   .text.HAL_DMA_DeInit:0000000000000888 $d
     /tmp/ccAPlzty.s:1417   .text.HAL_DMA_DeInit:00000000000008a0 $t
     /tmp/ccAPlzty.s:1799   .text.HAL_DMA_DeInit:0000000000000b34 $d
     /tmp/ccAPlzty.s:1807   .text.HAL_DMA_DeInit:0000000000000b50 $t
     /tmp/ccAPlzty.s:2219   .text.HAL_DMA_DeInit:0000000000000e20 $d
     /tmp/ccAPlzty.s:2230   .text.HAL_DMA_Start:0000000000000000 $t
     /tmp/ccAPlzty.s:2235   .text.HAL_DMA_Start:0000000000000000 HAL_DMA_Start
     /tmp/ccAPlzty.s:2289   .text.HAL_DMA_Start_IT:0000000000000000 $t
     /tmp/ccAPlzty.s:2294   .text.HAL_DMA_Start_IT:0000000000000000 HAL_DMA_Start_IT
     /tmp/ccAPlzty.s:2373   .text.HAL_DMA_Abort:0000000000000000 $t
     /tmp/ccAPlzty.s:2378   .text.HAL_DMA_Abort:0000000000000000 HAL_DMA_Abort
     /tmp/ccAPlzty.s:2445   .text.HAL_DMA_PollForTransfer:0000000000000000 $t
     /tmp/ccAPlzty.s:2450   .text.HAL_DMA_PollForTransfer:0000000000000000 HAL_DMA_PollForTransfer
     /tmp/ccAPlzty.s:2862   .text.HAL_DMA_PollForTransfer:00000000000002c4 $d
     /tmp/ccAPlzty.s:2867   .text.HAL_DMA_PollForTransfer:00000000000002d0 $t
     /tmp/ccAPlzty.s:3252   .text.HAL_DMA_PollForTransfer:0000000000000578 $d
     /tmp/ccAPlzty.s:3260   .text.HAL_DMA_PollForTransfer:0000000000000590 $t
     /tmp/ccAPlzty.s:3645   .text.HAL_DMA_PollForTransfer:0000000000000840 $d
     /tmp/ccAPlzty.s:3653   .text.HAL_DMA_PollForTransfer:0000000000000858 $t
     /tmp/ccAPlzty.s:4052   .text.HAL_DMA_PollForTransfer:0000000000000b2c $d
     /tmp/ccAPlzty.s:4061   .text.HAL_DMA_PollForTransfer:0000000000000b48 $t
     /tmp/ccAPlzty.s:4450   .text.HAL_DMA_PollForTransfer:0000000000000dfc $d
     /tmp/ccAPlzty.s:4459   .text.HAL_DMA_PollForTransfer:0000000000000e18 $t
     /tmp/ccAPlzty.s:4848   .text.HAL_DMA_PollForTransfer:00000000000010cc $d
     /tmp/ccAPlzty.s:4858   .text.HAL_DMA_PollForTransfer:00000000000010ec $t
     /tmp/ccAPlzty.s:5238   .text.HAL_DMA_PollForTransfer:0000000000001394 $d
     /tmp/ccAPlzty.s:5247   .text.HAL_DMA_PollForTransfer:00000000000013b0 $t
     /tmp/ccAPlzty.s:5628   .text.HAL_DMA_PollForTransfer:0000000000001664 $d
     /tmp/ccAPlzty.s:5636   .text.HAL_DMA_PollForTransfer:000000000000167c $t
     /tmp/ccAPlzty.s:6035   .text.HAL_DMA_PollForTransfer:0000000000001954 $d
     /tmp/ccAPlzty.s:6043   .text.HAL_DMA_PollForTransfer:000000000000196c $t
     /tmp/ccAPlzty.s:6424   .text.HAL_DMA_PollForTransfer:0000000000001c20 $d
     /tmp/ccAPlzty.s:6432   .text.HAL_DMA_PollForTransfer:0000000000001c38 $t
     /tmp/ccAPlzty.s:6826   .text.HAL_DMA_PollForTransfer:0000000000001f04 $d
     /tmp/ccAPlzty.s:6834   .text.HAL_DMA_PollForTransfer:0000000000001f1c $t
     /tmp/ccAPlzty.s:7239   .text.HAL_DMA_PollForTransfer:00000000000021fc $d
     /tmp/ccAPlzty.s:7247   .text.HAL_DMA_PollForTransfer:0000000000002214 $t
     /tmp/ccAPlzty.s:7544   .text.HAL_DMA_PollForTransfer:0000000000002428 $d
     /tmp/ccAPlzty.s:7553   .text.HAL_DMA_IRQHandler:0000000000000000 $t
     /tmp/ccAPlzty.s:7558   .text.HAL_DMA_IRQHandler:0000000000000000 HAL_DMA_IRQHandler
     /tmp/ccAPlzty.s:7961   .text.HAL_DMA_IRQHandler:00000000000002d0 $d
     /tmp/ccAPlzty.s:7967   .text.HAL_DMA_IRQHandler:00000000000002e4 $t
     /tmp/ccAPlzty.s:8362   .text.HAL_DMA_IRQHandler:00000000000005b4 $d
     /tmp/ccAPlzty.s:8369   .text.HAL_DMA_IRQHandler:00000000000005cc $t
ARM GAS  /tmp/ccAPlzty.s 			page 273


     /tmp/ccAPlzty.s:8784   .text.HAL_DMA_IRQHandler:0000000000000898 $d
     /tmp/ccAPlzty.s:8791   .text.HAL_DMA_IRQHandler:00000000000008b0 $t
     /tmp/ccAPlzty.s:9186   .text.HAL_DMA_IRQHandler:0000000000000b60 $d
     /tmp/ccAPlzty.s:9194   .text.HAL_DMA_IRQHandler:0000000000000b7c $t
     /tmp/ccAPlzty.s:9593   .text.HAL_DMA_IRQHandler:0000000000000e50 $d
     /tmp/ccAPlzty.s:9601   .text.HAL_DMA_IRQHandler:0000000000000e6c $t
     /tmp/ccAPlzty.s:10008  .text.HAL_DMA_IRQHandler:0000000000001150 $d
     /tmp/ccAPlzty.s:10016  .text.HAL_DMA_IRQHandler:000000000000116c $t
     /tmp/ccAPlzty.s:10424  .text.HAL_DMA_IRQHandler:0000000000001450 $d
     /tmp/ccAPlzty.s:10431  .text.HAL_DMA_IRQHandler:0000000000001468 $t
     /tmp/ccAPlzty.s:10859  .text.HAL_DMA_IRQHandler:0000000000001770 $d
     /tmp/ccAPlzty.s:10867  .text.HAL_DMA_IRQHandler:0000000000001788 $t
     /tmp/ccAPlzty.s:11251  .text.HAL_DMA_IRQHandler:0000000000001a48 $d
     /tmp/ccAPlzty.s:11258  .text.HAL_DMA_IRQHandler:0000000000001a60 $t
     /tmp/ccAPlzty.s:11666  .text.HAL_DMA_IRQHandler:0000000000001d40 $d
     /tmp/ccAPlzty.s:11672  .text.HAL_DMA_IRQHandler:0000000000001d54 $t
     /tmp/ccAPlzty.s:12103  .text.HAL_DMA_IRQHandler:000000000000205c $d
     /tmp/ccAPlzty.s:12112  .text.HAL_DMA_IRQHandler:0000000000002074 $t
     /tmp/ccAPlzty.s:12522  .text.HAL_DMA_IRQHandler:0000000000002354 $d
     /tmp/ccAPlzty.s:12532  .text.HAL_DMA_GetState:0000000000000000 $t
     /tmp/ccAPlzty.s:12537  .text.HAL_DMA_GetState:0000000000000000 HAL_DMA_GetState
     /tmp/ccAPlzty.s:12554  .text.HAL_DMA_GetError:0000000000000000 $t
     /tmp/ccAPlzty.s:12559  .text.HAL_DMA_GetError:0000000000000000 HAL_DMA_GetError
                     .debug_frame:0000000000000010 $d

UNDEFINED SYMBOLS
HAL_GetTick
