ARM GAS  /tmp/ccoKGPDX.s 			page 1


   1              		.syntax unified
   2              		.cpu cortex-m4
   3              		.eabi_attribute 27, 1
   4              		.eabi_attribute 28, 1
   5              		.fpu fpv4-sp-d16
   6              		.eabi_attribute 20, 1
   7              		.eabi_attribute 21, 1
   8              		.eabi_attribute 23, 3
   9              		.eabi_attribute 24, 1
  10              		.eabi_attribute 25, 1
  11              		.eabi_attribute 26, 1
  12              		.eabi_attribute 30, 1
  13              		.eabi_attribute 34, 1
  14              		.eabi_attribute 18, 4
  15              		.thumb
  16              		.file	"stm32f4xx_it.c"
  17              		.text
  18              	.Ltext0:
  19              		.cfi_sections	.debug_frame
  20              		.section	.text.SysTick_Handler,"ax",%progbits
  21              		.align	2
  22              		.global	SysTick_Handler
  23              		.thumb
  24              		.thumb_func
  26              	SysTick_Handler:
  27              	.LFB112:
  28              		.file 1 "../Src/stm32f4xx_it.c"
   1:../Src/stm32f4xx_it.c **** /**
   2:../Src/stm32f4xx_it.c ****   ******************************************************************************
   3:../Src/stm32f4xx_it.c ****   * @file    stm32f4xx_it.c
   4:../Src/stm32f4xx_it.c ****   * @date    24/02/2018 11:39:58
   5:../Src/stm32f4xx_it.c ****   * @brief   Interrupt Service Routines.
   6:../Src/stm32f4xx_it.c ****   ******************************************************************************
   7:../Src/stm32f4xx_it.c ****   *
   8:../Src/stm32f4xx_it.c ****   * COPYRIGHT(c) 2018 STMicroelectronics
   9:../Src/stm32f4xx_it.c ****   *
  10:../Src/stm32f4xx_it.c ****   * Redistribution and use in source and binary forms, with or without modification,
  11:../Src/stm32f4xx_it.c ****   * are permitted provided that the following conditions are met:
  12:../Src/stm32f4xx_it.c ****   *   1. Redistributions of source code must retain the above copyright notice,
  13:../Src/stm32f4xx_it.c ****   *      this list of conditions and the following disclaimer.
  14:../Src/stm32f4xx_it.c ****   *   2. Redistributions in binary form must reproduce the above copyright notice,
  15:../Src/stm32f4xx_it.c ****   *      this list of conditions and the following disclaimer in the documentation
  16:../Src/stm32f4xx_it.c ****   *      and/or other materials provided with the distribution.
  17:../Src/stm32f4xx_it.c ****   *   3. Neither the name of STMicroelectronics nor the names of its contributors
  18:../Src/stm32f4xx_it.c ****   *      may be used to endorse or promote products derived from this software
  19:../Src/stm32f4xx_it.c ****   *      without specific prior written permission.
  20:../Src/stm32f4xx_it.c ****   *
  21:../Src/stm32f4xx_it.c ****   * THIS SOFTWARE IS PROVIDED BY THE COPYRIGHT HOLDERS AND CONTRIBUTORS "AS IS"
  22:../Src/stm32f4xx_it.c ****   * AND ANY EXPRESS OR IMPLIED WARRANTIES, INCLUDING, BUT NOT LIMITED TO, THE
  23:../Src/stm32f4xx_it.c ****   * IMPLIED WARRANTIES OF MERCHANTABILITY AND FITNESS FOR A PARTICULAR PURPOSE ARE
  24:../Src/stm32f4xx_it.c ****   * DISCLAIMED. IN NO EVENT SHALL THE COPYRIGHT HOLDER OR CONTRIBUTORS BE LIABLE
  25:../Src/stm32f4xx_it.c ****   * FOR ANY DIRECT, INDIRECT, INCIDENTAL, SPECIAL, EXEMPLARY, OR CONSEQUENTIAL
  26:../Src/stm32f4xx_it.c ****   * DAMAGES (INCLUDING, BUT NOT LIMITED TO, PROCUREMENT OF SUBSTITUTE GOODS OR
  27:../Src/stm32f4xx_it.c ****   * SERVICES; LOSS OF USE, DATA, OR PROFITS; OR BUSINESS INTERRUPTION) HOWEVER
  28:../Src/stm32f4xx_it.c ****   * CAUSED AND ON ANY THEORY OF LIABILITY, WHETHER IN CONTRACT, STRICT LIABILITY,
  29:../Src/stm32f4xx_it.c ****   * OR TORT (INCLUDING NEGLIGENCE OR OTHERWISE) ARISING IN ANY WAY OUT OF THE USE
  30:../Src/stm32f4xx_it.c ****   * OF THIS SOFTWARE, EVEN IF ADVISED OF THE POSSIBILITY OF SUCH DAMAGE.
ARM GAS  /tmp/ccoKGPDX.s 			page 2


  31:../Src/stm32f4xx_it.c ****   *
  32:../Src/stm32f4xx_it.c ****   ******************************************************************************
  33:../Src/stm32f4xx_it.c ****   */
  34:../Src/stm32f4xx_it.c **** /* Includes ------------------------------------------------------------------*/
  35:../Src/stm32f4xx_it.c **** #include "stm32f4xx_hal.h"
  36:../Src/stm32f4xx_it.c **** #include "stm32f4xx.h"
  37:../Src/stm32f4xx_it.c **** #include "stm32f4xx_it.h"
  38:../Src/stm32f4xx_it.c **** /* USER CODE BEGIN 0 */
  39:../Src/stm32f4xx_it.c **** 
  40:../Src/stm32f4xx_it.c **** /* USER CODE END 0 */
  41:../Src/stm32f4xx_it.c **** /* External variables --------------------------------------------------------*/
  42:../Src/stm32f4xx_it.c **** 
  43:../Src/stm32f4xx_it.c **** extern TIM_HandleTypeDef htim3;
  44:../Src/stm32f4xx_it.c **** extern UART_HandleTypeDef huart2;
  45:../Src/stm32f4xx_it.c **** 
  46:../Src/stm32f4xx_it.c **** /******************************************************************************/
  47:../Src/stm32f4xx_it.c **** /*            Cortex-M4 Processor Interruption and Exception Handlers         */ 
  48:../Src/stm32f4xx_it.c **** /******************************************************************************/
  49:../Src/stm32f4xx_it.c **** 
  50:../Src/stm32f4xx_it.c **** /**
  51:../Src/stm32f4xx_it.c **** * @brief This function handles System tick timer.
  52:../Src/stm32f4xx_it.c **** */
  53:../Src/stm32f4xx_it.c **** void SysTick_Handler(void)
  54:../Src/stm32f4xx_it.c **** {
  29              		.loc 1 54 0
  30              		.cfi_startproc
  31              		@ args = 0, pretend = 0, frame = 0
  32              		@ frame_needed = 0, uses_anonymous_args = 0
  33 0000 08B5     		push	{r3, lr}
  34              	.LCFI0:
  35              		.cfi_def_cfa_offset 8
  36              		.cfi_offset 3, -8
  37              		.cfi_offset 14, -4
  55:../Src/stm32f4xx_it.c ****   /* USER CODE BEGIN SysTick_IRQn 0 */
  56:../Src/stm32f4xx_it.c **** 
  57:../Src/stm32f4xx_it.c ****   /* USER CODE END SysTick_IRQn 0 */
  58:../Src/stm32f4xx_it.c ****   HAL_IncTick();
  38              		.loc 1 58 0
  39 0002 FFF7FEFF 		bl	HAL_IncTick
  40              	.LVL0:
  59:../Src/stm32f4xx_it.c ****   HAL_SYSTICK_IRQHandler();
  41              		.loc 1 59 0
  42 0006 FFF7FEFF 		bl	HAL_SYSTICK_IRQHandler
  43              	.LVL1:
  44 000a 08BD     		pop	{r3, pc}
  45              		.cfi_endproc
  46              	.LFE112:
  48              		.section	.text.TIM3_IRQHandler,"ax",%progbits
  49              		.align	2
  50              		.global	TIM3_IRQHandler
  51              		.thumb
  52              		.thumb_func
  54              	TIM3_IRQHandler:
  55              	.LFB113:
  60:../Src/stm32f4xx_it.c ****   /* USER CODE BEGIN SysTick_IRQn 1 */
  61:../Src/stm32f4xx_it.c **** 
  62:../Src/stm32f4xx_it.c ****   /* USER CODE END SysTick_IRQn 1 */
ARM GAS  /tmp/ccoKGPDX.s 			page 3


  63:../Src/stm32f4xx_it.c **** }
  64:../Src/stm32f4xx_it.c **** 
  65:../Src/stm32f4xx_it.c **** /**
  66:../Src/stm32f4xx_it.c **** * @brief This function handles TIM3 global interrupt.
  67:../Src/stm32f4xx_it.c **** */
  68:../Src/stm32f4xx_it.c **** void TIM3_IRQHandler(void)
  69:../Src/stm32f4xx_it.c **** {
  56              		.loc 1 69 0
  57              		.cfi_startproc
  58              		@ args = 0, pretend = 0, frame = 0
  59              		@ frame_needed = 0, uses_anonymous_args = 0
  60 0000 08B5     		push	{r3, lr}
  61              	.LCFI1:
  62              		.cfi_def_cfa_offset 8
  63              		.cfi_offset 3, -8
  64              		.cfi_offset 14, -4
  70:../Src/stm32f4xx_it.c ****   /* USER CODE BEGIN TIM3_IRQn 0 */
  71:../Src/stm32f4xx_it.c **** 
  72:../Src/stm32f4xx_it.c ****   /* USER CODE END TIM3_IRQn 0 */
  73:../Src/stm32f4xx_it.c ****   HAL_NVIC_ClearPendingIRQ(TIM3_IRQn);
  65              		.loc 1 73 0
  66 0002 1D20     		movs	r0, #29
  67 0004 FFF7FEFF 		bl	HAL_NVIC_ClearPendingIRQ
  68              	.LVL2:
  74:../Src/stm32f4xx_it.c ****   HAL_TIM_IRQHandler(&htim3);
  69              		.loc 1 74 0
  70 0008 0148     		ldr	r0, .L5
  71 000a FFF7FEFF 		bl	HAL_TIM_IRQHandler
  72              	.LVL3:
  73 000e 08BD     		pop	{r3, pc}
  74              	.L6:
  75              		.align	2
  76              	.L5:
  77 0010 00000000 		.word	htim3
  78              		.cfi_endproc
  79              	.LFE113:
  81              		.section	.text.USART2_IRQHandler,"ax",%progbits
  82              		.align	2
  83              		.global	USART2_IRQHandler
  84              		.thumb
  85              		.thumb_func
  87              	USART2_IRQHandler:
  88              	.LFB114:
  75:../Src/stm32f4xx_it.c ****   /* USER CODE BEGIN TIM3_IRQn 1 */
  76:../Src/stm32f4xx_it.c **** 
  77:../Src/stm32f4xx_it.c ****   /* USER CODE END TIM3_IRQn 1 */
  78:../Src/stm32f4xx_it.c **** }
  79:../Src/stm32f4xx_it.c **** 
  80:../Src/stm32f4xx_it.c **** /**
  81:../Src/stm32f4xx_it.c **** * @brief This function handles USART2 global interrupt.
  82:../Src/stm32f4xx_it.c **** */
  83:../Src/stm32f4xx_it.c **** void USART2_IRQHandler(void)
  84:../Src/stm32f4xx_it.c **** {
  89              		.loc 1 84 0
  90              		.cfi_startproc
  91              		@ args = 0, pretend = 0, frame = 0
  92              		@ frame_needed = 0, uses_anonymous_args = 0
ARM GAS  /tmp/ccoKGPDX.s 			page 4


  93 0000 08B5     		push	{r3, lr}
  94              	.LCFI2:
  95              		.cfi_def_cfa_offset 8
  96              		.cfi_offset 3, -8
  97              		.cfi_offset 14, -4
  85:../Src/stm32f4xx_it.c ****   /* USER CODE BEGIN USART2_IRQn 0 */
  86:../Src/stm32f4xx_it.c **** 
  87:../Src/stm32f4xx_it.c ****   /* USER CODE END USART2_IRQn 0 */
  88:../Src/stm32f4xx_it.c ****   HAL_NVIC_ClearPendingIRQ(USART2_IRQn);
  98              		.loc 1 88 0
  99 0002 2620     		movs	r0, #38
 100 0004 FFF7FEFF 		bl	HAL_NVIC_ClearPendingIRQ
 101              	.LVL4:
  89:../Src/stm32f4xx_it.c ****   HAL_UART_IRQHandler(&huart2);
 102              		.loc 1 89 0
 103 0008 0148     		ldr	r0, .L9
 104 000a FFF7FEFF 		bl	HAL_UART_IRQHandler
 105              	.LVL5:
 106 000e 08BD     		pop	{r3, pc}
 107              	.L10:
 108              		.align	2
 109              	.L9:
 110 0010 00000000 		.word	huart2
 111              		.cfi_endproc
 112              	.LFE114:
 114              		.text
 115              	.Letext0:
 116              		.file 2 "../Drivers/CMSIS/Device/ST/STM32F4xx/Include/stm32f401xe.h"
 117              		.file 3 "/usr/include/newlib/machine/_default_types.h"
 118              		.file 4 "/usr/include/newlib/sys/_stdint.h"
 119              		.file 5 "../Drivers/STM32F4xx_HAL_Driver/Inc/stm32f4xx_hal_def.h"
 120              		.file 6 "../Drivers/STM32F4xx_HAL_Driver/Inc/stm32f4xx_hal_dma.h"
 121              		.file 7 "../Drivers/STM32F4xx_HAL_Driver/Inc/stm32f4xx_hal_tim.h"
 122              		.file 8 "../Drivers/STM32F4xx_HAL_Driver/Inc/stm32f4xx_hal_uart.h"
 123              		.file 9 "../Drivers/CMSIS/Include/core_cm4.h"
 124              		.file 10 "../Drivers/STM32F4xx_HAL_Driver/Inc/stm32f4xx_hal.h"
 125              		.file 11 "../Drivers/STM32F4xx_HAL_Driver/Inc/stm32f4xx_hal_cortex.h"
ARM GAS  /tmp/ccoKGPDX.s 			page 5

