ARM GAS  /tmp/ccAPlzty.s 			page 1


   1              		.syntax unified
   2              		.cpu cortex-m4
   3              		.eabi_attribute 27, 1
   4              		.eabi_attribute 28, 1
   5              		.fpu fpv4-sp-d16
   6              		.eabi_attribute 20, 1
   7              		.eabi_attribute 21, 1
   8              		.eabi_attribute 23, 3
   9              		.eabi_attribute 24, 1
  10              		.eabi_attribute 25, 1
  11              		.eabi_attribute 26, 1
  12              		.eabi_attribute 30, 1
  13              		.eabi_attribute 34, 1
  14              		.eabi_attribute 18, 4
  15              		.thumb
  16              		.file	"stm32f4xx_hal_dma.c"
  17              		.text
  18              	.Ltext0:
  19              		.cfi_sections	.debug_frame
  20              		.section	.text.DMA_SetConfig,"ax",%progbits
  21              		.align	2
  22              		.thumb
  23              		.thumb_func
  25              	DMA_SetConfig:
  26              	.LFB121:
  27              		.file 1 "../Drivers/STM32F4xx_HAL_Driver/Src/stm32f4xx_hal_dma.c"
   1:../Drivers/STM32F4xx_HAL_Driver/Src/stm32f4xx_hal_dma.c **** /**
   2:../Drivers/STM32F4xx_HAL_Driver/Src/stm32f4xx_hal_dma.c ****   ******************************************************************************
   3:../Drivers/STM32F4xx_HAL_Driver/Src/stm32f4xx_hal_dma.c ****   * @file    stm32f4xx_hal_dma.c
   4:../Drivers/STM32F4xx_HAL_Driver/Src/stm32f4xx_hal_dma.c ****   * @author  MCD Application Team
   5:../Drivers/STM32F4xx_HAL_Driver/Src/stm32f4xx_hal_dma.c ****   * @version V1.1.0
   6:../Drivers/STM32F4xx_HAL_Driver/Src/stm32f4xx_hal_dma.c ****   * @date    19-June-2014
   7:../Drivers/STM32F4xx_HAL_Driver/Src/stm32f4xx_hal_dma.c ****   * @brief   DMA HAL module driver.
   8:../Drivers/STM32F4xx_HAL_Driver/Src/stm32f4xx_hal_dma.c ****   *    
   9:../Drivers/STM32F4xx_HAL_Driver/Src/stm32f4xx_hal_dma.c ****   *          This file provides firmware functions to manage the following 
  10:../Drivers/STM32F4xx_HAL_Driver/Src/stm32f4xx_hal_dma.c ****   *          functionalities of the Direct Memory Access (DMA) peripheral:
  11:../Drivers/STM32F4xx_HAL_Driver/Src/stm32f4xx_hal_dma.c ****   *           + Initialization and de-initialization functions
  12:../Drivers/STM32F4xx_HAL_Driver/Src/stm32f4xx_hal_dma.c ****   *           + IO operation functions
  13:../Drivers/STM32F4xx_HAL_Driver/Src/stm32f4xx_hal_dma.c ****   *           + Peripheral State and errors functions
  14:../Drivers/STM32F4xx_HAL_Driver/Src/stm32f4xx_hal_dma.c ****   @verbatim     
  15:../Drivers/STM32F4xx_HAL_Driver/Src/stm32f4xx_hal_dma.c ****   ==============================================================================      
  16:../Drivers/STM32F4xx_HAL_Driver/Src/stm32f4xx_hal_dma.c ****                         ##### How to use this driver #####
  17:../Drivers/STM32F4xx_HAL_Driver/Src/stm32f4xx_hal_dma.c ****   ============================================================================== 
  18:../Drivers/STM32F4xx_HAL_Driver/Src/stm32f4xx_hal_dma.c ****   [..]
  19:../Drivers/STM32F4xx_HAL_Driver/Src/stm32f4xx_hal_dma.c ****    (#) Enable and configure the peripheral to be connected to the DMA Stream
  20:../Drivers/STM32F4xx_HAL_Driver/Src/stm32f4xx_hal_dma.c ****        (except for internal SRAM/FLASH memories: no initialization is 
  21:../Drivers/STM32F4xx_HAL_Driver/Src/stm32f4xx_hal_dma.c ****        necessary) please refer to Reference manual for connection between peripherals
  22:../Drivers/STM32F4xx_HAL_Driver/Src/stm32f4xx_hal_dma.c ****        and DMA requests . 
  23:../Drivers/STM32F4xx_HAL_Driver/Src/stm32f4xx_hal_dma.c ****           
  24:../Drivers/STM32F4xx_HAL_Driver/Src/stm32f4xx_hal_dma.c ****    (#) For a given Stream, program the required configuration through the following parameters:   
  25:../Drivers/STM32F4xx_HAL_Driver/Src/stm32f4xx_hal_dma.c ****        Transfer Direction, Source and Destination data formats, 
  26:../Drivers/STM32F4xx_HAL_Driver/Src/stm32f4xx_hal_dma.c ****        Circular, Normal or peripheral flow control mode, Stream Priority level, 
  27:../Drivers/STM32F4xx_HAL_Driver/Src/stm32f4xx_hal_dma.c ****        Source and Destination Increment mode, FIFO mode and its Threshold (if needed), 
  28:../Drivers/STM32F4xx_HAL_Driver/Src/stm32f4xx_hal_dma.c ****        Burst mode for Source and/or Destination (if needed) using HAL_DMA_Init() function.
  29:../Drivers/STM32F4xx_HAL_Driver/Src/stm32f4xx_hal_dma.c ****                      
  30:../Drivers/STM32F4xx_HAL_Driver/Src/stm32f4xx_hal_dma.c ****      *** Polling mode IO operation ***
  31:../Drivers/STM32F4xx_HAL_Driver/Src/stm32f4xx_hal_dma.c ****      =================================   
ARM GAS  /tmp/ccAPlzty.s 			page 2


  32:../Drivers/STM32F4xx_HAL_Driver/Src/stm32f4xx_hal_dma.c ****     [..] 
  33:../Drivers/STM32F4xx_HAL_Driver/Src/stm32f4xx_hal_dma.c ****           (+) Use HAL_DMA_Start() to start DMA transfer after the configuration of Source 
  34:../Drivers/STM32F4xx_HAL_Driver/Src/stm32f4xx_hal_dma.c ****               address and destination address and the Length of data to be transferred
  35:../Drivers/STM32F4xx_HAL_Driver/Src/stm32f4xx_hal_dma.c ****           (+) Use HAL_DMA_PollForTransfer() to poll for the end of current transfer, in this  
  36:../Drivers/STM32F4xx_HAL_Driver/Src/stm32f4xx_hal_dma.c ****               case a fixed Timeout can be configured by User depending from his application.
  37:../Drivers/STM32F4xx_HAL_Driver/Src/stm32f4xx_hal_dma.c ****                
  38:../Drivers/STM32F4xx_HAL_Driver/Src/stm32f4xx_hal_dma.c ****      *** Interrupt mode IO operation ***    
  39:../Drivers/STM32F4xx_HAL_Driver/Src/stm32f4xx_hal_dma.c ****      =================================== 
  40:../Drivers/STM32F4xx_HAL_Driver/Src/stm32f4xx_hal_dma.c ****     [..]     
  41:../Drivers/STM32F4xx_HAL_Driver/Src/stm32f4xx_hal_dma.c ****           (+) Configure the DMA interrupt priority using HAL_NVIC_SetPriority()
  42:../Drivers/STM32F4xx_HAL_Driver/Src/stm32f4xx_hal_dma.c ****           (+) Enable the DMA IRQ handler using HAL_NVIC_EnableIRQ() 
  43:../Drivers/STM32F4xx_HAL_Driver/Src/stm32f4xx_hal_dma.c ****           (+) Use HAL_DMA_Start_IT() to start DMA transfer after the configuration of  
  44:../Drivers/STM32F4xx_HAL_Driver/Src/stm32f4xx_hal_dma.c ****               Source address and destination address and the Length of data to be transferred. In t
  45:../Drivers/STM32F4xx_HAL_Driver/Src/stm32f4xx_hal_dma.c ****               case the DMA interrupt is configured 
  46:../Drivers/STM32F4xx_HAL_Driver/Src/stm32f4xx_hal_dma.c ****           (+) Use HAL_DMA_IRQHandler() called under DMA_IRQHandler() Interrupt subroutine
  47:../Drivers/STM32F4xx_HAL_Driver/Src/stm32f4xx_hal_dma.c ****           (+) At the end of data transfer HAL_DMA_IRQHandler() function is executed and user can 
  48:../Drivers/STM32F4xx_HAL_Driver/Src/stm32f4xx_hal_dma.c ****               add his own function by customization of function pointer XferCpltCallback and 
  49:../Drivers/STM32F4xx_HAL_Driver/Src/stm32f4xx_hal_dma.c ****               XferErrorCallback (i.e a member of DMA handle structure). 
  50:../Drivers/STM32F4xx_HAL_Driver/Src/stm32f4xx_hal_dma.c ****     [..]                
  51:../Drivers/STM32F4xx_HAL_Driver/Src/stm32f4xx_hal_dma.c ****      (#) Use HAL_DMA_GetState() function to return the DMA state and HAL_DMA_GetError() in case of 
  52:../Drivers/STM32F4xx_HAL_Driver/Src/stm32f4xx_hal_dma.c ****          detection.
  53:../Drivers/STM32F4xx_HAL_Driver/Src/stm32f4xx_hal_dma.c ****          
  54:../Drivers/STM32F4xx_HAL_Driver/Src/stm32f4xx_hal_dma.c ****      (#) Use HAL_DMA_Abort() function to abort the current transfer
  55:../Drivers/STM32F4xx_HAL_Driver/Src/stm32f4xx_hal_dma.c ****      
  56:../Drivers/STM32F4xx_HAL_Driver/Src/stm32f4xx_hal_dma.c ****      -@-   In Memory-to-Memory transfer mode, Circular mode is not allowed.
  57:../Drivers/STM32F4xx_HAL_Driver/Src/stm32f4xx_hal_dma.c ****     
  58:../Drivers/STM32F4xx_HAL_Driver/Src/stm32f4xx_hal_dma.c ****      -@-   The FIFO is used mainly to reduce bus usage and to allow data packing/unpacking: it is
  59:../Drivers/STM32F4xx_HAL_Driver/Src/stm32f4xx_hal_dma.c ****            possible to set different Data Sizes for the Peripheral and the Memory (ie. you can set
  60:../Drivers/STM32F4xx_HAL_Driver/Src/stm32f4xx_hal_dma.c ****            Half-Word data size for the peripheral to access its data register and set Word data siz
  61:../Drivers/STM32F4xx_HAL_Driver/Src/stm32f4xx_hal_dma.c ****            for the Memory to gain in access time. Each two half words will be packed and written in
  62:../Drivers/STM32F4xx_HAL_Driver/Src/stm32f4xx_hal_dma.c ****            a single access to a Word in the Memory).
  63:../Drivers/STM32F4xx_HAL_Driver/Src/stm32f4xx_hal_dma.c ****       
  64:../Drivers/STM32F4xx_HAL_Driver/Src/stm32f4xx_hal_dma.c ****      -@-   When FIFO is disabled, it is not allowed to configure different Data Sizes for Source
  65:../Drivers/STM32F4xx_HAL_Driver/Src/stm32f4xx_hal_dma.c ****            and Destination. In this case the Peripheral Data Size will be applied to both Source
  66:../Drivers/STM32F4xx_HAL_Driver/Src/stm32f4xx_hal_dma.c ****            and Destination.               
  67:../Drivers/STM32F4xx_HAL_Driver/Src/stm32f4xx_hal_dma.c ****   
  68:../Drivers/STM32F4xx_HAL_Driver/Src/stm32f4xx_hal_dma.c ****      *** DMA HAL driver macros list ***
  69:../Drivers/STM32F4xx_HAL_Driver/Src/stm32f4xx_hal_dma.c ****      ============================================= 
  70:../Drivers/STM32F4xx_HAL_Driver/Src/stm32f4xx_hal_dma.c ****      [..]
  71:../Drivers/STM32F4xx_HAL_Driver/Src/stm32f4xx_hal_dma.c ****        Below the list of most used macros in DMA HAL driver.
  72:../Drivers/STM32F4xx_HAL_Driver/Src/stm32f4xx_hal_dma.c ****        
  73:../Drivers/STM32F4xx_HAL_Driver/Src/stm32f4xx_hal_dma.c ****       (+) __HAL_DMA_ENABLE: Enable the specified DMA Stream.
  74:../Drivers/STM32F4xx_HAL_Driver/Src/stm32f4xx_hal_dma.c ****       (+) __HAL_DMA_DISABLE: Disable the specified DMA Stream.
  75:../Drivers/STM32F4xx_HAL_Driver/Src/stm32f4xx_hal_dma.c ****       (+) __HAL_DMA_GET_FS: Return the current DMA Stream FIFO filled level.
  76:../Drivers/STM32F4xx_HAL_Driver/Src/stm32f4xx_hal_dma.c ****       (+) __HAL_DMA_GET_FLAG: Get the DMA Stream pending flags.
  77:../Drivers/STM32F4xx_HAL_Driver/Src/stm32f4xx_hal_dma.c ****       (+) __HAL_DMA_CLEAR_FLAG: Clear the DMA Stream pending flags.
  78:../Drivers/STM32F4xx_HAL_Driver/Src/stm32f4xx_hal_dma.c ****       (+) __HAL_DMA_ENABLE_IT: Enable the specified DMA Stream interrupts.
  79:../Drivers/STM32F4xx_HAL_Driver/Src/stm32f4xx_hal_dma.c ****       (+) __HAL_DMA_DISABLE_IT: Disable the specified DMA Stream interrupts.
  80:../Drivers/STM32F4xx_HAL_Driver/Src/stm32f4xx_hal_dma.c ****       (+) __HAL_DMA_GET_IT_SOURCE: Check whether the specified DMA Stream interrupt has occurred or
  81:../Drivers/STM32F4xx_HAL_Driver/Src/stm32f4xx_hal_dma.c ****      
  82:../Drivers/STM32F4xx_HAL_Driver/Src/stm32f4xx_hal_dma.c ****      [..] 
  83:../Drivers/STM32F4xx_HAL_Driver/Src/stm32f4xx_hal_dma.c ****       (@) You can refer to the DMA HAL driver header file for more useful macros  
  84:../Drivers/STM32F4xx_HAL_Driver/Src/stm32f4xx_hal_dma.c ****   
  85:../Drivers/STM32F4xx_HAL_Driver/Src/stm32f4xx_hal_dma.c ****   @endverbatim
  86:../Drivers/STM32F4xx_HAL_Driver/Src/stm32f4xx_hal_dma.c ****   ******************************************************************************
  87:../Drivers/STM32F4xx_HAL_Driver/Src/stm32f4xx_hal_dma.c ****   * @attention
  88:../Drivers/STM32F4xx_HAL_Driver/Src/stm32f4xx_hal_dma.c ****   *
ARM GAS  /tmp/ccAPlzty.s 			page 3


  89:../Drivers/STM32F4xx_HAL_Driver/Src/stm32f4xx_hal_dma.c ****   * <h2><center>&copy; COPYRIGHT(c) 2014 STMicroelectronics</center></h2>
  90:../Drivers/STM32F4xx_HAL_Driver/Src/stm32f4xx_hal_dma.c ****   *
  91:../Drivers/STM32F4xx_HAL_Driver/Src/stm32f4xx_hal_dma.c ****   * Redistribution and use in source and binary forms, with or without modification,
  92:../Drivers/STM32F4xx_HAL_Driver/Src/stm32f4xx_hal_dma.c ****   * are permitted provided that the following conditions are met:
  93:../Drivers/STM32F4xx_HAL_Driver/Src/stm32f4xx_hal_dma.c ****   *   1. Redistributions of source code must retain the above copyright notice,
  94:../Drivers/STM32F4xx_HAL_Driver/Src/stm32f4xx_hal_dma.c ****   *      this list of conditions and the following disclaimer.
  95:../Drivers/STM32F4xx_HAL_Driver/Src/stm32f4xx_hal_dma.c ****   *   2. Redistributions in binary form must reproduce the above copyright notice,
  96:../Drivers/STM32F4xx_HAL_Driver/Src/stm32f4xx_hal_dma.c ****   *      this list of conditions and the following disclaimer in the documentation
  97:../Drivers/STM32F4xx_HAL_Driver/Src/stm32f4xx_hal_dma.c ****   *      and/or other materials provided with the distribution.
  98:../Drivers/STM32F4xx_HAL_Driver/Src/stm32f4xx_hal_dma.c ****   *   3. Neither the name of STMicroelectronics nor the names of its contributors
  99:../Drivers/STM32F4xx_HAL_Driver/Src/stm32f4xx_hal_dma.c ****   *      may be used to endorse or promote products derived from this software
 100:../Drivers/STM32F4xx_HAL_Driver/Src/stm32f4xx_hal_dma.c ****   *      without specific prior written permission.
 101:../Drivers/STM32F4xx_HAL_Driver/Src/stm32f4xx_hal_dma.c ****   *
 102:../Drivers/STM32F4xx_HAL_Driver/Src/stm32f4xx_hal_dma.c ****   * THIS SOFTWARE IS PROVIDED BY THE COPYRIGHT HOLDERS AND CONTRIBUTORS "AS IS"
 103:../Drivers/STM32F4xx_HAL_Driver/Src/stm32f4xx_hal_dma.c ****   * AND ANY EXPRESS OR IMPLIED WARRANTIES, INCLUDING, BUT NOT LIMITED TO, THE
 104:../Drivers/STM32F4xx_HAL_Driver/Src/stm32f4xx_hal_dma.c ****   * IMPLIED WARRANTIES OF MERCHANTABILITY AND FITNESS FOR A PARTICULAR PURPOSE ARE
 105:../Drivers/STM32F4xx_HAL_Driver/Src/stm32f4xx_hal_dma.c ****   * DISCLAIMED. IN NO EVENT SHALL THE COPYRIGHT HOLDER OR CONTRIBUTORS BE LIABLE
 106:../Drivers/STM32F4xx_HAL_Driver/Src/stm32f4xx_hal_dma.c ****   * FOR ANY DIRECT, INDIRECT, INCIDENTAL, SPECIAL, EXEMPLARY, OR CONSEQUENTIAL
 107:../Drivers/STM32F4xx_HAL_Driver/Src/stm32f4xx_hal_dma.c ****   * DAMAGES (INCLUDING, BUT NOT LIMITED TO, PROCUREMENT OF SUBSTITUTE GOODS OR
 108:../Drivers/STM32F4xx_HAL_Driver/Src/stm32f4xx_hal_dma.c ****   * SERVICES; LOSS OF USE, DATA, OR PROFITS; OR BUSINESS INTERRUPTION) HOWEVER
 109:../Drivers/STM32F4xx_HAL_Driver/Src/stm32f4xx_hal_dma.c ****   * CAUSED AND ON ANY THEORY OF LIABILITY, WHETHER IN CONTRACT, STRICT LIABILITY,
 110:../Drivers/STM32F4xx_HAL_Driver/Src/stm32f4xx_hal_dma.c ****   * OR TORT (INCLUDING NEGLIGENCE OR OTHERWISE) ARISING IN ANY WAY OUT OF THE USE
 111:../Drivers/STM32F4xx_HAL_Driver/Src/stm32f4xx_hal_dma.c ****   * OF THIS SOFTWARE, EVEN IF ADVISED OF THE POSSIBILITY OF SUCH DAMAGE.
 112:../Drivers/STM32F4xx_HAL_Driver/Src/stm32f4xx_hal_dma.c ****   *
 113:../Drivers/STM32F4xx_HAL_Driver/Src/stm32f4xx_hal_dma.c ****   ******************************************************************************
 114:../Drivers/STM32F4xx_HAL_Driver/Src/stm32f4xx_hal_dma.c ****   */ 
 115:../Drivers/STM32F4xx_HAL_Driver/Src/stm32f4xx_hal_dma.c **** 
 116:../Drivers/STM32F4xx_HAL_Driver/Src/stm32f4xx_hal_dma.c **** /* Includes ------------------------------------------------------------------*/
 117:../Drivers/STM32F4xx_HAL_Driver/Src/stm32f4xx_hal_dma.c **** #include "stm32f4xx_hal.h"
 118:../Drivers/STM32F4xx_HAL_Driver/Src/stm32f4xx_hal_dma.c **** 
 119:../Drivers/STM32F4xx_HAL_Driver/Src/stm32f4xx_hal_dma.c **** /** @addtogroup STM32F4xx_HAL_Driver
 120:../Drivers/STM32F4xx_HAL_Driver/Src/stm32f4xx_hal_dma.c ****   * @{
 121:../Drivers/STM32F4xx_HAL_Driver/Src/stm32f4xx_hal_dma.c ****   */
 122:../Drivers/STM32F4xx_HAL_Driver/Src/stm32f4xx_hal_dma.c **** 
 123:../Drivers/STM32F4xx_HAL_Driver/Src/stm32f4xx_hal_dma.c **** /** @defgroup DMA 
 124:../Drivers/STM32F4xx_HAL_Driver/Src/stm32f4xx_hal_dma.c ****   * @brief DMA HAL module driver
 125:../Drivers/STM32F4xx_HAL_Driver/Src/stm32f4xx_hal_dma.c ****   * @{
 126:../Drivers/STM32F4xx_HAL_Driver/Src/stm32f4xx_hal_dma.c ****   */
 127:../Drivers/STM32F4xx_HAL_Driver/Src/stm32f4xx_hal_dma.c **** 
 128:../Drivers/STM32F4xx_HAL_Driver/Src/stm32f4xx_hal_dma.c **** #ifdef HAL_DMA_MODULE_ENABLED
 129:../Drivers/STM32F4xx_HAL_Driver/Src/stm32f4xx_hal_dma.c **** 
 130:../Drivers/STM32F4xx_HAL_Driver/Src/stm32f4xx_hal_dma.c **** /* Private typedef -----------------------------------------------------------*/
 131:../Drivers/STM32F4xx_HAL_Driver/Src/stm32f4xx_hal_dma.c **** /* Private define ------------------------------------------------------------*/
 132:../Drivers/STM32F4xx_HAL_Driver/Src/stm32f4xx_hal_dma.c **** #define HAL_TIMEOUT_DMA_ABORT    ((uint32_t)1000)  /* 1s  */
 133:../Drivers/STM32F4xx_HAL_Driver/Src/stm32f4xx_hal_dma.c **** /* Private macro -------------------------------------------------------------*/
 134:../Drivers/STM32F4xx_HAL_Driver/Src/stm32f4xx_hal_dma.c **** /* Private variables ---------------------------------------------------------*/
 135:../Drivers/STM32F4xx_HAL_Driver/Src/stm32f4xx_hal_dma.c **** /* Private function prototypes -----------------------------------------------*/
 136:../Drivers/STM32F4xx_HAL_Driver/Src/stm32f4xx_hal_dma.c **** static void DMA_SetConfig(DMA_HandleTypeDef *hdma, uint32_t SrcAddress, uint32_t DstAddress, uint32
 137:../Drivers/STM32F4xx_HAL_Driver/Src/stm32f4xx_hal_dma.c **** 
 138:../Drivers/STM32F4xx_HAL_Driver/Src/stm32f4xx_hal_dma.c **** /* Private functions ---------------------------------------------------------*/
 139:../Drivers/STM32F4xx_HAL_Driver/Src/stm32f4xx_hal_dma.c **** 
 140:../Drivers/STM32F4xx_HAL_Driver/Src/stm32f4xx_hal_dma.c **** /** @defgroup DMA_Private_Functions
 141:../Drivers/STM32F4xx_HAL_Driver/Src/stm32f4xx_hal_dma.c ****   * @{
 142:../Drivers/STM32F4xx_HAL_Driver/Src/stm32f4xx_hal_dma.c ****   */
 143:../Drivers/STM32F4xx_HAL_Driver/Src/stm32f4xx_hal_dma.c **** 
 144:../Drivers/STM32F4xx_HAL_Driver/Src/stm32f4xx_hal_dma.c **** /** @defgroup DMA_Group1 Initialization and de-initialization functions 
 145:../Drivers/STM32F4xx_HAL_Driver/Src/stm32f4xx_hal_dma.c ****  *  @brief   Initialization and de-initialization functions 
ARM GAS  /tmp/ccAPlzty.s 			page 4


 146:../Drivers/STM32F4xx_HAL_Driver/Src/stm32f4xx_hal_dma.c ****  *
 147:../Drivers/STM32F4xx_HAL_Driver/Src/stm32f4xx_hal_dma.c **** @verbatim   
 148:../Drivers/STM32F4xx_HAL_Driver/Src/stm32f4xx_hal_dma.c ****  ===============================================================================
 149:../Drivers/STM32F4xx_HAL_Driver/Src/stm32f4xx_hal_dma.c ****              ##### Initialization and de-initialization functions  #####
 150:../Drivers/STM32F4xx_HAL_Driver/Src/stm32f4xx_hal_dma.c ****  ===============================================================================  
 151:../Drivers/STM32F4xx_HAL_Driver/Src/stm32f4xx_hal_dma.c ****     [..]
 152:../Drivers/STM32F4xx_HAL_Driver/Src/stm32f4xx_hal_dma.c ****     This section provides functions allowing to initialize the DMA Stream source
 153:../Drivers/STM32F4xx_HAL_Driver/Src/stm32f4xx_hal_dma.c ****     and destination addresses, incrementation and data sizes, transfer direction, 
 154:../Drivers/STM32F4xx_HAL_Driver/Src/stm32f4xx_hal_dma.c ****     circular/normal mode selection, memory-to-memory mode selection and Stream priority value.
 155:../Drivers/STM32F4xx_HAL_Driver/Src/stm32f4xx_hal_dma.c ****     [..]
 156:../Drivers/STM32F4xx_HAL_Driver/Src/stm32f4xx_hal_dma.c ****     The HAL_DMA_Init() function follows the DMA configuration procedures as described in
 157:../Drivers/STM32F4xx_HAL_Driver/Src/stm32f4xx_hal_dma.c ****     reference manual.  
 158:../Drivers/STM32F4xx_HAL_Driver/Src/stm32f4xx_hal_dma.c **** 
 159:../Drivers/STM32F4xx_HAL_Driver/Src/stm32f4xx_hal_dma.c **** @endverbatim
 160:../Drivers/STM32F4xx_HAL_Driver/Src/stm32f4xx_hal_dma.c ****   * @{
 161:../Drivers/STM32F4xx_HAL_Driver/Src/stm32f4xx_hal_dma.c ****   */
 162:../Drivers/STM32F4xx_HAL_Driver/Src/stm32f4xx_hal_dma.c ****   
 163:../Drivers/STM32F4xx_HAL_Driver/Src/stm32f4xx_hal_dma.c **** /**
 164:../Drivers/STM32F4xx_HAL_Driver/Src/stm32f4xx_hal_dma.c ****   * @brief  Initializes the DMA according to the specified
 165:../Drivers/STM32F4xx_HAL_Driver/Src/stm32f4xx_hal_dma.c ****   *         parameters in the DMA_InitTypeDef and create the associated handle.
 166:../Drivers/STM32F4xx_HAL_Driver/Src/stm32f4xx_hal_dma.c ****   * @param  hdma: Pointer to a DMA_HandleTypeDef structure that contains
 167:../Drivers/STM32F4xx_HAL_Driver/Src/stm32f4xx_hal_dma.c ****   *               the configuration information for the specified DMA Stream.  
 168:../Drivers/STM32F4xx_HAL_Driver/Src/stm32f4xx_hal_dma.c ****   * @retval HAL status
 169:../Drivers/STM32F4xx_HAL_Driver/Src/stm32f4xx_hal_dma.c ****   */
 170:../Drivers/STM32F4xx_HAL_Driver/Src/stm32f4xx_hal_dma.c **** HAL_StatusTypeDef HAL_DMA_Init(DMA_HandleTypeDef *hdma)
 171:../Drivers/STM32F4xx_HAL_Driver/Src/stm32f4xx_hal_dma.c **** { 
 172:../Drivers/STM32F4xx_HAL_Driver/Src/stm32f4xx_hal_dma.c ****   uint32_t tmp = 0;
 173:../Drivers/STM32F4xx_HAL_Driver/Src/stm32f4xx_hal_dma.c ****   
 174:../Drivers/STM32F4xx_HAL_Driver/Src/stm32f4xx_hal_dma.c ****   /* Check the DMA peripheral state */
 175:../Drivers/STM32F4xx_HAL_Driver/Src/stm32f4xx_hal_dma.c ****   if(hdma == NULL)
 176:../Drivers/STM32F4xx_HAL_Driver/Src/stm32f4xx_hal_dma.c ****   {
 177:../Drivers/STM32F4xx_HAL_Driver/Src/stm32f4xx_hal_dma.c ****     return HAL_ERROR;
 178:../Drivers/STM32F4xx_HAL_Driver/Src/stm32f4xx_hal_dma.c ****   }
 179:../Drivers/STM32F4xx_HAL_Driver/Src/stm32f4xx_hal_dma.c **** 
 180:../Drivers/STM32F4xx_HAL_Driver/Src/stm32f4xx_hal_dma.c ****   /* Check the parameters */
 181:../Drivers/STM32F4xx_HAL_Driver/Src/stm32f4xx_hal_dma.c ****   assert_param(IS_DMA_STREAM_ALL_INSTANCE(hdma->Instance));
 182:../Drivers/STM32F4xx_HAL_Driver/Src/stm32f4xx_hal_dma.c ****   assert_param(IS_DMA_CHANNEL(hdma->Init.Channel));
 183:../Drivers/STM32F4xx_HAL_Driver/Src/stm32f4xx_hal_dma.c ****   assert_param(IS_DMA_DIRECTION(hdma->Init.Direction));
 184:../Drivers/STM32F4xx_HAL_Driver/Src/stm32f4xx_hal_dma.c ****   assert_param(IS_DMA_PERIPHERAL_INC_STATE(hdma->Init.PeriphInc));
 185:../Drivers/STM32F4xx_HAL_Driver/Src/stm32f4xx_hal_dma.c ****   assert_param(IS_DMA_MEMORY_INC_STATE(hdma->Init.MemInc));
 186:../Drivers/STM32F4xx_HAL_Driver/Src/stm32f4xx_hal_dma.c ****   assert_param(IS_DMA_PERIPHERAL_DATA_SIZE(hdma->Init.PeriphDataAlignment));
 187:../Drivers/STM32F4xx_HAL_Driver/Src/stm32f4xx_hal_dma.c ****   assert_param(IS_DMA_MEMORY_DATA_SIZE(hdma->Init.MemDataAlignment));
 188:../Drivers/STM32F4xx_HAL_Driver/Src/stm32f4xx_hal_dma.c ****   assert_param(IS_DMA_MODE(hdma->Init.Mode));
 189:../Drivers/STM32F4xx_HAL_Driver/Src/stm32f4xx_hal_dma.c ****   assert_param(IS_DMA_PRIORITY(hdma->Init.Priority));
 190:../Drivers/STM32F4xx_HAL_Driver/Src/stm32f4xx_hal_dma.c ****   assert_param(IS_DMA_FIFO_MODE_STATE(hdma->Init.FIFOMode));
 191:../Drivers/STM32F4xx_HAL_Driver/Src/stm32f4xx_hal_dma.c ****   /* Check the memory burst, peripheral burst and FIFO threshold parameters only
 192:../Drivers/STM32F4xx_HAL_Driver/Src/stm32f4xx_hal_dma.c ****      when FIFO mode is enabled */
 193:../Drivers/STM32F4xx_HAL_Driver/Src/stm32f4xx_hal_dma.c ****   if(hdma->Init.FIFOMode != DMA_FIFOMODE_DISABLE)
 194:../Drivers/STM32F4xx_HAL_Driver/Src/stm32f4xx_hal_dma.c ****   {
 195:../Drivers/STM32F4xx_HAL_Driver/Src/stm32f4xx_hal_dma.c ****     assert_param(IS_DMA_FIFO_THRESHOLD(hdma->Init.FIFOThreshold));
 196:../Drivers/STM32F4xx_HAL_Driver/Src/stm32f4xx_hal_dma.c ****     assert_param(IS_DMA_MEMORY_BURST(hdma->Init.MemBurst));
 197:../Drivers/STM32F4xx_HAL_Driver/Src/stm32f4xx_hal_dma.c ****     assert_param(IS_DMA_PERIPHERAL_BURST(hdma->Init.PeriphBurst));
 198:../Drivers/STM32F4xx_HAL_Driver/Src/stm32f4xx_hal_dma.c ****   }
 199:../Drivers/STM32F4xx_HAL_Driver/Src/stm32f4xx_hal_dma.c **** 
 200:../Drivers/STM32F4xx_HAL_Driver/Src/stm32f4xx_hal_dma.c ****   /* Change DMA peripheral state */
 201:../Drivers/STM32F4xx_HAL_Driver/Src/stm32f4xx_hal_dma.c ****   hdma->State = HAL_DMA_STATE_BUSY;
 202:../Drivers/STM32F4xx_HAL_Driver/Src/stm32f4xx_hal_dma.c **** 
ARM GAS  /tmp/ccAPlzty.s 			page 5


 203:../Drivers/STM32F4xx_HAL_Driver/Src/stm32f4xx_hal_dma.c ****   /* Get the CR register value */
 204:../Drivers/STM32F4xx_HAL_Driver/Src/stm32f4xx_hal_dma.c ****   tmp = hdma->Instance->CR;
 205:../Drivers/STM32F4xx_HAL_Driver/Src/stm32f4xx_hal_dma.c **** 
 206:../Drivers/STM32F4xx_HAL_Driver/Src/stm32f4xx_hal_dma.c ****   /* Clear CHSEL, MBURST, PBURST, PL, MSIZE, PSIZE, MINC, PINC, CIRC, DIR and CT bits */
 207:../Drivers/STM32F4xx_HAL_Driver/Src/stm32f4xx_hal_dma.c ****   tmp &= ((uint32_t)~(DMA_SxCR_CHSEL | DMA_SxCR_MBURST | DMA_SxCR_PBURST | \
 208:../Drivers/STM32F4xx_HAL_Driver/Src/stm32f4xx_hal_dma.c ****                       DMA_SxCR_PL    | DMA_SxCR_MSIZE  | DMA_SxCR_PSIZE  | \
 209:../Drivers/STM32F4xx_HAL_Driver/Src/stm32f4xx_hal_dma.c ****                       DMA_SxCR_MINC  | DMA_SxCR_PINC   | DMA_SxCR_CIRC   | \
 210:../Drivers/STM32F4xx_HAL_Driver/Src/stm32f4xx_hal_dma.c ****                       DMA_SxCR_DIR   | DMA_SxCR_CT  ));
 211:../Drivers/STM32F4xx_HAL_Driver/Src/stm32f4xx_hal_dma.c **** 
 212:../Drivers/STM32F4xx_HAL_Driver/Src/stm32f4xx_hal_dma.c ****   /* Prepare the DMA Stream configuration */
 213:../Drivers/STM32F4xx_HAL_Driver/Src/stm32f4xx_hal_dma.c ****   tmp |=  hdma->Init.Channel             | hdma->Init.Direction        |
 214:../Drivers/STM32F4xx_HAL_Driver/Src/stm32f4xx_hal_dma.c ****           hdma->Init.PeriphInc           | hdma->Init.MemInc           |
 215:../Drivers/STM32F4xx_HAL_Driver/Src/stm32f4xx_hal_dma.c ****           hdma->Init.PeriphDataAlignment | hdma->Init.MemDataAlignment |
 216:../Drivers/STM32F4xx_HAL_Driver/Src/stm32f4xx_hal_dma.c ****           hdma->Init.Mode                | hdma->Init.Priority;
 217:../Drivers/STM32F4xx_HAL_Driver/Src/stm32f4xx_hal_dma.c **** 
 218:../Drivers/STM32F4xx_HAL_Driver/Src/stm32f4xx_hal_dma.c ****   /* the Memory burst and peripheral burst are not used when the FIFO is disabled */
 219:../Drivers/STM32F4xx_HAL_Driver/Src/stm32f4xx_hal_dma.c ****   if(hdma->Init.FIFOMode == DMA_FIFOMODE_ENABLE)
 220:../Drivers/STM32F4xx_HAL_Driver/Src/stm32f4xx_hal_dma.c ****   {
 221:../Drivers/STM32F4xx_HAL_Driver/Src/stm32f4xx_hal_dma.c ****     /* Get memory burst and peripheral burst */
 222:../Drivers/STM32F4xx_HAL_Driver/Src/stm32f4xx_hal_dma.c ****     tmp |=  hdma->Init.MemBurst | hdma->Init.PeriphBurst;
 223:../Drivers/STM32F4xx_HAL_Driver/Src/stm32f4xx_hal_dma.c ****   }
 224:../Drivers/STM32F4xx_HAL_Driver/Src/stm32f4xx_hal_dma.c ****   
 225:../Drivers/STM32F4xx_HAL_Driver/Src/stm32f4xx_hal_dma.c ****   /* Write to DMA Stream CR register */
 226:../Drivers/STM32F4xx_HAL_Driver/Src/stm32f4xx_hal_dma.c ****   hdma->Instance->CR = tmp;  
 227:../Drivers/STM32F4xx_HAL_Driver/Src/stm32f4xx_hal_dma.c **** 
 228:../Drivers/STM32F4xx_HAL_Driver/Src/stm32f4xx_hal_dma.c ****   /* Get the FCR register value */
 229:../Drivers/STM32F4xx_HAL_Driver/Src/stm32f4xx_hal_dma.c ****   tmp = hdma->Instance->FCR;
 230:../Drivers/STM32F4xx_HAL_Driver/Src/stm32f4xx_hal_dma.c **** 
 231:../Drivers/STM32F4xx_HAL_Driver/Src/stm32f4xx_hal_dma.c ****   /* Clear Direct mode and FIFO threshold bits */
 232:../Drivers/STM32F4xx_HAL_Driver/Src/stm32f4xx_hal_dma.c ****   tmp &= (uint32_t)~(DMA_SxFCR_DMDIS | DMA_SxFCR_FTH);
 233:../Drivers/STM32F4xx_HAL_Driver/Src/stm32f4xx_hal_dma.c **** 
 234:../Drivers/STM32F4xx_HAL_Driver/Src/stm32f4xx_hal_dma.c ****   /* Prepare the DMA Stream FIFO configuration */
 235:../Drivers/STM32F4xx_HAL_Driver/Src/stm32f4xx_hal_dma.c ****   tmp |= hdma->Init.FIFOMode;
 236:../Drivers/STM32F4xx_HAL_Driver/Src/stm32f4xx_hal_dma.c **** 
 237:../Drivers/STM32F4xx_HAL_Driver/Src/stm32f4xx_hal_dma.c ****   /* the FIFO threshold is not used when the FIFO mode is disabled */
 238:../Drivers/STM32F4xx_HAL_Driver/Src/stm32f4xx_hal_dma.c ****   if(hdma->Init.FIFOMode == DMA_FIFOMODE_ENABLE)
 239:../Drivers/STM32F4xx_HAL_Driver/Src/stm32f4xx_hal_dma.c ****   {
 240:../Drivers/STM32F4xx_HAL_Driver/Src/stm32f4xx_hal_dma.c ****     /* Get the FIFO threshold */
 241:../Drivers/STM32F4xx_HAL_Driver/Src/stm32f4xx_hal_dma.c ****     tmp |= hdma->Init.FIFOThreshold;
 242:../Drivers/STM32F4xx_HAL_Driver/Src/stm32f4xx_hal_dma.c ****   }
 243:../Drivers/STM32F4xx_HAL_Driver/Src/stm32f4xx_hal_dma.c ****   
 244:../Drivers/STM32F4xx_HAL_Driver/Src/stm32f4xx_hal_dma.c ****   /* Write to DMA Stream FCR */
 245:../Drivers/STM32F4xx_HAL_Driver/Src/stm32f4xx_hal_dma.c ****   hdma->Instance->FCR = tmp;
 246:../Drivers/STM32F4xx_HAL_Driver/Src/stm32f4xx_hal_dma.c **** 
 247:../Drivers/STM32F4xx_HAL_Driver/Src/stm32f4xx_hal_dma.c ****   /* Initialise the error code */
 248:../Drivers/STM32F4xx_HAL_Driver/Src/stm32f4xx_hal_dma.c ****   hdma->ErrorCode = HAL_DMA_ERROR_NONE;
 249:../Drivers/STM32F4xx_HAL_Driver/Src/stm32f4xx_hal_dma.c **** 
 250:../Drivers/STM32F4xx_HAL_Driver/Src/stm32f4xx_hal_dma.c ****   /* Initialize the DMA state */
 251:../Drivers/STM32F4xx_HAL_Driver/Src/stm32f4xx_hal_dma.c ****   hdma->State = HAL_DMA_STATE_READY;
 252:../Drivers/STM32F4xx_HAL_Driver/Src/stm32f4xx_hal_dma.c **** 
 253:../Drivers/STM32F4xx_HAL_Driver/Src/stm32f4xx_hal_dma.c ****   return HAL_OK;
 254:../Drivers/STM32F4xx_HAL_Driver/Src/stm32f4xx_hal_dma.c **** }
 255:../Drivers/STM32F4xx_HAL_Driver/Src/stm32f4xx_hal_dma.c **** 
 256:../Drivers/STM32F4xx_HAL_Driver/Src/stm32f4xx_hal_dma.c **** /**
 257:../Drivers/STM32F4xx_HAL_Driver/Src/stm32f4xx_hal_dma.c ****   * @brief  DeInitializes the DMA peripheral 
 258:../Drivers/STM32F4xx_HAL_Driver/Src/stm32f4xx_hal_dma.c ****   * @param  hdma: pointer to a DMA_HandleTypeDef structure that contains
 259:../Drivers/STM32F4xx_HAL_Driver/Src/stm32f4xx_hal_dma.c ****   *               the configuration information for the specified DMA Stream.  
ARM GAS  /tmp/ccAPlzty.s 			page 6


 260:../Drivers/STM32F4xx_HAL_Driver/Src/stm32f4xx_hal_dma.c ****   * @retval HAL status
 261:../Drivers/STM32F4xx_HAL_Driver/Src/stm32f4xx_hal_dma.c ****   */
 262:../Drivers/STM32F4xx_HAL_Driver/Src/stm32f4xx_hal_dma.c **** HAL_StatusTypeDef HAL_DMA_DeInit(DMA_HandleTypeDef *hdma)
 263:../Drivers/STM32F4xx_HAL_Driver/Src/stm32f4xx_hal_dma.c **** {
 264:../Drivers/STM32F4xx_HAL_Driver/Src/stm32f4xx_hal_dma.c ****   /* Check the DMA peripheral state */
 265:../Drivers/STM32F4xx_HAL_Driver/Src/stm32f4xx_hal_dma.c ****   if(hdma == NULL)
 266:../Drivers/STM32F4xx_HAL_Driver/Src/stm32f4xx_hal_dma.c ****   {
 267:../Drivers/STM32F4xx_HAL_Driver/Src/stm32f4xx_hal_dma.c ****     return HAL_ERROR;
 268:../Drivers/STM32F4xx_HAL_Driver/Src/stm32f4xx_hal_dma.c ****   }
 269:../Drivers/STM32F4xx_HAL_Driver/Src/stm32f4xx_hal_dma.c ****   
 270:../Drivers/STM32F4xx_HAL_Driver/Src/stm32f4xx_hal_dma.c ****   /* Check the DMA peripheral state */
 271:../Drivers/STM32F4xx_HAL_Driver/Src/stm32f4xx_hal_dma.c ****   if(hdma->State == HAL_DMA_STATE_BUSY)
 272:../Drivers/STM32F4xx_HAL_Driver/Src/stm32f4xx_hal_dma.c ****   {
 273:../Drivers/STM32F4xx_HAL_Driver/Src/stm32f4xx_hal_dma.c ****      return HAL_ERROR;
 274:../Drivers/STM32F4xx_HAL_Driver/Src/stm32f4xx_hal_dma.c ****   }
 275:../Drivers/STM32F4xx_HAL_Driver/Src/stm32f4xx_hal_dma.c **** 
 276:../Drivers/STM32F4xx_HAL_Driver/Src/stm32f4xx_hal_dma.c ****   /* Disable the selected DMA Streamx */
 277:../Drivers/STM32F4xx_HAL_Driver/Src/stm32f4xx_hal_dma.c ****   __HAL_DMA_DISABLE(hdma);
 278:../Drivers/STM32F4xx_HAL_Driver/Src/stm32f4xx_hal_dma.c **** 
 279:../Drivers/STM32F4xx_HAL_Driver/Src/stm32f4xx_hal_dma.c ****   /* Reset DMA Streamx control register */
 280:../Drivers/STM32F4xx_HAL_Driver/Src/stm32f4xx_hal_dma.c ****   hdma->Instance->CR   = 0;
 281:../Drivers/STM32F4xx_HAL_Driver/Src/stm32f4xx_hal_dma.c **** 
 282:../Drivers/STM32F4xx_HAL_Driver/Src/stm32f4xx_hal_dma.c ****   /* Reset DMA Streamx number of data to transfer register */
 283:../Drivers/STM32F4xx_HAL_Driver/Src/stm32f4xx_hal_dma.c ****   hdma->Instance->NDTR = 0;
 284:../Drivers/STM32F4xx_HAL_Driver/Src/stm32f4xx_hal_dma.c **** 
 285:../Drivers/STM32F4xx_HAL_Driver/Src/stm32f4xx_hal_dma.c ****   /* Reset DMA Streamx peripheral address register */
 286:../Drivers/STM32F4xx_HAL_Driver/Src/stm32f4xx_hal_dma.c ****   hdma->Instance->PAR  = 0;
 287:../Drivers/STM32F4xx_HAL_Driver/Src/stm32f4xx_hal_dma.c **** 
 288:../Drivers/STM32F4xx_HAL_Driver/Src/stm32f4xx_hal_dma.c ****   /* Reset DMA Streamx memory 0 address register */
 289:../Drivers/STM32F4xx_HAL_Driver/Src/stm32f4xx_hal_dma.c ****   hdma->Instance->M0AR = 0;
 290:../Drivers/STM32F4xx_HAL_Driver/Src/stm32f4xx_hal_dma.c **** 
 291:../Drivers/STM32F4xx_HAL_Driver/Src/stm32f4xx_hal_dma.c ****   /* Reset DMA Streamx memory 1 address register */
 292:../Drivers/STM32F4xx_HAL_Driver/Src/stm32f4xx_hal_dma.c ****   hdma->Instance->M1AR = 0;
 293:../Drivers/STM32F4xx_HAL_Driver/Src/stm32f4xx_hal_dma.c **** 
 294:../Drivers/STM32F4xx_HAL_Driver/Src/stm32f4xx_hal_dma.c ****   /* Reset DMA Streamx FIFO control register */
 295:../Drivers/STM32F4xx_HAL_Driver/Src/stm32f4xx_hal_dma.c ****   hdma->Instance->FCR  = (uint32_t)0x00000021;
 296:../Drivers/STM32F4xx_HAL_Driver/Src/stm32f4xx_hal_dma.c **** 
 297:../Drivers/STM32F4xx_HAL_Driver/Src/stm32f4xx_hal_dma.c ****   /* Clear all flags */
 298:../Drivers/STM32F4xx_HAL_Driver/Src/stm32f4xx_hal_dma.c ****   __HAL_DMA_CLEAR_FLAG(hdma, __HAL_DMA_GET_DME_FLAG_INDEX(hdma));
 299:../Drivers/STM32F4xx_HAL_Driver/Src/stm32f4xx_hal_dma.c ****   __HAL_DMA_CLEAR_FLAG(hdma, __HAL_DMA_GET_TC_FLAG_INDEX(hdma));
 300:../Drivers/STM32F4xx_HAL_Driver/Src/stm32f4xx_hal_dma.c ****   __HAL_DMA_CLEAR_FLAG(hdma, __HAL_DMA_GET_TE_FLAG_INDEX(hdma));
 301:../Drivers/STM32F4xx_HAL_Driver/Src/stm32f4xx_hal_dma.c ****   __HAL_DMA_CLEAR_FLAG(hdma, __HAL_DMA_GET_FE_FLAG_INDEX(hdma));
 302:../Drivers/STM32F4xx_HAL_Driver/Src/stm32f4xx_hal_dma.c ****   __HAL_DMA_CLEAR_FLAG(hdma, __HAL_DMA_GET_HT_FLAG_INDEX(hdma));
 303:../Drivers/STM32F4xx_HAL_Driver/Src/stm32f4xx_hal_dma.c **** 
 304:../Drivers/STM32F4xx_HAL_Driver/Src/stm32f4xx_hal_dma.c ****   /* Initialise the error code */
 305:../Drivers/STM32F4xx_HAL_Driver/Src/stm32f4xx_hal_dma.c ****   hdma->ErrorCode = HAL_DMA_ERROR_NONE;
 306:../Drivers/STM32F4xx_HAL_Driver/Src/stm32f4xx_hal_dma.c **** 
 307:../Drivers/STM32F4xx_HAL_Driver/Src/stm32f4xx_hal_dma.c ****   /* Initialize the DMA state */
 308:../Drivers/STM32F4xx_HAL_Driver/Src/stm32f4xx_hal_dma.c ****   hdma->State = HAL_DMA_STATE_RESET;
 309:../Drivers/STM32F4xx_HAL_Driver/Src/stm32f4xx_hal_dma.c **** 
 310:../Drivers/STM32F4xx_HAL_Driver/Src/stm32f4xx_hal_dma.c ****   /* Release Lock */
 311:../Drivers/STM32F4xx_HAL_Driver/Src/stm32f4xx_hal_dma.c ****   __HAL_UNLOCK(hdma);
 312:../Drivers/STM32F4xx_HAL_Driver/Src/stm32f4xx_hal_dma.c **** 
 313:../Drivers/STM32F4xx_HAL_Driver/Src/stm32f4xx_hal_dma.c ****   return HAL_OK;
 314:../Drivers/STM32F4xx_HAL_Driver/Src/stm32f4xx_hal_dma.c **** }
 315:../Drivers/STM32F4xx_HAL_Driver/Src/stm32f4xx_hal_dma.c **** 
 316:../Drivers/STM32F4xx_HAL_Driver/Src/stm32f4xx_hal_dma.c **** /**
ARM GAS  /tmp/ccAPlzty.s 			page 7


 317:../Drivers/STM32F4xx_HAL_Driver/Src/stm32f4xx_hal_dma.c ****   * @}
 318:../Drivers/STM32F4xx_HAL_Driver/Src/stm32f4xx_hal_dma.c ****   */
 319:../Drivers/STM32F4xx_HAL_Driver/Src/stm32f4xx_hal_dma.c **** 
 320:../Drivers/STM32F4xx_HAL_Driver/Src/stm32f4xx_hal_dma.c **** /** @defgroup DMA_Group2 I/O operation functions 
 321:../Drivers/STM32F4xx_HAL_Driver/Src/stm32f4xx_hal_dma.c ****  *  @brief   I/O operation functions  
 322:../Drivers/STM32F4xx_HAL_Driver/Src/stm32f4xx_hal_dma.c ****  *
 323:../Drivers/STM32F4xx_HAL_Driver/Src/stm32f4xx_hal_dma.c **** @verbatim   
 324:../Drivers/STM32F4xx_HAL_Driver/Src/stm32f4xx_hal_dma.c ****  ===============================================================================
 325:../Drivers/STM32F4xx_HAL_Driver/Src/stm32f4xx_hal_dma.c ****                       #####  IO operation functions  #####
 326:../Drivers/STM32F4xx_HAL_Driver/Src/stm32f4xx_hal_dma.c ****  ===============================================================================  
 327:../Drivers/STM32F4xx_HAL_Driver/Src/stm32f4xx_hal_dma.c ****     [..]  This section provides functions allowing to:
 328:../Drivers/STM32F4xx_HAL_Driver/Src/stm32f4xx_hal_dma.c ****       (+) Configure the source, destination address and data length and Start DMA transfer
 329:../Drivers/STM32F4xx_HAL_Driver/Src/stm32f4xx_hal_dma.c ****       (+) Configure the source, destination address and data length and 
 330:../Drivers/STM32F4xx_HAL_Driver/Src/stm32f4xx_hal_dma.c ****           Start DMA transfer with interrupt
 331:../Drivers/STM32F4xx_HAL_Driver/Src/stm32f4xx_hal_dma.c ****       (+) Abort DMA transfer
 332:../Drivers/STM32F4xx_HAL_Driver/Src/stm32f4xx_hal_dma.c ****       (+) Poll for transfer complete
 333:../Drivers/STM32F4xx_HAL_Driver/Src/stm32f4xx_hal_dma.c ****       (+) Handle DMA interrupt request  
 334:../Drivers/STM32F4xx_HAL_Driver/Src/stm32f4xx_hal_dma.c **** 
 335:../Drivers/STM32F4xx_HAL_Driver/Src/stm32f4xx_hal_dma.c **** @endverbatim
 336:../Drivers/STM32F4xx_HAL_Driver/Src/stm32f4xx_hal_dma.c ****   * @{
 337:../Drivers/STM32F4xx_HAL_Driver/Src/stm32f4xx_hal_dma.c ****   */
 338:../Drivers/STM32F4xx_HAL_Driver/Src/stm32f4xx_hal_dma.c **** 
 339:../Drivers/STM32F4xx_HAL_Driver/Src/stm32f4xx_hal_dma.c **** /**
 340:../Drivers/STM32F4xx_HAL_Driver/Src/stm32f4xx_hal_dma.c ****   * @brief  Starts the DMA Transfer.
 341:../Drivers/STM32F4xx_HAL_Driver/Src/stm32f4xx_hal_dma.c ****   * @param  hdma      : pointer to a DMA_HandleTypeDef structure that contains
 342:../Drivers/STM32F4xx_HAL_Driver/Src/stm32f4xx_hal_dma.c ****   *                     the configuration information for the specified DMA Stream.  
 343:../Drivers/STM32F4xx_HAL_Driver/Src/stm32f4xx_hal_dma.c ****   * @param  SrcAddress: The source memory Buffer address
 344:../Drivers/STM32F4xx_HAL_Driver/Src/stm32f4xx_hal_dma.c ****   * @param  DstAddress: The destination memory Buffer address
 345:../Drivers/STM32F4xx_HAL_Driver/Src/stm32f4xx_hal_dma.c ****   * @param  DataLength: The length of data to be transferred from source to destination
 346:../Drivers/STM32F4xx_HAL_Driver/Src/stm32f4xx_hal_dma.c ****   * @retval HAL status
 347:../Drivers/STM32F4xx_HAL_Driver/Src/stm32f4xx_hal_dma.c ****   */
 348:../Drivers/STM32F4xx_HAL_Driver/Src/stm32f4xx_hal_dma.c **** HAL_StatusTypeDef HAL_DMA_Start(DMA_HandleTypeDef *hdma, uint32_t SrcAddress, uint32_t DstAddress, 
 349:../Drivers/STM32F4xx_HAL_Driver/Src/stm32f4xx_hal_dma.c **** {
 350:../Drivers/STM32F4xx_HAL_Driver/Src/stm32f4xx_hal_dma.c ****   /* Process locked */
 351:../Drivers/STM32F4xx_HAL_Driver/Src/stm32f4xx_hal_dma.c ****   __HAL_LOCK(hdma);
 352:../Drivers/STM32F4xx_HAL_Driver/Src/stm32f4xx_hal_dma.c **** 
 353:../Drivers/STM32F4xx_HAL_Driver/Src/stm32f4xx_hal_dma.c ****   /* Change DMA peripheral state */
 354:../Drivers/STM32F4xx_HAL_Driver/Src/stm32f4xx_hal_dma.c ****   hdma->State = HAL_DMA_STATE_BUSY;
 355:../Drivers/STM32F4xx_HAL_Driver/Src/stm32f4xx_hal_dma.c **** 
 356:../Drivers/STM32F4xx_HAL_Driver/Src/stm32f4xx_hal_dma.c ****    /* Check the parameters */
 357:../Drivers/STM32F4xx_HAL_Driver/Src/stm32f4xx_hal_dma.c ****   assert_param(IS_DMA_BUFFER_SIZE(DataLength));
 358:../Drivers/STM32F4xx_HAL_Driver/Src/stm32f4xx_hal_dma.c **** 
 359:../Drivers/STM32F4xx_HAL_Driver/Src/stm32f4xx_hal_dma.c ****   /* Disable the peripheral */
 360:../Drivers/STM32F4xx_HAL_Driver/Src/stm32f4xx_hal_dma.c ****   __HAL_DMA_DISABLE(hdma);
 361:../Drivers/STM32F4xx_HAL_Driver/Src/stm32f4xx_hal_dma.c **** 
 362:../Drivers/STM32F4xx_HAL_Driver/Src/stm32f4xx_hal_dma.c ****   /* Configure the source, destination address and the data length */
 363:../Drivers/STM32F4xx_HAL_Driver/Src/stm32f4xx_hal_dma.c ****   DMA_SetConfig(hdma, SrcAddress, DstAddress, DataLength);
 364:../Drivers/STM32F4xx_HAL_Driver/Src/stm32f4xx_hal_dma.c **** 
 365:../Drivers/STM32F4xx_HAL_Driver/Src/stm32f4xx_hal_dma.c ****   /* Enable the Peripheral */
 366:../Drivers/STM32F4xx_HAL_Driver/Src/stm32f4xx_hal_dma.c ****   __HAL_DMA_ENABLE(hdma);
 367:../Drivers/STM32F4xx_HAL_Driver/Src/stm32f4xx_hal_dma.c **** 
 368:../Drivers/STM32F4xx_HAL_Driver/Src/stm32f4xx_hal_dma.c ****   return HAL_OK; 
 369:../Drivers/STM32F4xx_HAL_Driver/Src/stm32f4xx_hal_dma.c **** }
 370:../Drivers/STM32F4xx_HAL_Driver/Src/stm32f4xx_hal_dma.c **** 
 371:../Drivers/STM32F4xx_HAL_Driver/Src/stm32f4xx_hal_dma.c **** /**
 372:../Drivers/STM32F4xx_HAL_Driver/Src/stm32f4xx_hal_dma.c ****   * @brief  Start the DMA Transfer with interrupt enabled.
 373:../Drivers/STM32F4xx_HAL_Driver/Src/stm32f4xx_hal_dma.c ****   * @param  hdma:       pointer to a DMA_HandleTypeDef structure that contains
ARM GAS  /tmp/ccAPlzty.s 			page 8


 374:../Drivers/STM32F4xx_HAL_Driver/Src/stm32f4xx_hal_dma.c ****   *                     the configuration information for the specified DMA Stream.  
 375:../Drivers/STM32F4xx_HAL_Driver/Src/stm32f4xx_hal_dma.c ****   * @param  SrcAddress: The source memory Buffer address
 376:../Drivers/STM32F4xx_HAL_Driver/Src/stm32f4xx_hal_dma.c ****   * @param  DstAddress: The destination memory Buffer address
 377:../Drivers/STM32F4xx_HAL_Driver/Src/stm32f4xx_hal_dma.c ****   * @param  DataLength: The length of data to be transferred from source to destination
 378:../Drivers/STM32F4xx_HAL_Driver/Src/stm32f4xx_hal_dma.c ****   * @retval HAL status
 379:../Drivers/STM32F4xx_HAL_Driver/Src/stm32f4xx_hal_dma.c ****   */
 380:../Drivers/STM32F4xx_HAL_Driver/Src/stm32f4xx_hal_dma.c **** HAL_StatusTypeDef HAL_DMA_Start_IT(DMA_HandleTypeDef *hdma, uint32_t SrcAddress, uint32_t DstAddres
 381:../Drivers/STM32F4xx_HAL_Driver/Src/stm32f4xx_hal_dma.c **** {
 382:../Drivers/STM32F4xx_HAL_Driver/Src/stm32f4xx_hal_dma.c ****   /* Process locked */
 383:../Drivers/STM32F4xx_HAL_Driver/Src/stm32f4xx_hal_dma.c ****   __HAL_LOCK(hdma);
 384:../Drivers/STM32F4xx_HAL_Driver/Src/stm32f4xx_hal_dma.c **** 
 385:../Drivers/STM32F4xx_HAL_Driver/Src/stm32f4xx_hal_dma.c ****   /* Change DMA peripheral state */
 386:../Drivers/STM32F4xx_HAL_Driver/Src/stm32f4xx_hal_dma.c ****   hdma->State = HAL_DMA_STATE_BUSY;
 387:../Drivers/STM32F4xx_HAL_Driver/Src/stm32f4xx_hal_dma.c **** 
 388:../Drivers/STM32F4xx_HAL_Driver/Src/stm32f4xx_hal_dma.c ****    /* Check the parameters */
 389:../Drivers/STM32F4xx_HAL_Driver/Src/stm32f4xx_hal_dma.c ****   assert_param(IS_DMA_BUFFER_SIZE(DataLength));
 390:../Drivers/STM32F4xx_HAL_Driver/Src/stm32f4xx_hal_dma.c **** 
 391:../Drivers/STM32F4xx_HAL_Driver/Src/stm32f4xx_hal_dma.c ****   /* Disable the peripheral */
 392:../Drivers/STM32F4xx_HAL_Driver/Src/stm32f4xx_hal_dma.c ****   __HAL_DMA_DISABLE(hdma);
 393:../Drivers/STM32F4xx_HAL_Driver/Src/stm32f4xx_hal_dma.c **** 
 394:../Drivers/STM32F4xx_HAL_Driver/Src/stm32f4xx_hal_dma.c ****   /* Configure the source, destination address and the data length */
 395:../Drivers/STM32F4xx_HAL_Driver/Src/stm32f4xx_hal_dma.c ****   DMA_SetConfig(hdma, SrcAddress, DstAddress, DataLength);
 396:../Drivers/STM32F4xx_HAL_Driver/Src/stm32f4xx_hal_dma.c **** 
 397:../Drivers/STM32F4xx_HAL_Driver/Src/stm32f4xx_hal_dma.c ****   /* Enable the transfer complete interrupt */
 398:../Drivers/STM32F4xx_HAL_Driver/Src/stm32f4xx_hal_dma.c ****   __HAL_DMA_ENABLE_IT(hdma, DMA_IT_TC);
 399:../Drivers/STM32F4xx_HAL_Driver/Src/stm32f4xx_hal_dma.c **** 
 400:../Drivers/STM32F4xx_HAL_Driver/Src/stm32f4xx_hal_dma.c ****   /* Enable the Half transfer complete interrupt */
 401:../Drivers/STM32F4xx_HAL_Driver/Src/stm32f4xx_hal_dma.c ****   __HAL_DMA_ENABLE_IT(hdma, DMA_IT_HT);  
 402:../Drivers/STM32F4xx_HAL_Driver/Src/stm32f4xx_hal_dma.c **** 
 403:../Drivers/STM32F4xx_HAL_Driver/Src/stm32f4xx_hal_dma.c ****   /* Enable the transfer Error interrupt */
 404:../Drivers/STM32F4xx_HAL_Driver/Src/stm32f4xx_hal_dma.c ****   __HAL_DMA_ENABLE_IT(hdma, DMA_IT_TE);
 405:../Drivers/STM32F4xx_HAL_Driver/Src/stm32f4xx_hal_dma.c **** 
 406:../Drivers/STM32F4xx_HAL_Driver/Src/stm32f4xx_hal_dma.c ****   /* Enable the FIFO Error interrupt */
 407:../Drivers/STM32F4xx_HAL_Driver/Src/stm32f4xx_hal_dma.c ****   __HAL_DMA_ENABLE_IT(hdma, DMA_IT_FE);
 408:../Drivers/STM32F4xx_HAL_Driver/Src/stm32f4xx_hal_dma.c **** 
 409:../Drivers/STM32F4xx_HAL_Driver/Src/stm32f4xx_hal_dma.c ****   /* Enable the direct mode Error interrupt */
 410:../Drivers/STM32F4xx_HAL_Driver/Src/stm32f4xx_hal_dma.c ****   __HAL_DMA_ENABLE_IT(hdma, DMA_IT_DME);
 411:../Drivers/STM32F4xx_HAL_Driver/Src/stm32f4xx_hal_dma.c **** 
 412:../Drivers/STM32F4xx_HAL_Driver/Src/stm32f4xx_hal_dma.c ****    /* Enable the Peripheral */
 413:../Drivers/STM32F4xx_HAL_Driver/Src/stm32f4xx_hal_dma.c ****   __HAL_DMA_ENABLE(hdma);
 414:../Drivers/STM32F4xx_HAL_Driver/Src/stm32f4xx_hal_dma.c **** 
 415:../Drivers/STM32F4xx_HAL_Driver/Src/stm32f4xx_hal_dma.c ****   return HAL_OK;
 416:../Drivers/STM32F4xx_HAL_Driver/Src/stm32f4xx_hal_dma.c **** } 
 417:../Drivers/STM32F4xx_HAL_Driver/Src/stm32f4xx_hal_dma.c **** 
 418:../Drivers/STM32F4xx_HAL_Driver/Src/stm32f4xx_hal_dma.c **** /**
 419:../Drivers/STM32F4xx_HAL_Driver/Src/stm32f4xx_hal_dma.c ****   * @brief  Aborts the DMA Transfer.
 420:../Drivers/STM32F4xx_HAL_Driver/Src/stm32f4xx_hal_dma.c ****   * @param  hdma  : pointer to a DMA_HandleTypeDef structure that contains
 421:../Drivers/STM32F4xx_HAL_Driver/Src/stm32f4xx_hal_dma.c ****   *                 the configuration information for the specified DMA Stream.
 422:../Drivers/STM32F4xx_HAL_Driver/Src/stm32f4xx_hal_dma.c ****   *                   
 423:../Drivers/STM32F4xx_HAL_Driver/Src/stm32f4xx_hal_dma.c ****   * @note  After disabling a DMA Stream, a check for wait until the DMA Stream is 
 424:../Drivers/STM32F4xx_HAL_Driver/Src/stm32f4xx_hal_dma.c ****   *        effectively disabled is added. If a Stream is disabled 
 425:../Drivers/STM32F4xx_HAL_Driver/Src/stm32f4xx_hal_dma.c ****   *        while a data transfer is ongoing, the current data will be transferred
 426:../Drivers/STM32F4xx_HAL_Driver/Src/stm32f4xx_hal_dma.c ****   *        and the Stream will be effectively disabled only after the transfer of
 427:../Drivers/STM32F4xx_HAL_Driver/Src/stm32f4xx_hal_dma.c ****   *        this single data is finished.  
 428:../Drivers/STM32F4xx_HAL_Driver/Src/stm32f4xx_hal_dma.c ****   * @retval HAL status
 429:../Drivers/STM32F4xx_HAL_Driver/Src/stm32f4xx_hal_dma.c ****   */
 430:../Drivers/STM32F4xx_HAL_Driver/Src/stm32f4xx_hal_dma.c **** HAL_StatusTypeDef HAL_DMA_Abort(DMA_HandleTypeDef *hdma)
ARM GAS  /tmp/ccAPlzty.s 			page 9


 431:../Drivers/STM32F4xx_HAL_Driver/Src/stm32f4xx_hal_dma.c **** {
 432:../Drivers/STM32F4xx_HAL_Driver/Src/stm32f4xx_hal_dma.c ****   uint32_t tickstart = 0;
 433:../Drivers/STM32F4xx_HAL_Driver/Src/stm32f4xx_hal_dma.c **** 
 434:../Drivers/STM32F4xx_HAL_Driver/Src/stm32f4xx_hal_dma.c ****   /* Disable the stream */
 435:../Drivers/STM32F4xx_HAL_Driver/Src/stm32f4xx_hal_dma.c ****   __HAL_DMA_DISABLE(hdma);
 436:../Drivers/STM32F4xx_HAL_Driver/Src/stm32f4xx_hal_dma.c **** 
 437:../Drivers/STM32F4xx_HAL_Driver/Src/stm32f4xx_hal_dma.c ****   /* Get tick */
 438:../Drivers/STM32F4xx_HAL_Driver/Src/stm32f4xx_hal_dma.c ****   tickstart = HAL_GetTick();
 439:../Drivers/STM32F4xx_HAL_Driver/Src/stm32f4xx_hal_dma.c **** 
 440:../Drivers/STM32F4xx_HAL_Driver/Src/stm32f4xx_hal_dma.c ****   /* Check if the DMA Stream is effectively disabled */
 441:../Drivers/STM32F4xx_HAL_Driver/Src/stm32f4xx_hal_dma.c ****   while((hdma->Instance->CR & DMA_SxCR_EN) != 0)
 442:../Drivers/STM32F4xx_HAL_Driver/Src/stm32f4xx_hal_dma.c ****   {
 443:../Drivers/STM32F4xx_HAL_Driver/Src/stm32f4xx_hal_dma.c ****     /* Check for the Timeout */
 444:../Drivers/STM32F4xx_HAL_Driver/Src/stm32f4xx_hal_dma.c ****     if((HAL_GetTick() - tickstart ) > HAL_TIMEOUT_DMA_ABORT)
 445:../Drivers/STM32F4xx_HAL_Driver/Src/stm32f4xx_hal_dma.c ****     {
 446:../Drivers/STM32F4xx_HAL_Driver/Src/stm32f4xx_hal_dma.c ****       /* Update error code */
 447:../Drivers/STM32F4xx_HAL_Driver/Src/stm32f4xx_hal_dma.c ****       hdma->ErrorCode |= HAL_DMA_ERROR_TIMEOUT;
 448:../Drivers/STM32F4xx_HAL_Driver/Src/stm32f4xx_hal_dma.c ****       
 449:../Drivers/STM32F4xx_HAL_Driver/Src/stm32f4xx_hal_dma.c ****       /* Process Unlocked */
 450:../Drivers/STM32F4xx_HAL_Driver/Src/stm32f4xx_hal_dma.c ****       __HAL_UNLOCK(hdma);
 451:../Drivers/STM32F4xx_HAL_Driver/Src/stm32f4xx_hal_dma.c ****       
 452:../Drivers/STM32F4xx_HAL_Driver/Src/stm32f4xx_hal_dma.c ****       /* Change the DMA state */
 453:../Drivers/STM32F4xx_HAL_Driver/Src/stm32f4xx_hal_dma.c ****       hdma->State = HAL_DMA_STATE_TIMEOUT;
 454:../Drivers/STM32F4xx_HAL_Driver/Src/stm32f4xx_hal_dma.c ****       
 455:../Drivers/STM32F4xx_HAL_Driver/Src/stm32f4xx_hal_dma.c ****       return HAL_TIMEOUT;
 456:../Drivers/STM32F4xx_HAL_Driver/Src/stm32f4xx_hal_dma.c ****     }
 457:../Drivers/STM32F4xx_HAL_Driver/Src/stm32f4xx_hal_dma.c ****   }
 458:../Drivers/STM32F4xx_HAL_Driver/Src/stm32f4xx_hal_dma.c ****   /* Process Unlocked */
 459:../Drivers/STM32F4xx_HAL_Driver/Src/stm32f4xx_hal_dma.c ****   __HAL_UNLOCK(hdma);
 460:../Drivers/STM32F4xx_HAL_Driver/Src/stm32f4xx_hal_dma.c **** 
 461:../Drivers/STM32F4xx_HAL_Driver/Src/stm32f4xx_hal_dma.c ****   /* Change the DMA state*/
 462:../Drivers/STM32F4xx_HAL_Driver/Src/stm32f4xx_hal_dma.c ****   hdma->State = HAL_DMA_STATE_READY;
 463:../Drivers/STM32F4xx_HAL_Driver/Src/stm32f4xx_hal_dma.c **** 
 464:../Drivers/STM32F4xx_HAL_Driver/Src/stm32f4xx_hal_dma.c ****   return HAL_OK;
 465:../Drivers/STM32F4xx_HAL_Driver/Src/stm32f4xx_hal_dma.c **** }
 466:../Drivers/STM32F4xx_HAL_Driver/Src/stm32f4xx_hal_dma.c **** 
 467:../Drivers/STM32F4xx_HAL_Driver/Src/stm32f4xx_hal_dma.c **** /**
 468:../Drivers/STM32F4xx_HAL_Driver/Src/stm32f4xx_hal_dma.c ****   * @brief  Polling for transfer complete.
 469:../Drivers/STM32F4xx_HAL_Driver/Src/stm32f4xx_hal_dma.c ****   * @param  hdma:          pointer to a DMA_HandleTypeDef structure that contains
 470:../Drivers/STM32F4xx_HAL_Driver/Src/stm32f4xx_hal_dma.c ****   *                        the configuration information for the specified DMA Stream.
 471:../Drivers/STM32F4xx_HAL_Driver/Src/stm32f4xx_hal_dma.c ****   * @param  CompleteLevel: Specifies the DMA level complete.  
 472:../Drivers/STM32F4xx_HAL_Driver/Src/stm32f4xx_hal_dma.c ****   * @param  Timeout:       Timeout duration.
 473:../Drivers/STM32F4xx_HAL_Driver/Src/stm32f4xx_hal_dma.c ****   * @retval HAL status
 474:../Drivers/STM32F4xx_HAL_Driver/Src/stm32f4xx_hal_dma.c ****   */
 475:../Drivers/STM32F4xx_HAL_Driver/Src/stm32f4xx_hal_dma.c **** HAL_StatusTypeDef HAL_DMA_PollForTransfer(DMA_HandleTypeDef *hdma, uint32_t CompleteLevel, uint32_t
 476:../Drivers/STM32F4xx_HAL_Driver/Src/stm32f4xx_hal_dma.c **** {
 477:../Drivers/STM32F4xx_HAL_Driver/Src/stm32f4xx_hal_dma.c ****   uint32_t temp, tmp, tmp1, tmp2;
 478:../Drivers/STM32F4xx_HAL_Driver/Src/stm32f4xx_hal_dma.c ****   uint32_t tickstart = 0; 
 479:../Drivers/STM32F4xx_HAL_Driver/Src/stm32f4xx_hal_dma.c **** 
 480:../Drivers/STM32F4xx_HAL_Driver/Src/stm32f4xx_hal_dma.c ****   /* Get the level transfer complete flag */
 481:../Drivers/STM32F4xx_HAL_Driver/Src/stm32f4xx_hal_dma.c ****   if(CompleteLevel == HAL_DMA_FULL_TRANSFER)
 482:../Drivers/STM32F4xx_HAL_Driver/Src/stm32f4xx_hal_dma.c ****   {
 483:../Drivers/STM32F4xx_HAL_Driver/Src/stm32f4xx_hal_dma.c ****     /* Transfer Complete flag */
 484:../Drivers/STM32F4xx_HAL_Driver/Src/stm32f4xx_hal_dma.c ****     temp = __HAL_DMA_GET_TC_FLAG_INDEX(hdma);
 485:../Drivers/STM32F4xx_HAL_Driver/Src/stm32f4xx_hal_dma.c ****   }
 486:../Drivers/STM32F4xx_HAL_Driver/Src/stm32f4xx_hal_dma.c ****   else
 487:../Drivers/STM32F4xx_HAL_Driver/Src/stm32f4xx_hal_dma.c ****   {
ARM GAS  /tmp/ccAPlzty.s 			page 10


 488:../Drivers/STM32F4xx_HAL_Driver/Src/stm32f4xx_hal_dma.c ****     /* Half Transfer Complete flag */
 489:../Drivers/STM32F4xx_HAL_Driver/Src/stm32f4xx_hal_dma.c ****     temp = __HAL_DMA_GET_HT_FLAG_INDEX(hdma);
 490:../Drivers/STM32F4xx_HAL_Driver/Src/stm32f4xx_hal_dma.c ****   }
 491:../Drivers/STM32F4xx_HAL_Driver/Src/stm32f4xx_hal_dma.c **** 
 492:../Drivers/STM32F4xx_HAL_Driver/Src/stm32f4xx_hal_dma.c ****   /* Get tick */
 493:../Drivers/STM32F4xx_HAL_Driver/Src/stm32f4xx_hal_dma.c ****   tickstart = HAL_GetTick();
 494:../Drivers/STM32F4xx_HAL_Driver/Src/stm32f4xx_hal_dma.c **** 
 495:../Drivers/STM32F4xx_HAL_Driver/Src/stm32f4xx_hal_dma.c ****   while(__HAL_DMA_GET_FLAG(hdma, temp) == RESET)
 496:../Drivers/STM32F4xx_HAL_Driver/Src/stm32f4xx_hal_dma.c ****   {
 497:../Drivers/STM32F4xx_HAL_Driver/Src/stm32f4xx_hal_dma.c ****     tmp  = __HAL_DMA_GET_FLAG(hdma, __HAL_DMA_GET_TE_FLAG_INDEX(hdma));
 498:../Drivers/STM32F4xx_HAL_Driver/Src/stm32f4xx_hal_dma.c ****     tmp1 = __HAL_DMA_GET_FLAG(hdma, __HAL_DMA_GET_FE_FLAG_INDEX(hdma));
 499:../Drivers/STM32F4xx_HAL_Driver/Src/stm32f4xx_hal_dma.c ****     tmp2 = __HAL_DMA_GET_FLAG(hdma, __HAL_DMA_GET_DME_FLAG_INDEX(hdma));
 500:../Drivers/STM32F4xx_HAL_Driver/Src/stm32f4xx_hal_dma.c ****     if((tmp != RESET) || (tmp1 != RESET) || (tmp2 != RESET))
 501:../Drivers/STM32F4xx_HAL_Driver/Src/stm32f4xx_hal_dma.c ****     {
 502:../Drivers/STM32F4xx_HAL_Driver/Src/stm32f4xx_hal_dma.c ****       if(tmp != RESET)
 503:../Drivers/STM32F4xx_HAL_Driver/Src/stm32f4xx_hal_dma.c ****       {
 504:../Drivers/STM32F4xx_HAL_Driver/Src/stm32f4xx_hal_dma.c ****         /* Update error code */
 505:../Drivers/STM32F4xx_HAL_Driver/Src/stm32f4xx_hal_dma.c ****         hdma->ErrorCode |= HAL_DMA_ERROR_TE;
 506:../Drivers/STM32F4xx_HAL_Driver/Src/stm32f4xx_hal_dma.c **** 
 507:../Drivers/STM32F4xx_HAL_Driver/Src/stm32f4xx_hal_dma.c ****         /* Clear the transfer error flag */
 508:../Drivers/STM32F4xx_HAL_Driver/Src/stm32f4xx_hal_dma.c ****         __HAL_DMA_CLEAR_FLAG(hdma, __HAL_DMA_GET_TE_FLAG_INDEX(hdma));
 509:../Drivers/STM32F4xx_HAL_Driver/Src/stm32f4xx_hal_dma.c ****       }
 510:../Drivers/STM32F4xx_HAL_Driver/Src/stm32f4xx_hal_dma.c ****       if(tmp1 != RESET)
 511:../Drivers/STM32F4xx_HAL_Driver/Src/stm32f4xx_hal_dma.c ****       {
 512:../Drivers/STM32F4xx_HAL_Driver/Src/stm32f4xx_hal_dma.c ****         /* Update error code */
 513:../Drivers/STM32F4xx_HAL_Driver/Src/stm32f4xx_hal_dma.c ****         hdma->ErrorCode |= HAL_DMA_ERROR_FE;
 514:../Drivers/STM32F4xx_HAL_Driver/Src/stm32f4xx_hal_dma.c ****  
 515:../Drivers/STM32F4xx_HAL_Driver/Src/stm32f4xx_hal_dma.c ****         /* Clear the FIFO error flag */
 516:../Drivers/STM32F4xx_HAL_Driver/Src/stm32f4xx_hal_dma.c ****         __HAL_DMA_CLEAR_FLAG(hdma, __HAL_DMA_GET_FE_FLAG_INDEX(hdma));
 517:../Drivers/STM32F4xx_HAL_Driver/Src/stm32f4xx_hal_dma.c ****       }
 518:../Drivers/STM32F4xx_HAL_Driver/Src/stm32f4xx_hal_dma.c ****       if(tmp2 != RESET)
 519:../Drivers/STM32F4xx_HAL_Driver/Src/stm32f4xx_hal_dma.c ****       {
 520:../Drivers/STM32F4xx_HAL_Driver/Src/stm32f4xx_hal_dma.c ****         /* Update error code */
 521:../Drivers/STM32F4xx_HAL_Driver/Src/stm32f4xx_hal_dma.c ****         hdma->ErrorCode |= HAL_DMA_ERROR_DME;
 522:../Drivers/STM32F4xx_HAL_Driver/Src/stm32f4xx_hal_dma.c **** 
 523:../Drivers/STM32F4xx_HAL_Driver/Src/stm32f4xx_hal_dma.c ****         /* Clear the Direct Mode error flag */
 524:../Drivers/STM32F4xx_HAL_Driver/Src/stm32f4xx_hal_dma.c ****         __HAL_DMA_CLEAR_FLAG(hdma, __HAL_DMA_GET_DME_FLAG_INDEX(hdma));
 525:../Drivers/STM32F4xx_HAL_Driver/Src/stm32f4xx_hal_dma.c ****       }
 526:../Drivers/STM32F4xx_HAL_Driver/Src/stm32f4xx_hal_dma.c ****       /* Change the DMA state */
 527:../Drivers/STM32F4xx_HAL_Driver/Src/stm32f4xx_hal_dma.c ****       hdma->State= HAL_DMA_STATE_ERROR;
 528:../Drivers/STM32F4xx_HAL_Driver/Src/stm32f4xx_hal_dma.c ****       
 529:../Drivers/STM32F4xx_HAL_Driver/Src/stm32f4xx_hal_dma.c ****       /* Process Unlocked */
 530:../Drivers/STM32F4xx_HAL_Driver/Src/stm32f4xx_hal_dma.c ****       __HAL_UNLOCK(hdma);
 531:../Drivers/STM32F4xx_HAL_Driver/Src/stm32f4xx_hal_dma.c **** 
 532:../Drivers/STM32F4xx_HAL_Driver/Src/stm32f4xx_hal_dma.c ****       return HAL_ERROR;
 533:../Drivers/STM32F4xx_HAL_Driver/Src/stm32f4xx_hal_dma.c ****     }  
 534:../Drivers/STM32F4xx_HAL_Driver/Src/stm32f4xx_hal_dma.c ****     /* Check for the Timeout */
 535:../Drivers/STM32F4xx_HAL_Driver/Src/stm32f4xx_hal_dma.c ****     if(Timeout != HAL_MAX_DELAY)
 536:../Drivers/STM32F4xx_HAL_Driver/Src/stm32f4xx_hal_dma.c ****     {
 537:../Drivers/STM32F4xx_HAL_Driver/Src/stm32f4xx_hal_dma.c ****       if((Timeout == 0)||((HAL_GetTick() - tickstart ) > Timeout))
 538:../Drivers/STM32F4xx_HAL_Driver/Src/stm32f4xx_hal_dma.c ****       {
 539:../Drivers/STM32F4xx_HAL_Driver/Src/stm32f4xx_hal_dma.c ****         /* Update error code */
 540:../Drivers/STM32F4xx_HAL_Driver/Src/stm32f4xx_hal_dma.c ****         hdma->ErrorCode |= HAL_DMA_ERROR_TIMEOUT;
 541:../Drivers/STM32F4xx_HAL_Driver/Src/stm32f4xx_hal_dma.c **** 
 542:../Drivers/STM32F4xx_HAL_Driver/Src/stm32f4xx_hal_dma.c ****         /* Change the DMA state */
 543:../Drivers/STM32F4xx_HAL_Driver/Src/stm32f4xx_hal_dma.c ****         hdma->State = HAL_DMA_STATE_TIMEOUT;
 544:../Drivers/STM32F4xx_HAL_Driver/Src/stm32f4xx_hal_dma.c **** 
ARM GAS  /tmp/ccAPlzty.s 			page 11


 545:../Drivers/STM32F4xx_HAL_Driver/Src/stm32f4xx_hal_dma.c ****         /* Process Unlocked */
 546:../Drivers/STM32F4xx_HAL_Driver/Src/stm32f4xx_hal_dma.c ****         __HAL_UNLOCK(hdma);
 547:../Drivers/STM32F4xx_HAL_Driver/Src/stm32f4xx_hal_dma.c ****         
 548:../Drivers/STM32F4xx_HAL_Driver/Src/stm32f4xx_hal_dma.c ****         return HAL_TIMEOUT;
 549:../Drivers/STM32F4xx_HAL_Driver/Src/stm32f4xx_hal_dma.c ****       }
 550:../Drivers/STM32F4xx_HAL_Driver/Src/stm32f4xx_hal_dma.c ****     }
 551:../Drivers/STM32F4xx_HAL_Driver/Src/stm32f4xx_hal_dma.c ****   }
 552:../Drivers/STM32F4xx_HAL_Driver/Src/stm32f4xx_hal_dma.c **** 
 553:../Drivers/STM32F4xx_HAL_Driver/Src/stm32f4xx_hal_dma.c ****   if(CompleteLevel == HAL_DMA_FULL_TRANSFER)
 554:../Drivers/STM32F4xx_HAL_Driver/Src/stm32f4xx_hal_dma.c ****   {
 555:../Drivers/STM32F4xx_HAL_Driver/Src/stm32f4xx_hal_dma.c ****     /* Multi_Buffering mode enabled */
 556:../Drivers/STM32F4xx_HAL_Driver/Src/stm32f4xx_hal_dma.c ****     if(((hdma->Instance->CR) & (uint32_t)(DMA_SxCR_DBM)) != 0)
 557:../Drivers/STM32F4xx_HAL_Driver/Src/stm32f4xx_hal_dma.c ****     {
 558:../Drivers/STM32F4xx_HAL_Driver/Src/stm32f4xx_hal_dma.c ****       /* Clear the half transfer complete flag */
 559:../Drivers/STM32F4xx_HAL_Driver/Src/stm32f4xx_hal_dma.c ****       __HAL_DMA_CLEAR_FLAG(hdma, __HAL_DMA_GET_HT_FLAG_INDEX(hdma));
 560:../Drivers/STM32F4xx_HAL_Driver/Src/stm32f4xx_hal_dma.c ****       /* Clear the transfer complete flag */
 561:../Drivers/STM32F4xx_HAL_Driver/Src/stm32f4xx_hal_dma.c ****       __HAL_DMA_CLEAR_FLAG(hdma, __HAL_DMA_GET_TC_FLAG_INDEX(hdma));
 562:../Drivers/STM32F4xx_HAL_Driver/Src/stm32f4xx_hal_dma.c **** 
 563:../Drivers/STM32F4xx_HAL_Driver/Src/stm32f4xx_hal_dma.c ****       /* Current memory buffer used is Memory 0 */
 564:../Drivers/STM32F4xx_HAL_Driver/Src/stm32f4xx_hal_dma.c ****       if((hdma->Instance->CR & DMA_SxCR_CT) == 0)
 565:../Drivers/STM32F4xx_HAL_Driver/Src/stm32f4xx_hal_dma.c ****       {
 566:../Drivers/STM32F4xx_HAL_Driver/Src/stm32f4xx_hal_dma.c ****         /* Change DMA peripheral state */
 567:../Drivers/STM32F4xx_HAL_Driver/Src/stm32f4xx_hal_dma.c ****         hdma->State = HAL_DMA_STATE_READY_MEM0;
 568:../Drivers/STM32F4xx_HAL_Driver/Src/stm32f4xx_hal_dma.c ****       }
 569:../Drivers/STM32F4xx_HAL_Driver/Src/stm32f4xx_hal_dma.c ****       /* Current memory buffer used is Memory 1 */
 570:../Drivers/STM32F4xx_HAL_Driver/Src/stm32f4xx_hal_dma.c ****       else if((hdma->Instance->CR & DMA_SxCR_CT) != 0)
 571:../Drivers/STM32F4xx_HAL_Driver/Src/stm32f4xx_hal_dma.c ****       {
 572:../Drivers/STM32F4xx_HAL_Driver/Src/stm32f4xx_hal_dma.c ****         /* Change DMA peripheral state */
 573:../Drivers/STM32F4xx_HAL_Driver/Src/stm32f4xx_hal_dma.c ****         hdma->State = HAL_DMA_STATE_READY_MEM1;
 574:../Drivers/STM32F4xx_HAL_Driver/Src/stm32f4xx_hal_dma.c ****       }
 575:../Drivers/STM32F4xx_HAL_Driver/Src/stm32f4xx_hal_dma.c ****     }
 576:../Drivers/STM32F4xx_HAL_Driver/Src/stm32f4xx_hal_dma.c ****     else
 577:../Drivers/STM32F4xx_HAL_Driver/Src/stm32f4xx_hal_dma.c ****     {
 578:../Drivers/STM32F4xx_HAL_Driver/Src/stm32f4xx_hal_dma.c ****       /* Clear the half transfer complete flag */
 579:../Drivers/STM32F4xx_HAL_Driver/Src/stm32f4xx_hal_dma.c ****       __HAL_DMA_CLEAR_FLAG(hdma, __HAL_DMA_GET_HT_FLAG_INDEX(hdma));
 580:../Drivers/STM32F4xx_HAL_Driver/Src/stm32f4xx_hal_dma.c ****       /* Clear the transfer complete flag */
 581:../Drivers/STM32F4xx_HAL_Driver/Src/stm32f4xx_hal_dma.c ****       __HAL_DMA_CLEAR_FLAG(hdma, __HAL_DMA_GET_TC_FLAG_INDEX(hdma)); 
 582:../Drivers/STM32F4xx_HAL_Driver/Src/stm32f4xx_hal_dma.c **** 
 583:../Drivers/STM32F4xx_HAL_Driver/Src/stm32f4xx_hal_dma.c ****       /* The selected Streamx EN bit is cleared (DMA is disabled and all transfers
 584:../Drivers/STM32F4xx_HAL_Driver/Src/stm32f4xx_hal_dma.c ****          are complete) */
 585:../Drivers/STM32F4xx_HAL_Driver/Src/stm32f4xx_hal_dma.c ****       hdma->State = HAL_DMA_STATE_READY_MEM0;
 586:../Drivers/STM32F4xx_HAL_Driver/Src/stm32f4xx_hal_dma.c ****     }
 587:../Drivers/STM32F4xx_HAL_Driver/Src/stm32f4xx_hal_dma.c ****     /* Process Unlocked */
 588:../Drivers/STM32F4xx_HAL_Driver/Src/stm32f4xx_hal_dma.c ****     __HAL_UNLOCK(hdma);
 589:../Drivers/STM32F4xx_HAL_Driver/Src/stm32f4xx_hal_dma.c ****   }
 590:../Drivers/STM32F4xx_HAL_Driver/Src/stm32f4xx_hal_dma.c ****   else
 591:../Drivers/STM32F4xx_HAL_Driver/Src/stm32f4xx_hal_dma.c ****   { 
 592:../Drivers/STM32F4xx_HAL_Driver/Src/stm32f4xx_hal_dma.c ****     /* Multi_Buffering mode enabled */
 593:../Drivers/STM32F4xx_HAL_Driver/Src/stm32f4xx_hal_dma.c ****     if(((hdma->Instance->CR) & (uint32_t)(DMA_SxCR_DBM)) != 0)
 594:../Drivers/STM32F4xx_HAL_Driver/Src/stm32f4xx_hal_dma.c ****     {
 595:../Drivers/STM32F4xx_HAL_Driver/Src/stm32f4xx_hal_dma.c ****       /* Clear the half transfer complete flag */
 596:../Drivers/STM32F4xx_HAL_Driver/Src/stm32f4xx_hal_dma.c ****       __HAL_DMA_CLEAR_FLAG(hdma, __HAL_DMA_GET_HT_FLAG_INDEX(hdma));
 597:../Drivers/STM32F4xx_HAL_Driver/Src/stm32f4xx_hal_dma.c **** 
 598:../Drivers/STM32F4xx_HAL_Driver/Src/stm32f4xx_hal_dma.c ****       /* Current memory buffer used is Memory 0 */
 599:../Drivers/STM32F4xx_HAL_Driver/Src/stm32f4xx_hal_dma.c ****       if((hdma->Instance->CR & DMA_SxCR_CT) == 0)
 600:../Drivers/STM32F4xx_HAL_Driver/Src/stm32f4xx_hal_dma.c ****       {
 601:../Drivers/STM32F4xx_HAL_Driver/Src/stm32f4xx_hal_dma.c ****         /* Change DMA peripheral state */
ARM GAS  /tmp/ccAPlzty.s 			page 12


 602:../Drivers/STM32F4xx_HAL_Driver/Src/stm32f4xx_hal_dma.c ****         hdma->State = HAL_DMA_STATE_READY_HALF_MEM0;
 603:../Drivers/STM32F4xx_HAL_Driver/Src/stm32f4xx_hal_dma.c ****       }
 604:../Drivers/STM32F4xx_HAL_Driver/Src/stm32f4xx_hal_dma.c ****       /* Current memory buffer used is Memory 1 */
 605:../Drivers/STM32F4xx_HAL_Driver/Src/stm32f4xx_hal_dma.c ****       else if((hdma->Instance->CR & DMA_SxCR_CT) != 0)
 606:../Drivers/STM32F4xx_HAL_Driver/Src/stm32f4xx_hal_dma.c ****       {
 607:../Drivers/STM32F4xx_HAL_Driver/Src/stm32f4xx_hal_dma.c ****         /* Change DMA peripheral state */
 608:../Drivers/STM32F4xx_HAL_Driver/Src/stm32f4xx_hal_dma.c ****         hdma->State = HAL_DMA_STATE_READY_HALF_MEM1;
 609:../Drivers/STM32F4xx_HAL_Driver/Src/stm32f4xx_hal_dma.c ****       }
 610:../Drivers/STM32F4xx_HAL_Driver/Src/stm32f4xx_hal_dma.c ****     }
 611:../Drivers/STM32F4xx_HAL_Driver/Src/stm32f4xx_hal_dma.c ****     else
 612:../Drivers/STM32F4xx_HAL_Driver/Src/stm32f4xx_hal_dma.c ****     {
 613:../Drivers/STM32F4xx_HAL_Driver/Src/stm32f4xx_hal_dma.c ****       /* Clear the half transfer complete flag */
 614:../Drivers/STM32F4xx_HAL_Driver/Src/stm32f4xx_hal_dma.c ****       __HAL_DMA_CLEAR_FLAG(hdma, __HAL_DMA_GET_HT_FLAG_INDEX(hdma));
 615:../Drivers/STM32F4xx_HAL_Driver/Src/stm32f4xx_hal_dma.c **** 
 616:../Drivers/STM32F4xx_HAL_Driver/Src/stm32f4xx_hal_dma.c ****       /* Change DMA peripheral state */
 617:../Drivers/STM32F4xx_HAL_Driver/Src/stm32f4xx_hal_dma.c ****       hdma->State = HAL_DMA_STATE_READY_HALF_MEM0;
 618:../Drivers/STM32F4xx_HAL_Driver/Src/stm32f4xx_hal_dma.c ****     }
 619:../Drivers/STM32F4xx_HAL_Driver/Src/stm32f4xx_hal_dma.c ****   }
 620:../Drivers/STM32F4xx_HAL_Driver/Src/stm32f4xx_hal_dma.c ****   return HAL_OK;
 621:../Drivers/STM32F4xx_HAL_Driver/Src/stm32f4xx_hal_dma.c **** }
 622:../Drivers/STM32F4xx_HAL_Driver/Src/stm32f4xx_hal_dma.c **** 
 623:../Drivers/STM32F4xx_HAL_Driver/Src/stm32f4xx_hal_dma.c **** /**
 624:../Drivers/STM32F4xx_HAL_Driver/Src/stm32f4xx_hal_dma.c ****   * @brief  Handles DMA interrupt request.
 625:../Drivers/STM32F4xx_HAL_Driver/Src/stm32f4xx_hal_dma.c ****   * @param  hdma: pointer to a DMA_HandleTypeDef structure that contains
 626:../Drivers/STM32F4xx_HAL_Driver/Src/stm32f4xx_hal_dma.c ****   *               the configuration information for the specified DMA Stream.  
 627:../Drivers/STM32F4xx_HAL_Driver/Src/stm32f4xx_hal_dma.c ****   * @retval None
 628:../Drivers/STM32F4xx_HAL_Driver/Src/stm32f4xx_hal_dma.c ****   */
 629:../Drivers/STM32F4xx_HAL_Driver/Src/stm32f4xx_hal_dma.c **** void HAL_DMA_IRQHandler(DMA_HandleTypeDef *hdma)
 630:../Drivers/STM32F4xx_HAL_Driver/Src/stm32f4xx_hal_dma.c **** {
 631:../Drivers/STM32F4xx_HAL_Driver/Src/stm32f4xx_hal_dma.c ****   /* Transfer Error Interrupt management ***************************************/
 632:../Drivers/STM32F4xx_HAL_Driver/Src/stm32f4xx_hal_dma.c ****   if(__HAL_DMA_GET_FLAG(hdma, __HAL_DMA_GET_TE_FLAG_INDEX(hdma)) != RESET)
 633:../Drivers/STM32F4xx_HAL_Driver/Src/stm32f4xx_hal_dma.c ****   {
 634:../Drivers/STM32F4xx_HAL_Driver/Src/stm32f4xx_hal_dma.c ****     if(__HAL_DMA_GET_IT_SOURCE(hdma, DMA_IT_TE) != RESET)
 635:../Drivers/STM32F4xx_HAL_Driver/Src/stm32f4xx_hal_dma.c ****     {
 636:../Drivers/STM32F4xx_HAL_Driver/Src/stm32f4xx_hal_dma.c ****       /* Disable the transfer error interrupt */
 637:../Drivers/STM32F4xx_HAL_Driver/Src/stm32f4xx_hal_dma.c ****       __HAL_DMA_DISABLE_IT(hdma, DMA_IT_TE);
 638:../Drivers/STM32F4xx_HAL_Driver/Src/stm32f4xx_hal_dma.c **** 
 639:../Drivers/STM32F4xx_HAL_Driver/Src/stm32f4xx_hal_dma.c ****       /* Clear the transfer error flag */
 640:../Drivers/STM32F4xx_HAL_Driver/Src/stm32f4xx_hal_dma.c ****       __HAL_DMA_CLEAR_FLAG(hdma, __HAL_DMA_GET_TE_FLAG_INDEX(hdma));
 641:../Drivers/STM32F4xx_HAL_Driver/Src/stm32f4xx_hal_dma.c **** 
 642:../Drivers/STM32F4xx_HAL_Driver/Src/stm32f4xx_hal_dma.c ****       /* Update error code */
 643:../Drivers/STM32F4xx_HAL_Driver/Src/stm32f4xx_hal_dma.c ****       hdma->ErrorCode |= HAL_DMA_ERROR_TE;
 644:../Drivers/STM32F4xx_HAL_Driver/Src/stm32f4xx_hal_dma.c **** 
 645:../Drivers/STM32F4xx_HAL_Driver/Src/stm32f4xx_hal_dma.c ****       /* Change the DMA state */
 646:../Drivers/STM32F4xx_HAL_Driver/Src/stm32f4xx_hal_dma.c ****       hdma->State = HAL_DMA_STATE_ERROR;
 647:../Drivers/STM32F4xx_HAL_Driver/Src/stm32f4xx_hal_dma.c **** 
 648:../Drivers/STM32F4xx_HAL_Driver/Src/stm32f4xx_hal_dma.c ****       /* Process Unlocked */
 649:../Drivers/STM32F4xx_HAL_Driver/Src/stm32f4xx_hal_dma.c ****       __HAL_UNLOCK(hdma); 
 650:../Drivers/STM32F4xx_HAL_Driver/Src/stm32f4xx_hal_dma.c **** 
 651:../Drivers/STM32F4xx_HAL_Driver/Src/stm32f4xx_hal_dma.c ****       if(hdma->XferErrorCallback != NULL)
 652:../Drivers/STM32F4xx_HAL_Driver/Src/stm32f4xx_hal_dma.c ****       {
 653:../Drivers/STM32F4xx_HAL_Driver/Src/stm32f4xx_hal_dma.c ****         /* Transfer error callback */
 654:../Drivers/STM32F4xx_HAL_Driver/Src/stm32f4xx_hal_dma.c ****         hdma->XferErrorCallback(hdma);
 655:../Drivers/STM32F4xx_HAL_Driver/Src/stm32f4xx_hal_dma.c ****       }
 656:../Drivers/STM32F4xx_HAL_Driver/Src/stm32f4xx_hal_dma.c ****     }
 657:../Drivers/STM32F4xx_HAL_Driver/Src/stm32f4xx_hal_dma.c ****   }
 658:../Drivers/STM32F4xx_HAL_Driver/Src/stm32f4xx_hal_dma.c ****   /* FIFO Error Interrupt management ******************************************/
ARM GAS  /tmp/ccAPlzty.s 			page 13


 659:../Drivers/STM32F4xx_HAL_Driver/Src/stm32f4xx_hal_dma.c ****   if(__HAL_DMA_GET_FLAG(hdma, __HAL_DMA_GET_FE_FLAG_INDEX(hdma)) != RESET)
 660:../Drivers/STM32F4xx_HAL_Driver/Src/stm32f4xx_hal_dma.c ****   {
 661:../Drivers/STM32F4xx_HAL_Driver/Src/stm32f4xx_hal_dma.c ****     if(__HAL_DMA_GET_IT_SOURCE(hdma, DMA_IT_FE) != RESET)
 662:../Drivers/STM32F4xx_HAL_Driver/Src/stm32f4xx_hal_dma.c ****     {
 663:../Drivers/STM32F4xx_HAL_Driver/Src/stm32f4xx_hal_dma.c ****       /* Disable the FIFO Error interrupt */
 664:../Drivers/STM32F4xx_HAL_Driver/Src/stm32f4xx_hal_dma.c ****       __HAL_DMA_DISABLE_IT(hdma, DMA_IT_FE);
 665:../Drivers/STM32F4xx_HAL_Driver/Src/stm32f4xx_hal_dma.c **** 
 666:../Drivers/STM32F4xx_HAL_Driver/Src/stm32f4xx_hal_dma.c ****       /* Clear the FIFO error flag */
 667:../Drivers/STM32F4xx_HAL_Driver/Src/stm32f4xx_hal_dma.c ****       __HAL_DMA_CLEAR_FLAG(hdma, __HAL_DMA_GET_FE_FLAG_INDEX(hdma));
 668:../Drivers/STM32F4xx_HAL_Driver/Src/stm32f4xx_hal_dma.c **** 
 669:../Drivers/STM32F4xx_HAL_Driver/Src/stm32f4xx_hal_dma.c ****       /* Update error code */
 670:../Drivers/STM32F4xx_HAL_Driver/Src/stm32f4xx_hal_dma.c ****       hdma->ErrorCode |= HAL_DMA_ERROR_FE;
 671:../Drivers/STM32F4xx_HAL_Driver/Src/stm32f4xx_hal_dma.c **** 
 672:../Drivers/STM32F4xx_HAL_Driver/Src/stm32f4xx_hal_dma.c ****       /* Change the DMA state */
 673:../Drivers/STM32F4xx_HAL_Driver/Src/stm32f4xx_hal_dma.c ****       hdma->State = HAL_DMA_STATE_ERROR;
 674:../Drivers/STM32F4xx_HAL_Driver/Src/stm32f4xx_hal_dma.c **** 
 675:../Drivers/STM32F4xx_HAL_Driver/Src/stm32f4xx_hal_dma.c ****       /* Process Unlocked */
 676:../Drivers/STM32F4xx_HAL_Driver/Src/stm32f4xx_hal_dma.c ****       __HAL_UNLOCK(hdma);
 677:../Drivers/STM32F4xx_HAL_Driver/Src/stm32f4xx_hal_dma.c **** 
 678:../Drivers/STM32F4xx_HAL_Driver/Src/stm32f4xx_hal_dma.c ****       if(hdma->XferErrorCallback != NULL)
 679:../Drivers/STM32F4xx_HAL_Driver/Src/stm32f4xx_hal_dma.c ****       {
 680:../Drivers/STM32F4xx_HAL_Driver/Src/stm32f4xx_hal_dma.c ****         /* Transfer error callback */
 681:../Drivers/STM32F4xx_HAL_Driver/Src/stm32f4xx_hal_dma.c ****         hdma->XferErrorCallback(hdma);
 682:../Drivers/STM32F4xx_HAL_Driver/Src/stm32f4xx_hal_dma.c ****       }
 683:../Drivers/STM32F4xx_HAL_Driver/Src/stm32f4xx_hal_dma.c ****     }
 684:../Drivers/STM32F4xx_HAL_Driver/Src/stm32f4xx_hal_dma.c ****   }
 685:../Drivers/STM32F4xx_HAL_Driver/Src/stm32f4xx_hal_dma.c ****   /* Direct Mode Error Interrupt management ***********************************/
 686:../Drivers/STM32F4xx_HAL_Driver/Src/stm32f4xx_hal_dma.c ****   if(__HAL_DMA_GET_FLAG(hdma, __HAL_DMA_GET_DME_FLAG_INDEX(hdma)) != RESET)
 687:../Drivers/STM32F4xx_HAL_Driver/Src/stm32f4xx_hal_dma.c ****   {
 688:../Drivers/STM32F4xx_HAL_Driver/Src/stm32f4xx_hal_dma.c ****     if(__HAL_DMA_GET_IT_SOURCE(hdma, DMA_IT_DME) != RESET)
 689:../Drivers/STM32F4xx_HAL_Driver/Src/stm32f4xx_hal_dma.c ****     {
 690:../Drivers/STM32F4xx_HAL_Driver/Src/stm32f4xx_hal_dma.c ****       /* Disable the direct mode Error interrupt */
 691:../Drivers/STM32F4xx_HAL_Driver/Src/stm32f4xx_hal_dma.c ****       __HAL_DMA_DISABLE_IT(hdma, DMA_IT_DME);
 692:../Drivers/STM32F4xx_HAL_Driver/Src/stm32f4xx_hal_dma.c **** 
 693:../Drivers/STM32F4xx_HAL_Driver/Src/stm32f4xx_hal_dma.c ****       /* Clear the direct mode error flag */
 694:../Drivers/STM32F4xx_HAL_Driver/Src/stm32f4xx_hal_dma.c ****       __HAL_DMA_CLEAR_FLAG(hdma, __HAL_DMA_GET_DME_FLAG_INDEX(hdma));
 695:../Drivers/STM32F4xx_HAL_Driver/Src/stm32f4xx_hal_dma.c **** 
 696:../Drivers/STM32F4xx_HAL_Driver/Src/stm32f4xx_hal_dma.c ****       /* Update error code */
 697:../Drivers/STM32F4xx_HAL_Driver/Src/stm32f4xx_hal_dma.c ****       hdma->ErrorCode |= HAL_DMA_ERROR_DME;
 698:../Drivers/STM32F4xx_HAL_Driver/Src/stm32f4xx_hal_dma.c **** 
 699:../Drivers/STM32F4xx_HAL_Driver/Src/stm32f4xx_hal_dma.c ****       /* Change the DMA state */
 700:../Drivers/STM32F4xx_HAL_Driver/Src/stm32f4xx_hal_dma.c ****       hdma->State = HAL_DMA_STATE_ERROR;
 701:../Drivers/STM32F4xx_HAL_Driver/Src/stm32f4xx_hal_dma.c **** 
 702:../Drivers/STM32F4xx_HAL_Driver/Src/stm32f4xx_hal_dma.c ****       /* Process Unlocked */
 703:../Drivers/STM32F4xx_HAL_Driver/Src/stm32f4xx_hal_dma.c ****       __HAL_UNLOCK(hdma);
 704:../Drivers/STM32F4xx_HAL_Driver/Src/stm32f4xx_hal_dma.c **** 
 705:../Drivers/STM32F4xx_HAL_Driver/Src/stm32f4xx_hal_dma.c ****       if(hdma->XferErrorCallback != NULL)
 706:../Drivers/STM32F4xx_HAL_Driver/Src/stm32f4xx_hal_dma.c ****       {
 707:../Drivers/STM32F4xx_HAL_Driver/Src/stm32f4xx_hal_dma.c ****         /* Transfer error callback */
 708:../Drivers/STM32F4xx_HAL_Driver/Src/stm32f4xx_hal_dma.c ****         hdma->XferErrorCallback(hdma);
 709:../Drivers/STM32F4xx_HAL_Driver/Src/stm32f4xx_hal_dma.c ****       }
 710:../Drivers/STM32F4xx_HAL_Driver/Src/stm32f4xx_hal_dma.c ****     }
 711:../Drivers/STM32F4xx_HAL_Driver/Src/stm32f4xx_hal_dma.c ****   }
 712:../Drivers/STM32F4xx_HAL_Driver/Src/stm32f4xx_hal_dma.c ****   /* Half Transfer Complete Interrupt management ******************************/
 713:../Drivers/STM32F4xx_HAL_Driver/Src/stm32f4xx_hal_dma.c ****   if(__HAL_DMA_GET_FLAG(hdma, __HAL_DMA_GET_HT_FLAG_INDEX(hdma)) != RESET)
 714:../Drivers/STM32F4xx_HAL_Driver/Src/stm32f4xx_hal_dma.c ****   {
 715:../Drivers/STM32F4xx_HAL_Driver/Src/stm32f4xx_hal_dma.c ****     if(__HAL_DMA_GET_IT_SOURCE(hdma, DMA_IT_HT) != RESET)
ARM GAS  /tmp/ccAPlzty.s 			page 14


 716:../Drivers/STM32F4xx_HAL_Driver/Src/stm32f4xx_hal_dma.c ****     { 
 717:../Drivers/STM32F4xx_HAL_Driver/Src/stm32f4xx_hal_dma.c ****       /* Multi_Buffering mode enabled */
 718:../Drivers/STM32F4xx_HAL_Driver/Src/stm32f4xx_hal_dma.c ****       if(((hdma->Instance->CR) & (uint32_t)(DMA_SxCR_DBM)) != 0)
 719:../Drivers/STM32F4xx_HAL_Driver/Src/stm32f4xx_hal_dma.c ****       {
 720:../Drivers/STM32F4xx_HAL_Driver/Src/stm32f4xx_hal_dma.c ****         /* Clear the half transfer complete flag */
 721:../Drivers/STM32F4xx_HAL_Driver/Src/stm32f4xx_hal_dma.c ****         __HAL_DMA_CLEAR_FLAG(hdma, __HAL_DMA_GET_HT_FLAG_INDEX(hdma));
 722:../Drivers/STM32F4xx_HAL_Driver/Src/stm32f4xx_hal_dma.c **** 
 723:../Drivers/STM32F4xx_HAL_Driver/Src/stm32f4xx_hal_dma.c ****         /* Current memory buffer used is Memory 0 */
 724:../Drivers/STM32F4xx_HAL_Driver/Src/stm32f4xx_hal_dma.c ****         if((hdma->Instance->CR & DMA_SxCR_CT) == 0)
 725:../Drivers/STM32F4xx_HAL_Driver/Src/stm32f4xx_hal_dma.c ****         {
 726:../Drivers/STM32F4xx_HAL_Driver/Src/stm32f4xx_hal_dma.c ****           /* Change DMA peripheral state */
 727:../Drivers/STM32F4xx_HAL_Driver/Src/stm32f4xx_hal_dma.c ****           hdma->State = HAL_DMA_STATE_READY_HALF_MEM0;
 728:../Drivers/STM32F4xx_HAL_Driver/Src/stm32f4xx_hal_dma.c ****         }
 729:../Drivers/STM32F4xx_HAL_Driver/Src/stm32f4xx_hal_dma.c ****         /* Current memory buffer used is Memory 1 */
 730:../Drivers/STM32F4xx_HAL_Driver/Src/stm32f4xx_hal_dma.c ****         else if((hdma->Instance->CR & DMA_SxCR_CT) != 0)
 731:../Drivers/STM32F4xx_HAL_Driver/Src/stm32f4xx_hal_dma.c ****         {
 732:../Drivers/STM32F4xx_HAL_Driver/Src/stm32f4xx_hal_dma.c ****           /* Change DMA peripheral state */
 733:../Drivers/STM32F4xx_HAL_Driver/Src/stm32f4xx_hal_dma.c ****           hdma->State = HAL_DMA_STATE_READY_HALF_MEM1;
 734:../Drivers/STM32F4xx_HAL_Driver/Src/stm32f4xx_hal_dma.c ****         }
 735:../Drivers/STM32F4xx_HAL_Driver/Src/stm32f4xx_hal_dma.c ****       }
 736:../Drivers/STM32F4xx_HAL_Driver/Src/stm32f4xx_hal_dma.c ****       else
 737:../Drivers/STM32F4xx_HAL_Driver/Src/stm32f4xx_hal_dma.c ****       {
 738:../Drivers/STM32F4xx_HAL_Driver/Src/stm32f4xx_hal_dma.c ****         /* Disable the half transfer interrupt if the DMA mode is not CIRCULAR */
 739:../Drivers/STM32F4xx_HAL_Driver/Src/stm32f4xx_hal_dma.c ****         if((hdma->Instance->CR & DMA_SxCR_CIRC) == 0)
 740:../Drivers/STM32F4xx_HAL_Driver/Src/stm32f4xx_hal_dma.c ****         {
 741:../Drivers/STM32F4xx_HAL_Driver/Src/stm32f4xx_hal_dma.c ****           /* Disable the half transfer interrupt */
 742:../Drivers/STM32F4xx_HAL_Driver/Src/stm32f4xx_hal_dma.c ****           __HAL_DMA_DISABLE_IT(hdma, DMA_IT_HT);
 743:../Drivers/STM32F4xx_HAL_Driver/Src/stm32f4xx_hal_dma.c ****         }
 744:../Drivers/STM32F4xx_HAL_Driver/Src/stm32f4xx_hal_dma.c ****         /* Clear the half transfer complete flag */
 745:../Drivers/STM32F4xx_HAL_Driver/Src/stm32f4xx_hal_dma.c ****         __HAL_DMA_CLEAR_FLAG(hdma, __HAL_DMA_GET_HT_FLAG_INDEX(hdma));
 746:../Drivers/STM32F4xx_HAL_Driver/Src/stm32f4xx_hal_dma.c **** 
 747:../Drivers/STM32F4xx_HAL_Driver/Src/stm32f4xx_hal_dma.c ****         /* Change DMA peripheral state */
 748:../Drivers/STM32F4xx_HAL_Driver/Src/stm32f4xx_hal_dma.c ****         hdma->State = HAL_DMA_STATE_READY_HALF_MEM0;
 749:../Drivers/STM32F4xx_HAL_Driver/Src/stm32f4xx_hal_dma.c ****       }
 750:../Drivers/STM32F4xx_HAL_Driver/Src/stm32f4xx_hal_dma.c **** 
 751:../Drivers/STM32F4xx_HAL_Driver/Src/stm32f4xx_hal_dma.c ****       if(hdma->XferHalfCpltCallback != NULL)
 752:../Drivers/STM32F4xx_HAL_Driver/Src/stm32f4xx_hal_dma.c ****       {
 753:../Drivers/STM32F4xx_HAL_Driver/Src/stm32f4xx_hal_dma.c ****         /* Half transfer callback */
 754:../Drivers/STM32F4xx_HAL_Driver/Src/stm32f4xx_hal_dma.c ****         hdma->XferHalfCpltCallback(hdma);
 755:../Drivers/STM32F4xx_HAL_Driver/Src/stm32f4xx_hal_dma.c ****       }
 756:../Drivers/STM32F4xx_HAL_Driver/Src/stm32f4xx_hal_dma.c ****     }
 757:../Drivers/STM32F4xx_HAL_Driver/Src/stm32f4xx_hal_dma.c ****   }
 758:../Drivers/STM32F4xx_HAL_Driver/Src/stm32f4xx_hal_dma.c ****   /* Transfer Complete Interrupt management ***********************************/
 759:../Drivers/STM32F4xx_HAL_Driver/Src/stm32f4xx_hal_dma.c ****   if(__HAL_DMA_GET_FLAG(hdma, __HAL_DMA_GET_TC_FLAG_INDEX(hdma)) != RESET)
 760:../Drivers/STM32F4xx_HAL_Driver/Src/stm32f4xx_hal_dma.c ****   {
 761:../Drivers/STM32F4xx_HAL_Driver/Src/stm32f4xx_hal_dma.c ****     if(__HAL_DMA_GET_IT_SOURCE(hdma, DMA_IT_TC) != RESET)
 762:../Drivers/STM32F4xx_HAL_Driver/Src/stm32f4xx_hal_dma.c ****     {
 763:../Drivers/STM32F4xx_HAL_Driver/Src/stm32f4xx_hal_dma.c ****       if(((hdma->Instance->CR) & (uint32_t)(DMA_SxCR_DBM)) != 0)
 764:../Drivers/STM32F4xx_HAL_Driver/Src/stm32f4xx_hal_dma.c ****       {
 765:../Drivers/STM32F4xx_HAL_Driver/Src/stm32f4xx_hal_dma.c ****         /* Clear the transfer complete flag */
 766:../Drivers/STM32F4xx_HAL_Driver/Src/stm32f4xx_hal_dma.c ****         __HAL_DMA_CLEAR_FLAG(hdma, __HAL_DMA_GET_TC_FLAG_INDEX(hdma));
 767:../Drivers/STM32F4xx_HAL_Driver/Src/stm32f4xx_hal_dma.c **** 
 768:../Drivers/STM32F4xx_HAL_Driver/Src/stm32f4xx_hal_dma.c ****         /* Current memory buffer used is Memory 1 */
 769:../Drivers/STM32F4xx_HAL_Driver/Src/stm32f4xx_hal_dma.c ****         if((hdma->Instance->CR & DMA_SxCR_CT) == 0)
 770:../Drivers/STM32F4xx_HAL_Driver/Src/stm32f4xx_hal_dma.c ****         {
 771:../Drivers/STM32F4xx_HAL_Driver/Src/stm32f4xx_hal_dma.c ****           if(hdma->XferM1CpltCallback != NULL)
 772:../Drivers/STM32F4xx_HAL_Driver/Src/stm32f4xx_hal_dma.c ****           {
ARM GAS  /tmp/ccAPlzty.s 			page 15


 773:../Drivers/STM32F4xx_HAL_Driver/Src/stm32f4xx_hal_dma.c ****             /* Transfer complete Callback for memory1 */
 774:../Drivers/STM32F4xx_HAL_Driver/Src/stm32f4xx_hal_dma.c ****             hdma->XferM1CpltCallback(hdma);
 775:../Drivers/STM32F4xx_HAL_Driver/Src/stm32f4xx_hal_dma.c ****           }
 776:../Drivers/STM32F4xx_HAL_Driver/Src/stm32f4xx_hal_dma.c ****         }
 777:../Drivers/STM32F4xx_HAL_Driver/Src/stm32f4xx_hal_dma.c ****         /* Current memory buffer used is Memory 0 */
 778:../Drivers/STM32F4xx_HAL_Driver/Src/stm32f4xx_hal_dma.c ****         else if((hdma->Instance->CR & DMA_SxCR_CT) != 0) 
 779:../Drivers/STM32F4xx_HAL_Driver/Src/stm32f4xx_hal_dma.c ****         {
 780:../Drivers/STM32F4xx_HAL_Driver/Src/stm32f4xx_hal_dma.c ****           if(hdma->XferCpltCallback != NULL)
 781:../Drivers/STM32F4xx_HAL_Driver/Src/stm32f4xx_hal_dma.c ****           {
 782:../Drivers/STM32F4xx_HAL_Driver/Src/stm32f4xx_hal_dma.c ****             /* Transfer complete Callback for memory0 */
 783:../Drivers/STM32F4xx_HAL_Driver/Src/stm32f4xx_hal_dma.c ****             hdma->XferCpltCallback(hdma);
 784:../Drivers/STM32F4xx_HAL_Driver/Src/stm32f4xx_hal_dma.c ****           }
 785:../Drivers/STM32F4xx_HAL_Driver/Src/stm32f4xx_hal_dma.c ****         }
 786:../Drivers/STM32F4xx_HAL_Driver/Src/stm32f4xx_hal_dma.c ****       }
 787:../Drivers/STM32F4xx_HAL_Driver/Src/stm32f4xx_hal_dma.c ****       /* Disable the transfer complete interrupt if the DMA mode is not CIRCULAR */
 788:../Drivers/STM32F4xx_HAL_Driver/Src/stm32f4xx_hal_dma.c ****       else
 789:../Drivers/STM32F4xx_HAL_Driver/Src/stm32f4xx_hal_dma.c ****       {
 790:../Drivers/STM32F4xx_HAL_Driver/Src/stm32f4xx_hal_dma.c ****         if((hdma->Instance->CR & DMA_SxCR_CIRC) == 0)
 791:../Drivers/STM32F4xx_HAL_Driver/Src/stm32f4xx_hal_dma.c ****         {
 792:../Drivers/STM32F4xx_HAL_Driver/Src/stm32f4xx_hal_dma.c ****           /* Disable the transfer complete interrupt */
 793:../Drivers/STM32F4xx_HAL_Driver/Src/stm32f4xx_hal_dma.c ****           __HAL_DMA_DISABLE_IT(hdma, DMA_IT_TC);
 794:../Drivers/STM32F4xx_HAL_Driver/Src/stm32f4xx_hal_dma.c ****         }
 795:../Drivers/STM32F4xx_HAL_Driver/Src/stm32f4xx_hal_dma.c ****         /* Clear the transfer complete flag */
 796:../Drivers/STM32F4xx_HAL_Driver/Src/stm32f4xx_hal_dma.c ****         __HAL_DMA_CLEAR_FLAG(hdma, __HAL_DMA_GET_TC_FLAG_INDEX(hdma));
 797:../Drivers/STM32F4xx_HAL_Driver/Src/stm32f4xx_hal_dma.c **** 
 798:../Drivers/STM32F4xx_HAL_Driver/Src/stm32f4xx_hal_dma.c ****         /* Update error code */
 799:../Drivers/STM32F4xx_HAL_Driver/Src/stm32f4xx_hal_dma.c ****         hdma->ErrorCode |= HAL_DMA_ERROR_NONE;
 800:../Drivers/STM32F4xx_HAL_Driver/Src/stm32f4xx_hal_dma.c **** 
 801:../Drivers/STM32F4xx_HAL_Driver/Src/stm32f4xx_hal_dma.c ****         /* Change the DMA state */
 802:../Drivers/STM32F4xx_HAL_Driver/Src/stm32f4xx_hal_dma.c ****         hdma->State = HAL_DMA_STATE_READY_MEM0;
 803:../Drivers/STM32F4xx_HAL_Driver/Src/stm32f4xx_hal_dma.c **** 
 804:../Drivers/STM32F4xx_HAL_Driver/Src/stm32f4xx_hal_dma.c ****         /* Process Unlocked */
 805:../Drivers/STM32F4xx_HAL_Driver/Src/stm32f4xx_hal_dma.c ****         __HAL_UNLOCK(hdma);      
 806:../Drivers/STM32F4xx_HAL_Driver/Src/stm32f4xx_hal_dma.c **** 
 807:../Drivers/STM32F4xx_HAL_Driver/Src/stm32f4xx_hal_dma.c ****         if(hdma->XferCpltCallback != NULL)
 808:../Drivers/STM32F4xx_HAL_Driver/Src/stm32f4xx_hal_dma.c ****         {
 809:../Drivers/STM32F4xx_HAL_Driver/Src/stm32f4xx_hal_dma.c ****           /* Transfer complete callback */
 810:../Drivers/STM32F4xx_HAL_Driver/Src/stm32f4xx_hal_dma.c ****           hdma->XferCpltCallback(hdma);
 811:../Drivers/STM32F4xx_HAL_Driver/Src/stm32f4xx_hal_dma.c ****         }
 812:../Drivers/STM32F4xx_HAL_Driver/Src/stm32f4xx_hal_dma.c ****       }
 813:../Drivers/STM32F4xx_HAL_Driver/Src/stm32f4xx_hal_dma.c ****     }
 814:../Drivers/STM32F4xx_HAL_Driver/Src/stm32f4xx_hal_dma.c ****   }
 815:../Drivers/STM32F4xx_HAL_Driver/Src/stm32f4xx_hal_dma.c **** }
 816:../Drivers/STM32F4xx_HAL_Driver/Src/stm32f4xx_hal_dma.c **** 
 817:../Drivers/STM32F4xx_HAL_Driver/Src/stm32f4xx_hal_dma.c **** /**
 818:../Drivers/STM32F4xx_HAL_Driver/Src/stm32f4xx_hal_dma.c ****   * @}
 819:../Drivers/STM32F4xx_HAL_Driver/Src/stm32f4xx_hal_dma.c ****   */
 820:../Drivers/STM32F4xx_HAL_Driver/Src/stm32f4xx_hal_dma.c **** 
 821:../Drivers/STM32F4xx_HAL_Driver/Src/stm32f4xx_hal_dma.c **** /** @defgroup DMA_Group3 Peripheral State functions
 822:../Drivers/STM32F4xx_HAL_Driver/Src/stm32f4xx_hal_dma.c ****  *  @brief    Peripheral State functions 
 823:../Drivers/STM32F4xx_HAL_Driver/Src/stm32f4xx_hal_dma.c ****  *
 824:../Drivers/STM32F4xx_HAL_Driver/Src/stm32f4xx_hal_dma.c **** @verbatim
 825:../Drivers/STM32F4xx_HAL_Driver/Src/stm32f4xx_hal_dma.c ****  ===============================================================================
 826:../Drivers/STM32F4xx_HAL_Driver/Src/stm32f4xx_hal_dma.c ****                     ##### State and Errors functions #####
 827:../Drivers/STM32F4xx_HAL_Driver/Src/stm32f4xx_hal_dma.c ****  ===============================================================================
 828:../Drivers/STM32F4xx_HAL_Driver/Src/stm32f4xx_hal_dma.c ****     [..]
 829:../Drivers/STM32F4xx_HAL_Driver/Src/stm32f4xx_hal_dma.c ****     This subsection provides functions allowing to
ARM GAS  /tmp/ccAPlzty.s 			page 16


 830:../Drivers/STM32F4xx_HAL_Driver/Src/stm32f4xx_hal_dma.c ****       (+) Check the DMA state
 831:../Drivers/STM32F4xx_HAL_Driver/Src/stm32f4xx_hal_dma.c ****       (+) Get error code
 832:../Drivers/STM32F4xx_HAL_Driver/Src/stm32f4xx_hal_dma.c **** 
 833:../Drivers/STM32F4xx_HAL_Driver/Src/stm32f4xx_hal_dma.c **** @endverbatim
 834:../Drivers/STM32F4xx_HAL_Driver/Src/stm32f4xx_hal_dma.c ****   * @{
 835:../Drivers/STM32F4xx_HAL_Driver/Src/stm32f4xx_hal_dma.c ****   */
 836:../Drivers/STM32F4xx_HAL_Driver/Src/stm32f4xx_hal_dma.c **** 
 837:../Drivers/STM32F4xx_HAL_Driver/Src/stm32f4xx_hal_dma.c **** /**
 838:../Drivers/STM32F4xx_HAL_Driver/Src/stm32f4xx_hal_dma.c ****   * @brief  Returns the DMA state.
 839:../Drivers/STM32F4xx_HAL_Driver/Src/stm32f4xx_hal_dma.c ****   * @param  hdma: pointer to a DMA_HandleTypeDef structure that contains
 840:../Drivers/STM32F4xx_HAL_Driver/Src/stm32f4xx_hal_dma.c ****   *               the configuration information for the specified DMA Stream.
 841:../Drivers/STM32F4xx_HAL_Driver/Src/stm32f4xx_hal_dma.c ****   * @retval HAL state
 842:../Drivers/STM32F4xx_HAL_Driver/Src/stm32f4xx_hal_dma.c ****   */
 843:../Drivers/STM32F4xx_HAL_Driver/Src/stm32f4xx_hal_dma.c **** HAL_DMA_StateTypeDef HAL_DMA_GetState(DMA_HandleTypeDef *hdma)
 844:../Drivers/STM32F4xx_HAL_Driver/Src/stm32f4xx_hal_dma.c **** {
 845:../Drivers/STM32F4xx_HAL_Driver/Src/stm32f4xx_hal_dma.c ****   return hdma->State;
 846:../Drivers/STM32F4xx_HAL_Driver/Src/stm32f4xx_hal_dma.c **** }
 847:../Drivers/STM32F4xx_HAL_Driver/Src/stm32f4xx_hal_dma.c **** 
 848:../Drivers/STM32F4xx_HAL_Driver/Src/stm32f4xx_hal_dma.c **** /**
 849:../Drivers/STM32F4xx_HAL_Driver/Src/stm32f4xx_hal_dma.c ****   * @brief  Return the DMA error code
 850:../Drivers/STM32F4xx_HAL_Driver/Src/stm32f4xx_hal_dma.c ****   * @param  hdma : pointer to a DMA_HandleTypeDef structure that contains
 851:../Drivers/STM32F4xx_HAL_Driver/Src/stm32f4xx_hal_dma.c ****   *              the configuration information for the specified DMA Stream.
 852:../Drivers/STM32F4xx_HAL_Driver/Src/stm32f4xx_hal_dma.c ****   * @retval DMA Error Code
 853:../Drivers/STM32F4xx_HAL_Driver/Src/stm32f4xx_hal_dma.c ****   */
 854:../Drivers/STM32F4xx_HAL_Driver/Src/stm32f4xx_hal_dma.c **** uint32_t HAL_DMA_GetError(DMA_HandleTypeDef *hdma)
 855:../Drivers/STM32F4xx_HAL_Driver/Src/stm32f4xx_hal_dma.c **** {
 856:../Drivers/STM32F4xx_HAL_Driver/Src/stm32f4xx_hal_dma.c ****   return hdma->ErrorCode;
 857:../Drivers/STM32F4xx_HAL_Driver/Src/stm32f4xx_hal_dma.c **** }
 858:../Drivers/STM32F4xx_HAL_Driver/Src/stm32f4xx_hal_dma.c **** 
 859:../Drivers/STM32F4xx_HAL_Driver/Src/stm32f4xx_hal_dma.c **** /**
 860:../Drivers/STM32F4xx_HAL_Driver/Src/stm32f4xx_hal_dma.c ****   * @}
 861:../Drivers/STM32F4xx_HAL_Driver/Src/stm32f4xx_hal_dma.c ****   */
 862:../Drivers/STM32F4xx_HAL_Driver/Src/stm32f4xx_hal_dma.c **** 
 863:../Drivers/STM32F4xx_HAL_Driver/Src/stm32f4xx_hal_dma.c **** /**
 864:../Drivers/STM32F4xx_HAL_Driver/Src/stm32f4xx_hal_dma.c ****   * @brief  Sets the DMA Transfer parameter.
 865:../Drivers/STM32F4xx_HAL_Driver/Src/stm32f4xx_hal_dma.c ****   * @param  hdma:       pointer to a DMA_HandleTypeDef structure that contains
 866:../Drivers/STM32F4xx_HAL_Driver/Src/stm32f4xx_hal_dma.c ****   *                     the configuration information for the specified DMA Stream.
 867:../Drivers/STM32F4xx_HAL_Driver/Src/stm32f4xx_hal_dma.c ****   * @param  SrcAddress: The source memory Buffer address
 868:../Drivers/STM32F4xx_HAL_Driver/Src/stm32f4xx_hal_dma.c ****   * @param  DstAddress: The destination memory Buffer address
 869:../Drivers/STM32F4xx_HAL_Driver/Src/stm32f4xx_hal_dma.c ****   * @param  DataLength: The length of data to be transferred from source to destination
 870:../Drivers/STM32F4xx_HAL_Driver/Src/stm32f4xx_hal_dma.c ****   * @retval HAL status
 871:../Drivers/STM32F4xx_HAL_Driver/Src/stm32f4xx_hal_dma.c ****   */
 872:../Drivers/STM32F4xx_HAL_Driver/Src/stm32f4xx_hal_dma.c **** static void DMA_SetConfig(DMA_HandleTypeDef *hdma, uint32_t SrcAddress, uint32_t DstAddress, uint32
 873:../Drivers/STM32F4xx_HAL_Driver/Src/stm32f4xx_hal_dma.c **** {
  28              		.loc 1 873 0
  29              		.cfi_startproc
  30              		@ args = 0, pretend = 0, frame = 0
  31              		@ frame_needed = 0, uses_anonymous_args = 0
  32              		@ link register save eliminated.
  33              	.LVL0:
  34 0000 10B4     		push	{r4}
  35              	.LCFI0:
  36              		.cfi_def_cfa_offset 4
  37              		.cfi_offset 4, -4
 874:../Drivers/STM32F4xx_HAL_Driver/Src/stm32f4xx_hal_dma.c ****   /* Configure DMA Stream data length */
 875:../Drivers/STM32F4xx_HAL_Driver/Src/stm32f4xx_hal_dma.c ****   hdma->Instance->NDTR = DataLength;
  38              		.loc 1 875 0
ARM GAS  /tmp/ccAPlzty.s 			page 17


  39 0002 0468     		ldr	r4, [r0]
  40 0004 6360     		str	r3, [r4, #4]
 876:../Drivers/STM32F4xx_HAL_Driver/Src/stm32f4xx_hal_dma.c **** 
 877:../Drivers/STM32F4xx_HAL_Driver/Src/stm32f4xx_hal_dma.c ****   /* Peripheral to Memory */
 878:../Drivers/STM32F4xx_HAL_Driver/Src/stm32f4xx_hal_dma.c ****   if((hdma->Init.Direction) == DMA_MEMORY_TO_PERIPH)
  41              		.loc 1 878 0
  42 0006 8368     		ldr	r3, [r0, #8]
  43              	.LVL1:
  44 0008 402B     		cmp	r3, #64
  45 000a 04D1     		bne	.L2
 879:../Drivers/STM32F4xx_HAL_Driver/Src/stm32f4xx_hal_dma.c ****   {
 880:../Drivers/STM32F4xx_HAL_Driver/Src/stm32f4xx_hal_dma.c ****     /* Configure DMA Stream destination address */
 881:../Drivers/STM32F4xx_HAL_Driver/Src/stm32f4xx_hal_dma.c ****     hdma->Instance->PAR = DstAddress;
  46              		.loc 1 881 0
  47 000c 0368     		ldr	r3, [r0]
  48 000e 9A60     		str	r2, [r3, #8]
  49              	.LVL2:
 882:../Drivers/STM32F4xx_HAL_Driver/Src/stm32f4xx_hal_dma.c **** 
 883:../Drivers/STM32F4xx_HAL_Driver/Src/stm32f4xx_hal_dma.c ****     /* Configure DMA Stream source address */
 884:../Drivers/STM32F4xx_HAL_Driver/Src/stm32f4xx_hal_dma.c ****     hdma->Instance->M0AR = SrcAddress;
  50              		.loc 1 884 0
  51 0010 0368     		ldr	r3, [r0]
  52 0012 D960     		str	r1, [r3, #12]
  53 0014 03E0     		b	.L1
  54              	.LVL3:
  55              	.L2:
 885:../Drivers/STM32F4xx_HAL_Driver/Src/stm32f4xx_hal_dma.c ****   }
 886:../Drivers/STM32F4xx_HAL_Driver/Src/stm32f4xx_hal_dma.c ****   /* Memory to Peripheral */
 887:../Drivers/STM32F4xx_HAL_Driver/Src/stm32f4xx_hal_dma.c ****   else
 888:../Drivers/STM32F4xx_HAL_Driver/Src/stm32f4xx_hal_dma.c ****   {
 889:../Drivers/STM32F4xx_HAL_Driver/Src/stm32f4xx_hal_dma.c ****     /* Configure DMA Stream source address */
 890:../Drivers/STM32F4xx_HAL_Driver/Src/stm32f4xx_hal_dma.c ****     hdma->Instance->PAR = SrcAddress;
  56              		.loc 1 890 0
  57 0016 0368     		ldr	r3, [r0]
  58 0018 9960     		str	r1, [r3, #8]
  59              	.LVL4:
 891:../Drivers/STM32F4xx_HAL_Driver/Src/stm32f4xx_hal_dma.c ****     
 892:../Drivers/STM32F4xx_HAL_Driver/Src/stm32f4xx_hal_dma.c ****     /* Configure DMA Stream destination address */
 893:../Drivers/STM32F4xx_HAL_Driver/Src/stm32f4xx_hal_dma.c ****     hdma->Instance->M0AR = DstAddress;
  60              		.loc 1 893 0
  61 001a 0368     		ldr	r3, [r0]
  62 001c DA60     		str	r2, [r3, #12]
  63              	.L1:
 894:../Drivers/STM32F4xx_HAL_Driver/Src/stm32f4xx_hal_dma.c ****   }
 895:../Drivers/STM32F4xx_HAL_Driver/Src/stm32f4xx_hal_dma.c **** }
  64              		.loc 1 895 0
  65 001e 5DF8044B 		ldr	r4, [sp], #4
  66              	.LCFI1:
  67              		.cfi_restore 4
  68              		.cfi_def_cfa_offset 0
  69 0022 7047     		bx	lr
  70              		.cfi_endproc
  71              	.LFE121:
  73              		.section	.text.HAL_DMA_Init,"ax",%progbits
  74              		.align	2
  75              		.global	HAL_DMA_Init
  76              		.thumb
ARM GAS  /tmp/ccAPlzty.s 			page 18


  77              		.thumb_func
  79              	HAL_DMA_Init:
  80              	.LFB112:
 171:../Drivers/STM32F4xx_HAL_Driver/Src/stm32f4xx_hal_dma.c ****   uint32_t tmp = 0;
  81              		.loc 1 171 0
  82              		.cfi_startproc
  83              		@ args = 0, pretend = 0, frame = 0
  84              		@ frame_needed = 0, uses_anonymous_args = 0
  85              		@ link register save eliminated.
  86              	.LVL5:
 175:../Drivers/STM32F4xx_HAL_Driver/Src/stm32f4xx_hal_dma.c ****   {
  87              		.loc 1 175 0
  88 0000 0028     		cmp	r0, #0
  89 0002 31D0     		beq	.L9
 171:../Drivers/STM32F4xx_HAL_Driver/Src/stm32f4xx_hal_dma.c ****   uint32_t tmp = 0;
  90              		.loc 1 171 0
  91 0004 10B4     		push	{r4}
  92              	.LCFI2:
  93              		.cfi_def_cfa_offset 4
  94              		.cfi_offset 4, -4
  95 0006 0346     		mov	r3, r0
 201:../Drivers/STM32F4xx_HAL_Driver/Src/stm32f4xx_hal_dma.c **** 
  96              		.loc 1 201 0
  97 0008 0222     		movs	r2, #2
  98 000a 80F83520 		strb	r2, [r0, #53]
 204:../Drivers/STM32F4xx_HAL_Driver/Src/stm32f4xx_hal_dma.c **** 
  99              		.loc 1 204 0
 100 000e 0468     		ldr	r4, [r0]
 101 0010 2168     		ldr	r1, [r4]
 102              	.LVL6:
 207:../Drivers/STM32F4xx_HAL_Driver/Src/stm32f4xx_hal_dma.c ****                       DMA_SxCR_PL    | DMA_SxCR_MSIZE  | DMA_SxCR_PSIZE  | \
 103              		.loc 1 207 0
 104 0012 184A     		ldr	r2, .L12
 105 0014 0A40     		ands	r2, r2, r1
 106              	.LVL7:
 213:../Drivers/STM32F4xx_HAL_Driver/Src/stm32f4xx_hal_dma.c ****           hdma->Init.PeriphInc           | hdma->Init.MemInc           |
 107              		.loc 1 213 0
 108 0016 4068     		ldr	r0, [r0, #4]
 109              	.LVL8:
 110 0018 9968     		ldr	r1, [r3, #8]
 111 001a 0843     		orrs	r0, r0, r1
 214:../Drivers/STM32F4xx_HAL_Driver/Src/stm32f4xx_hal_dma.c ****           hdma->Init.PeriphDataAlignment | hdma->Init.MemDataAlignment |
 112              		.loc 1 214 0
 113 001c D968     		ldr	r1, [r3, #12]
 213:../Drivers/STM32F4xx_HAL_Driver/Src/stm32f4xx_hal_dma.c ****           hdma->Init.PeriphInc           | hdma->Init.MemInc           |
 114              		.loc 1 213 0
 115 001e 0843     		orrs	r0, r0, r1
 214:../Drivers/STM32F4xx_HAL_Driver/Src/stm32f4xx_hal_dma.c ****           hdma->Init.PeriphDataAlignment | hdma->Init.MemDataAlignment |
 116              		.loc 1 214 0
 117 0020 1969     		ldr	r1, [r3, #16]
 118 0022 0843     		orrs	r0, r0, r1
 215:../Drivers/STM32F4xx_HAL_Driver/Src/stm32f4xx_hal_dma.c ****           hdma->Init.Mode                | hdma->Init.Priority;
 119              		.loc 1 215 0
 120 0024 5969     		ldr	r1, [r3, #20]
 214:../Drivers/STM32F4xx_HAL_Driver/Src/stm32f4xx_hal_dma.c ****           hdma->Init.PeriphDataAlignment | hdma->Init.MemDataAlignment |
 121              		.loc 1 214 0
 122 0026 0843     		orrs	r0, r0, r1
ARM GAS  /tmp/ccAPlzty.s 			page 19


 215:../Drivers/STM32F4xx_HAL_Driver/Src/stm32f4xx_hal_dma.c ****           hdma->Init.Mode                | hdma->Init.Priority;
 123              		.loc 1 215 0
 124 0028 9969     		ldr	r1, [r3, #24]
 125 002a 0843     		orrs	r0, r0, r1
 216:../Drivers/STM32F4xx_HAL_Driver/Src/stm32f4xx_hal_dma.c **** 
 126              		.loc 1 216 0
 127 002c D969     		ldr	r1, [r3, #28]
 215:../Drivers/STM32F4xx_HAL_Driver/Src/stm32f4xx_hal_dma.c ****           hdma->Init.Mode                | hdma->Init.Priority;
 128              		.loc 1 215 0
 129 002e 0843     		orrs	r0, r0, r1
 216:../Drivers/STM32F4xx_HAL_Driver/Src/stm32f4xx_hal_dma.c **** 
 130              		.loc 1 216 0
 131 0030 196A     		ldr	r1, [r3, #32]
 132 0032 0143     		orrs	r1, r1, r0
 213:../Drivers/STM32F4xx_HAL_Driver/Src/stm32f4xx_hal_dma.c ****           hdma->Init.PeriphInc           | hdma->Init.MemInc           |
 133              		.loc 1 213 0
 134 0034 0A43     		orrs	r2, r2, r1
 135              	.LVL9:
 219:../Drivers/STM32F4xx_HAL_Driver/Src/stm32f4xx_hal_dma.c ****   {
 136              		.loc 1 219 0
 137 0036 596A     		ldr	r1, [r3, #36]
 138 0038 0429     		cmp	r1, #4
 139 003a 03D1     		bne	.L7
 222:../Drivers/STM32F4xx_HAL_Driver/Src/stm32f4xx_hal_dma.c ****   }
 140              		.loc 1 222 0
 141 003c D86A     		ldr	r0, [r3, #44]
 142 003e 196B     		ldr	r1, [r3, #48]
 143 0040 0143     		orrs	r1, r1, r0
 144 0042 0A43     		orrs	r2, r2, r1
 145              	.LVL10:
 146              	.L7:
 226:../Drivers/STM32F4xx_HAL_Driver/Src/stm32f4xx_hal_dma.c **** 
 147              		.loc 1 226 0
 148 0044 2260     		str	r2, [r4]
 229:../Drivers/STM32F4xx_HAL_Driver/Src/stm32f4xx_hal_dma.c **** 
 149              		.loc 1 229 0
 150 0046 1968     		ldr	r1, [r3]
 151 0048 4A69     		ldr	r2, [r1, #20]
 152              	.LVL11:
 232:../Drivers/STM32F4xx_HAL_Driver/Src/stm32f4xx_hal_dma.c **** 
 153              		.loc 1 232 0
 154 004a 22F00702 		bic	r2, r2, #7
 155              	.LVL12:
 235:../Drivers/STM32F4xx_HAL_Driver/Src/stm32f4xx_hal_dma.c **** 
 156              		.loc 1 235 0
 157 004e 586A     		ldr	r0, [r3, #36]
 158 0050 0243     		orrs	r2, r2, r0
 159              	.LVL13:
 238:../Drivers/STM32F4xx_HAL_Driver/Src/stm32f4xx_hal_dma.c ****   {
 160              		.loc 1 238 0
 161 0052 0428     		cmp	r0, #4
 162 0054 01D1     		bne	.L8
 241:../Drivers/STM32F4xx_HAL_Driver/Src/stm32f4xx_hal_dma.c ****   }
 163              		.loc 1 241 0
 164 0056 986A     		ldr	r0, [r3, #40]
 165 0058 0243     		orrs	r2, r2, r0
 166              	.LVL14:
ARM GAS  /tmp/ccAPlzty.s 			page 20


 167              	.L8:
 245:../Drivers/STM32F4xx_HAL_Driver/Src/stm32f4xx_hal_dma.c **** 
 168              		.loc 1 245 0
 169 005a 4A61     		str	r2, [r1, #20]
 248:../Drivers/STM32F4xx_HAL_Driver/Src/stm32f4xx_hal_dma.c **** 
 170              		.loc 1 248 0
 171 005c 0020     		movs	r0, #0
 172 005e D864     		str	r0, [r3, #76]
 251:../Drivers/STM32F4xx_HAL_Driver/Src/stm32f4xx_hal_dma.c **** 
 173              		.loc 1 251 0
 174 0060 0122     		movs	r2, #1
 175              	.LVL15:
 176 0062 83F83520 		strb	r2, [r3, #53]
 253:../Drivers/STM32F4xx_HAL_Driver/Src/stm32f4xx_hal_dma.c **** }
 177              		.loc 1 253 0
 178 0066 01E0     		b	.L6
 179              	.LVL16:
 180              	.L9:
 181              	.LCFI3:
 182              		.cfi_def_cfa_offset 0
 183              		.cfi_restore 4
 177:../Drivers/STM32F4xx_HAL_Driver/Src/stm32f4xx_hal_dma.c ****   }
 184              		.loc 1 177 0
 185 0068 0120     		movs	r0, #1
 186              	.LVL17:
 187 006a 7047     		bx	lr
 188              	.LVL18:
 189              	.L6:
 190              	.LCFI4:
 191              		.cfi_def_cfa_offset 4
 192              		.cfi_offset 4, -4
 254:../Drivers/STM32F4xx_HAL_Driver/Src/stm32f4xx_hal_dma.c **** 
 193              		.loc 1 254 0
 194 006c 5DF8044B 		ldr	r4, [sp], #4
 195              	.LCFI5:
 196              		.cfi_restore 4
 197              		.cfi_def_cfa_offset 0
 198 0070 7047     		bx	lr
 199              	.L13:
 200 0072 00BF     		.align	2
 201              	.L12:
 202 0074 3F8014F0 		.word	-267091905
 203              		.cfi_endproc
 204              	.LFE112:
 206              		.section	.text.HAL_DMA_DeInit,"ax",%progbits
 207              		.align	2
 208              		.global	HAL_DMA_DeInit
 209              		.thumb
 210              		.thumb_func
 212              	HAL_DMA_DeInit:
 213              	.LFB113:
 263:../Drivers/STM32F4xx_HAL_Driver/Src/stm32f4xx_hal_dma.c ****   /* Check the DMA peripheral state */
 214              		.loc 1 263 0
 215              		.cfi_startproc
 216              		@ args = 0, pretend = 0, frame = 0
 217              		@ frame_needed = 0, uses_anonymous_args = 0
 218              		@ link register save eliminated.
ARM GAS  /tmp/ccAPlzty.s 			page 21


 219              	.LVL19:
 265:../Drivers/STM32F4xx_HAL_Driver/Src/stm32f4xx_hal_dma.c ****   {
 220              		.loc 1 265 0
 221 0000 0346     		mov	r3, r0
 222 0002 0028     		cmp	r0, #0
 223 0004 00F00887 		beq	.L281
 271:../Drivers/STM32F4xx_HAL_Driver/Src/stm32f4xx_hal_dma.c ****   {
 224              		.loc 1 271 0
 225 0008 90F83520 		ldrb	r2, [r0, #53]	@ zero_extendqisi2
 226 000c D2B2     		uxtb	r2, r2
 227 000e 022A     		cmp	r2, #2
 228 0010 00F00487 		beq	.L282
 277:../Drivers/STM32F4xx_HAL_Driver/Src/stm32f4xx_hal_dma.c **** 
 229              		.loc 1 277 0
 230 0014 0168     		ldr	r1, [r0]
 231 0016 0A68     		ldr	r2, [r1]
 232 0018 22F00102 		bic	r2, r2, #1
 233 001c 0A60     		str	r2, [r1]
 280:../Drivers/STM32F4xx_HAL_Driver/Src/stm32f4xx_hal_dma.c **** 
 234              		.loc 1 280 0
 235 001e 0168     		ldr	r1, [r0]
 236 0020 0022     		movs	r2, #0
 237 0022 0A60     		str	r2, [r1]
 283:../Drivers/STM32F4xx_HAL_Driver/Src/stm32f4xx_hal_dma.c **** 
 238              		.loc 1 283 0
 239 0024 0168     		ldr	r1, [r0]
 240 0026 4A60     		str	r2, [r1, #4]
 286:../Drivers/STM32F4xx_HAL_Driver/Src/stm32f4xx_hal_dma.c **** 
 241              		.loc 1 286 0
 242 0028 0168     		ldr	r1, [r0]
 243 002a 8A60     		str	r2, [r1, #8]
 289:../Drivers/STM32F4xx_HAL_Driver/Src/stm32f4xx_hal_dma.c **** 
 244              		.loc 1 289 0
 245 002c 0168     		ldr	r1, [r0]
 246 002e CA60     		str	r2, [r1, #12]
 292:../Drivers/STM32F4xx_HAL_Driver/Src/stm32f4xx_hal_dma.c **** 
 247              		.loc 1 292 0
 248 0030 0168     		ldr	r1, [r0]
 249 0032 0A61     		str	r2, [r1, #16]
 295:../Drivers/STM32F4xx_HAL_Driver/Src/stm32f4xx_hal_dma.c **** 
 250              		.loc 1 295 0
 251 0034 0268     		ldr	r2, [r0]
 252 0036 2121     		movs	r1, #33
 253 0038 5161     		str	r1, [r2, #20]
 298:../Drivers/STM32F4xx_HAL_Driver/Src/stm32f4xx_hal_dma.c ****   __HAL_DMA_CLEAR_FLAG(hdma, __HAL_DMA_GET_TC_FLAG_INDEX(hdma));
 254              		.loc 1 298 0
 255 003a 0268     		ldr	r2, [r0]
 256 003c AA49     		ldr	r1, .L523
 257 003e 8A42     		cmp	r2, r1
 258 0040 54D9     		bls	.L16
 298:../Drivers/STM32F4xx_HAL_Driver/Src/stm32f4xx_hal_dma.c ****   __HAL_DMA_CLEAR_FLAG(hdma, __HAL_DMA_GET_TC_FLAG_INDEX(hdma));
 259              		.loc 1 298 0 is_stmt 0 discriminator 1
 260 0042 A1F58961 		sub	r1, r1, #1096
 261 0046 8A42     		cmp	r2, r1
 262 0048 4CD0     		beq	.L283
 298:../Drivers/STM32F4xx_HAL_Driver/Src/stm32f4xx_hal_dma.c ****   __HAL_DMA_CLEAR_FLAG(hdma, __HAL_DMA_GET_TC_FLAG_INDEX(hdma));
 263              		.loc 1 298 0 discriminator 3
ARM GAS  /tmp/ccAPlzty.s 			page 22


 264 004a 01F58061 		add	r1, r1, #1024
 265 004e 8A42     		cmp	r2, r1
 266 0050 46D0     		beq	.L284
 298:../Drivers/STM32F4xx_HAL_Driver/Src/stm32f4xx_hal_dma.c ****   __HAL_DMA_CLEAR_FLAG(hdma, __HAL_DMA_GET_TC_FLAG_INDEX(hdma));
 267              		.loc 1 298 0 discriminator 5
 268 0052 A1F56871 		sub	r1, r1, #928
 269 0056 8A42     		cmp	r2, r1
 270 0058 40D0     		beq	.L285
 298:../Drivers/STM32F4xx_HAL_Driver/Src/stm32f4xx_hal_dma.c ****   __HAL_DMA_CLEAR_FLAG(hdma, __HAL_DMA_GET_TC_FLAG_INDEX(hdma));
 271              		.loc 1 298 0 discriminator 7
 272 005a 01F58061 		add	r1, r1, #1024
 273 005e 8A42     		cmp	r2, r1
 274 0060 3AD0     		beq	.L286
 298:../Drivers/STM32F4xx_HAL_Driver/Src/stm32f4xx_hal_dma.c ****   __HAL_DMA_CLEAR_FLAG(hdma, __HAL_DMA_GET_TC_FLAG_INDEX(hdma));
 275              		.loc 1 298 0 discriminator 9
 276 0062 A1F58961 		sub	r1, r1, #1096
 277 0066 8A42     		cmp	r2, r1
 278 0068 33D0     		beq	.L287
 298:../Drivers/STM32F4xx_HAL_Driver/Src/stm32f4xx_hal_dma.c ****   __HAL_DMA_CLEAR_FLAG(hdma, __HAL_DMA_GET_TC_FLAG_INDEX(hdma));
 279              		.loc 1 298 0 discriminator 11
 280 006a 01F58061 		add	r1, r1, #1024
 281 006e 8A42     		cmp	r2, r1
 282 0070 2CD0     		beq	.L288
 298:../Drivers/STM32F4xx_HAL_Driver/Src/stm32f4xx_hal_dma.c ****   __HAL_DMA_CLEAR_FLAG(hdma, __HAL_DMA_GET_TC_FLAG_INDEX(hdma));
 283              		.loc 1 298 0 discriminator 13
 284 0072 A1F56871 		sub	r1, r1, #928
 285 0076 8A42     		cmp	r2, r1
 286 0078 25D0     		beq	.L289
 298:../Drivers/STM32F4xx_HAL_Driver/Src/stm32f4xx_hal_dma.c ****   __HAL_DMA_CLEAR_FLAG(hdma, __HAL_DMA_GET_TC_FLAG_INDEX(hdma));
 287              		.loc 1 298 0 discriminator 15
 288 007a 01F58061 		add	r1, r1, #1024
 289 007e 8A42     		cmp	r2, r1
 290 0080 1ED0     		beq	.L290
 298:../Drivers/STM32F4xx_HAL_Driver/Src/stm32f4xx_hal_dma.c ****   __HAL_DMA_CLEAR_FLAG(hdma, __HAL_DMA_GET_TC_FLAG_INDEX(hdma));
 291              		.loc 1 298 0 discriminator 17
 292 0082 A1F58961 		sub	r1, r1, #1096
 293 0086 8A42     		cmp	r2, r1
 294 0088 17D0     		beq	.L291
 298:../Drivers/STM32F4xx_HAL_Driver/Src/stm32f4xx_hal_dma.c ****   __HAL_DMA_CLEAR_FLAG(hdma, __HAL_DMA_GET_TC_FLAG_INDEX(hdma));
 295              		.loc 1 298 0 discriminator 19
 296 008a 01F58061 		add	r1, r1, #1024
 297 008e 8A42     		cmp	r2, r1
 298 0090 10D0     		beq	.L292
 298:../Drivers/STM32F4xx_HAL_Driver/Src/stm32f4xx_hal_dma.c ****   __HAL_DMA_CLEAR_FLAG(hdma, __HAL_DMA_GET_TC_FLAG_INDEX(hdma));
 299              		.loc 1 298 0 discriminator 21
 300 0092 A1F56871 		sub	r1, r1, #928
 301 0096 8A42     		cmp	r2, r1
 302 0098 09D0     		beq	.L293
 298:../Drivers/STM32F4xx_HAL_Driver/Src/stm32f4xx_hal_dma.c ****   __HAL_DMA_CLEAR_FLAG(hdma, __HAL_DMA_GET_TC_FLAG_INDEX(hdma));
 303              		.loc 1 298 0 discriminator 23
 304 009a 01F58061 		add	r1, r1, #1024
 305 009e 8A42     		cmp	r2, r1
 306 00a0 02D1     		bne	.L294
 298:../Drivers/STM32F4xx_HAL_Driver/Src/stm32f4xx_hal_dma.c ****   __HAL_DMA_CLEAR_FLAG(hdma, __HAL_DMA_GET_TC_FLAG_INDEX(hdma));
 307              		.loc 1 298 0
 308 00a2 4FF48021 		mov	r1, #262144
 309 00a6 1EE0     		b	.L17
ARM GAS  /tmp/ccAPlzty.s 			page 23


 310              	.L294:
 311 00a8 4FF08071 		mov	r1, #16777216
 312 00ac 1BE0     		b	.L17
 313              	.L293:
 314 00ae 4FF48021 		mov	r1, #262144
 315 00b2 18E0     		b	.L17
 316              	.L292:
 317 00b4 4FF48021 		mov	r1, #262144
 318 00b8 15E0     		b	.L17
 319              	.L291:
 320 00ba 4FF48021 		mov	r1, #262144
 321 00be 12E0     		b	.L17
 322              	.L290:
 323 00c0 4FF48071 		mov	r1, #256
 324 00c4 0FE0     		b	.L17
 325              	.L289:
 326 00c6 4FF48071 		mov	r1, #256
 327 00ca 0CE0     		b	.L17
 328              	.L288:
 329 00cc 4FF48071 		mov	r1, #256
 330 00d0 09E0     		b	.L17
 331              	.L287:
 332 00d2 4FF48071 		mov	r1, #256
 333 00d6 06E0     		b	.L17
 334              	.L286:
 335 00d8 8449     		ldr	r1, .L523+4
 336 00da 04E0     		b	.L17
 337              	.L285:
 338 00dc 8349     		ldr	r1, .L523+4
 339 00de 02E0     		b	.L17
 340              	.L284:
 341 00e0 8249     		ldr	r1, .L523+4
 342 00e2 00E0     		b	.L17
 343              	.L283:
 344 00e4 8149     		ldr	r1, .L523+4
 345              	.L17:
 298:../Drivers/STM32F4xx_HAL_Driver/Src/stm32f4xx_hal_dma.c ****   __HAL_DMA_CLEAR_FLAG(hdma, __HAL_DMA_GET_TC_FLAG_INDEX(hdma));
 346              		.loc 1 298 0 discriminator 50
 347 00e6 824A     		ldr	r2, .L523+8
 348 00e8 D160     		str	r1, [r2, #12]
 349 00ea 0EE1     		b	.L29
 350              	.L16:
 298:../Drivers/STM32F4xx_HAL_Driver/Src/stm32f4xx_hal_dma.c ****   __HAL_DMA_CLEAR_FLAG(hdma, __HAL_DMA_GET_TC_FLAG_INDEX(hdma));
 351              		.loc 1 298 0 discriminator 2
 352 00ec 8149     		ldr	r1, .L523+12
 353 00ee 8A42     		cmp	r2, r1
 354 00f0 53D9     		bls	.L30
 298:../Drivers/STM32F4xx_HAL_Driver/Src/stm32f4xx_hal_dma.c ****   __HAL_DMA_CLEAR_FLAG(hdma, __HAL_DMA_GET_TC_FLAG_INDEX(hdma));
 355              		.loc 1 298 0 discriminator 51
 356 00f2 A839     		subs	r1, r1, #168
 357 00f4 8A42     		cmp	r2, r1
 358 00f6 4CD0     		beq	.L295
 298:../Drivers/STM32F4xx_HAL_Driver/Src/stm32f4xx_hal_dma.c ****   __HAL_DMA_CLEAR_FLAG(hdma, __HAL_DMA_GET_TC_FLAG_INDEX(hdma));
 359              		.loc 1 298 0 discriminator 53
 360 00f8 01F58061 		add	r1, r1, #1024
 361 00fc 8A42     		cmp	r2, r1
 362 00fe 46D0     		beq	.L296
ARM GAS  /tmp/ccAPlzty.s 			page 24


 298:../Drivers/STM32F4xx_HAL_Driver/Src/stm32f4xx_hal_dma.c ****   __HAL_DMA_CLEAR_FLAG(hdma, __HAL_DMA_GET_TC_FLAG_INDEX(hdma));
 363              		.loc 1 298 0 discriminator 55
 364 0100 A1F56871 		sub	r1, r1, #928
 365 0104 8A42     		cmp	r2, r1
 366 0106 40D0     		beq	.L297
 298:../Drivers/STM32F4xx_HAL_Driver/Src/stm32f4xx_hal_dma.c ****   __HAL_DMA_CLEAR_FLAG(hdma, __HAL_DMA_GET_TC_FLAG_INDEX(hdma));
 367              		.loc 1 298 0 discriminator 57
 368 0108 01F58061 		add	r1, r1, #1024
 369 010c 8A42     		cmp	r2, r1
 370 010e 3AD0     		beq	.L298
 298:../Drivers/STM32F4xx_HAL_Driver/Src/stm32f4xx_hal_dma.c ****   __HAL_DMA_CLEAR_FLAG(hdma, __HAL_DMA_GET_TC_FLAG_INDEX(hdma));
 371              		.loc 1 298 0 discriminator 59
 372 0110 A1F58961 		sub	r1, r1, #1096
 373 0114 8A42     		cmp	r2, r1
 374 0116 33D0     		beq	.L299
 298:../Drivers/STM32F4xx_HAL_Driver/Src/stm32f4xx_hal_dma.c ****   __HAL_DMA_CLEAR_FLAG(hdma, __HAL_DMA_GET_TC_FLAG_INDEX(hdma));
 375              		.loc 1 298 0 discriminator 61
 376 0118 01F58061 		add	r1, r1, #1024
 377 011c 8A42     		cmp	r2, r1
 378 011e 2CD0     		beq	.L300
 298:../Drivers/STM32F4xx_HAL_Driver/Src/stm32f4xx_hal_dma.c ****   __HAL_DMA_CLEAR_FLAG(hdma, __HAL_DMA_GET_TC_FLAG_INDEX(hdma));
 379              		.loc 1 298 0 discriminator 63
 380 0120 A1F56871 		sub	r1, r1, #928
 381 0124 8A42     		cmp	r2, r1
 382 0126 25D0     		beq	.L301
 298:../Drivers/STM32F4xx_HAL_Driver/Src/stm32f4xx_hal_dma.c ****   __HAL_DMA_CLEAR_FLAG(hdma, __HAL_DMA_GET_TC_FLAG_INDEX(hdma));
 383              		.loc 1 298 0 discriminator 65
 384 0128 01F58061 		add	r1, r1, #1024
 385 012c 8A42     		cmp	r2, r1
 386 012e 1ED0     		beq	.L302
 298:../Drivers/STM32F4xx_HAL_Driver/Src/stm32f4xx_hal_dma.c ****   __HAL_DMA_CLEAR_FLAG(hdma, __HAL_DMA_GET_TC_FLAG_INDEX(hdma));
 387              		.loc 1 298 0 discriminator 67
 388 0130 A1F58961 		sub	r1, r1, #1096
 389 0134 8A42     		cmp	r2, r1
 390 0136 17D0     		beq	.L303
 298:../Drivers/STM32F4xx_HAL_Driver/Src/stm32f4xx_hal_dma.c ****   __HAL_DMA_CLEAR_FLAG(hdma, __HAL_DMA_GET_TC_FLAG_INDEX(hdma));
 391              		.loc 1 298 0 discriminator 69
 392 0138 01F58061 		add	r1, r1, #1024
 393 013c 8A42     		cmp	r2, r1
 394 013e 10D0     		beq	.L304
 298:../Drivers/STM32F4xx_HAL_Driver/Src/stm32f4xx_hal_dma.c ****   __HAL_DMA_CLEAR_FLAG(hdma, __HAL_DMA_GET_TC_FLAG_INDEX(hdma));
 395              		.loc 1 298 0 discriminator 71
 396 0140 A1F56871 		sub	r1, r1, #928
 397 0144 8A42     		cmp	r2, r1
 398 0146 09D0     		beq	.L305
 298:../Drivers/STM32F4xx_HAL_Driver/Src/stm32f4xx_hal_dma.c ****   __HAL_DMA_CLEAR_FLAG(hdma, __HAL_DMA_GET_TC_FLAG_INDEX(hdma));
 399              		.loc 1 298 0 discriminator 73
 400 0148 01F58061 		add	r1, r1, #1024
 401 014c 8A42     		cmp	r2, r1
 402 014e 02D1     		bne	.L306
 298:../Drivers/STM32F4xx_HAL_Driver/Src/stm32f4xx_hal_dma.c ****   __HAL_DMA_CLEAR_FLAG(hdma, __HAL_DMA_GET_TC_FLAG_INDEX(hdma));
 403              		.loc 1 298 0
 404 0150 4FF48021 		mov	r1, #262144
 405 0154 1EE0     		b	.L31
 406              	.L306:
 407 0156 4FF08071 		mov	r1, #16777216
 408 015a 1BE0     		b	.L31
ARM GAS  /tmp/ccAPlzty.s 			page 25


 409              	.L305:
 410 015c 4FF48021 		mov	r1, #262144
 411 0160 18E0     		b	.L31
 412              	.L304:
 413 0162 4FF48021 		mov	r1, #262144
 414 0166 15E0     		b	.L31
 415              	.L303:
 416 0168 4FF48021 		mov	r1, #262144
 417 016c 12E0     		b	.L31
 418              	.L302:
 419 016e 4FF48071 		mov	r1, #256
 420 0172 0FE0     		b	.L31
 421              	.L301:
 422 0174 4FF48071 		mov	r1, #256
 423 0178 0CE0     		b	.L31
 424              	.L300:
 425 017a 4FF48071 		mov	r1, #256
 426 017e 09E0     		b	.L31
 427              	.L299:
 428 0180 4FF48071 		mov	r1, #256
 429 0184 06E0     		b	.L31
 430              	.L298:
 431 0186 5949     		ldr	r1, .L523+4
 432 0188 04E0     		b	.L31
 433              	.L297:
 434 018a 5849     		ldr	r1, .L523+4
 435 018c 02E0     		b	.L31
 436              	.L296:
 437 018e 5749     		ldr	r1, .L523+4
 438 0190 00E0     		b	.L31
 439              	.L295:
 440 0192 5649     		ldr	r1, .L523+4
 441              	.L31:
 298:../Drivers/STM32F4xx_HAL_Driver/Src/stm32f4xx_hal_dma.c ****   __HAL_DMA_CLEAR_FLAG(hdma, __HAL_DMA_GET_TC_FLAG_INDEX(hdma));
 442              		.loc 1 298 0 discriminator 100
 443 0194 564A     		ldr	r2, .L523+8
 444 0196 9160     		str	r1, [r2, #8]
 445 0198 B7E0     		b	.L29
 446              	.L30:
 298:../Drivers/STM32F4xx_HAL_Driver/Src/stm32f4xx_hal_dma.c ****   __HAL_DMA_CLEAR_FLAG(hdma, __HAL_DMA_GET_TC_FLAG_INDEX(hdma));
 447              		.loc 1 298 0 discriminator 52
 448 019a 5749     		ldr	r1, .L523+16
 449 019c 8A42     		cmp	r2, r1
 450 019e 53D9     		bls	.L43
 298:../Drivers/STM32F4xx_HAL_Driver/Src/stm32f4xx_hal_dma.c ****   __HAL_DMA_CLEAR_FLAG(hdma, __HAL_DMA_GET_TC_FLAG_INDEX(hdma));
 451              		.loc 1 298 0 discriminator 102
 452 01a0 4839     		subs	r1, r1, #72
 453 01a2 8A42     		cmp	r2, r1
 454 01a4 4CD0     		beq	.L307
 298:../Drivers/STM32F4xx_HAL_Driver/Src/stm32f4xx_hal_dma.c ****   __HAL_DMA_CLEAR_FLAG(hdma, __HAL_DMA_GET_TC_FLAG_INDEX(hdma));
 455              		.loc 1 298 0 discriminator 104
 456 01a6 01F58061 		add	r1, r1, #1024
 457 01aa 8A42     		cmp	r2, r1
 458 01ac 46D0     		beq	.L308
 298:../Drivers/STM32F4xx_HAL_Driver/Src/stm32f4xx_hal_dma.c ****   __HAL_DMA_CLEAR_FLAG(hdma, __HAL_DMA_GET_TC_FLAG_INDEX(hdma));
 459              		.loc 1 298 0 discriminator 106
 460 01ae A1F56871 		sub	r1, r1, #928
ARM GAS  /tmp/ccAPlzty.s 			page 26


 461 01b2 8A42     		cmp	r2, r1
 462 01b4 40D0     		beq	.L309
 298:../Drivers/STM32F4xx_HAL_Driver/Src/stm32f4xx_hal_dma.c ****   __HAL_DMA_CLEAR_FLAG(hdma, __HAL_DMA_GET_TC_FLAG_INDEX(hdma));
 463              		.loc 1 298 0 discriminator 108
 464 01b6 01F58061 		add	r1, r1, #1024
 465 01ba 8A42     		cmp	r2, r1
 466 01bc 3AD0     		beq	.L310
 298:../Drivers/STM32F4xx_HAL_Driver/Src/stm32f4xx_hal_dma.c ****   __HAL_DMA_CLEAR_FLAG(hdma, __HAL_DMA_GET_TC_FLAG_INDEX(hdma));
 467              		.loc 1 298 0 discriminator 110
 468 01be A1F58961 		sub	r1, r1, #1096
 469 01c2 8A42     		cmp	r2, r1
 470 01c4 33D0     		beq	.L311
 298:../Drivers/STM32F4xx_HAL_Driver/Src/stm32f4xx_hal_dma.c ****   __HAL_DMA_CLEAR_FLAG(hdma, __HAL_DMA_GET_TC_FLAG_INDEX(hdma));
 471              		.loc 1 298 0 discriminator 112
 472 01c6 01F58061 		add	r1, r1, #1024
 473 01ca 8A42     		cmp	r2, r1
 474 01cc 2CD0     		beq	.L312
 298:../Drivers/STM32F4xx_HAL_Driver/Src/stm32f4xx_hal_dma.c ****   __HAL_DMA_CLEAR_FLAG(hdma, __HAL_DMA_GET_TC_FLAG_INDEX(hdma));
 475              		.loc 1 298 0 discriminator 114
 476 01ce A1F56871 		sub	r1, r1, #928
 477 01d2 8A42     		cmp	r2, r1
 478 01d4 25D0     		beq	.L313
 298:../Drivers/STM32F4xx_HAL_Driver/Src/stm32f4xx_hal_dma.c ****   __HAL_DMA_CLEAR_FLAG(hdma, __HAL_DMA_GET_TC_FLAG_INDEX(hdma));
 479              		.loc 1 298 0 discriminator 116
 480 01d6 01F58061 		add	r1, r1, #1024
 481 01da 8A42     		cmp	r2, r1
 482 01dc 1ED0     		beq	.L314
 298:../Drivers/STM32F4xx_HAL_Driver/Src/stm32f4xx_hal_dma.c ****   __HAL_DMA_CLEAR_FLAG(hdma, __HAL_DMA_GET_TC_FLAG_INDEX(hdma));
 483              		.loc 1 298 0 discriminator 118
 484 01de A1F58961 		sub	r1, r1, #1096
 485 01e2 8A42     		cmp	r2, r1
 486 01e4 17D0     		beq	.L315
 298:../Drivers/STM32F4xx_HAL_Driver/Src/stm32f4xx_hal_dma.c ****   __HAL_DMA_CLEAR_FLAG(hdma, __HAL_DMA_GET_TC_FLAG_INDEX(hdma));
 487              		.loc 1 298 0 discriminator 120
 488 01e6 01F58061 		add	r1, r1, #1024
 489 01ea 8A42     		cmp	r2, r1
 490 01ec 10D0     		beq	.L316
 298:../Drivers/STM32F4xx_HAL_Driver/Src/stm32f4xx_hal_dma.c ****   __HAL_DMA_CLEAR_FLAG(hdma, __HAL_DMA_GET_TC_FLAG_INDEX(hdma));
 491              		.loc 1 298 0 discriminator 122
 492 01ee A1F56871 		sub	r1, r1, #928
 493 01f2 8A42     		cmp	r2, r1
 494 01f4 09D0     		beq	.L317
 298:../Drivers/STM32F4xx_HAL_Driver/Src/stm32f4xx_hal_dma.c ****   __HAL_DMA_CLEAR_FLAG(hdma, __HAL_DMA_GET_TC_FLAG_INDEX(hdma));
 495              		.loc 1 298 0 discriminator 124
 496 01f6 01F58061 		add	r1, r1, #1024
 497 01fa 8A42     		cmp	r2, r1
 498 01fc 02D1     		bne	.L318
 298:../Drivers/STM32F4xx_HAL_Driver/Src/stm32f4xx_hal_dma.c ****   __HAL_DMA_CLEAR_FLAG(hdma, __HAL_DMA_GET_TC_FLAG_INDEX(hdma));
 499              		.loc 1 298 0
 500 01fe 4FF48021 		mov	r1, #262144
 501 0202 1EE0     		b	.L44
 502              	.L318:
 503 0204 4FF08071 		mov	r1, #16777216
 504 0208 1BE0     		b	.L44
 505              	.L317:
 506 020a 4FF48021 		mov	r1, #262144
 507 020e 18E0     		b	.L44
ARM GAS  /tmp/ccAPlzty.s 			page 27


 508              	.L316:
 509 0210 4FF48021 		mov	r1, #262144
 510 0214 15E0     		b	.L44
 511              	.L315:
 512 0216 4FF48021 		mov	r1, #262144
 513 021a 12E0     		b	.L44
 514              	.L314:
 515 021c 4FF48071 		mov	r1, #256
 516 0220 0FE0     		b	.L44
 517              	.L313:
 518 0222 4FF48071 		mov	r1, #256
 519 0226 0CE0     		b	.L44
 520              	.L312:
 521 0228 4FF48071 		mov	r1, #256
 522 022c 09E0     		b	.L44
 523              	.L311:
 524 022e 4FF48071 		mov	r1, #256
 525 0232 06E0     		b	.L44
 526              	.L310:
 527 0234 2D49     		ldr	r1, .L523+4
 528 0236 04E0     		b	.L44
 529              	.L309:
 530 0238 2C49     		ldr	r1, .L523+4
 531 023a 02E0     		b	.L44
 532              	.L308:
 533 023c 2B49     		ldr	r1, .L523+4
 534 023e 00E0     		b	.L44
 535              	.L307:
 536 0240 2A49     		ldr	r1, .L523+4
 537              	.L44:
 298:../Drivers/STM32F4xx_HAL_Driver/Src/stm32f4xx_hal_dma.c ****   __HAL_DMA_CLEAR_FLAG(hdma, __HAL_DMA_GET_TC_FLAG_INDEX(hdma));
 538              		.loc 1 298 0 discriminator 151
 539 0242 2E4A     		ldr	r2, .L523+20
 540 0244 D160     		str	r1, [r2, #12]
 541 0246 60E0     		b	.L29
 542              	.L43:
 298:../Drivers/STM32F4xx_HAL_Driver/Src/stm32f4xx_hal_dma.c ****   __HAL_DMA_CLEAR_FLAG(hdma, __HAL_DMA_GET_TC_FLAG_INDEX(hdma));
 543              		.loc 1 298 0 discriminator 103
 544 0248 2D49     		ldr	r1, .L523+24
 545 024a 8A42     		cmp	r2, r1
 546 024c 5AD0     		beq	.L319
 298:../Drivers/STM32F4xx_HAL_Driver/Src/stm32f4xx_hal_dma.c ****   __HAL_DMA_CLEAR_FLAG(hdma, __HAL_DMA_GET_TC_FLAG_INDEX(hdma));
 547              		.loc 1 298 0 discriminator 153
 548 024e 01F58061 		add	r1, r1, #1024
 549 0252 8A42     		cmp	r2, r1
 550 0254 46D0     		beq	.L320
 298:../Drivers/STM32F4xx_HAL_Driver/Src/stm32f4xx_hal_dma.c ****   __HAL_DMA_CLEAR_FLAG(hdma, __HAL_DMA_GET_TC_FLAG_INDEX(hdma));
 551              		.loc 1 298 0 discriminator 155
 552 0256 A1F56871 		sub	r1, r1, #928
 553 025a 8A42     		cmp	r2, r1
 554 025c 40D0     		beq	.L321
 298:../Drivers/STM32F4xx_HAL_Driver/Src/stm32f4xx_hal_dma.c ****   __HAL_DMA_CLEAR_FLAG(hdma, __HAL_DMA_GET_TC_FLAG_INDEX(hdma));
 555              		.loc 1 298 0 discriminator 157
 556 025e 01F58061 		add	r1, r1, #1024
 557 0262 8A42     		cmp	r2, r1
 558 0264 3AD0     		beq	.L322
 298:../Drivers/STM32F4xx_HAL_Driver/Src/stm32f4xx_hal_dma.c ****   __HAL_DMA_CLEAR_FLAG(hdma, __HAL_DMA_GET_TC_FLAG_INDEX(hdma));
ARM GAS  /tmp/ccAPlzty.s 			page 28


 559              		.loc 1 298 0 discriminator 159
 560 0266 A1F58961 		sub	r1, r1, #1096
 561 026a 8A42     		cmp	r2, r1
 562 026c 33D0     		beq	.L323
 298:../Drivers/STM32F4xx_HAL_Driver/Src/stm32f4xx_hal_dma.c ****   __HAL_DMA_CLEAR_FLAG(hdma, __HAL_DMA_GET_TC_FLAG_INDEX(hdma));
 563              		.loc 1 298 0 discriminator 161
 564 026e 01F58061 		add	r1, r1, #1024
 565 0272 8A42     		cmp	r2, r1
 566 0274 2CD0     		beq	.L324
 298:../Drivers/STM32F4xx_HAL_Driver/Src/stm32f4xx_hal_dma.c ****   __HAL_DMA_CLEAR_FLAG(hdma, __HAL_DMA_GET_TC_FLAG_INDEX(hdma));
 567              		.loc 1 298 0 discriminator 163
 568 0276 A1F56871 		sub	r1, r1, #928
 569 027a 8A42     		cmp	r2, r1
 570 027c 25D0     		beq	.L325
 298:../Drivers/STM32F4xx_HAL_Driver/Src/stm32f4xx_hal_dma.c ****   __HAL_DMA_CLEAR_FLAG(hdma, __HAL_DMA_GET_TC_FLAG_INDEX(hdma));
 571              		.loc 1 298 0 discriminator 165
 572 027e 01F58061 		add	r1, r1, #1024
 573 0282 8A42     		cmp	r2, r1
 574 0284 1ED0     		beq	.L326
 298:../Drivers/STM32F4xx_HAL_Driver/Src/stm32f4xx_hal_dma.c ****   __HAL_DMA_CLEAR_FLAG(hdma, __HAL_DMA_GET_TC_FLAG_INDEX(hdma));
 575              		.loc 1 298 0 discriminator 167
 576 0286 A1F58961 		sub	r1, r1, #1096
 577 028a 8A42     		cmp	r2, r1
 578 028c 17D0     		beq	.L327
 298:../Drivers/STM32F4xx_HAL_Driver/Src/stm32f4xx_hal_dma.c ****   __HAL_DMA_CLEAR_FLAG(hdma, __HAL_DMA_GET_TC_FLAG_INDEX(hdma));
 579              		.loc 1 298 0 discriminator 169
 580 028e 01F58061 		add	r1, r1, #1024
 581 0292 8A42     		cmp	r2, r1
 582 0294 10D0     		beq	.L328
 298:../Drivers/STM32F4xx_HAL_Driver/Src/stm32f4xx_hal_dma.c ****   __HAL_DMA_CLEAR_FLAG(hdma, __HAL_DMA_GET_TC_FLAG_INDEX(hdma));
 583              		.loc 1 298 0 discriminator 171
 584 0296 A1F56871 		sub	r1, r1, #928
 585 029a 8A42     		cmp	r2, r1
 586 029c 09D0     		beq	.L329
 298:../Drivers/STM32F4xx_HAL_Driver/Src/stm32f4xx_hal_dma.c ****   __HAL_DMA_CLEAR_FLAG(hdma, __HAL_DMA_GET_TC_FLAG_INDEX(hdma));
 587              		.loc 1 298 0 discriminator 173
 588 029e 01F58061 		add	r1, r1, #1024
 589 02a2 8A42     		cmp	r2, r1
 590 02a4 02D1     		bne	.L330
 298:../Drivers/STM32F4xx_HAL_Driver/Src/stm32f4xx_hal_dma.c ****   __HAL_DMA_CLEAR_FLAG(hdma, __HAL_DMA_GET_TC_FLAG_INDEX(hdma));
 591              		.loc 1 298 0
 592 02a6 4FF48021 		mov	r1, #262144
 593 02aa 2CE0     		b	.L57
 594              	.L330:
 595 02ac 4FF08071 		mov	r1, #16777216
 596 02b0 29E0     		b	.L57
 597              	.L329:
 598 02b2 4FF48021 		mov	r1, #262144
 599 02b6 26E0     		b	.L57
 600              	.L328:
 601 02b8 4FF48021 		mov	r1, #262144
 602 02bc 23E0     		b	.L57
 603              	.L327:
 604 02be 4FF48021 		mov	r1, #262144
 605 02c2 20E0     		b	.L57
 606              	.L326:
 607 02c4 4FF48071 		mov	r1, #256
ARM GAS  /tmp/ccAPlzty.s 			page 29


 608 02c8 1DE0     		b	.L57
 609              	.L325:
 610 02ca 4FF48071 		mov	r1, #256
 611 02ce 1AE0     		b	.L57
 612              	.L324:
 613 02d0 4FF48071 		mov	r1, #256
 614 02d4 17E0     		b	.L57
 615              	.L323:
 616 02d6 4FF48071 		mov	r1, #256
 617 02da 14E0     		b	.L57
 618              	.L322:
 619 02dc 0349     		ldr	r1, .L523+4
 620 02de 12E0     		b	.L57
 621              	.L321:
 622 02e0 0249     		ldr	r1, .L523+4
 623 02e2 10E0     		b	.L57
 624              	.L320:
 625 02e4 0149     		ldr	r1, .L523+4
 626 02e6 0EE0     		b	.L57
 627              	.L524:
 628              		.align	2
 629              	.L523:
 630 02e8 58640240 		.word	1073898584
 631 02ec 04008000 		.word	8388612
 632 02f0 00640240 		.word	1073898496
 633 02f4 B8600240 		.word	1073897656
 634 02f8 58600240 		.word	1073897560
 635 02fc 00600240 		.word	1073897472
 636 0300 10600240 		.word	1073897488
 637              	.L319:
 638 0304 AC49     		ldr	r1, .L525
 639              	.L57:
 298:../Drivers/STM32F4xx_HAL_Driver/Src/stm32f4xx_hal_dma.c ****   __HAL_DMA_CLEAR_FLAG(hdma, __HAL_DMA_GET_TC_FLAG_INDEX(hdma));
 640              		.loc 1 298 0 discriminator 200
 641 0306 AD4A     		ldr	r2, .L525+4
 642 0308 9160     		str	r1, [r2, #8]
 643              	.L29:
 299:../Drivers/STM32F4xx_HAL_Driver/Src/stm32f4xx_hal_dma.c ****   __HAL_DMA_CLEAR_FLAG(hdma, __HAL_DMA_GET_TE_FLAG_INDEX(hdma));
 644              		.loc 1 299 0 is_stmt 1
 645 030a 1A68     		ldr	r2, [r3]
 646 030c AC49     		ldr	r1, .L525+8
 647 030e 8A42     		cmp	r2, r1
 648 0310 54D9     		bls	.L69
 299:../Drivers/STM32F4xx_HAL_Driver/Src/stm32f4xx_hal_dma.c ****   __HAL_DMA_CLEAR_FLAG(hdma, __HAL_DMA_GET_TE_FLAG_INDEX(hdma));
 649              		.loc 1 299 0 is_stmt 0 discriminator 1
 650 0312 A1F58961 		sub	r1, r1, #1096
 651 0316 8A42     		cmp	r2, r1
 652 0318 4CD0     		beq	.L331
 299:../Drivers/STM32F4xx_HAL_Driver/Src/stm32f4xx_hal_dma.c ****   __HAL_DMA_CLEAR_FLAG(hdma, __HAL_DMA_GET_TE_FLAG_INDEX(hdma));
 653              		.loc 1 299 0 discriminator 3
 654 031a 01F58061 		add	r1, r1, #1024
 655 031e 8A42     		cmp	r2, r1
 656 0320 46D0     		beq	.L332
 299:../Drivers/STM32F4xx_HAL_Driver/Src/stm32f4xx_hal_dma.c ****   __HAL_DMA_CLEAR_FLAG(hdma, __HAL_DMA_GET_TE_FLAG_INDEX(hdma));
 657              		.loc 1 299 0 discriminator 5
 658 0322 A1F56871 		sub	r1, r1, #928
 659 0326 8A42     		cmp	r2, r1
ARM GAS  /tmp/ccAPlzty.s 			page 30


 660 0328 40D0     		beq	.L333
 299:../Drivers/STM32F4xx_HAL_Driver/Src/stm32f4xx_hal_dma.c ****   __HAL_DMA_CLEAR_FLAG(hdma, __HAL_DMA_GET_TE_FLAG_INDEX(hdma));
 661              		.loc 1 299 0 discriminator 7
 662 032a 01F58061 		add	r1, r1, #1024
 663 032e 8A42     		cmp	r2, r1
 664 0330 3AD0     		beq	.L334
 299:../Drivers/STM32F4xx_HAL_Driver/Src/stm32f4xx_hal_dma.c ****   __HAL_DMA_CLEAR_FLAG(hdma, __HAL_DMA_GET_TE_FLAG_INDEX(hdma));
 665              		.loc 1 299 0 discriminator 9
 666 0332 A1F58961 		sub	r1, r1, #1096
 667 0336 8A42     		cmp	r2, r1
 668 0338 33D0     		beq	.L335
 299:../Drivers/STM32F4xx_HAL_Driver/Src/stm32f4xx_hal_dma.c ****   __HAL_DMA_CLEAR_FLAG(hdma, __HAL_DMA_GET_TE_FLAG_INDEX(hdma));
 669              		.loc 1 299 0 discriminator 11
 670 033a 01F58061 		add	r1, r1, #1024
 671 033e 8A42     		cmp	r2, r1
 672 0340 2CD0     		beq	.L336
 299:../Drivers/STM32F4xx_HAL_Driver/Src/stm32f4xx_hal_dma.c ****   __HAL_DMA_CLEAR_FLAG(hdma, __HAL_DMA_GET_TE_FLAG_INDEX(hdma));
 673              		.loc 1 299 0 discriminator 13
 674 0342 A1F56871 		sub	r1, r1, #928
 675 0346 8A42     		cmp	r2, r1
 676 0348 25D0     		beq	.L337
 299:../Drivers/STM32F4xx_HAL_Driver/Src/stm32f4xx_hal_dma.c ****   __HAL_DMA_CLEAR_FLAG(hdma, __HAL_DMA_GET_TE_FLAG_INDEX(hdma));
 677              		.loc 1 299 0 discriminator 15
 678 034a 01F58061 		add	r1, r1, #1024
 679 034e 8A42     		cmp	r2, r1
 680 0350 1ED0     		beq	.L338
 299:../Drivers/STM32F4xx_HAL_Driver/Src/stm32f4xx_hal_dma.c ****   __HAL_DMA_CLEAR_FLAG(hdma, __HAL_DMA_GET_TE_FLAG_INDEX(hdma));
 681              		.loc 1 299 0 discriminator 17
 682 0352 A1F58961 		sub	r1, r1, #1096
 683 0356 8A42     		cmp	r2, r1
 684 0358 17D0     		beq	.L339
 299:../Drivers/STM32F4xx_HAL_Driver/Src/stm32f4xx_hal_dma.c ****   __HAL_DMA_CLEAR_FLAG(hdma, __HAL_DMA_GET_TE_FLAG_INDEX(hdma));
 685              		.loc 1 299 0 discriminator 19
 686 035a 01F58061 		add	r1, r1, #1024
 687 035e 8A42     		cmp	r2, r1
 688 0360 10D0     		beq	.L340
 299:../Drivers/STM32F4xx_HAL_Driver/Src/stm32f4xx_hal_dma.c ****   __HAL_DMA_CLEAR_FLAG(hdma, __HAL_DMA_GET_TE_FLAG_INDEX(hdma));
 689              		.loc 1 299 0 discriminator 21
 690 0362 A1F56871 		sub	r1, r1, #928
 691 0366 8A42     		cmp	r2, r1
 692 0368 09D0     		beq	.L341
 299:../Drivers/STM32F4xx_HAL_Driver/Src/stm32f4xx_hal_dma.c ****   __HAL_DMA_CLEAR_FLAG(hdma, __HAL_DMA_GET_TE_FLAG_INDEX(hdma));
 693              		.loc 1 299 0 discriminator 23
 694 036a 01F58061 		add	r1, r1, #1024
 695 036e 8A42     		cmp	r2, r1
 696 0370 02D1     		bne	.L342
 299:../Drivers/STM32F4xx_HAL_Driver/Src/stm32f4xx_hal_dma.c ****   __HAL_DMA_CLEAR_FLAG(hdma, __HAL_DMA_GET_TE_FLAG_INDEX(hdma));
 697              		.loc 1 299 0
 698 0372 4FF40011 		mov	r1, #2097152
 699 0376 1EE0     		b	.L70
 700              	.L342:
 701 0378 4FF00061 		mov	r1, #134217728
 702 037c 1BE0     		b	.L70
 703              	.L341:
 704 037e 4FF40011 		mov	r1, #2097152
 705 0382 18E0     		b	.L70
 706              	.L340:
ARM GAS  /tmp/ccAPlzty.s 			page 31


 707 0384 4FF40011 		mov	r1, #2097152
 708 0388 15E0     		b	.L70
 709              	.L339:
 710 038a 4FF40011 		mov	r1, #2097152
 711 038e 12E0     		b	.L70
 712              	.L338:
 713 0390 4FF40061 		mov	r1, #2048
 714 0394 0FE0     		b	.L70
 715              	.L337:
 716 0396 4FF40061 		mov	r1, #2048
 717 039a 0CE0     		b	.L70
 718              	.L336:
 719 039c 4FF40061 		mov	r1, #2048
 720 03a0 09E0     		b	.L70
 721              	.L335:
 722 03a2 4FF40061 		mov	r1, #2048
 723 03a6 06E0     		b	.L70
 724              	.L334:
 725 03a8 2021     		movs	r1, #32
 726 03aa 04E0     		b	.L70
 727              	.L333:
 728 03ac 2021     		movs	r1, #32
 729 03ae 02E0     		b	.L70
 730              	.L332:
 731 03b0 2021     		movs	r1, #32
 732 03b2 00E0     		b	.L70
 733              	.L331:
 734 03b4 2021     		movs	r1, #32
 735              	.L70:
 299:../Drivers/STM32F4xx_HAL_Driver/Src/stm32f4xx_hal_dma.c ****   __HAL_DMA_CLEAR_FLAG(hdma, __HAL_DMA_GET_TE_FLAG_INDEX(hdma));
 736              		.loc 1 299 0 discriminator 50
 737 03b6 834A     		ldr	r2, .L525+12
 738 03b8 D160     		str	r1, [r2, #12]
 739 03ba 0EE1     		b	.L82
 740              	.L69:
 299:../Drivers/STM32F4xx_HAL_Driver/Src/stm32f4xx_hal_dma.c ****   __HAL_DMA_CLEAR_FLAG(hdma, __HAL_DMA_GET_TE_FLAG_INDEX(hdma));
 741              		.loc 1 299 0 discriminator 2
 742 03bc 8249     		ldr	r1, .L525+16
 743 03be 8A42     		cmp	r2, r1
 744 03c0 53D9     		bls	.L83
 299:../Drivers/STM32F4xx_HAL_Driver/Src/stm32f4xx_hal_dma.c ****   __HAL_DMA_CLEAR_FLAG(hdma, __HAL_DMA_GET_TE_FLAG_INDEX(hdma));
 745              		.loc 1 299 0 discriminator 51
 746 03c2 A839     		subs	r1, r1, #168
 747 03c4 8A42     		cmp	r2, r1
 748 03c6 4CD0     		beq	.L343
 299:../Drivers/STM32F4xx_HAL_Driver/Src/stm32f4xx_hal_dma.c ****   __HAL_DMA_CLEAR_FLAG(hdma, __HAL_DMA_GET_TE_FLAG_INDEX(hdma));
 749              		.loc 1 299 0 discriminator 53
 750 03c8 01F58061 		add	r1, r1, #1024
 751 03cc 8A42     		cmp	r2, r1
 752 03ce 46D0     		beq	.L344
 299:../Drivers/STM32F4xx_HAL_Driver/Src/stm32f4xx_hal_dma.c ****   __HAL_DMA_CLEAR_FLAG(hdma, __HAL_DMA_GET_TE_FLAG_INDEX(hdma));
 753              		.loc 1 299 0 discriminator 55
 754 03d0 A1F56871 		sub	r1, r1, #928
 755 03d4 8A42     		cmp	r2, r1
 756 03d6 40D0     		beq	.L345
 299:../Drivers/STM32F4xx_HAL_Driver/Src/stm32f4xx_hal_dma.c ****   __HAL_DMA_CLEAR_FLAG(hdma, __HAL_DMA_GET_TE_FLAG_INDEX(hdma));
 757              		.loc 1 299 0 discriminator 57
ARM GAS  /tmp/ccAPlzty.s 			page 32


 758 03d8 01F58061 		add	r1, r1, #1024
 759 03dc 8A42     		cmp	r2, r1
 760 03de 3AD0     		beq	.L346
 299:../Drivers/STM32F4xx_HAL_Driver/Src/stm32f4xx_hal_dma.c ****   __HAL_DMA_CLEAR_FLAG(hdma, __HAL_DMA_GET_TE_FLAG_INDEX(hdma));
 761              		.loc 1 299 0 discriminator 59
 762 03e0 A1F58961 		sub	r1, r1, #1096
 763 03e4 8A42     		cmp	r2, r1
 764 03e6 33D0     		beq	.L347
 299:../Drivers/STM32F4xx_HAL_Driver/Src/stm32f4xx_hal_dma.c ****   __HAL_DMA_CLEAR_FLAG(hdma, __HAL_DMA_GET_TE_FLAG_INDEX(hdma));
 765              		.loc 1 299 0 discriminator 61
 766 03e8 01F58061 		add	r1, r1, #1024
 767 03ec 8A42     		cmp	r2, r1
 768 03ee 2CD0     		beq	.L348
 299:../Drivers/STM32F4xx_HAL_Driver/Src/stm32f4xx_hal_dma.c ****   __HAL_DMA_CLEAR_FLAG(hdma, __HAL_DMA_GET_TE_FLAG_INDEX(hdma));
 769              		.loc 1 299 0 discriminator 63
 770 03f0 A1F56871 		sub	r1, r1, #928
 771 03f4 8A42     		cmp	r2, r1
 772 03f6 25D0     		beq	.L349
 299:../Drivers/STM32F4xx_HAL_Driver/Src/stm32f4xx_hal_dma.c ****   __HAL_DMA_CLEAR_FLAG(hdma, __HAL_DMA_GET_TE_FLAG_INDEX(hdma));
 773              		.loc 1 299 0 discriminator 65
 774 03f8 01F58061 		add	r1, r1, #1024
 775 03fc 8A42     		cmp	r2, r1
 776 03fe 1ED0     		beq	.L350
 299:../Drivers/STM32F4xx_HAL_Driver/Src/stm32f4xx_hal_dma.c ****   __HAL_DMA_CLEAR_FLAG(hdma, __HAL_DMA_GET_TE_FLAG_INDEX(hdma));
 777              		.loc 1 299 0 discriminator 67
 778 0400 A1F58961 		sub	r1, r1, #1096
 779 0404 8A42     		cmp	r2, r1
 780 0406 17D0     		beq	.L351
 299:../Drivers/STM32F4xx_HAL_Driver/Src/stm32f4xx_hal_dma.c ****   __HAL_DMA_CLEAR_FLAG(hdma, __HAL_DMA_GET_TE_FLAG_INDEX(hdma));
 781              		.loc 1 299 0 discriminator 69
 782 0408 01F58061 		add	r1, r1, #1024
 783 040c 8A42     		cmp	r2, r1
 784 040e 10D0     		beq	.L352
 299:../Drivers/STM32F4xx_HAL_Driver/Src/stm32f4xx_hal_dma.c ****   __HAL_DMA_CLEAR_FLAG(hdma, __HAL_DMA_GET_TE_FLAG_INDEX(hdma));
 785              		.loc 1 299 0 discriminator 71
 786 0410 A1F56871 		sub	r1, r1, #928
 787 0414 8A42     		cmp	r2, r1
 788 0416 09D0     		beq	.L353
 299:../Drivers/STM32F4xx_HAL_Driver/Src/stm32f4xx_hal_dma.c ****   __HAL_DMA_CLEAR_FLAG(hdma, __HAL_DMA_GET_TE_FLAG_INDEX(hdma));
 789              		.loc 1 299 0 discriminator 73
 790 0418 01F58061 		add	r1, r1, #1024
 791 041c 8A42     		cmp	r2, r1
 792 041e 02D1     		bne	.L354
 299:../Drivers/STM32F4xx_HAL_Driver/Src/stm32f4xx_hal_dma.c ****   __HAL_DMA_CLEAR_FLAG(hdma, __HAL_DMA_GET_TE_FLAG_INDEX(hdma));
 793              		.loc 1 299 0
 794 0420 4FF40011 		mov	r1, #2097152
 795 0424 1EE0     		b	.L84
 796              	.L354:
 797 0426 4FF00061 		mov	r1, #134217728
 798 042a 1BE0     		b	.L84
 799              	.L353:
 800 042c 4FF40011 		mov	r1, #2097152
 801 0430 18E0     		b	.L84
 802              	.L352:
 803 0432 4FF40011 		mov	r1, #2097152
 804 0436 15E0     		b	.L84
 805              	.L351:
ARM GAS  /tmp/ccAPlzty.s 			page 33


 806 0438 4FF40011 		mov	r1, #2097152
 807 043c 12E0     		b	.L84
 808              	.L350:
 809 043e 4FF40061 		mov	r1, #2048
 810 0442 0FE0     		b	.L84
 811              	.L349:
 812 0444 4FF40061 		mov	r1, #2048
 813 0448 0CE0     		b	.L84
 814              	.L348:
 815 044a 4FF40061 		mov	r1, #2048
 816 044e 09E0     		b	.L84
 817              	.L347:
 818 0450 4FF40061 		mov	r1, #2048
 819 0454 06E0     		b	.L84
 820              	.L346:
 821 0456 2021     		movs	r1, #32
 822 0458 04E0     		b	.L84
 823              	.L345:
 824 045a 2021     		movs	r1, #32
 825 045c 02E0     		b	.L84
 826              	.L344:
 827 045e 2021     		movs	r1, #32
 828 0460 00E0     		b	.L84
 829              	.L343:
 830 0462 2021     		movs	r1, #32
 831              	.L84:
 299:../Drivers/STM32F4xx_HAL_Driver/Src/stm32f4xx_hal_dma.c ****   __HAL_DMA_CLEAR_FLAG(hdma, __HAL_DMA_GET_TE_FLAG_INDEX(hdma));
 832              		.loc 1 299 0 discriminator 100
 833 0464 574A     		ldr	r2, .L525+12
 834 0466 9160     		str	r1, [r2, #8]
 835 0468 B7E0     		b	.L82
 836              	.L83:
 299:../Drivers/STM32F4xx_HAL_Driver/Src/stm32f4xx_hal_dma.c ****   __HAL_DMA_CLEAR_FLAG(hdma, __HAL_DMA_GET_TE_FLAG_INDEX(hdma));
 837              		.loc 1 299 0 discriminator 52
 838 046a 5849     		ldr	r1, .L525+20
 839 046c 8A42     		cmp	r2, r1
 840 046e 53D9     		bls	.L96
 299:../Drivers/STM32F4xx_HAL_Driver/Src/stm32f4xx_hal_dma.c ****   __HAL_DMA_CLEAR_FLAG(hdma, __HAL_DMA_GET_TE_FLAG_INDEX(hdma));
 841              		.loc 1 299 0 discriminator 102
 842 0470 4839     		subs	r1, r1, #72
 843 0472 8A42     		cmp	r2, r1
 844 0474 4CD0     		beq	.L355
 299:../Drivers/STM32F4xx_HAL_Driver/Src/stm32f4xx_hal_dma.c ****   __HAL_DMA_CLEAR_FLAG(hdma, __HAL_DMA_GET_TE_FLAG_INDEX(hdma));
 845              		.loc 1 299 0 discriminator 104
 846 0476 01F58061 		add	r1, r1, #1024
 847 047a 8A42     		cmp	r2, r1
 848 047c 46D0     		beq	.L356
 299:../Drivers/STM32F4xx_HAL_Driver/Src/stm32f4xx_hal_dma.c ****   __HAL_DMA_CLEAR_FLAG(hdma, __HAL_DMA_GET_TE_FLAG_INDEX(hdma));
 849              		.loc 1 299 0 discriminator 106
 850 047e A1F56871 		sub	r1, r1, #928
 851 0482 8A42     		cmp	r2, r1
 852 0484 40D0     		beq	.L357
 299:../Drivers/STM32F4xx_HAL_Driver/Src/stm32f4xx_hal_dma.c ****   __HAL_DMA_CLEAR_FLAG(hdma, __HAL_DMA_GET_TE_FLAG_INDEX(hdma));
 853              		.loc 1 299 0 discriminator 108
 854 0486 01F58061 		add	r1, r1, #1024
 855 048a 8A42     		cmp	r2, r1
 856 048c 3AD0     		beq	.L358
ARM GAS  /tmp/ccAPlzty.s 			page 34


 299:../Drivers/STM32F4xx_HAL_Driver/Src/stm32f4xx_hal_dma.c ****   __HAL_DMA_CLEAR_FLAG(hdma, __HAL_DMA_GET_TE_FLAG_INDEX(hdma));
 857              		.loc 1 299 0 discriminator 110
 858 048e A1F58961 		sub	r1, r1, #1096
 859 0492 8A42     		cmp	r2, r1
 860 0494 33D0     		beq	.L359
 299:../Drivers/STM32F4xx_HAL_Driver/Src/stm32f4xx_hal_dma.c ****   __HAL_DMA_CLEAR_FLAG(hdma, __HAL_DMA_GET_TE_FLAG_INDEX(hdma));
 861              		.loc 1 299 0 discriminator 112
 862 0496 01F58061 		add	r1, r1, #1024
 863 049a 8A42     		cmp	r2, r1
 864 049c 2CD0     		beq	.L360
 299:../Drivers/STM32F4xx_HAL_Driver/Src/stm32f4xx_hal_dma.c ****   __HAL_DMA_CLEAR_FLAG(hdma, __HAL_DMA_GET_TE_FLAG_INDEX(hdma));
 865              		.loc 1 299 0 discriminator 114
 866 049e A1F56871 		sub	r1, r1, #928
 867 04a2 8A42     		cmp	r2, r1
 868 04a4 25D0     		beq	.L361
 299:../Drivers/STM32F4xx_HAL_Driver/Src/stm32f4xx_hal_dma.c ****   __HAL_DMA_CLEAR_FLAG(hdma, __HAL_DMA_GET_TE_FLAG_INDEX(hdma));
 869              		.loc 1 299 0 discriminator 116
 870 04a6 01F58061 		add	r1, r1, #1024
 871 04aa 8A42     		cmp	r2, r1
 872 04ac 1ED0     		beq	.L362
 299:../Drivers/STM32F4xx_HAL_Driver/Src/stm32f4xx_hal_dma.c ****   __HAL_DMA_CLEAR_FLAG(hdma, __HAL_DMA_GET_TE_FLAG_INDEX(hdma));
 873              		.loc 1 299 0 discriminator 118
 874 04ae A1F58961 		sub	r1, r1, #1096
 875 04b2 8A42     		cmp	r2, r1
 876 04b4 17D0     		beq	.L363
 299:../Drivers/STM32F4xx_HAL_Driver/Src/stm32f4xx_hal_dma.c ****   __HAL_DMA_CLEAR_FLAG(hdma, __HAL_DMA_GET_TE_FLAG_INDEX(hdma));
 877              		.loc 1 299 0 discriminator 120
 878 04b6 01F58061 		add	r1, r1, #1024
 879 04ba 8A42     		cmp	r2, r1
 880 04bc 10D0     		beq	.L364
 299:../Drivers/STM32F4xx_HAL_Driver/Src/stm32f4xx_hal_dma.c ****   __HAL_DMA_CLEAR_FLAG(hdma, __HAL_DMA_GET_TE_FLAG_INDEX(hdma));
 881              		.loc 1 299 0 discriminator 122
 882 04be A1F56871 		sub	r1, r1, #928
 883 04c2 8A42     		cmp	r2, r1
 884 04c4 09D0     		beq	.L365
 299:../Drivers/STM32F4xx_HAL_Driver/Src/stm32f4xx_hal_dma.c ****   __HAL_DMA_CLEAR_FLAG(hdma, __HAL_DMA_GET_TE_FLAG_INDEX(hdma));
 885              		.loc 1 299 0 discriminator 124
 886 04c6 01F58061 		add	r1, r1, #1024
 887 04ca 8A42     		cmp	r2, r1
 888 04cc 02D1     		bne	.L366
 299:../Drivers/STM32F4xx_HAL_Driver/Src/stm32f4xx_hal_dma.c ****   __HAL_DMA_CLEAR_FLAG(hdma, __HAL_DMA_GET_TE_FLAG_INDEX(hdma));
 889              		.loc 1 299 0
 890 04ce 4FF40011 		mov	r1, #2097152
 891 04d2 1EE0     		b	.L97
 892              	.L366:
 893 04d4 4FF00061 		mov	r1, #134217728
 894 04d8 1BE0     		b	.L97
 895              	.L365:
 896 04da 4FF40011 		mov	r1, #2097152
 897 04de 18E0     		b	.L97
 898              	.L364:
 899 04e0 4FF40011 		mov	r1, #2097152
 900 04e4 15E0     		b	.L97
 901              	.L363:
 902 04e6 4FF40011 		mov	r1, #2097152
 903 04ea 12E0     		b	.L97
 904              	.L362:
ARM GAS  /tmp/ccAPlzty.s 			page 35


 905 04ec 4FF40061 		mov	r1, #2048
 906 04f0 0FE0     		b	.L97
 907              	.L361:
 908 04f2 4FF40061 		mov	r1, #2048
 909 04f6 0CE0     		b	.L97
 910              	.L360:
 911 04f8 4FF40061 		mov	r1, #2048
 912 04fc 09E0     		b	.L97
 913              	.L359:
 914 04fe 4FF40061 		mov	r1, #2048
 915 0502 06E0     		b	.L97
 916              	.L358:
 917 0504 2021     		movs	r1, #32
 918 0506 04E0     		b	.L97
 919              	.L357:
 920 0508 2021     		movs	r1, #32
 921 050a 02E0     		b	.L97
 922              	.L356:
 923 050c 2021     		movs	r1, #32
 924 050e 00E0     		b	.L97
 925              	.L355:
 926 0510 2021     		movs	r1, #32
 927              	.L97:
 299:../Drivers/STM32F4xx_HAL_Driver/Src/stm32f4xx_hal_dma.c ****   __HAL_DMA_CLEAR_FLAG(hdma, __HAL_DMA_GET_TE_FLAG_INDEX(hdma));
 928              		.loc 1 299 0 discriminator 151
 929 0512 2A4A     		ldr	r2, .L525+4
 930 0514 D160     		str	r1, [r2, #12]
 931 0516 60E0     		b	.L82
 932              	.L96:
 299:../Drivers/STM32F4xx_HAL_Driver/Src/stm32f4xx_hal_dma.c ****   __HAL_DMA_CLEAR_FLAG(hdma, __HAL_DMA_GET_TE_FLAG_INDEX(hdma));
 933              		.loc 1 299 0 discriminator 103
 934 0518 2D49     		ldr	r1, .L525+24
 935 051a 8A42     		cmp	r2, r1
 936 051c 5AD0     		beq	.L367
 299:../Drivers/STM32F4xx_HAL_Driver/Src/stm32f4xx_hal_dma.c ****   __HAL_DMA_CLEAR_FLAG(hdma, __HAL_DMA_GET_TE_FLAG_INDEX(hdma));
 937              		.loc 1 299 0 discriminator 153
 938 051e 01F58061 		add	r1, r1, #1024
 939 0522 8A42     		cmp	r2, r1
 940 0524 46D0     		beq	.L368
 299:../Drivers/STM32F4xx_HAL_Driver/Src/stm32f4xx_hal_dma.c ****   __HAL_DMA_CLEAR_FLAG(hdma, __HAL_DMA_GET_TE_FLAG_INDEX(hdma));
 941              		.loc 1 299 0 discriminator 155
 942 0526 A1F56871 		sub	r1, r1, #928
 943 052a 8A42     		cmp	r2, r1
 944 052c 40D0     		beq	.L369
 299:../Drivers/STM32F4xx_HAL_Driver/Src/stm32f4xx_hal_dma.c ****   __HAL_DMA_CLEAR_FLAG(hdma, __HAL_DMA_GET_TE_FLAG_INDEX(hdma));
 945              		.loc 1 299 0 discriminator 157
 946 052e 01F58061 		add	r1, r1, #1024
 947 0532 8A42     		cmp	r2, r1
 948 0534 3AD0     		beq	.L370
 299:../Drivers/STM32F4xx_HAL_Driver/Src/stm32f4xx_hal_dma.c ****   __HAL_DMA_CLEAR_FLAG(hdma, __HAL_DMA_GET_TE_FLAG_INDEX(hdma));
 949              		.loc 1 299 0 discriminator 159
 950 0536 A1F58961 		sub	r1, r1, #1096
 951 053a 8A42     		cmp	r2, r1
 952 053c 33D0     		beq	.L371
 299:../Drivers/STM32F4xx_HAL_Driver/Src/stm32f4xx_hal_dma.c ****   __HAL_DMA_CLEAR_FLAG(hdma, __HAL_DMA_GET_TE_FLAG_INDEX(hdma));
 953              		.loc 1 299 0 discriminator 161
 954 053e 01F58061 		add	r1, r1, #1024
ARM GAS  /tmp/ccAPlzty.s 			page 36


 955 0542 8A42     		cmp	r2, r1
 956 0544 2CD0     		beq	.L372
 299:../Drivers/STM32F4xx_HAL_Driver/Src/stm32f4xx_hal_dma.c ****   __HAL_DMA_CLEAR_FLAG(hdma, __HAL_DMA_GET_TE_FLAG_INDEX(hdma));
 957              		.loc 1 299 0 discriminator 163
 958 0546 A1F56871 		sub	r1, r1, #928
 959 054a 8A42     		cmp	r2, r1
 960 054c 25D0     		beq	.L373
 299:../Drivers/STM32F4xx_HAL_Driver/Src/stm32f4xx_hal_dma.c ****   __HAL_DMA_CLEAR_FLAG(hdma, __HAL_DMA_GET_TE_FLAG_INDEX(hdma));
 961              		.loc 1 299 0 discriminator 165
 962 054e 01F58061 		add	r1, r1, #1024
 963 0552 8A42     		cmp	r2, r1
 964 0554 1ED0     		beq	.L374
 299:../Drivers/STM32F4xx_HAL_Driver/Src/stm32f4xx_hal_dma.c ****   __HAL_DMA_CLEAR_FLAG(hdma, __HAL_DMA_GET_TE_FLAG_INDEX(hdma));
 965              		.loc 1 299 0 discriminator 167
 966 0556 A1F58961 		sub	r1, r1, #1096
 967 055a 8A42     		cmp	r2, r1
 968 055c 17D0     		beq	.L375
 299:../Drivers/STM32F4xx_HAL_Driver/Src/stm32f4xx_hal_dma.c ****   __HAL_DMA_CLEAR_FLAG(hdma, __HAL_DMA_GET_TE_FLAG_INDEX(hdma));
 969              		.loc 1 299 0 discriminator 169
 970 055e 01F58061 		add	r1, r1, #1024
 971 0562 8A42     		cmp	r2, r1
 972 0564 10D0     		beq	.L376
 299:../Drivers/STM32F4xx_HAL_Driver/Src/stm32f4xx_hal_dma.c ****   __HAL_DMA_CLEAR_FLAG(hdma, __HAL_DMA_GET_TE_FLAG_INDEX(hdma));
 973              		.loc 1 299 0 discriminator 171
 974 0566 A1F56871 		sub	r1, r1, #928
 975 056a 8A42     		cmp	r2, r1
 976 056c 09D0     		beq	.L377
 299:../Drivers/STM32F4xx_HAL_Driver/Src/stm32f4xx_hal_dma.c ****   __HAL_DMA_CLEAR_FLAG(hdma, __HAL_DMA_GET_TE_FLAG_INDEX(hdma));
 977              		.loc 1 299 0 discriminator 173
 978 056e 01F58061 		add	r1, r1, #1024
 979 0572 8A42     		cmp	r2, r1
 980 0574 02D1     		bne	.L378
 299:../Drivers/STM32F4xx_HAL_Driver/Src/stm32f4xx_hal_dma.c ****   __HAL_DMA_CLEAR_FLAG(hdma, __HAL_DMA_GET_TE_FLAG_INDEX(hdma));
 981              		.loc 1 299 0
 982 0576 4FF40011 		mov	r1, #2097152
 983 057a 2CE0     		b	.L110
 984              	.L378:
 985 057c 4FF00061 		mov	r1, #134217728
 986 0580 29E0     		b	.L110
 987              	.L377:
 988 0582 4FF40011 		mov	r1, #2097152
 989 0586 26E0     		b	.L110
 990              	.L376:
 991 0588 4FF40011 		mov	r1, #2097152
 992 058c 23E0     		b	.L110
 993              	.L375:
 994 058e 4FF40011 		mov	r1, #2097152
 995 0592 20E0     		b	.L110
 996              	.L374:
 997 0594 4FF40061 		mov	r1, #2048
 998 0598 1DE0     		b	.L110
 999              	.L373:
 1000 059a 4FF40061 		mov	r1, #2048
 1001 059e 1AE0     		b	.L110
 1002              	.L372:
 1003 05a0 4FF40061 		mov	r1, #2048
 1004 05a4 17E0     		b	.L110
ARM GAS  /tmp/ccAPlzty.s 			page 37


 1005              	.L371:
 1006 05a6 4FF40061 		mov	r1, #2048
 1007 05aa 14E0     		b	.L110
 1008              	.L370:
 1009 05ac 2021     		movs	r1, #32
 1010 05ae 12E0     		b	.L110
 1011              	.L369:
 1012 05b0 2021     		movs	r1, #32
 1013 05b2 10E0     		b	.L110
 1014              	.L368:
 1015 05b4 2021     		movs	r1, #32
 1016 05b6 0EE0     		b	.L110
 1017              	.L526:
 1018              		.align	2
 1019              	.L525:
 1020 05b8 04008000 		.word	8388612
 1021 05bc 00600240 		.word	1073897472
 1022 05c0 58640240 		.word	1073898584
 1023 05c4 00640240 		.word	1073898496
 1024 05c8 B8600240 		.word	1073897656
 1025 05cc 58600240 		.word	1073897560
 1026 05d0 10600240 		.word	1073897488
 1027              	.L367:
 1028 05d4 2021     		movs	r1, #32
 1029              	.L110:
 299:../Drivers/STM32F4xx_HAL_Driver/Src/stm32f4xx_hal_dma.c ****   __HAL_DMA_CLEAR_FLAG(hdma, __HAL_DMA_GET_TE_FLAG_INDEX(hdma));
 1030              		.loc 1 299 0 discriminator 200
 1031 05d6 AC4A     		ldr	r2, .L527
 1032 05d8 9160     		str	r1, [r2, #8]
 1033              	.L82:
 300:../Drivers/STM32F4xx_HAL_Driver/Src/stm32f4xx_hal_dma.c ****   __HAL_DMA_CLEAR_FLAG(hdma, __HAL_DMA_GET_FE_FLAG_INDEX(hdma));
 1034              		.loc 1 300 0 is_stmt 1
 1035 05da 1A68     		ldr	r2, [r3]
 1036 05dc AB49     		ldr	r1, .L527+4
 1037 05de 8A42     		cmp	r2, r1
 1038 05e0 54D9     		bls	.L122
 300:../Drivers/STM32F4xx_HAL_Driver/Src/stm32f4xx_hal_dma.c ****   __HAL_DMA_CLEAR_FLAG(hdma, __HAL_DMA_GET_FE_FLAG_INDEX(hdma));
 1039              		.loc 1 300 0 is_stmt 0 discriminator 1
 1040 05e2 A1F58961 		sub	r1, r1, #1096
 1041 05e6 8A42     		cmp	r2, r1
 1042 05e8 4CD0     		beq	.L379
 300:../Drivers/STM32F4xx_HAL_Driver/Src/stm32f4xx_hal_dma.c ****   __HAL_DMA_CLEAR_FLAG(hdma, __HAL_DMA_GET_FE_FLAG_INDEX(hdma));
 1043              		.loc 1 300 0 discriminator 3
 1044 05ea 01F58061 		add	r1, r1, #1024
 1045 05ee 8A42     		cmp	r2, r1
 1046 05f0 46D0     		beq	.L380
 300:../Drivers/STM32F4xx_HAL_Driver/Src/stm32f4xx_hal_dma.c ****   __HAL_DMA_CLEAR_FLAG(hdma, __HAL_DMA_GET_FE_FLAG_INDEX(hdma));
 1047              		.loc 1 300 0 discriminator 5
 1048 05f2 A1F56871 		sub	r1, r1, #928
 1049 05f6 8A42     		cmp	r2, r1
 1050 05f8 40D0     		beq	.L381
 300:../Drivers/STM32F4xx_HAL_Driver/Src/stm32f4xx_hal_dma.c ****   __HAL_DMA_CLEAR_FLAG(hdma, __HAL_DMA_GET_FE_FLAG_INDEX(hdma));
 1051              		.loc 1 300 0 discriminator 7
 1052 05fa 01F58061 		add	r1, r1, #1024
 1053 05fe 8A42     		cmp	r2, r1
 1054 0600 3AD0     		beq	.L382
 300:../Drivers/STM32F4xx_HAL_Driver/Src/stm32f4xx_hal_dma.c ****   __HAL_DMA_CLEAR_FLAG(hdma, __HAL_DMA_GET_FE_FLAG_INDEX(hdma));
ARM GAS  /tmp/ccAPlzty.s 			page 38


 1055              		.loc 1 300 0 discriminator 9
 1056 0602 A1F58961 		sub	r1, r1, #1096
 1057 0606 8A42     		cmp	r2, r1
 1058 0608 33D0     		beq	.L383
 300:../Drivers/STM32F4xx_HAL_Driver/Src/stm32f4xx_hal_dma.c ****   __HAL_DMA_CLEAR_FLAG(hdma, __HAL_DMA_GET_FE_FLAG_INDEX(hdma));
 1059              		.loc 1 300 0 discriminator 11
 1060 060a 01F58061 		add	r1, r1, #1024
 1061 060e 8A42     		cmp	r2, r1
 1062 0610 2CD0     		beq	.L384
 300:../Drivers/STM32F4xx_HAL_Driver/Src/stm32f4xx_hal_dma.c ****   __HAL_DMA_CLEAR_FLAG(hdma, __HAL_DMA_GET_FE_FLAG_INDEX(hdma));
 1063              		.loc 1 300 0 discriminator 13
 1064 0612 A1F56871 		sub	r1, r1, #928
 1065 0616 8A42     		cmp	r2, r1
 1066 0618 25D0     		beq	.L385
 300:../Drivers/STM32F4xx_HAL_Driver/Src/stm32f4xx_hal_dma.c ****   __HAL_DMA_CLEAR_FLAG(hdma, __HAL_DMA_GET_FE_FLAG_INDEX(hdma));
 1067              		.loc 1 300 0 discriminator 15
 1068 061a 01F58061 		add	r1, r1, #1024
 1069 061e 8A42     		cmp	r2, r1
 1070 0620 1ED0     		beq	.L386
 300:../Drivers/STM32F4xx_HAL_Driver/Src/stm32f4xx_hal_dma.c ****   __HAL_DMA_CLEAR_FLAG(hdma, __HAL_DMA_GET_FE_FLAG_INDEX(hdma));
 1071              		.loc 1 300 0 discriminator 17
 1072 0622 A1F58961 		sub	r1, r1, #1096
 1073 0626 8A42     		cmp	r2, r1
 1074 0628 17D0     		beq	.L387
 300:../Drivers/STM32F4xx_HAL_Driver/Src/stm32f4xx_hal_dma.c ****   __HAL_DMA_CLEAR_FLAG(hdma, __HAL_DMA_GET_FE_FLAG_INDEX(hdma));
 1075              		.loc 1 300 0 discriminator 19
 1076 062a 01F58061 		add	r1, r1, #1024
 1077 062e 8A42     		cmp	r2, r1
 1078 0630 10D0     		beq	.L388
 300:../Drivers/STM32F4xx_HAL_Driver/Src/stm32f4xx_hal_dma.c ****   __HAL_DMA_CLEAR_FLAG(hdma, __HAL_DMA_GET_FE_FLAG_INDEX(hdma));
 1079              		.loc 1 300 0 discriminator 21
 1080 0632 A1F56871 		sub	r1, r1, #928
 1081 0636 8A42     		cmp	r2, r1
 1082 0638 09D0     		beq	.L389
 300:../Drivers/STM32F4xx_HAL_Driver/Src/stm32f4xx_hal_dma.c ****   __HAL_DMA_CLEAR_FLAG(hdma, __HAL_DMA_GET_FE_FLAG_INDEX(hdma));
 1083              		.loc 1 300 0 discriminator 23
 1084 063a 01F58061 		add	r1, r1, #1024
 1085 063e 8A42     		cmp	r2, r1
 1086 0640 02D1     		bne	.L390
 300:../Drivers/STM32F4xx_HAL_Driver/Src/stm32f4xx_hal_dma.c ****   __HAL_DMA_CLEAR_FLAG(hdma, __HAL_DMA_GET_FE_FLAG_INDEX(hdma));
 1087              		.loc 1 300 0
 1088 0642 4FF40021 		mov	r1, #524288
 1089 0646 1EE0     		b	.L123
 1090              	.L390:
 1091 0648 4FF00071 		mov	r1, #33554432
 1092 064c 1BE0     		b	.L123
 1093              	.L389:
 1094 064e 4FF40021 		mov	r1, #524288
 1095 0652 18E0     		b	.L123
 1096              	.L388:
 1097 0654 4FF40021 		mov	r1, #524288
 1098 0658 15E0     		b	.L123
 1099              	.L387:
 1100 065a 4FF40021 		mov	r1, #524288
 1101 065e 12E0     		b	.L123
 1102              	.L386:
 1103 0660 4FF40071 		mov	r1, #512
ARM GAS  /tmp/ccAPlzty.s 			page 39


 1104 0664 0FE0     		b	.L123
 1105              	.L385:
 1106 0666 4FF40071 		mov	r1, #512
 1107 066a 0CE0     		b	.L123
 1108              	.L384:
 1109 066c 4FF40071 		mov	r1, #512
 1110 0670 09E0     		b	.L123
 1111              	.L383:
 1112 0672 4FF40071 		mov	r1, #512
 1113 0676 06E0     		b	.L123
 1114              	.L382:
 1115 0678 0821     		movs	r1, #8
 1116 067a 04E0     		b	.L123
 1117              	.L381:
 1118 067c 0821     		movs	r1, #8
 1119 067e 02E0     		b	.L123
 1120              	.L380:
 1121 0680 0821     		movs	r1, #8
 1122 0682 00E0     		b	.L123
 1123              	.L379:
 1124 0684 0821     		movs	r1, #8
 1125              	.L123:
 300:../Drivers/STM32F4xx_HAL_Driver/Src/stm32f4xx_hal_dma.c ****   __HAL_DMA_CLEAR_FLAG(hdma, __HAL_DMA_GET_FE_FLAG_INDEX(hdma));
 1126              		.loc 1 300 0 discriminator 50
 1127 0686 824A     		ldr	r2, .L527+8
 1128 0688 D160     		str	r1, [r2, #12]
 1129 068a 0CE1     		b	.L135
 1130              	.L122:
 300:../Drivers/STM32F4xx_HAL_Driver/Src/stm32f4xx_hal_dma.c ****   __HAL_DMA_CLEAR_FLAG(hdma, __HAL_DMA_GET_FE_FLAG_INDEX(hdma));
 1131              		.loc 1 300 0 discriminator 2
 1132 068c 8149     		ldr	r1, .L527+12
 1133 068e 8A42     		cmp	r2, r1
 1134 0690 53D9     		bls	.L136
 300:../Drivers/STM32F4xx_HAL_Driver/Src/stm32f4xx_hal_dma.c ****   __HAL_DMA_CLEAR_FLAG(hdma, __HAL_DMA_GET_FE_FLAG_INDEX(hdma));
 1135              		.loc 1 300 0 discriminator 51
 1136 0692 A839     		subs	r1, r1, #168
 1137 0694 8A42     		cmp	r2, r1
 1138 0696 4CD0     		beq	.L391
 300:../Drivers/STM32F4xx_HAL_Driver/Src/stm32f4xx_hal_dma.c ****   __HAL_DMA_CLEAR_FLAG(hdma, __HAL_DMA_GET_FE_FLAG_INDEX(hdma));
 1139              		.loc 1 300 0 discriminator 53
 1140 0698 01F58061 		add	r1, r1, #1024
 1141 069c 8A42     		cmp	r2, r1
 1142 069e 46D0     		beq	.L392
 300:../Drivers/STM32F4xx_HAL_Driver/Src/stm32f4xx_hal_dma.c ****   __HAL_DMA_CLEAR_FLAG(hdma, __HAL_DMA_GET_FE_FLAG_INDEX(hdma));
 1143              		.loc 1 300 0 discriminator 55
 1144 06a0 A1F56871 		sub	r1, r1, #928
 1145 06a4 8A42     		cmp	r2, r1
 1146 06a6 40D0     		beq	.L393
 300:../Drivers/STM32F4xx_HAL_Driver/Src/stm32f4xx_hal_dma.c ****   __HAL_DMA_CLEAR_FLAG(hdma, __HAL_DMA_GET_FE_FLAG_INDEX(hdma));
 1147              		.loc 1 300 0 discriminator 57
 1148 06a8 01F58061 		add	r1, r1, #1024
 1149 06ac 8A42     		cmp	r2, r1
 1150 06ae 3AD0     		beq	.L394
 300:../Drivers/STM32F4xx_HAL_Driver/Src/stm32f4xx_hal_dma.c ****   __HAL_DMA_CLEAR_FLAG(hdma, __HAL_DMA_GET_FE_FLAG_INDEX(hdma));
 1151              		.loc 1 300 0 discriminator 59
 1152 06b0 A1F58961 		sub	r1, r1, #1096
 1153 06b4 8A42     		cmp	r2, r1
ARM GAS  /tmp/ccAPlzty.s 			page 40


 1154 06b6 33D0     		beq	.L395
 300:../Drivers/STM32F4xx_HAL_Driver/Src/stm32f4xx_hal_dma.c ****   __HAL_DMA_CLEAR_FLAG(hdma, __HAL_DMA_GET_FE_FLAG_INDEX(hdma));
 1155              		.loc 1 300 0 discriminator 61
 1156 06b8 01F58061 		add	r1, r1, #1024
 1157 06bc 8A42     		cmp	r2, r1
 1158 06be 2CD0     		beq	.L396
 300:../Drivers/STM32F4xx_HAL_Driver/Src/stm32f4xx_hal_dma.c ****   __HAL_DMA_CLEAR_FLAG(hdma, __HAL_DMA_GET_FE_FLAG_INDEX(hdma));
 1159              		.loc 1 300 0 discriminator 63
 1160 06c0 A1F56871 		sub	r1, r1, #928
 1161 06c4 8A42     		cmp	r2, r1
 1162 06c6 25D0     		beq	.L397
 300:../Drivers/STM32F4xx_HAL_Driver/Src/stm32f4xx_hal_dma.c ****   __HAL_DMA_CLEAR_FLAG(hdma, __HAL_DMA_GET_FE_FLAG_INDEX(hdma));
 1163              		.loc 1 300 0 discriminator 65
 1164 06c8 01F58061 		add	r1, r1, #1024
 1165 06cc 8A42     		cmp	r2, r1
 1166 06ce 1ED0     		beq	.L398
 300:../Drivers/STM32F4xx_HAL_Driver/Src/stm32f4xx_hal_dma.c ****   __HAL_DMA_CLEAR_FLAG(hdma, __HAL_DMA_GET_FE_FLAG_INDEX(hdma));
 1167              		.loc 1 300 0 discriminator 67
 1168 06d0 A1F58961 		sub	r1, r1, #1096
 1169 06d4 8A42     		cmp	r2, r1
 1170 06d6 17D0     		beq	.L399
 300:../Drivers/STM32F4xx_HAL_Driver/Src/stm32f4xx_hal_dma.c ****   __HAL_DMA_CLEAR_FLAG(hdma, __HAL_DMA_GET_FE_FLAG_INDEX(hdma));
 1171              		.loc 1 300 0 discriminator 69
 1172 06d8 01F58061 		add	r1, r1, #1024
 1173 06dc 8A42     		cmp	r2, r1
 1174 06de 10D0     		beq	.L400
 300:../Drivers/STM32F4xx_HAL_Driver/Src/stm32f4xx_hal_dma.c ****   __HAL_DMA_CLEAR_FLAG(hdma, __HAL_DMA_GET_FE_FLAG_INDEX(hdma));
 1175              		.loc 1 300 0 discriminator 71
 1176 06e0 A1F56871 		sub	r1, r1, #928
 1177 06e4 8A42     		cmp	r2, r1
 1178 06e6 09D0     		beq	.L401
 300:../Drivers/STM32F4xx_HAL_Driver/Src/stm32f4xx_hal_dma.c ****   __HAL_DMA_CLEAR_FLAG(hdma, __HAL_DMA_GET_FE_FLAG_INDEX(hdma));
 1179              		.loc 1 300 0 discriminator 73
 1180 06e8 01F58061 		add	r1, r1, #1024
 1181 06ec 8A42     		cmp	r2, r1
 1182 06ee 02D1     		bne	.L402
 300:../Drivers/STM32F4xx_HAL_Driver/Src/stm32f4xx_hal_dma.c ****   __HAL_DMA_CLEAR_FLAG(hdma, __HAL_DMA_GET_FE_FLAG_INDEX(hdma));
 1183              		.loc 1 300 0
 1184 06f0 4FF40021 		mov	r1, #524288
 1185 06f4 1EE0     		b	.L137
 1186              	.L402:
 1187 06f6 4FF00071 		mov	r1, #33554432
 1188 06fa 1BE0     		b	.L137
 1189              	.L401:
 1190 06fc 4FF40021 		mov	r1, #524288
 1191 0700 18E0     		b	.L137
 1192              	.L400:
 1193 0702 4FF40021 		mov	r1, #524288
 1194 0706 15E0     		b	.L137
 1195              	.L399:
 1196 0708 4FF40021 		mov	r1, #524288
 1197 070c 12E0     		b	.L137
 1198              	.L398:
 1199 070e 4FF40071 		mov	r1, #512
 1200 0712 0FE0     		b	.L137
 1201              	.L397:
 1202 0714 4FF40071 		mov	r1, #512
ARM GAS  /tmp/ccAPlzty.s 			page 41


 1203 0718 0CE0     		b	.L137
 1204              	.L396:
 1205 071a 4FF40071 		mov	r1, #512
 1206 071e 09E0     		b	.L137
 1207              	.L395:
 1208 0720 4FF40071 		mov	r1, #512
 1209 0724 06E0     		b	.L137
 1210              	.L394:
 1211 0726 0821     		movs	r1, #8
 1212 0728 04E0     		b	.L137
 1213              	.L393:
 1214 072a 0821     		movs	r1, #8
 1215 072c 02E0     		b	.L137
 1216              	.L392:
 1217 072e 0821     		movs	r1, #8
 1218 0730 00E0     		b	.L137
 1219              	.L391:
 1220 0732 0821     		movs	r1, #8
 1221              	.L137:
 300:../Drivers/STM32F4xx_HAL_Driver/Src/stm32f4xx_hal_dma.c ****   __HAL_DMA_CLEAR_FLAG(hdma, __HAL_DMA_GET_FE_FLAG_INDEX(hdma));
 1222              		.loc 1 300 0 discriminator 100
 1223 0734 564A     		ldr	r2, .L527+8
 1224 0736 9160     		str	r1, [r2, #8]
 1225 0738 B5E0     		b	.L135
 1226              	.L136:
 300:../Drivers/STM32F4xx_HAL_Driver/Src/stm32f4xx_hal_dma.c ****   __HAL_DMA_CLEAR_FLAG(hdma, __HAL_DMA_GET_FE_FLAG_INDEX(hdma));
 1227              		.loc 1 300 0 discriminator 52
 1228 073a 5749     		ldr	r1, .L527+16
 1229 073c 8A42     		cmp	r2, r1
 1230 073e 53D9     		bls	.L149
 300:../Drivers/STM32F4xx_HAL_Driver/Src/stm32f4xx_hal_dma.c ****   __HAL_DMA_CLEAR_FLAG(hdma, __HAL_DMA_GET_FE_FLAG_INDEX(hdma));
 1231              		.loc 1 300 0 discriminator 102
 1232 0740 4839     		subs	r1, r1, #72
 1233 0742 8A42     		cmp	r2, r1
 1234 0744 4CD0     		beq	.L403
 300:../Drivers/STM32F4xx_HAL_Driver/Src/stm32f4xx_hal_dma.c ****   __HAL_DMA_CLEAR_FLAG(hdma, __HAL_DMA_GET_FE_FLAG_INDEX(hdma));
 1235              		.loc 1 300 0 discriminator 104
 1236 0746 01F58061 		add	r1, r1, #1024
 1237 074a 8A42     		cmp	r2, r1
 1238 074c 46D0     		beq	.L404
 300:../Drivers/STM32F4xx_HAL_Driver/Src/stm32f4xx_hal_dma.c ****   __HAL_DMA_CLEAR_FLAG(hdma, __HAL_DMA_GET_FE_FLAG_INDEX(hdma));
 1239              		.loc 1 300 0 discriminator 106
 1240 074e A1F56871 		sub	r1, r1, #928
 1241 0752 8A42     		cmp	r2, r1
 1242 0754 40D0     		beq	.L405
 300:../Drivers/STM32F4xx_HAL_Driver/Src/stm32f4xx_hal_dma.c ****   __HAL_DMA_CLEAR_FLAG(hdma, __HAL_DMA_GET_FE_FLAG_INDEX(hdma));
 1243              		.loc 1 300 0 discriminator 108
 1244 0756 01F58061 		add	r1, r1, #1024
 1245 075a 8A42     		cmp	r2, r1
 1246 075c 3AD0     		beq	.L406
 300:../Drivers/STM32F4xx_HAL_Driver/Src/stm32f4xx_hal_dma.c ****   __HAL_DMA_CLEAR_FLAG(hdma, __HAL_DMA_GET_FE_FLAG_INDEX(hdma));
 1247              		.loc 1 300 0 discriminator 110
 1248 075e A1F58961 		sub	r1, r1, #1096
 1249 0762 8A42     		cmp	r2, r1
 1250 0764 33D0     		beq	.L407
 300:../Drivers/STM32F4xx_HAL_Driver/Src/stm32f4xx_hal_dma.c ****   __HAL_DMA_CLEAR_FLAG(hdma, __HAL_DMA_GET_FE_FLAG_INDEX(hdma));
 1251              		.loc 1 300 0 discriminator 112
ARM GAS  /tmp/ccAPlzty.s 			page 42


 1252 0766 01F58061 		add	r1, r1, #1024
 1253 076a 8A42     		cmp	r2, r1
 1254 076c 2CD0     		beq	.L408
 300:../Drivers/STM32F4xx_HAL_Driver/Src/stm32f4xx_hal_dma.c ****   __HAL_DMA_CLEAR_FLAG(hdma, __HAL_DMA_GET_FE_FLAG_INDEX(hdma));
 1255              		.loc 1 300 0 discriminator 114
 1256 076e A1F56871 		sub	r1, r1, #928
 1257 0772 8A42     		cmp	r2, r1
 1258 0774 25D0     		beq	.L409
 300:../Drivers/STM32F4xx_HAL_Driver/Src/stm32f4xx_hal_dma.c ****   __HAL_DMA_CLEAR_FLAG(hdma, __HAL_DMA_GET_FE_FLAG_INDEX(hdma));
 1259              		.loc 1 300 0 discriminator 116
 1260 0776 01F58061 		add	r1, r1, #1024
 1261 077a 8A42     		cmp	r2, r1
 1262 077c 1ED0     		beq	.L410
 300:../Drivers/STM32F4xx_HAL_Driver/Src/stm32f4xx_hal_dma.c ****   __HAL_DMA_CLEAR_FLAG(hdma, __HAL_DMA_GET_FE_FLAG_INDEX(hdma));
 1263              		.loc 1 300 0 discriminator 118
 1264 077e A1F58961 		sub	r1, r1, #1096
 1265 0782 8A42     		cmp	r2, r1
 1266 0784 17D0     		beq	.L411
 300:../Drivers/STM32F4xx_HAL_Driver/Src/stm32f4xx_hal_dma.c ****   __HAL_DMA_CLEAR_FLAG(hdma, __HAL_DMA_GET_FE_FLAG_INDEX(hdma));
 1267              		.loc 1 300 0 discriminator 120
 1268 0786 01F58061 		add	r1, r1, #1024
 1269 078a 8A42     		cmp	r2, r1
 1270 078c 10D0     		beq	.L412
 300:../Drivers/STM32F4xx_HAL_Driver/Src/stm32f4xx_hal_dma.c ****   __HAL_DMA_CLEAR_FLAG(hdma, __HAL_DMA_GET_FE_FLAG_INDEX(hdma));
 1271              		.loc 1 300 0 discriminator 122
 1272 078e A1F56871 		sub	r1, r1, #928
 1273 0792 8A42     		cmp	r2, r1
 1274 0794 09D0     		beq	.L413
 300:../Drivers/STM32F4xx_HAL_Driver/Src/stm32f4xx_hal_dma.c ****   __HAL_DMA_CLEAR_FLAG(hdma, __HAL_DMA_GET_FE_FLAG_INDEX(hdma));
 1275              		.loc 1 300 0 discriminator 124
 1276 0796 01F58061 		add	r1, r1, #1024
 1277 079a 8A42     		cmp	r2, r1
 1278 079c 02D1     		bne	.L414
 300:../Drivers/STM32F4xx_HAL_Driver/Src/stm32f4xx_hal_dma.c ****   __HAL_DMA_CLEAR_FLAG(hdma, __HAL_DMA_GET_FE_FLAG_INDEX(hdma));
 1279              		.loc 1 300 0
 1280 079e 4FF40021 		mov	r1, #524288
 1281 07a2 1EE0     		b	.L150
 1282              	.L414:
 1283 07a4 4FF00071 		mov	r1, #33554432
 1284 07a8 1BE0     		b	.L150
 1285              	.L413:
 1286 07aa 4FF40021 		mov	r1, #524288
 1287 07ae 18E0     		b	.L150
 1288              	.L412:
 1289 07b0 4FF40021 		mov	r1, #524288
 1290 07b4 15E0     		b	.L150
 1291              	.L411:
 1292 07b6 4FF40021 		mov	r1, #524288
 1293 07ba 12E0     		b	.L150
 1294              	.L410:
 1295 07bc 4FF40071 		mov	r1, #512
 1296 07c0 0FE0     		b	.L150
 1297              	.L409:
 1298 07c2 4FF40071 		mov	r1, #512
 1299 07c6 0CE0     		b	.L150
 1300              	.L408:
 1301 07c8 4FF40071 		mov	r1, #512
ARM GAS  /tmp/ccAPlzty.s 			page 43


 1302 07cc 09E0     		b	.L150
 1303              	.L407:
 1304 07ce 4FF40071 		mov	r1, #512
 1305 07d2 06E0     		b	.L150
 1306              	.L406:
 1307 07d4 0821     		movs	r1, #8
 1308 07d6 04E0     		b	.L150
 1309              	.L405:
 1310 07d8 0821     		movs	r1, #8
 1311 07da 02E0     		b	.L150
 1312              	.L404:
 1313 07dc 0821     		movs	r1, #8
 1314 07de 00E0     		b	.L150
 1315              	.L403:
 1316 07e0 0821     		movs	r1, #8
 1317              	.L150:
 300:../Drivers/STM32F4xx_HAL_Driver/Src/stm32f4xx_hal_dma.c ****   __HAL_DMA_CLEAR_FLAG(hdma, __HAL_DMA_GET_FE_FLAG_INDEX(hdma));
 1318              		.loc 1 300 0 discriminator 151
 1319 07e2 294A     		ldr	r2, .L527
 1320 07e4 D160     		str	r1, [r2, #12]
 1321 07e6 5EE0     		b	.L135
 1322              	.L149:
 300:../Drivers/STM32F4xx_HAL_Driver/Src/stm32f4xx_hal_dma.c ****   __HAL_DMA_CLEAR_FLAG(hdma, __HAL_DMA_GET_FE_FLAG_INDEX(hdma));
 1323              		.loc 1 300 0 discriminator 103
 1324 07e8 2C49     		ldr	r1, .L527+20
 1325 07ea 8A42     		cmp	r2, r1
 1326 07ec 58D0     		beq	.L415
 300:../Drivers/STM32F4xx_HAL_Driver/Src/stm32f4xx_hal_dma.c ****   __HAL_DMA_CLEAR_FLAG(hdma, __HAL_DMA_GET_FE_FLAG_INDEX(hdma));
 1327              		.loc 1 300 0 discriminator 153
 1328 07ee 01F58061 		add	r1, r1, #1024
 1329 07f2 8A42     		cmp	r2, r1
 1330 07f4 46D0     		beq	.L416
 300:../Drivers/STM32F4xx_HAL_Driver/Src/stm32f4xx_hal_dma.c ****   __HAL_DMA_CLEAR_FLAG(hdma, __HAL_DMA_GET_FE_FLAG_INDEX(hdma));
 1331              		.loc 1 300 0 discriminator 155
 1332 07f6 A1F56871 		sub	r1, r1, #928
 1333 07fa 8A42     		cmp	r2, r1
 1334 07fc 40D0     		beq	.L417
 300:../Drivers/STM32F4xx_HAL_Driver/Src/stm32f4xx_hal_dma.c ****   __HAL_DMA_CLEAR_FLAG(hdma, __HAL_DMA_GET_FE_FLAG_INDEX(hdma));
 1335              		.loc 1 300 0 discriminator 157
 1336 07fe 01F58061 		add	r1, r1, #1024
 1337 0802 8A42     		cmp	r2, r1
 1338 0804 3AD0     		beq	.L418
 300:../Drivers/STM32F4xx_HAL_Driver/Src/stm32f4xx_hal_dma.c ****   __HAL_DMA_CLEAR_FLAG(hdma, __HAL_DMA_GET_FE_FLAG_INDEX(hdma));
 1339              		.loc 1 300 0 discriminator 159
 1340 0806 A1F58961 		sub	r1, r1, #1096
 1341 080a 8A42     		cmp	r2, r1
 1342 080c 33D0     		beq	.L419
 300:../Drivers/STM32F4xx_HAL_Driver/Src/stm32f4xx_hal_dma.c ****   __HAL_DMA_CLEAR_FLAG(hdma, __HAL_DMA_GET_FE_FLAG_INDEX(hdma));
 1343              		.loc 1 300 0 discriminator 161
 1344 080e 01F58061 		add	r1, r1, #1024
 1345 0812 8A42     		cmp	r2, r1
 1346 0814 2CD0     		beq	.L420
 300:../Drivers/STM32F4xx_HAL_Driver/Src/stm32f4xx_hal_dma.c ****   __HAL_DMA_CLEAR_FLAG(hdma, __HAL_DMA_GET_FE_FLAG_INDEX(hdma));
 1347              		.loc 1 300 0 discriminator 163
 1348 0816 A1F56871 		sub	r1, r1, #928
 1349 081a 8A42     		cmp	r2, r1
 1350 081c 25D0     		beq	.L421
ARM GAS  /tmp/ccAPlzty.s 			page 44


 300:../Drivers/STM32F4xx_HAL_Driver/Src/stm32f4xx_hal_dma.c ****   __HAL_DMA_CLEAR_FLAG(hdma, __HAL_DMA_GET_FE_FLAG_INDEX(hdma));
 1351              		.loc 1 300 0 discriminator 165
 1352 081e 01F58061 		add	r1, r1, #1024
 1353 0822 8A42     		cmp	r2, r1
 1354 0824 1ED0     		beq	.L422
 300:../Drivers/STM32F4xx_HAL_Driver/Src/stm32f4xx_hal_dma.c ****   __HAL_DMA_CLEAR_FLAG(hdma, __HAL_DMA_GET_FE_FLAG_INDEX(hdma));
 1355              		.loc 1 300 0 discriminator 167
 1356 0826 A1F58961 		sub	r1, r1, #1096
 1357 082a 8A42     		cmp	r2, r1
 1358 082c 17D0     		beq	.L423
 300:../Drivers/STM32F4xx_HAL_Driver/Src/stm32f4xx_hal_dma.c ****   __HAL_DMA_CLEAR_FLAG(hdma, __HAL_DMA_GET_FE_FLAG_INDEX(hdma));
 1359              		.loc 1 300 0 discriminator 169
 1360 082e 01F58061 		add	r1, r1, #1024
 1361 0832 8A42     		cmp	r2, r1
 1362 0834 10D0     		beq	.L424
 300:../Drivers/STM32F4xx_HAL_Driver/Src/stm32f4xx_hal_dma.c ****   __HAL_DMA_CLEAR_FLAG(hdma, __HAL_DMA_GET_FE_FLAG_INDEX(hdma));
 1363              		.loc 1 300 0 discriminator 171
 1364 0836 A1F56871 		sub	r1, r1, #928
 1365 083a 8A42     		cmp	r2, r1
 1366 083c 09D0     		beq	.L425
 300:../Drivers/STM32F4xx_HAL_Driver/Src/stm32f4xx_hal_dma.c ****   __HAL_DMA_CLEAR_FLAG(hdma, __HAL_DMA_GET_FE_FLAG_INDEX(hdma));
 1367              		.loc 1 300 0 discriminator 173
 1368 083e 01F58061 		add	r1, r1, #1024
 1369 0842 8A42     		cmp	r2, r1
 1370 0844 02D1     		bne	.L426
 300:../Drivers/STM32F4xx_HAL_Driver/Src/stm32f4xx_hal_dma.c ****   __HAL_DMA_CLEAR_FLAG(hdma, __HAL_DMA_GET_FE_FLAG_INDEX(hdma));
 1371              		.loc 1 300 0
 1372 0846 4FF40021 		mov	r1, #524288
 1373 084a 2AE0     		b	.L163
 1374              	.L426:
 1375 084c 4FF00071 		mov	r1, #33554432
 1376 0850 27E0     		b	.L163
 1377              	.L425:
 1378 0852 4FF40021 		mov	r1, #524288
 1379 0856 24E0     		b	.L163
 1380              	.L424:
 1381 0858 4FF40021 		mov	r1, #524288
 1382 085c 21E0     		b	.L163
 1383              	.L423:
 1384 085e 4FF40021 		mov	r1, #524288
 1385 0862 1EE0     		b	.L163
 1386              	.L422:
 1387 0864 4FF40071 		mov	r1, #512
 1388 0868 1BE0     		b	.L163
 1389              	.L421:
 1390 086a 4FF40071 		mov	r1, #512
 1391 086e 18E0     		b	.L163
 1392              	.L420:
 1393 0870 4FF40071 		mov	r1, #512
 1394 0874 15E0     		b	.L163
 1395              	.L419:
 1396 0876 4FF40071 		mov	r1, #512
 1397 087a 12E0     		b	.L163
 1398              	.L418:
 1399 087c 0821     		movs	r1, #8
 1400 087e 10E0     		b	.L163
 1401              	.L417:
ARM GAS  /tmp/ccAPlzty.s 			page 45


 1402 0880 0821     		movs	r1, #8
 1403 0882 0EE0     		b	.L163
 1404              	.L416:
 1405 0884 0821     		movs	r1, #8
 1406 0886 0CE0     		b	.L163
 1407              	.L528:
 1408              		.align	2
 1409              	.L527:
 1410 0888 00600240 		.word	1073897472
 1411 088c 58640240 		.word	1073898584
 1412 0890 00640240 		.word	1073898496
 1413 0894 B8600240 		.word	1073897656
 1414 0898 58600240 		.word	1073897560
 1415 089c 10600240 		.word	1073897488
 1416              	.L415:
 1417 08a0 0821     		movs	r1, #8
 1418              	.L163:
 300:../Drivers/STM32F4xx_HAL_Driver/Src/stm32f4xx_hal_dma.c ****   __HAL_DMA_CLEAR_FLAG(hdma, __HAL_DMA_GET_FE_FLAG_INDEX(hdma));
 1419              		.loc 1 300 0 discriminator 200
 1420 08a2 A44A     		ldr	r2, .L529
 1421 08a4 9160     		str	r1, [r2, #8]
 1422              	.L135:
 301:../Drivers/STM32F4xx_HAL_Driver/Src/stm32f4xx_hal_dma.c ****   __HAL_DMA_CLEAR_FLAG(hdma, __HAL_DMA_GET_HT_FLAG_INDEX(hdma));
 1423              		.loc 1 301 0 is_stmt 1
 1424 08a6 1A68     		ldr	r2, [r3]
 1425 08a8 A349     		ldr	r1, .L529+4
 1426 08aa 8A42     		cmp	r2, r1
 1427 08ac 50D9     		bls	.L175
 301:../Drivers/STM32F4xx_HAL_Driver/Src/stm32f4xx_hal_dma.c ****   __HAL_DMA_CLEAR_FLAG(hdma, __HAL_DMA_GET_HT_FLAG_INDEX(hdma));
 1428              		.loc 1 301 0 is_stmt 0 discriminator 1
 1429 08ae A1F58961 		sub	r1, r1, #1096
 1430 08b2 8A42     		cmp	r2, r1
 1431 08b4 48D0     		beq	.L427
 301:../Drivers/STM32F4xx_HAL_Driver/Src/stm32f4xx_hal_dma.c ****   __HAL_DMA_CLEAR_FLAG(hdma, __HAL_DMA_GET_HT_FLAG_INDEX(hdma));
 1432              		.loc 1 301 0 discriminator 3
 1433 08b6 01F58061 		add	r1, r1, #1024
 1434 08ba 8A42     		cmp	r2, r1
 1435 08bc 42D0     		beq	.L428
 301:../Drivers/STM32F4xx_HAL_Driver/Src/stm32f4xx_hal_dma.c ****   __HAL_DMA_CLEAR_FLAG(hdma, __HAL_DMA_GET_HT_FLAG_INDEX(hdma));
 1436              		.loc 1 301 0 discriminator 5
 1437 08be A1F56871 		sub	r1, r1, #928
 1438 08c2 8A42     		cmp	r2, r1
 1439 08c4 3CD0     		beq	.L429
 301:../Drivers/STM32F4xx_HAL_Driver/Src/stm32f4xx_hal_dma.c ****   __HAL_DMA_CLEAR_FLAG(hdma, __HAL_DMA_GET_HT_FLAG_INDEX(hdma));
 1440              		.loc 1 301 0 discriminator 7
 1441 08c6 01F58061 		add	r1, r1, #1024
 1442 08ca 8A42     		cmp	r2, r1
 1443 08cc 36D0     		beq	.L430
 301:../Drivers/STM32F4xx_HAL_Driver/Src/stm32f4xx_hal_dma.c ****   __HAL_DMA_CLEAR_FLAG(hdma, __HAL_DMA_GET_HT_FLAG_INDEX(hdma));
 1444              		.loc 1 301 0 discriminator 9
 1445 08ce A1F58961 		sub	r1, r1, #1096
 1446 08d2 8A42     		cmp	r2, r1
 1447 08d4 30D0     		beq	.L431
 301:../Drivers/STM32F4xx_HAL_Driver/Src/stm32f4xx_hal_dma.c ****   __HAL_DMA_CLEAR_FLAG(hdma, __HAL_DMA_GET_HT_FLAG_INDEX(hdma));
 1448              		.loc 1 301 0 discriminator 11
 1449 08d6 01F58061 		add	r1, r1, #1024
 1450 08da 8A42     		cmp	r2, r1
ARM GAS  /tmp/ccAPlzty.s 			page 46


 1451 08dc 2AD0     		beq	.L432
 301:../Drivers/STM32F4xx_HAL_Driver/Src/stm32f4xx_hal_dma.c ****   __HAL_DMA_CLEAR_FLAG(hdma, __HAL_DMA_GET_HT_FLAG_INDEX(hdma));
 1452              		.loc 1 301 0 discriminator 13
 1453 08de A1F56871 		sub	r1, r1, #928
 1454 08e2 8A42     		cmp	r2, r1
 1455 08e4 24D0     		beq	.L433
 301:../Drivers/STM32F4xx_HAL_Driver/Src/stm32f4xx_hal_dma.c ****   __HAL_DMA_CLEAR_FLAG(hdma, __HAL_DMA_GET_HT_FLAG_INDEX(hdma));
 1456              		.loc 1 301 0 discriminator 15
 1457 08e6 01F58061 		add	r1, r1, #1024
 1458 08ea 8A42     		cmp	r2, r1
 1459 08ec 1ED0     		beq	.L434
 301:../Drivers/STM32F4xx_HAL_Driver/Src/stm32f4xx_hal_dma.c ****   __HAL_DMA_CLEAR_FLAG(hdma, __HAL_DMA_GET_HT_FLAG_INDEX(hdma));
 1460              		.loc 1 301 0 discriminator 17
 1461 08ee A1F58961 		sub	r1, r1, #1096
 1462 08f2 8A42     		cmp	r2, r1
 1463 08f4 17D0     		beq	.L435
 301:../Drivers/STM32F4xx_HAL_Driver/Src/stm32f4xx_hal_dma.c ****   __HAL_DMA_CLEAR_FLAG(hdma, __HAL_DMA_GET_HT_FLAG_INDEX(hdma));
 1464              		.loc 1 301 0 discriminator 19
 1465 08f6 01F58061 		add	r1, r1, #1024
 1466 08fa 8A42     		cmp	r2, r1
 1467 08fc 10D0     		beq	.L436
 301:../Drivers/STM32F4xx_HAL_Driver/Src/stm32f4xx_hal_dma.c ****   __HAL_DMA_CLEAR_FLAG(hdma, __HAL_DMA_GET_HT_FLAG_INDEX(hdma));
 1468              		.loc 1 301 0 discriminator 21
 1469 08fe A1F56871 		sub	r1, r1, #928
 1470 0902 8A42     		cmp	r2, r1
 1471 0904 09D0     		beq	.L437
 301:../Drivers/STM32F4xx_HAL_Driver/Src/stm32f4xx_hal_dma.c ****   __HAL_DMA_CLEAR_FLAG(hdma, __HAL_DMA_GET_HT_FLAG_INDEX(hdma));
 1472              		.loc 1 301 0 discriminator 23
 1473 0906 01F58061 		add	r1, r1, #1024
 1474 090a 8A42     		cmp	r2, r1
 1475 090c 02D1     		bne	.L438
 301:../Drivers/STM32F4xx_HAL_Driver/Src/stm32f4xx_hal_dma.c ****   __HAL_DMA_CLEAR_FLAG(hdma, __HAL_DMA_GET_HT_FLAG_INDEX(hdma));
 1476              		.loc 1 301 0
 1477 090e 4FF48031 		mov	r1, #65536
 1478 0912 1AE0     		b	.L176
 1479              	.L438:
 1480 0914 4FF48001 		mov	r1, #4194304
 1481 0918 17E0     		b	.L176
 1482              	.L437:
 1483 091a 4FF48031 		mov	r1, #65536
 1484 091e 14E0     		b	.L176
 1485              	.L436:
 1486 0920 4FF48031 		mov	r1, #65536
 1487 0924 11E0     		b	.L176
 1488              	.L435:
 1489 0926 4FF48031 		mov	r1, #65536
 1490 092a 0EE0     		b	.L176
 1491              	.L434:
 1492 092c 4021     		movs	r1, #64
 1493 092e 0CE0     		b	.L176
 1494              	.L433:
 1495 0930 4021     		movs	r1, #64
 1496 0932 0AE0     		b	.L176
 1497              	.L432:
 1498 0934 4021     		movs	r1, #64
 1499 0936 08E0     		b	.L176
 1500              	.L431:
ARM GAS  /tmp/ccAPlzty.s 			page 47


 1501 0938 4021     		movs	r1, #64
 1502 093a 06E0     		b	.L176
 1503              	.L430:
 1504 093c 7F49     		ldr	r1, .L529+8
 1505 093e 04E0     		b	.L176
 1506              	.L429:
 1507 0940 7E49     		ldr	r1, .L529+8
 1508 0942 02E0     		b	.L176
 1509              	.L428:
 1510 0944 7D49     		ldr	r1, .L529+8
 1511 0946 00E0     		b	.L176
 1512              	.L427:
 1513 0948 7C49     		ldr	r1, .L529+8
 1514              	.L176:
 301:../Drivers/STM32F4xx_HAL_Driver/Src/stm32f4xx_hal_dma.c ****   __HAL_DMA_CLEAR_FLAG(hdma, __HAL_DMA_GET_HT_FLAG_INDEX(hdma));
 1515              		.loc 1 301 0 discriminator 50
 1516 094a 7D4A     		ldr	r2, .L529+12
 1517 094c D160     		str	r1, [r2, #12]
 1518 094e 02E1     		b	.L188
 1519              	.L175:
 301:../Drivers/STM32F4xx_HAL_Driver/Src/stm32f4xx_hal_dma.c ****   __HAL_DMA_CLEAR_FLAG(hdma, __HAL_DMA_GET_HT_FLAG_INDEX(hdma));
 1520              		.loc 1 301 0 discriminator 2
 1521 0950 7C49     		ldr	r1, .L529+16
 1522 0952 8A42     		cmp	r2, r1
 1523 0954 4FD9     		bls	.L189
 301:../Drivers/STM32F4xx_HAL_Driver/Src/stm32f4xx_hal_dma.c ****   __HAL_DMA_CLEAR_FLAG(hdma, __HAL_DMA_GET_HT_FLAG_INDEX(hdma));
 1524              		.loc 1 301 0 discriminator 51
 1525 0956 A839     		subs	r1, r1, #168
 1526 0958 8A42     		cmp	r2, r1
 1527 095a 48D0     		beq	.L439
 301:../Drivers/STM32F4xx_HAL_Driver/Src/stm32f4xx_hal_dma.c ****   __HAL_DMA_CLEAR_FLAG(hdma, __HAL_DMA_GET_HT_FLAG_INDEX(hdma));
 1528              		.loc 1 301 0 discriminator 53
 1529 095c 01F58061 		add	r1, r1, #1024
 1530 0960 8A42     		cmp	r2, r1
 1531 0962 42D0     		beq	.L440
 301:../Drivers/STM32F4xx_HAL_Driver/Src/stm32f4xx_hal_dma.c ****   __HAL_DMA_CLEAR_FLAG(hdma, __HAL_DMA_GET_HT_FLAG_INDEX(hdma));
 1532              		.loc 1 301 0 discriminator 55
 1533 0964 A1F56871 		sub	r1, r1, #928
 1534 0968 8A42     		cmp	r2, r1
 1535 096a 3CD0     		beq	.L441
 301:../Drivers/STM32F4xx_HAL_Driver/Src/stm32f4xx_hal_dma.c ****   __HAL_DMA_CLEAR_FLAG(hdma, __HAL_DMA_GET_HT_FLAG_INDEX(hdma));
 1536              		.loc 1 301 0 discriminator 57
 1537 096c 01F58061 		add	r1, r1, #1024
 1538 0970 8A42     		cmp	r2, r1
 1539 0972 36D0     		beq	.L442
 301:../Drivers/STM32F4xx_HAL_Driver/Src/stm32f4xx_hal_dma.c ****   __HAL_DMA_CLEAR_FLAG(hdma, __HAL_DMA_GET_HT_FLAG_INDEX(hdma));
 1540              		.loc 1 301 0 discriminator 59
 1541 0974 A1F58961 		sub	r1, r1, #1096
 1542 0978 8A42     		cmp	r2, r1
 1543 097a 30D0     		beq	.L443
 301:../Drivers/STM32F4xx_HAL_Driver/Src/stm32f4xx_hal_dma.c ****   __HAL_DMA_CLEAR_FLAG(hdma, __HAL_DMA_GET_HT_FLAG_INDEX(hdma));
 1544              		.loc 1 301 0 discriminator 61
 1545 097c 01F58061 		add	r1, r1, #1024
 1546 0980 8A42     		cmp	r2, r1
 1547 0982 2AD0     		beq	.L444
 301:../Drivers/STM32F4xx_HAL_Driver/Src/stm32f4xx_hal_dma.c ****   __HAL_DMA_CLEAR_FLAG(hdma, __HAL_DMA_GET_HT_FLAG_INDEX(hdma));
 1548              		.loc 1 301 0 discriminator 63
ARM GAS  /tmp/ccAPlzty.s 			page 48


 1549 0984 A1F56871 		sub	r1, r1, #928
 1550 0988 8A42     		cmp	r2, r1
 1551 098a 24D0     		beq	.L445
 301:../Drivers/STM32F4xx_HAL_Driver/Src/stm32f4xx_hal_dma.c ****   __HAL_DMA_CLEAR_FLAG(hdma, __HAL_DMA_GET_HT_FLAG_INDEX(hdma));
 1552              		.loc 1 301 0 discriminator 65
 1553 098c 01F58061 		add	r1, r1, #1024
 1554 0990 8A42     		cmp	r2, r1
 1555 0992 1ED0     		beq	.L446
 301:../Drivers/STM32F4xx_HAL_Driver/Src/stm32f4xx_hal_dma.c ****   __HAL_DMA_CLEAR_FLAG(hdma, __HAL_DMA_GET_HT_FLAG_INDEX(hdma));
 1556              		.loc 1 301 0 discriminator 67
 1557 0994 A1F58961 		sub	r1, r1, #1096
 1558 0998 8A42     		cmp	r2, r1
 1559 099a 17D0     		beq	.L447
 301:../Drivers/STM32F4xx_HAL_Driver/Src/stm32f4xx_hal_dma.c ****   __HAL_DMA_CLEAR_FLAG(hdma, __HAL_DMA_GET_HT_FLAG_INDEX(hdma));
 1560              		.loc 1 301 0 discriminator 69
 1561 099c 01F58061 		add	r1, r1, #1024
 1562 09a0 8A42     		cmp	r2, r1
 1563 09a2 10D0     		beq	.L448
 301:../Drivers/STM32F4xx_HAL_Driver/Src/stm32f4xx_hal_dma.c ****   __HAL_DMA_CLEAR_FLAG(hdma, __HAL_DMA_GET_HT_FLAG_INDEX(hdma));
 1564              		.loc 1 301 0 discriminator 71
 1565 09a4 A1F56871 		sub	r1, r1, #928
 1566 09a8 8A42     		cmp	r2, r1
 1567 09aa 09D0     		beq	.L449
 301:../Drivers/STM32F4xx_HAL_Driver/Src/stm32f4xx_hal_dma.c ****   __HAL_DMA_CLEAR_FLAG(hdma, __HAL_DMA_GET_HT_FLAG_INDEX(hdma));
 1568              		.loc 1 301 0 discriminator 73
 1569 09ac 01F58061 		add	r1, r1, #1024
 1570 09b0 8A42     		cmp	r2, r1
 1571 09b2 02D1     		bne	.L450
 301:../Drivers/STM32F4xx_HAL_Driver/Src/stm32f4xx_hal_dma.c ****   __HAL_DMA_CLEAR_FLAG(hdma, __HAL_DMA_GET_HT_FLAG_INDEX(hdma));
 1572              		.loc 1 301 0
 1573 09b4 4FF48031 		mov	r1, #65536
 1574 09b8 1AE0     		b	.L190
 1575              	.L450:
 1576 09ba 4FF48001 		mov	r1, #4194304
 1577 09be 17E0     		b	.L190
 1578              	.L449:
 1579 09c0 4FF48031 		mov	r1, #65536
 1580 09c4 14E0     		b	.L190
 1581              	.L448:
 1582 09c6 4FF48031 		mov	r1, #65536
 1583 09ca 11E0     		b	.L190
 1584              	.L447:
 1585 09cc 4FF48031 		mov	r1, #65536
 1586 09d0 0EE0     		b	.L190
 1587              	.L446:
 1588 09d2 4021     		movs	r1, #64
 1589 09d4 0CE0     		b	.L190
 1590              	.L445:
 1591 09d6 4021     		movs	r1, #64
 1592 09d8 0AE0     		b	.L190
 1593              	.L444:
 1594 09da 4021     		movs	r1, #64
 1595 09dc 08E0     		b	.L190
 1596              	.L443:
 1597 09de 4021     		movs	r1, #64
 1598 09e0 06E0     		b	.L190
 1599              	.L442:
ARM GAS  /tmp/ccAPlzty.s 			page 49


 1600 09e2 5649     		ldr	r1, .L529+8
 1601 09e4 04E0     		b	.L190
 1602              	.L441:
 1603 09e6 5549     		ldr	r1, .L529+8
 1604 09e8 02E0     		b	.L190
 1605              	.L440:
 1606 09ea 5449     		ldr	r1, .L529+8
 1607 09ec 00E0     		b	.L190
 1608              	.L439:
 1609 09ee 5349     		ldr	r1, .L529+8
 1610              	.L190:
 301:../Drivers/STM32F4xx_HAL_Driver/Src/stm32f4xx_hal_dma.c ****   __HAL_DMA_CLEAR_FLAG(hdma, __HAL_DMA_GET_HT_FLAG_INDEX(hdma));
 1611              		.loc 1 301 0 discriminator 100
 1612 09f0 534A     		ldr	r2, .L529+12
 1613 09f2 9160     		str	r1, [r2, #8]
 1614 09f4 AFE0     		b	.L188
 1615              	.L189:
 301:../Drivers/STM32F4xx_HAL_Driver/Src/stm32f4xx_hal_dma.c ****   __HAL_DMA_CLEAR_FLAG(hdma, __HAL_DMA_GET_HT_FLAG_INDEX(hdma));
 1616              		.loc 1 301 0 discriminator 52
 1617 09f6 5449     		ldr	r1, .L529+20
 1618 09f8 8A42     		cmp	r2, r1
 1619 09fa 4FD9     		bls	.L202
 301:../Drivers/STM32F4xx_HAL_Driver/Src/stm32f4xx_hal_dma.c ****   __HAL_DMA_CLEAR_FLAG(hdma, __HAL_DMA_GET_HT_FLAG_INDEX(hdma));
 1620              		.loc 1 301 0 discriminator 102
 1621 09fc 4839     		subs	r1, r1, #72
 1622 09fe 8A42     		cmp	r2, r1
 1623 0a00 48D0     		beq	.L451
 301:../Drivers/STM32F4xx_HAL_Driver/Src/stm32f4xx_hal_dma.c ****   __HAL_DMA_CLEAR_FLAG(hdma, __HAL_DMA_GET_HT_FLAG_INDEX(hdma));
 1624              		.loc 1 301 0 discriminator 104
 1625 0a02 01F58061 		add	r1, r1, #1024
 1626 0a06 8A42     		cmp	r2, r1
 1627 0a08 42D0     		beq	.L452
 301:../Drivers/STM32F4xx_HAL_Driver/Src/stm32f4xx_hal_dma.c ****   __HAL_DMA_CLEAR_FLAG(hdma, __HAL_DMA_GET_HT_FLAG_INDEX(hdma));
 1628              		.loc 1 301 0 discriminator 106
 1629 0a0a A1F56871 		sub	r1, r1, #928
 1630 0a0e 8A42     		cmp	r2, r1
 1631 0a10 3CD0     		beq	.L453
 301:../Drivers/STM32F4xx_HAL_Driver/Src/stm32f4xx_hal_dma.c ****   __HAL_DMA_CLEAR_FLAG(hdma, __HAL_DMA_GET_HT_FLAG_INDEX(hdma));
 1632              		.loc 1 301 0 discriminator 108
 1633 0a12 01F58061 		add	r1, r1, #1024
 1634 0a16 8A42     		cmp	r2, r1
 1635 0a18 36D0     		beq	.L454
 301:../Drivers/STM32F4xx_HAL_Driver/Src/stm32f4xx_hal_dma.c ****   __HAL_DMA_CLEAR_FLAG(hdma, __HAL_DMA_GET_HT_FLAG_INDEX(hdma));
 1636              		.loc 1 301 0 discriminator 110
 1637 0a1a A1F58961 		sub	r1, r1, #1096
 1638 0a1e 8A42     		cmp	r2, r1
 1639 0a20 30D0     		beq	.L455
 301:../Drivers/STM32F4xx_HAL_Driver/Src/stm32f4xx_hal_dma.c ****   __HAL_DMA_CLEAR_FLAG(hdma, __HAL_DMA_GET_HT_FLAG_INDEX(hdma));
 1640              		.loc 1 301 0 discriminator 112
 1641 0a22 01F58061 		add	r1, r1, #1024
 1642 0a26 8A42     		cmp	r2, r1
 1643 0a28 2AD0     		beq	.L456
 301:../Drivers/STM32F4xx_HAL_Driver/Src/stm32f4xx_hal_dma.c ****   __HAL_DMA_CLEAR_FLAG(hdma, __HAL_DMA_GET_HT_FLAG_INDEX(hdma));
 1644              		.loc 1 301 0 discriminator 114
 1645 0a2a A1F56871 		sub	r1, r1, #928
 1646 0a2e 8A42     		cmp	r2, r1
 1647 0a30 24D0     		beq	.L457
ARM GAS  /tmp/ccAPlzty.s 			page 50


 301:../Drivers/STM32F4xx_HAL_Driver/Src/stm32f4xx_hal_dma.c ****   __HAL_DMA_CLEAR_FLAG(hdma, __HAL_DMA_GET_HT_FLAG_INDEX(hdma));
 1648              		.loc 1 301 0 discriminator 116
 1649 0a32 01F58061 		add	r1, r1, #1024
 1650 0a36 8A42     		cmp	r2, r1
 1651 0a38 1ED0     		beq	.L458
 301:../Drivers/STM32F4xx_HAL_Driver/Src/stm32f4xx_hal_dma.c ****   __HAL_DMA_CLEAR_FLAG(hdma, __HAL_DMA_GET_HT_FLAG_INDEX(hdma));
 1652              		.loc 1 301 0 discriminator 118
 1653 0a3a A1F58961 		sub	r1, r1, #1096
 1654 0a3e 8A42     		cmp	r2, r1
 1655 0a40 17D0     		beq	.L459
 301:../Drivers/STM32F4xx_HAL_Driver/Src/stm32f4xx_hal_dma.c ****   __HAL_DMA_CLEAR_FLAG(hdma, __HAL_DMA_GET_HT_FLAG_INDEX(hdma));
 1656              		.loc 1 301 0 discriminator 120
 1657 0a42 01F58061 		add	r1, r1, #1024
 1658 0a46 8A42     		cmp	r2, r1
 1659 0a48 10D0     		beq	.L460
 301:../Drivers/STM32F4xx_HAL_Driver/Src/stm32f4xx_hal_dma.c ****   __HAL_DMA_CLEAR_FLAG(hdma, __HAL_DMA_GET_HT_FLAG_INDEX(hdma));
 1660              		.loc 1 301 0 discriminator 122
 1661 0a4a A1F56871 		sub	r1, r1, #928
 1662 0a4e 8A42     		cmp	r2, r1
 1663 0a50 09D0     		beq	.L461
 301:../Drivers/STM32F4xx_HAL_Driver/Src/stm32f4xx_hal_dma.c ****   __HAL_DMA_CLEAR_FLAG(hdma, __HAL_DMA_GET_HT_FLAG_INDEX(hdma));
 1664              		.loc 1 301 0 discriminator 124
 1665 0a52 01F58061 		add	r1, r1, #1024
 1666 0a56 8A42     		cmp	r2, r1
 1667 0a58 02D1     		bne	.L462
 301:../Drivers/STM32F4xx_HAL_Driver/Src/stm32f4xx_hal_dma.c ****   __HAL_DMA_CLEAR_FLAG(hdma, __HAL_DMA_GET_HT_FLAG_INDEX(hdma));
 1668              		.loc 1 301 0
 1669 0a5a 4FF48031 		mov	r1, #65536
 1670 0a5e 1AE0     		b	.L203
 1671              	.L462:
 1672 0a60 4FF48001 		mov	r1, #4194304
 1673 0a64 17E0     		b	.L203
 1674              	.L461:
 1675 0a66 4FF48031 		mov	r1, #65536
 1676 0a6a 14E0     		b	.L203
 1677              	.L460:
 1678 0a6c 4FF48031 		mov	r1, #65536
 1679 0a70 11E0     		b	.L203
 1680              	.L459:
 1681 0a72 4FF48031 		mov	r1, #65536
 1682 0a76 0EE0     		b	.L203
 1683              	.L458:
 1684 0a78 4021     		movs	r1, #64
 1685 0a7a 0CE0     		b	.L203
 1686              	.L457:
 1687 0a7c 4021     		movs	r1, #64
 1688 0a7e 0AE0     		b	.L203
 1689              	.L456:
 1690 0a80 4021     		movs	r1, #64
 1691 0a82 08E0     		b	.L203
 1692              	.L455:
 1693 0a84 4021     		movs	r1, #64
 1694 0a86 06E0     		b	.L203
 1695              	.L454:
 1696 0a88 2C49     		ldr	r1, .L529+8
 1697 0a8a 04E0     		b	.L203
 1698              	.L453:
ARM GAS  /tmp/ccAPlzty.s 			page 51


 1699 0a8c 2B49     		ldr	r1, .L529+8
 1700 0a8e 02E0     		b	.L203
 1701              	.L452:
 1702 0a90 2A49     		ldr	r1, .L529+8
 1703 0a92 00E0     		b	.L203
 1704              	.L451:
 1705 0a94 2949     		ldr	r1, .L529+8
 1706              	.L203:
 301:../Drivers/STM32F4xx_HAL_Driver/Src/stm32f4xx_hal_dma.c ****   __HAL_DMA_CLEAR_FLAG(hdma, __HAL_DMA_GET_HT_FLAG_INDEX(hdma));
 1707              		.loc 1 301 0 discriminator 151
 1708 0a96 274A     		ldr	r2, .L529
 1709 0a98 D160     		str	r1, [r2, #12]
 1710 0a9a 5CE0     		b	.L188
 1711              	.L202:
 301:../Drivers/STM32F4xx_HAL_Driver/Src/stm32f4xx_hal_dma.c ****   __HAL_DMA_CLEAR_FLAG(hdma, __HAL_DMA_GET_HT_FLAG_INDEX(hdma));
 1712              		.loc 1 301 0 discriminator 103
 1713 0a9c 2B49     		ldr	r1, .L529+24
 1714 0a9e 8A42     		cmp	r2, r1
 1715 0aa0 56D0     		beq	.L463
 301:../Drivers/STM32F4xx_HAL_Driver/Src/stm32f4xx_hal_dma.c ****   __HAL_DMA_CLEAR_FLAG(hdma, __HAL_DMA_GET_HT_FLAG_INDEX(hdma));
 1716              		.loc 1 301 0 discriminator 153
 1717 0aa2 01F58061 		add	r1, r1, #1024
 1718 0aa6 8A42     		cmp	r2, r1
 1719 0aa8 42D0     		beq	.L464
 301:../Drivers/STM32F4xx_HAL_Driver/Src/stm32f4xx_hal_dma.c ****   __HAL_DMA_CLEAR_FLAG(hdma, __HAL_DMA_GET_HT_FLAG_INDEX(hdma));
 1720              		.loc 1 301 0 discriminator 155
 1721 0aaa A1F56871 		sub	r1, r1, #928
 1722 0aae 8A42     		cmp	r2, r1
 1723 0ab0 3CD0     		beq	.L465
 301:../Drivers/STM32F4xx_HAL_Driver/Src/stm32f4xx_hal_dma.c ****   __HAL_DMA_CLEAR_FLAG(hdma, __HAL_DMA_GET_HT_FLAG_INDEX(hdma));
 1724              		.loc 1 301 0 discriminator 157
 1725 0ab2 01F58061 		add	r1, r1, #1024
 1726 0ab6 8A42     		cmp	r2, r1
 1727 0ab8 36D0     		beq	.L466
 301:../Drivers/STM32F4xx_HAL_Driver/Src/stm32f4xx_hal_dma.c ****   __HAL_DMA_CLEAR_FLAG(hdma, __HAL_DMA_GET_HT_FLAG_INDEX(hdma));
 1728              		.loc 1 301 0 discriminator 159
 1729 0aba A1F58961 		sub	r1, r1, #1096
 1730 0abe 8A42     		cmp	r2, r1
 1731 0ac0 30D0     		beq	.L467
 301:../Drivers/STM32F4xx_HAL_Driver/Src/stm32f4xx_hal_dma.c ****   __HAL_DMA_CLEAR_FLAG(hdma, __HAL_DMA_GET_HT_FLAG_INDEX(hdma));
 1732              		.loc 1 301 0 discriminator 161
 1733 0ac2 01F58061 		add	r1, r1, #1024
 1734 0ac6 8A42     		cmp	r2, r1
 1735 0ac8 2AD0     		beq	.L468
 301:../Drivers/STM32F4xx_HAL_Driver/Src/stm32f4xx_hal_dma.c ****   __HAL_DMA_CLEAR_FLAG(hdma, __HAL_DMA_GET_HT_FLAG_INDEX(hdma));
 1736              		.loc 1 301 0 discriminator 163
 1737 0aca A1F56871 		sub	r1, r1, #928
 1738 0ace 8A42     		cmp	r2, r1
 1739 0ad0 24D0     		beq	.L469
 301:../Drivers/STM32F4xx_HAL_Driver/Src/stm32f4xx_hal_dma.c ****   __HAL_DMA_CLEAR_FLAG(hdma, __HAL_DMA_GET_HT_FLAG_INDEX(hdma));
 1740              		.loc 1 301 0 discriminator 165
 1741 0ad2 01F58061 		add	r1, r1, #1024
 1742 0ad6 8A42     		cmp	r2, r1
 1743 0ad8 1ED0     		beq	.L470
 301:../Drivers/STM32F4xx_HAL_Driver/Src/stm32f4xx_hal_dma.c ****   __HAL_DMA_CLEAR_FLAG(hdma, __HAL_DMA_GET_HT_FLAG_INDEX(hdma));
 1744              		.loc 1 301 0 discriminator 167
 1745 0ada A1F58961 		sub	r1, r1, #1096
ARM GAS  /tmp/ccAPlzty.s 			page 52


 1746 0ade 8A42     		cmp	r2, r1
 1747 0ae0 17D0     		beq	.L471
 301:../Drivers/STM32F4xx_HAL_Driver/Src/stm32f4xx_hal_dma.c ****   __HAL_DMA_CLEAR_FLAG(hdma, __HAL_DMA_GET_HT_FLAG_INDEX(hdma));
 1748              		.loc 1 301 0 discriminator 169
 1749 0ae2 01F58061 		add	r1, r1, #1024
 1750 0ae6 8A42     		cmp	r2, r1
 1751 0ae8 10D0     		beq	.L472
 301:../Drivers/STM32F4xx_HAL_Driver/Src/stm32f4xx_hal_dma.c ****   __HAL_DMA_CLEAR_FLAG(hdma, __HAL_DMA_GET_HT_FLAG_INDEX(hdma));
 1752              		.loc 1 301 0 discriminator 171
 1753 0aea A1F56871 		sub	r1, r1, #928
 1754 0aee 8A42     		cmp	r2, r1
 1755 0af0 09D0     		beq	.L473
 301:../Drivers/STM32F4xx_HAL_Driver/Src/stm32f4xx_hal_dma.c ****   __HAL_DMA_CLEAR_FLAG(hdma, __HAL_DMA_GET_HT_FLAG_INDEX(hdma));
 1756              		.loc 1 301 0 discriminator 173
 1757 0af2 01F58061 		add	r1, r1, #1024
 1758 0af6 8A42     		cmp	r2, r1
 1759 0af8 02D1     		bne	.L474
 301:../Drivers/STM32F4xx_HAL_Driver/Src/stm32f4xx_hal_dma.c ****   __HAL_DMA_CLEAR_FLAG(hdma, __HAL_DMA_GET_HT_FLAG_INDEX(hdma));
 1760              		.loc 1 301 0
 1761 0afa 4FF48031 		mov	r1, #65536
 1762 0afe 28E0     		b	.L216
 1763              	.L474:
 1764 0b00 4FF48001 		mov	r1, #4194304
 1765 0b04 25E0     		b	.L216
 1766              	.L473:
 1767 0b06 4FF48031 		mov	r1, #65536
 1768 0b0a 22E0     		b	.L216
 1769              	.L472:
 1770 0b0c 4FF48031 		mov	r1, #65536
 1771 0b10 1FE0     		b	.L216
 1772              	.L471:
 1773 0b12 4FF48031 		mov	r1, #65536
 1774 0b16 1CE0     		b	.L216
 1775              	.L470:
 1776 0b18 4021     		movs	r1, #64
 1777 0b1a 1AE0     		b	.L216
 1778              	.L469:
 1779 0b1c 4021     		movs	r1, #64
 1780 0b1e 18E0     		b	.L216
 1781              	.L468:
 1782 0b20 4021     		movs	r1, #64
 1783 0b22 16E0     		b	.L216
 1784              	.L467:
 1785 0b24 4021     		movs	r1, #64
 1786 0b26 14E0     		b	.L216
 1787              	.L466:
 1788 0b28 0449     		ldr	r1, .L529+8
 1789 0b2a 12E0     		b	.L216
 1790              	.L465:
 1791 0b2c 0349     		ldr	r1, .L529+8
 1792 0b2e 10E0     		b	.L216
 1793              	.L464:
 1794 0b30 0249     		ldr	r1, .L529+8
 1795 0b32 0EE0     		b	.L216
 1796              	.L530:
 1797              		.align	2
 1798              	.L529:
ARM GAS  /tmp/ccAPlzty.s 			page 53


 1799 0b34 00600240 		.word	1073897472
 1800 0b38 58640240 		.word	1073898584
 1801 0b3c 01008000 		.word	8388609
 1802 0b40 00640240 		.word	1073898496
 1803 0b44 B8600240 		.word	1073897656
 1804 0b48 58600240 		.word	1073897560
 1805 0b4c 10600240 		.word	1073897488
 1806              	.L463:
 1807 0b50 B349     		ldr	r1, .L531
 1808              	.L216:
 301:../Drivers/STM32F4xx_HAL_Driver/Src/stm32f4xx_hal_dma.c ****   __HAL_DMA_CLEAR_FLAG(hdma, __HAL_DMA_GET_HT_FLAG_INDEX(hdma));
 1809              		.loc 1 301 0 discriminator 200
 1810 0b52 B44A     		ldr	r2, .L531+4
 1811 0b54 9160     		str	r1, [r2, #8]
 1812              	.L188:
 302:../Drivers/STM32F4xx_HAL_Driver/Src/stm32f4xx_hal_dma.c **** 
 1813              		.loc 1 302 0 is_stmt 1
 1814 0b56 1A68     		ldr	r2, [r3]
 1815 0b58 B349     		ldr	r1, .L531+8
 1816 0b5a 8A42     		cmp	r2, r1
 1817 0b5c 54D9     		bls	.L228
 302:../Drivers/STM32F4xx_HAL_Driver/Src/stm32f4xx_hal_dma.c **** 
 1818              		.loc 1 302 0 is_stmt 0 discriminator 1
 1819 0b5e A1F58961 		sub	r1, r1, #1096
 1820 0b62 8A42     		cmp	r2, r1
 1821 0b64 4CD0     		beq	.L475
 302:../Drivers/STM32F4xx_HAL_Driver/Src/stm32f4xx_hal_dma.c **** 
 1822              		.loc 1 302 0 discriminator 3
 1823 0b66 01F58061 		add	r1, r1, #1024
 1824 0b6a 8A42     		cmp	r2, r1
 1825 0b6c 46D0     		beq	.L476
 302:../Drivers/STM32F4xx_HAL_Driver/Src/stm32f4xx_hal_dma.c **** 
 1826              		.loc 1 302 0 discriminator 5
 1827 0b6e A1F56871 		sub	r1, r1, #928
 1828 0b72 8A42     		cmp	r2, r1
 1829 0b74 40D0     		beq	.L477
 302:../Drivers/STM32F4xx_HAL_Driver/Src/stm32f4xx_hal_dma.c **** 
 1830              		.loc 1 302 0 discriminator 7
 1831 0b76 01F58061 		add	r1, r1, #1024
 1832 0b7a 8A42     		cmp	r2, r1
 1833 0b7c 3AD0     		beq	.L478
 302:../Drivers/STM32F4xx_HAL_Driver/Src/stm32f4xx_hal_dma.c **** 
 1834              		.loc 1 302 0 discriminator 9
 1835 0b7e A1F58961 		sub	r1, r1, #1096
 1836 0b82 8A42     		cmp	r2, r1
 1837 0b84 33D0     		beq	.L479
 302:../Drivers/STM32F4xx_HAL_Driver/Src/stm32f4xx_hal_dma.c **** 
 1838              		.loc 1 302 0 discriminator 11
 1839 0b86 01F58061 		add	r1, r1, #1024
 1840 0b8a 8A42     		cmp	r2, r1
 1841 0b8c 2CD0     		beq	.L480
 302:../Drivers/STM32F4xx_HAL_Driver/Src/stm32f4xx_hal_dma.c **** 
 1842              		.loc 1 302 0 discriminator 13
 1843 0b8e A1F56871 		sub	r1, r1, #928
 1844 0b92 8A42     		cmp	r2, r1
 1845 0b94 25D0     		beq	.L481
 302:../Drivers/STM32F4xx_HAL_Driver/Src/stm32f4xx_hal_dma.c **** 
ARM GAS  /tmp/ccAPlzty.s 			page 54


 1846              		.loc 1 302 0 discriminator 15
 1847 0b96 01F58061 		add	r1, r1, #1024
 1848 0b9a 8A42     		cmp	r2, r1
 1849 0b9c 1ED0     		beq	.L482
 302:../Drivers/STM32F4xx_HAL_Driver/Src/stm32f4xx_hal_dma.c **** 
 1850              		.loc 1 302 0 discriminator 17
 1851 0b9e A1F58961 		sub	r1, r1, #1096
 1852 0ba2 8A42     		cmp	r2, r1
 1853 0ba4 17D0     		beq	.L483
 302:../Drivers/STM32F4xx_HAL_Driver/Src/stm32f4xx_hal_dma.c **** 
 1854              		.loc 1 302 0 discriminator 19
 1855 0ba6 01F58061 		add	r1, r1, #1024
 1856 0baa 8A42     		cmp	r2, r1
 1857 0bac 10D0     		beq	.L484
 302:../Drivers/STM32F4xx_HAL_Driver/Src/stm32f4xx_hal_dma.c **** 
 1858              		.loc 1 302 0 discriminator 21
 1859 0bae A1F56871 		sub	r1, r1, #928
 1860 0bb2 8A42     		cmp	r2, r1
 1861 0bb4 09D0     		beq	.L485
 302:../Drivers/STM32F4xx_HAL_Driver/Src/stm32f4xx_hal_dma.c **** 
 1862              		.loc 1 302 0 discriminator 23
 1863 0bb6 01F58061 		add	r1, r1, #1024
 1864 0bba 8A42     		cmp	r2, r1
 1865 0bbc 02D1     		bne	.L486
 302:../Drivers/STM32F4xx_HAL_Driver/Src/stm32f4xx_hal_dma.c **** 
 1866              		.loc 1 302 0
 1867 0bbe 4FF48011 		mov	r1, #1048576
 1868 0bc2 1EE0     		b	.L229
 1869              	.L486:
 1870 0bc4 4FF08061 		mov	r1, #67108864
 1871 0bc8 1BE0     		b	.L229
 1872              	.L485:
 1873 0bca 4FF48011 		mov	r1, #1048576
 1874 0bce 18E0     		b	.L229
 1875              	.L484:
 1876 0bd0 4FF48011 		mov	r1, #1048576
 1877 0bd4 15E0     		b	.L229
 1878              	.L483:
 1879 0bd6 4FF48011 		mov	r1, #1048576
 1880 0bda 12E0     		b	.L229
 1881              	.L482:
 1882 0bdc 4FF48061 		mov	r1, #1024
 1883 0be0 0FE0     		b	.L229
 1884              	.L481:
 1885 0be2 4FF48061 		mov	r1, #1024
 1886 0be6 0CE0     		b	.L229
 1887              	.L480:
 1888 0be8 4FF48061 		mov	r1, #1024
 1889 0bec 09E0     		b	.L229
 1890              	.L479:
 1891 0bee 4FF48061 		mov	r1, #1024
 1892 0bf2 06E0     		b	.L229
 1893              	.L478:
 1894 0bf4 1021     		movs	r1, #16
 1895 0bf6 04E0     		b	.L229
 1896              	.L477:
 1897 0bf8 1021     		movs	r1, #16
ARM GAS  /tmp/ccAPlzty.s 			page 55


 1898 0bfa 02E0     		b	.L229
 1899              	.L476:
 1900 0bfc 1021     		movs	r1, #16
 1901 0bfe 00E0     		b	.L229
 1902              	.L475:
 1903 0c00 1021     		movs	r1, #16
 1904              	.L229:
 302:../Drivers/STM32F4xx_HAL_Driver/Src/stm32f4xx_hal_dma.c **** 
 1905              		.loc 1 302 0 discriminator 50
 1906 0c02 8A4A     		ldr	r2, .L531+12
 1907 0c04 D160     		str	r1, [r2, #12]
 1908 0c06 00E1     		b	.L241
 1909              	.L228:
 302:../Drivers/STM32F4xx_HAL_Driver/Src/stm32f4xx_hal_dma.c **** 
 1910              		.loc 1 302 0 discriminator 2
 1911 0c08 8949     		ldr	r1, .L531+16
 1912 0c0a 8A42     		cmp	r2, r1
 1913 0c0c 53D9     		bls	.L242
 302:../Drivers/STM32F4xx_HAL_Driver/Src/stm32f4xx_hal_dma.c **** 
 1914              		.loc 1 302 0 discriminator 51
 1915 0c0e A839     		subs	r1, r1, #168
 1916 0c10 8A42     		cmp	r2, r1
 1917 0c12 4CD0     		beq	.L487
 302:../Drivers/STM32F4xx_HAL_Driver/Src/stm32f4xx_hal_dma.c **** 
 1918              		.loc 1 302 0 discriminator 53
 1919 0c14 01F58061 		add	r1, r1, #1024
 1920 0c18 8A42     		cmp	r2, r1
 1921 0c1a 46D0     		beq	.L488
 302:../Drivers/STM32F4xx_HAL_Driver/Src/stm32f4xx_hal_dma.c **** 
 1922              		.loc 1 302 0 discriminator 55
 1923 0c1c A1F56871 		sub	r1, r1, #928
 1924 0c20 8A42     		cmp	r2, r1
 1925 0c22 40D0     		beq	.L489
 302:../Drivers/STM32F4xx_HAL_Driver/Src/stm32f4xx_hal_dma.c **** 
 1926              		.loc 1 302 0 discriminator 57
 1927 0c24 01F58061 		add	r1, r1, #1024
 1928 0c28 8A42     		cmp	r2, r1
 1929 0c2a 3AD0     		beq	.L490
 302:../Drivers/STM32F4xx_HAL_Driver/Src/stm32f4xx_hal_dma.c **** 
 1930              		.loc 1 302 0 discriminator 59
 1931 0c2c A1F58961 		sub	r1, r1, #1096
 1932 0c30 8A42     		cmp	r2, r1
 1933 0c32 33D0     		beq	.L491
 302:../Drivers/STM32F4xx_HAL_Driver/Src/stm32f4xx_hal_dma.c **** 
 1934              		.loc 1 302 0 discriminator 61
 1935 0c34 01F58061 		add	r1, r1, #1024
 1936 0c38 8A42     		cmp	r2, r1
 1937 0c3a 2CD0     		beq	.L492
 302:../Drivers/STM32F4xx_HAL_Driver/Src/stm32f4xx_hal_dma.c **** 
 1938              		.loc 1 302 0 discriminator 63
 1939 0c3c A1F56871 		sub	r1, r1, #928
 1940 0c40 8A42     		cmp	r2, r1
 1941 0c42 25D0     		beq	.L493
 302:../Drivers/STM32F4xx_HAL_Driver/Src/stm32f4xx_hal_dma.c **** 
 1942              		.loc 1 302 0 discriminator 65
 1943 0c44 01F58061 		add	r1, r1, #1024
 1944 0c48 8A42     		cmp	r2, r1
ARM GAS  /tmp/ccAPlzty.s 			page 56


 1945 0c4a 1ED0     		beq	.L494
 302:../Drivers/STM32F4xx_HAL_Driver/Src/stm32f4xx_hal_dma.c **** 
 1946              		.loc 1 302 0 discriminator 67
 1947 0c4c A1F58961 		sub	r1, r1, #1096
 1948 0c50 8A42     		cmp	r2, r1
 1949 0c52 17D0     		beq	.L495
 302:../Drivers/STM32F4xx_HAL_Driver/Src/stm32f4xx_hal_dma.c **** 
 1950              		.loc 1 302 0 discriminator 69
 1951 0c54 01F58061 		add	r1, r1, #1024
 1952 0c58 8A42     		cmp	r2, r1
 1953 0c5a 10D0     		beq	.L496
 302:../Drivers/STM32F4xx_HAL_Driver/Src/stm32f4xx_hal_dma.c **** 
 1954              		.loc 1 302 0 discriminator 71
 1955 0c5c A1F56871 		sub	r1, r1, #928
 1956 0c60 8A42     		cmp	r2, r1
 1957 0c62 09D0     		beq	.L497
 302:../Drivers/STM32F4xx_HAL_Driver/Src/stm32f4xx_hal_dma.c **** 
 1958              		.loc 1 302 0 discriminator 73
 1959 0c64 01F58061 		add	r1, r1, #1024
 1960 0c68 8A42     		cmp	r2, r1
 1961 0c6a 02D1     		bne	.L498
 302:../Drivers/STM32F4xx_HAL_Driver/Src/stm32f4xx_hal_dma.c **** 
 1962              		.loc 1 302 0
 1963 0c6c 4FF48011 		mov	r1, #1048576
 1964 0c70 1EE0     		b	.L243
 1965              	.L498:
 1966 0c72 4FF08061 		mov	r1, #67108864
 1967 0c76 1BE0     		b	.L243
 1968              	.L497:
 1969 0c78 4FF48011 		mov	r1, #1048576
 1970 0c7c 18E0     		b	.L243
 1971              	.L496:
 1972 0c7e 4FF48011 		mov	r1, #1048576
 1973 0c82 15E0     		b	.L243
 1974              	.L495:
 1975 0c84 4FF48011 		mov	r1, #1048576
 1976 0c88 12E0     		b	.L243
 1977              	.L494:
 1978 0c8a 4FF48061 		mov	r1, #1024
 1979 0c8e 0FE0     		b	.L243
 1980              	.L493:
 1981 0c90 4FF48061 		mov	r1, #1024
 1982 0c94 0CE0     		b	.L243
 1983              	.L492:
 1984 0c96 4FF48061 		mov	r1, #1024
 1985 0c9a 09E0     		b	.L243
 1986              	.L491:
 1987 0c9c 4FF48061 		mov	r1, #1024
 1988 0ca0 06E0     		b	.L243
 1989              	.L490:
 1990 0ca2 1021     		movs	r1, #16
 1991 0ca4 04E0     		b	.L243
 1992              	.L489:
 1993 0ca6 1021     		movs	r1, #16
 1994 0ca8 02E0     		b	.L243
 1995              	.L488:
 1996 0caa 1021     		movs	r1, #16
ARM GAS  /tmp/ccAPlzty.s 			page 57


 1997 0cac 00E0     		b	.L243
 1998              	.L487:
 1999 0cae 1021     		movs	r1, #16
 2000              	.L243:
 302:../Drivers/STM32F4xx_HAL_Driver/Src/stm32f4xx_hal_dma.c **** 
 2001              		.loc 1 302 0 discriminator 100
 2002 0cb0 5E4A     		ldr	r2, .L531+12
 2003 0cb2 9160     		str	r1, [r2, #8]
 2004 0cb4 A9E0     		b	.L241
 2005              	.L242:
 302:../Drivers/STM32F4xx_HAL_Driver/Src/stm32f4xx_hal_dma.c **** 
 2006              		.loc 1 302 0 discriminator 52
 2007 0cb6 5F49     		ldr	r1, .L531+20
 2008 0cb8 8A42     		cmp	r2, r1
 2009 0cba 53D9     		bls	.L255
 302:../Drivers/STM32F4xx_HAL_Driver/Src/stm32f4xx_hal_dma.c **** 
 2010              		.loc 1 302 0 discriminator 102
 2011 0cbc 4839     		subs	r1, r1, #72
 2012 0cbe 8A42     		cmp	r2, r1
 2013 0cc0 4CD0     		beq	.L499
 302:../Drivers/STM32F4xx_HAL_Driver/Src/stm32f4xx_hal_dma.c **** 
 2014              		.loc 1 302 0 discriminator 104
 2015 0cc2 01F58061 		add	r1, r1, #1024
 2016 0cc6 8A42     		cmp	r2, r1
 2017 0cc8 46D0     		beq	.L500
 302:../Drivers/STM32F4xx_HAL_Driver/Src/stm32f4xx_hal_dma.c **** 
 2018              		.loc 1 302 0 discriminator 106
 2019 0cca A1F56871 		sub	r1, r1, #928
 2020 0cce 8A42     		cmp	r2, r1
 2021 0cd0 40D0     		beq	.L501
 302:../Drivers/STM32F4xx_HAL_Driver/Src/stm32f4xx_hal_dma.c **** 
 2022              		.loc 1 302 0 discriminator 108
 2023 0cd2 01F58061 		add	r1, r1, #1024
 2024 0cd6 8A42     		cmp	r2, r1
 2025 0cd8 3AD0     		beq	.L502
 302:../Drivers/STM32F4xx_HAL_Driver/Src/stm32f4xx_hal_dma.c **** 
 2026              		.loc 1 302 0 discriminator 110
 2027 0cda A1F58961 		sub	r1, r1, #1096
 2028 0cde 8A42     		cmp	r2, r1
 2029 0ce0 33D0     		beq	.L503
 302:../Drivers/STM32F4xx_HAL_Driver/Src/stm32f4xx_hal_dma.c **** 
 2030              		.loc 1 302 0 discriminator 112
 2031 0ce2 01F58061 		add	r1, r1, #1024
 2032 0ce6 8A42     		cmp	r2, r1
 2033 0ce8 2CD0     		beq	.L504
 302:../Drivers/STM32F4xx_HAL_Driver/Src/stm32f4xx_hal_dma.c **** 
 2034              		.loc 1 302 0 discriminator 114
 2035 0cea A1F56871 		sub	r1, r1, #928
 2036 0cee 8A42     		cmp	r2, r1
 2037 0cf0 25D0     		beq	.L505
 302:../Drivers/STM32F4xx_HAL_Driver/Src/stm32f4xx_hal_dma.c **** 
 2038              		.loc 1 302 0 discriminator 116
 2039 0cf2 01F58061 		add	r1, r1, #1024
 2040 0cf6 8A42     		cmp	r2, r1
 2041 0cf8 1ED0     		beq	.L506
 302:../Drivers/STM32F4xx_HAL_Driver/Src/stm32f4xx_hal_dma.c **** 
 2042              		.loc 1 302 0 discriminator 118
ARM GAS  /tmp/ccAPlzty.s 			page 58


 2043 0cfa A1F58961 		sub	r1, r1, #1096
 2044 0cfe 8A42     		cmp	r2, r1
 2045 0d00 17D0     		beq	.L507
 302:../Drivers/STM32F4xx_HAL_Driver/Src/stm32f4xx_hal_dma.c **** 
 2046              		.loc 1 302 0 discriminator 120
 2047 0d02 01F58061 		add	r1, r1, #1024
 2048 0d06 8A42     		cmp	r2, r1
 2049 0d08 10D0     		beq	.L508
 302:../Drivers/STM32F4xx_HAL_Driver/Src/stm32f4xx_hal_dma.c **** 
 2050              		.loc 1 302 0 discriminator 122
 2051 0d0a A1F56871 		sub	r1, r1, #928
 2052 0d0e 8A42     		cmp	r2, r1
 2053 0d10 09D0     		beq	.L509
 302:../Drivers/STM32F4xx_HAL_Driver/Src/stm32f4xx_hal_dma.c **** 
 2054              		.loc 1 302 0 discriminator 124
 2055 0d12 01F58061 		add	r1, r1, #1024
 2056 0d16 8A42     		cmp	r2, r1
 2057 0d18 02D1     		bne	.L510
 302:../Drivers/STM32F4xx_HAL_Driver/Src/stm32f4xx_hal_dma.c **** 
 2058              		.loc 1 302 0
 2059 0d1a 4FF48011 		mov	r1, #1048576
 2060 0d1e 1EE0     		b	.L256
 2061              	.L510:
 2062 0d20 4FF08061 		mov	r1, #67108864
 2063 0d24 1BE0     		b	.L256
 2064              	.L509:
 2065 0d26 4FF48011 		mov	r1, #1048576
 2066 0d2a 18E0     		b	.L256
 2067              	.L508:
 2068 0d2c 4FF48011 		mov	r1, #1048576
 2069 0d30 15E0     		b	.L256
 2070              	.L507:
 2071 0d32 4FF48011 		mov	r1, #1048576
 2072 0d36 12E0     		b	.L256
 2073              	.L506:
 2074 0d38 4FF48061 		mov	r1, #1024
 2075 0d3c 0FE0     		b	.L256
 2076              	.L505:
 2077 0d3e 4FF48061 		mov	r1, #1024
 2078 0d42 0CE0     		b	.L256
 2079              	.L504:
 2080 0d44 4FF48061 		mov	r1, #1024
 2081 0d48 09E0     		b	.L256
 2082              	.L503:
 2083 0d4a 4FF48061 		mov	r1, #1024
 2084 0d4e 06E0     		b	.L256
 2085              	.L502:
 2086 0d50 1021     		movs	r1, #16
 2087 0d52 04E0     		b	.L256
 2088              	.L501:
 2089 0d54 1021     		movs	r1, #16
 2090 0d56 02E0     		b	.L256
 2091              	.L500:
 2092 0d58 1021     		movs	r1, #16
 2093 0d5a 00E0     		b	.L256
 2094              	.L499:
 2095 0d5c 1021     		movs	r1, #16
ARM GAS  /tmp/ccAPlzty.s 			page 59


 2096              	.L256:
 302:../Drivers/STM32F4xx_HAL_Driver/Src/stm32f4xx_hal_dma.c **** 
 2097              		.loc 1 302 0 discriminator 151
 2098 0d5e 314A     		ldr	r2, .L531+4
 2099 0d60 D160     		str	r1, [r2, #12]
 2100 0d62 52E0     		b	.L241
 2101              	.L255:
 302:../Drivers/STM32F4xx_HAL_Driver/Src/stm32f4xx_hal_dma.c **** 
 2102              		.loc 1 302 0 discriminator 103
 2103 0d64 3449     		ldr	r1, .L531+24
 2104 0d66 8A42     		cmp	r2, r1
 2105 0d68 4CD0     		beq	.L511
 302:../Drivers/STM32F4xx_HAL_Driver/Src/stm32f4xx_hal_dma.c **** 
 2106              		.loc 1 302 0 discriminator 153
 2107 0d6a 01F58061 		add	r1, r1, #1024
 2108 0d6e 8A42     		cmp	r2, r1
 2109 0d70 46D0     		beq	.L512
 302:../Drivers/STM32F4xx_HAL_Driver/Src/stm32f4xx_hal_dma.c **** 
 2110              		.loc 1 302 0 discriminator 155
 2111 0d72 A1F56871 		sub	r1, r1, #928
 2112 0d76 8A42     		cmp	r2, r1
 2113 0d78 40D0     		beq	.L513
 302:../Drivers/STM32F4xx_HAL_Driver/Src/stm32f4xx_hal_dma.c **** 
 2114              		.loc 1 302 0 discriminator 157
 2115 0d7a 01F58061 		add	r1, r1, #1024
 2116 0d7e 8A42     		cmp	r2, r1
 2117 0d80 3AD0     		beq	.L514
 302:../Drivers/STM32F4xx_HAL_Driver/Src/stm32f4xx_hal_dma.c **** 
 2118              		.loc 1 302 0 discriminator 159
 2119 0d82 A1F58961 		sub	r1, r1, #1096
 2120 0d86 8A42     		cmp	r2, r1
 2121 0d88 33D0     		beq	.L515
 302:../Drivers/STM32F4xx_HAL_Driver/Src/stm32f4xx_hal_dma.c **** 
 2122              		.loc 1 302 0 discriminator 161
 2123 0d8a 01F58061 		add	r1, r1, #1024
 2124 0d8e 8A42     		cmp	r2, r1
 2125 0d90 2CD0     		beq	.L516
 302:../Drivers/STM32F4xx_HAL_Driver/Src/stm32f4xx_hal_dma.c **** 
 2126              		.loc 1 302 0 discriminator 163
 2127 0d92 A1F56871 		sub	r1, r1, #928
 2128 0d96 8A42     		cmp	r2, r1
 2129 0d98 25D0     		beq	.L517
 302:../Drivers/STM32F4xx_HAL_Driver/Src/stm32f4xx_hal_dma.c **** 
 2130              		.loc 1 302 0 discriminator 165
 2131 0d9a 01F58061 		add	r1, r1, #1024
 2132 0d9e 8A42     		cmp	r2, r1
 2133 0da0 1ED0     		beq	.L518
 302:../Drivers/STM32F4xx_HAL_Driver/Src/stm32f4xx_hal_dma.c **** 
 2134              		.loc 1 302 0 discriminator 167
 2135 0da2 A1F58961 		sub	r1, r1, #1096
 2136 0da6 8A42     		cmp	r2, r1
 2137 0da8 17D0     		beq	.L519
 302:../Drivers/STM32F4xx_HAL_Driver/Src/stm32f4xx_hal_dma.c **** 
 2138              		.loc 1 302 0 discriminator 169
 2139 0daa 01F58061 		add	r1, r1, #1024
 2140 0dae 8A42     		cmp	r2, r1
 2141 0db0 10D0     		beq	.L520
ARM GAS  /tmp/ccAPlzty.s 			page 60


 302:../Drivers/STM32F4xx_HAL_Driver/Src/stm32f4xx_hal_dma.c **** 
 2142              		.loc 1 302 0 discriminator 171
 2143 0db2 A1F56871 		sub	r1, r1, #928
 2144 0db6 8A42     		cmp	r2, r1
 2145 0db8 09D0     		beq	.L521
 302:../Drivers/STM32F4xx_HAL_Driver/Src/stm32f4xx_hal_dma.c **** 
 2146              		.loc 1 302 0 discriminator 173
 2147 0dba 01F58061 		add	r1, r1, #1024
 2148 0dbe 8A42     		cmp	r2, r1
 2149 0dc0 02D1     		bne	.L522
 302:../Drivers/STM32F4xx_HAL_Driver/Src/stm32f4xx_hal_dma.c **** 
 2150              		.loc 1 302 0
 2151 0dc2 4FF48011 		mov	r1, #1048576
 2152 0dc6 1EE0     		b	.L269
 2153              	.L522:
 2154 0dc8 4FF08061 		mov	r1, #67108864
 2155 0dcc 1BE0     		b	.L269
 2156              	.L521:
 2157 0dce 4FF48011 		mov	r1, #1048576
 2158 0dd2 18E0     		b	.L269
 2159              	.L520:
 2160 0dd4 4FF48011 		mov	r1, #1048576
 2161 0dd8 15E0     		b	.L269
 2162              	.L519:
 2163 0dda 4FF48011 		mov	r1, #1048576
 2164 0dde 12E0     		b	.L269
 2165              	.L518:
 2166 0de0 4FF48061 		mov	r1, #1024
 2167 0de4 0FE0     		b	.L269
 2168              	.L517:
 2169 0de6 4FF48061 		mov	r1, #1024
 2170 0dea 0CE0     		b	.L269
 2171              	.L516:
 2172 0dec 4FF48061 		mov	r1, #1024
 2173 0df0 09E0     		b	.L269
 2174              	.L515:
 2175 0df2 4FF48061 		mov	r1, #1024
 2176 0df6 06E0     		b	.L269
 2177              	.L514:
 2178 0df8 1021     		movs	r1, #16
 2179 0dfa 04E0     		b	.L269
 2180              	.L513:
 2181 0dfc 1021     		movs	r1, #16
 2182 0dfe 02E0     		b	.L269
 2183              	.L512:
 2184 0e00 1021     		movs	r1, #16
 2185 0e02 00E0     		b	.L269
 2186              	.L511:
 2187 0e04 1021     		movs	r1, #16
 2188              	.L269:
 302:../Drivers/STM32F4xx_HAL_Driver/Src/stm32f4xx_hal_dma.c **** 
 2189              		.loc 1 302 0 discriminator 200
 2190 0e06 074A     		ldr	r2, .L531+4
 2191 0e08 9160     		str	r1, [r2, #8]
 2192              	.L241:
 305:../Drivers/STM32F4xx_HAL_Driver/Src/stm32f4xx_hal_dma.c **** 
 2193              		.loc 1 305 0 is_stmt 1
ARM GAS  /tmp/ccAPlzty.s 			page 61


 2194 0e0a 0020     		movs	r0, #0
 2195              	.LVL20:
 2196 0e0c D864     		str	r0, [r3, #76]
 308:../Drivers/STM32F4xx_HAL_Driver/Src/stm32f4xx_hal_dma.c **** 
 2197              		.loc 1 308 0
 2198 0e0e 83F83500 		strb	r0, [r3, #53]
 311:../Drivers/STM32F4xx_HAL_Driver/Src/stm32f4xx_hal_dma.c **** 
 2199              		.loc 1 311 0
 2200 0e12 83F83400 		strb	r0, [r3, #52]
 313:../Drivers/STM32F4xx_HAL_Driver/Src/stm32f4xx_hal_dma.c **** }
 2201              		.loc 1 313 0
 2202 0e16 7047     		bx	lr
 2203              	.LVL21:
 2204              	.L281:
 267:../Drivers/STM32F4xx_HAL_Driver/Src/stm32f4xx_hal_dma.c ****   }
 2205              		.loc 1 267 0
 2206 0e18 0120     		movs	r0, #1
 2207              	.LVL22:
 2208 0e1a 7047     		bx	lr
 2209              	.LVL23:
 2210              	.L282:
 273:../Drivers/STM32F4xx_HAL_Driver/Src/stm32f4xx_hal_dma.c ****   }
 2211              		.loc 1 273 0
 2212 0e1c 0120     		movs	r0, #1
 2213              	.LVL24:
 314:../Drivers/STM32F4xx_HAL_Driver/Src/stm32f4xx_hal_dma.c **** 
 2214              		.loc 1 314 0
 2215 0e1e 7047     		bx	lr
 2216              	.L532:
 2217              		.align	2
 2218              	.L531:
 2219 0e20 01008000 		.word	8388609
 2220 0e24 00600240 		.word	1073897472
 2221 0e28 58640240 		.word	1073898584
 2222 0e2c 00640240 		.word	1073898496
 2223 0e30 B8600240 		.word	1073897656
 2224 0e34 58600240 		.word	1073897560
 2225 0e38 10600240 		.word	1073897488
 2226              		.cfi_endproc
 2227              	.LFE113:
 2229              		.section	.text.HAL_DMA_Start,"ax",%progbits
 2230              		.align	2
 2231              		.global	HAL_DMA_Start
 2232              		.thumb
 2233              		.thumb_func
 2235              	HAL_DMA_Start:
 2236              	.LFB114:
 349:../Drivers/STM32F4xx_HAL_Driver/Src/stm32f4xx_hal_dma.c ****   /* Process locked */
 2237              		.loc 1 349 0
 2238              		.cfi_startproc
 2239              		@ args = 0, pretend = 0, frame = 0
 2240              		@ frame_needed = 0, uses_anonymous_args = 0
 2241              	.LVL25:
 2242 0000 38B5     		push	{r3, r4, r5, lr}
 2243              	.LCFI6:
 2244              		.cfi_def_cfa_offset 16
 2245              		.cfi_offset 3, -16
ARM GAS  /tmp/ccAPlzty.s 			page 62


 2246              		.cfi_offset 4, -12
 2247              		.cfi_offset 5, -8
 2248              		.cfi_offset 14, -4
 351:../Drivers/STM32F4xx_HAL_Driver/Src/stm32f4xx_hal_dma.c **** 
 2249              		.loc 1 351 0
 2250 0002 90F83440 		ldrb	r4, [r0, #52]	@ zero_extendqisi2
 2251 0006 012C     		cmp	r4, #1
 2252 0008 15D0     		beq	.L535
 2253 000a 0446     		mov	r4, r0
 351:../Drivers/STM32F4xx_HAL_Driver/Src/stm32f4xx_hal_dma.c **** 
 2254              		.loc 1 351 0 is_stmt 0 discriminator 2
 2255 000c 0120     		movs	r0, #1
 2256              	.LVL26:
 2257 000e 84F83400 		strb	r0, [r4, #52]
 354:../Drivers/STM32F4xx_HAL_Driver/Src/stm32f4xx_hal_dma.c **** 
 2258              		.loc 1 354 0 is_stmt 1 discriminator 2
 2259 0012 0220     		movs	r0, #2
 2260 0014 84F83500 		strb	r0, [r4, #53]
 360:../Drivers/STM32F4xx_HAL_Driver/Src/stm32f4xx_hal_dma.c **** 
 2261              		.loc 1 360 0 discriminator 2
 2262 0018 2568     		ldr	r5, [r4]
 2263 001a 2868     		ldr	r0, [r5]
 2264 001c 20F00100 		bic	r0, r0, #1
 2265 0020 2860     		str	r0, [r5]
 363:../Drivers/STM32F4xx_HAL_Driver/Src/stm32f4xx_hal_dma.c **** 
 2266              		.loc 1 363 0 discriminator 2
 2267 0022 2046     		mov	r0, r4
 2268 0024 FFF7FEFF 		bl	DMA_SetConfig
 2269              	.LVL27:
 366:../Drivers/STM32F4xx_HAL_Driver/Src/stm32f4xx_hal_dma.c **** 
 2270              		.loc 1 366 0 discriminator 2
 2271 0028 2268     		ldr	r2, [r4]
 2272 002a 1368     		ldr	r3, [r2]
 2273 002c 43F00103 		orr	r3, r3, #1
 2274 0030 1360     		str	r3, [r2]
 368:../Drivers/STM32F4xx_HAL_Driver/Src/stm32f4xx_hal_dma.c **** }
 2275              		.loc 1 368 0 discriminator 2
 2276 0032 0020     		movs	r0, #0
 2277 0034 38BD     		pop	{r3, r4, r5, pc}
 2278              	.LVL28:
 2279              	.L535:
 351:../Drivers/STM32F4xx_HAL_Driver/Src/stm32f4xx_hal_dma.c **** 
 2280              		.loc 1 351 0
 2281 0036 0220     		movs	r0, #2
 2282              	.LVL29:
 369:../Drivers/STM32F4xx_HAL_Driver/Src/stm32f4xx_hal_dma.c **** 
 2283              		.loc 1 369 0
 2284 0038 38BD     		pop	{r3, r4, r5, pc}
 2285              		.cfi_endproc
 2286              	.LFE114:
 2288              		.section	.text.HAL_DMA_Start_IT,"ax",%progbits
 2289              		.align	2
 2290              		.global	HAL_DMA_Start_IT
 2291              		.thumb
 2292              		.thumb_func
 2294              	HAL_DMA_Start_IT:
 2295              	.LFB115:
ARM GAS  /tmp/ccAPlzty.s 			page 63


 381:../Drivers/STM32F4xx_HAL_Driver/Src/stm32f4xx_hal_dma.c ****   /* Process locked */
 2296              		.loc 1 381 0
 2297              		.cfi_startproc
 2298              		@ args = 0, pretend = 0, frame = 0
 2299              		@ frame_needed = 0, uses_anonymous_args = 0
 2300              	.LVL30:
 2301 0000 38B5     		push	{r3, r4, r5, lr}
 2302              	.LCFI7:
 2303              		.cfi_def_cfa_offset 16
 2304              		.cfi_offset 3, -16
 2305              		.cfi_offset 4, -12
 2306              		.cfi_offset 5, -8
 2307              		.cfi_offset 14, -4
 383:../Drivers/STM32F4xx_HAL_Driver/Src/stm32f4xx_hal_dma.c **** 
 2308              		.loc 1 383 0
 2309 0002 90F83440 		ldrb	r4, [r0, #52]	@ zero_extendqisi2
 2310 0006 012C     		cmp	r4, #1
 2311 0008 2ED0     		beq	.L539
 2312 000a 0446     		mov	r4, r0
 383:../Drivers/STM32F4xx_HAL_Driver/Src/stm32f4xx_hal_dma.c **** 
 2313              		.loc 1 383 0 is_stmt 0 discriminator 2
 2314 000c 0120     		movs	r0, #1
 2315              	.LVL31:
 2316 000e 84F83400 		strb	r0, [r4, #52]
 386:../Drivers/STM32F4xx_HAL_Driver/Src/stm32f4xx_hal_dma.c **** 
 2317              		.loc 1 386 0 is_stmt 1 discriminator 2
 2318 0012 0220     		movs	r0, #2
 2319 0014 84F83500 		strb	r0, [r4, #53]
 392:../Drivers/STM32F4xx_HAL_Driver/Src/stm32f4xx_hal_dma.c **** 
 2320              		.loc 1 392 0 discriminator 2
 2321 0018 2568     		ldr	r5, [r4]
 2322 001a 2868     		ldr	r0, [r5]
 2323 001c 20F00100 		bic	r0, r0, #1
 2324 0020 2860     		str	r0, [r5]
 395:../Drivers/STM32F4xx_HAL_Driver/Src/stm32f4xx_hal_dma.c **** 
 2325              		.loc 1 395 0 discriminator 2
 2326 0022 2046     		mov	r0, r4
 2327 0024 FFF7FEFF 		bl	DMA_SetConfig
 2328              	.LVL32:
 398:../Drivers/STM32F4xx_HAL_Driver/Src/stm32f4xx_hal_dma.c **** 
 2329              		.loc 1 398 0 discriminator 2
 2330 0028 2268     		ldr	r2, [r4]
 2331 002a 1368     		ldr	r3, [r2]
 2332 002c 43F01003 		orr	r3, r3, #16
 2333 0030 1360     		str	r3, [r2]
 401:../Drivers/STM32F4xx_HAL_Driver/Src/stm32f4xx_hal_dma.c **** 
 2334              		.loc 1 401 0 discriminator 2
 2335 0032 2268     		ldr	r2, [r4]
 2336 0034 1368     		ldr	r3, [r2]
 2337 0036 43F00803 		orr	r3, r3, #8
 2338 003a 1360     		str	r3, [r2]
 404:../Drivers/STM32F4xx_HAL_Driver/Src/stm32f4xx_hal_dma.c **** 
 2339              		.loc 1 404 0 discriminator 2
 2340 003c 2268     		ldr	r2, [r4]
 2341 003e 1368     		ldr	r3, [r2]
 2342 0040 43F00403 		orr	r3, r3, #4
 2343 0044 1360     		str	r3, [r2]
ARM GAS  /tmp/ccAPlzty.s 			page 64


 407:../Drivers/STM32F4xx_HAL_Driver/Src/stm32f4xx_hal_dma.c **** 
 2344              		.loc 1 407 0 discriminator 2
 2345 0046 2268     		ldr	r2, [r4]
 2346 0048 5369     		ldr	r3, [r2, #20]
 2347 004a 43F08003 		orr	r3, r3, #128
 2348 004e 5361     		str	r3, [r2, #20]
 410:../Drivers/STM32F4xx_HAL_Driver/Src/stm32f4xx_hal_dma.c **** 
 2349              		.loc 1 410 0 discriminator 2
 2350 0050 2268     		ldr	r2, [r4]
 2351 0052 1368     		ldr	r3, [r2]
 2352 0054 43F00203 		orr	r3, r3, #2
 2353 0058 1360     		str	r3, [r2]
 413:../Drivers/STM32F4xx_HAL_Driver/Src/stm32f4xx_hal_dma.c **** 
 2354              		.loc 1 413 0 discriminator 2
 2355 005a 2268     		ldr	r2, [r4]
 2356 005c 1368     		ldr	r3, [r2]
 2357 005e 43F00103 		orr	r3, r3, #1
 2358 0062 1360     		str	r3, [r2]
 415:../Drivers/STM32F4xx_HAL_Driver/Src/stm32f4xx_hal_dma.c **** } 
 2359              		.loc 1 415 0 discriminator 2
 2360 0064 0020     		movs	r0, #0
 2361 0066 38BD     		pop	{r3, r4, r5, pc}
 2362              	.LVL33:
 2363              	.L539:
 383:../Drivers/STM32F4xx_HAL_Driver/Src/stm32f4xx_hal_dma.c **** 
 2364              		.loc 1 383 0
 2365 0068 0220     		movs	r0, #2
 2366              	.LVL34:
 416:../Drivers/STM32F4xx_HAL_Driver/Src/stm32f4xx_hal_dma.c **** 
 2367              		.loc 1 416 0
 2368 006a 38BD     		pop	{r3, r4, r5, pc}
 2369              		.cfi_endproc
 2370              	.LFE115:
 2372              		.section	.text.HAL_DMA_Abort,"ax",%progbits
 2373              		.align	2
 2374              		.global	HAL_DMA_Abort
 2375              		.thumb
 2376              		.thumb_func
 2378              	HAL_DMA_Abort:
 2379              	.LFB116:
 431:../Drivers/STM32F4xx_HAL_Driver/Src/stm32f4xx_hal_dma.c ****   uint32_t tickstart = 0;
 2380              		.loc 1 431 0
 2381              		.cfi_startproc
 2382              		@ args = 0, pretend = 0, frame = 0
 2383              		@ frame_needed = 0, uses_anonymous_args = 0
 2384              	.LVL35:
 2385 0000 38B5     		push	{r3, r4, r5, lr}
 2386              	.LCFI8:
 2387              		.cfi_def_cfa_offset 16
 2388              		.cfi_offset 3, -16
 2389              		.cfi_offset 4, -12
 2390              		.cfi_offset 5, -8
 2391              		.cfi_offset 14, -4
 2392 0002 0446     		mov	r4, r0
 2393              	.LVL36:
 435:../Drivers/STM32F4xx_HAL_Driver/Src/stm32f4xx_hal_dma.c **** 
 2394              		.loc 1 435 0
ARM GAS  /tmp/ccAPlzty.s 			page 65


 2395 0004 0268     		ldr	r2, [r0]
 2396 0006 1368     		ldr	r3, [r2]
 2397 0008 23F00103 		bic	r3, r3, #1
 2398 000c 1360     		str	r3, [r2]
 438:../Drivers/STM32F4xx_HAL_Driver/Src/stm32f4xx_hal_dma.c **** 
 2399              		.loc 1 438 0
 2400 000e FFF7FEFF 		bl	HAL_GetTick
 2401              	.LVL37:
 2402 0012 0546     		mov	r5, r0
 2403              	.LVL38:
 441:../Drivers/STM32F4xx_HAL_Driver/Src/stm32f4xx_hal_dma.c ****   {
 2404              		.loc 1 441 0
 2405 0014 10E0     		b	.L542
 2406              	.LVL39:
 2407              	.L544:
 444:../Drivers/STM32F4xx_HAL_Driver/Src/stm32f4xx_hal_dma.c ****     {
 2408              		.loc 1 444 0
 2409 0016 FFF7FEFF 		bl	HAL_GetTick
 2410              	.LVL40:
 2411 001a 401B     		subs	r0, r0, r5
 2412 001c B0F57A7F 		cmp	r0, #1000
 2413 0020 0AD9     		bls	.L542
 447:../Drivers/STM32F4xx_HAL_Driver/Src/stm32f4xx_hal_dma.c ****       
 2414              		.loc 1 447 0
 2415 0022 E36C     		ldr	r3, [r4, #76]
 2416 0024 43F02003 		orr	r3, r3, #32
 2417 0028 E364     		str	r3, [r4, #76]
 450:../Drivers/STM32F4xx_HAL_Driver/Src/stm32f4xx_hal_dma.c ****       
 2418              		.loc 1 450 0
 2419 002a 0023     		movs	r3, #0
 2420 002c 84F83430 		strb	r3, [r4, #52]
 453:../Drivers/STM32F4xx_HAL_Driver/Src/stm32f4xx_hal_dma.c ****       
 2421              		.loc 1 453 0
 2422 0030 0320     		movs	r0, #3
 2423 0032 84F83500 		strb	r0, [r4, #53]
 455:../Drivers/STM32F4xx_HAL_Driver/Src/stm32f4xx_hal_dma.c ****     }
 2424              		.loc 1 455 0
 2425 0036 38BD     		pop	{r3, r4, r5, pc}
 2426              	.LVL41:
 2427              	.L542:
 441:../Drivers/STM32F4xx_HAL_Driver/Src/stm32f4xx_hal_dma.c ****   {
 2428              		.loc 1 441 0
 2429 0038 2368     		ldr	r3, [r4]
 2430 003a 1B68     		ldr	r3, [r3]
 2431 003c 13F0010F 		tst	r3, #1
 2432 0040 E9D1     		bne	.L544
 459:../Drivers/STM32F4xx_HAL_Driver/Src/stm32f4xx_hal_dma.c **** 
 2433              		.loc 1 459 0
 2434 0042 0020     		movs	r0, #0
 2435 0044 84F83400 		strb	r0, [r4, #52]
 462:../Drivers/STM32F4xx_HAL_Driver/Src/stm32f4xx_hal_dma.c **** 
 2436              		.loc 1 462 0
 2437 0048 0123     		movs	r3, #1
 2438 004a 84F83530 		strb	r3, [r4, #53]
 465:../Drivers/STM32F4xx_HAL_Driver/Src/stm32f4xx_hal_dma.c **** 
 2439              		.loc 1 465 0
 2440 004e 38BD     		pop	{r3, r4, r5, pc}
ARM GAS  /tmp/ccAPlzty.s 			page 66


 2441              		.cfi_endproc
 2442              	.LFE116:
 2444              		.section	.text.HAL_DMA_PollForTransfer,"ax",%progbits
 2445              		.align	2
 2446              		.global	HAL_DMA_PollForTransfer
 2447              		.thumb
 2448              		.thumb_func
 2450              	HAL_DMA_PollForTransfer:
 2451              	.LFB117:
 476:../Drivers/STM32F4xx_HAL_Driver/Src/stm32f4xx_hal_dma.c ****   uint32_t temp, tmp, tmp1, tmp2;
 2452              		.loc 1 476 0
 2453              		.cfi_startproc
 2454              		@ args = 0, pretend = 0, frame = 0
 2455              		@ frame_needed = 0, uses_anonymous_args = 0
 2456              	.LVL42:
 2457 0000 2DE9F843 		push	{r3, r4, r5, r6, r7, r8, r9, lr}
 2458              	.LCFI9:
 2459              		.cfi_def_cfa_offset 32
 2460              		.cfi_offset 3, -32
 2461              		.cfi_offset 4, -28
 2462              		.cfi_offset 5, -24
 2463              		.cfi_offset 6, -20
 2464              		.cfi_offset 7, -16
 2465              		.cfi_offset 8, -12
 2466              		.cfi_offset 9, -8
 2467              		.cfi_offset 14, -4
 2468 0004 0446     		mov	r4, r0
 2469 0006 1646     		mov	r6, r2
 2470              	.LVL43:
 481:../Drivers/STM32F4xx_HAL_Driver/Src/stm32f4xx_hal_dma.c ****   {
 2471              		.loc 1 481 0
 2472 0008 8946     		mov	r9, r1
 2473 000a 0029     		cmp	r1, #0
 2474 000c 52D1     		bne	.L547
 484:../Drivers/STM32F4xx_HAL_Driver/Src/stm32f4xx_hal_dma.c ****   }
 2475              		.loc 1 484 0
 2476 000e 0368     		ldr	r3, [r0]
 2477 0010 AC4A     		ldr	r2, .L1833
 2478              	.LVL44:
 2479 0012 9342     		cmp	r3, r2
 2480 0014 4CD0     		beq	.L1231
 484:../Drivers/STM32F4xx_HAL_Driver/Src/stm32f4xx_hal_dma.c ****   }
 2481              		.loc 1 484 0 is_stmt 0 discriminator 1
 2482 0016 02F58062 		add	r2, r2, #1024
 2483 001a 9342     		cmp	r3, r2
 2484 001c 46D0     		beq	.L1232
 484:../Drivers/STM32F4xx_HAL_Driver/Src/stm32f4xx_hal_dma.c ****   }
 2485              		.loc 1 484 0 discriminator 3
 2486 001e A2F56872 		sub	r2, r2, #928
 2487 0022 9342     		cmp	r3, r2
 2488 0024 40D0     		beq	.L1233
 484:../Drivers/STM32F4xx_HAL_Driver/Src/stm32f4xx_hal_dma.c ****   }
 2489              		.loc 1 484 0 discriminator 5
 2490 0026 02F58062 		add	r2, r2, #1024
 2491 002a 9342     		cmp	r3, r2
 2492 002c 3AD0     		beq	.L1234
 484:../Drivers/STM32F4xx_HAL_Driver/Src/stm32f4xx_hal_dma.c ****   }
ARM GAS  /tmp/ccAPlzty.s 			page 67


 2493              		.loc 1 484 0 discriminator 7
 2494 002e A2F58962 		sub	r2, r2, #1096
 2495 0032 9342     		cmp	r3, r2
 2496 0034 33D0     		beq	.L1235
 484:../Drivers/STM32F4xx_HAL_Driver/Src/stm32f4xx_hal_dma.c ****   }
 2497              		.loc 1 484 0 discriminator 9
 2498 0036 02F58062 		add	r2, r2, #1024
 2499 003a 9342     		cmp	r3, r2
 2500 003c 2CD0     		beq	.L1236
 484:../Drivers/STM32F4xx_HAL_Driver/Src/stm32f4xx_hal_dma.c ****   }
 2501              		.loc 1 484 0 discriminator 11
 2502 003e A2F56872 		sub	r2, r2, #928
 2503 0042 9342     		cmp	r3, r2
 2504 0044 25D0     		beq	.L1237
 484:../Drivers/STM32F4xx_HAL_Driver/Src/stm32f4xx_hal_dma.c ****   }
 2505              		.loc 1 484 0 discriminator 13
 2506 0046 02F58062 		add	r2, r2, #1024
 2507 004a 9342     		cmp	r3, r2
 2508 004c 1ED0     		beq	.L1238
 484:../Drivers/STM32F4xx_HAL_Driver/Src/stm32f4xx_hal_dma.c ****   }
 2509              		.loc 1 484 0 discriminator 15
 2510 004e A2F58962 		sub	r2, r2, #1096
 2511 0052 9342     		cmp	r3, r2
 2512 0054 17D0     		beq	.L1239
 484:../Drivers/STM32F4xx_HAL_Driver/Src/stm32f4xx_hal_dma.c ****   }
 2513              		.loc 1 484 0 discriminator 17
 2514 0056 02F58062 		add	r2, r2, #1024
 2515 005a 9342     		cmp	r3, r2
 2516 005c 10D0     		beq	.L1240
 484:../Drivers/STM32F4xx_HAL_Driver/Src/stm32f4xx_hal_dma.c ****   }
 2517              		.loc 1 484 0 discriminator 19
 2518 005e A2F56872 		sub	r2, r2, #928
 2519 0062 9342     		cmp	r3, r2
 2520 0064 09D0     		beq	.L1241
 484:../Drivers/STM32F4xx_HAL_Driver/Src/stm32f4xx_hal_dma.c ****   }
 2521              		.loc 1 484 0 discriminator 21
 2522 0066 02F58062 		add	r2, r2, #1024
 2523 006a 9342     		cmp	r3, r2
 2524 006c 02D1     		bne	.L1242
 484:../Drivers/STM32F4xx_HAL_Driver/Src/stm32f4xx_hal_dma.c ****   }
 2525              		.loc 1 484 0
 2526 006e 4FF40015 		mov	r5, #2097152
 2527 0072 71E0     		b	.L560
 2528              	.L1242:
 2529 0074 4FF00065 		mov	r5, #134217728
 2530 0078 6EE0     		b	.L560
 2531              	.L1241:
 2532 007a 4FF40015 		mov	r5, #2097152
 2533 007e 6BE0     		b	.L560
 2534              	.L1240:
 2535 0080 4FF40015 		mov	r5, #2097152
 2536 0084 68E0     		b	.L560
 2537              	.L1239:
 2538 0086 4FF40015 		mov	r5, #2097152
 2539 008a 65E0     		b	.L560
 2540              	.L1238:
 2541 008c 4FF40065 		mov	r5, #2048
ARM GAS  /tmp/ccAPlzty.s 			page 68


 2542 0090 62E0     		b	.L560
 2543              	.L1237:
 2544 0092 4FF40065 		mov	r5, #2048
 2545 0096 5FE0     		b	.L560
 2546              	.L1236:
 2547 0098 4FF40065 		mov	r5, #2048
 2548 009c 5CE0     		b	.L560
 2549              	.L1235:
 2550 009e 4FF40065 		mov	r5, #2048
 2551 00a2 59E0     		b	.L560
 2552              	.L1234:
 2553 00a4 2025     		movs	r5, #32
 2554 00a6 57E0     		b	.L560
 2555              	.L1233:
 2556 00a8 2025     		movs	r5, #32
 2557 00aa 55E0     		b	.L560
 2558              	.L1232:
 2559 00ac 2025     		movs	r5, #32
 2560 00ae 53E0     		b	.L560
 2561              	.L1231:
 2562 00b0 2025     		movs	r5, #32
 2563              	.LVL45:
 2564 00b2 51E0     		b	.L560
 2565              	.LVL46:
 2566              	.L547:
 489:../Drivers/STM32F4xx_HAL_Driver/Src/stm32f4xx_hal_dma.c ****   }
 2567              		.loc 1 489 0 is_stmt 1
 2568 00b4 0368     		ldr	r3, [r0]
 2569 00b6 834A     		ldr	r2, .L1833
 2570              	.LVL47:
 2571 00b8 9342     		cmp	r3, r2
 2572 00ba 4CD0     		beq	.L1243
 489:../Drivers/STM32F4xx_HAL_Driver/Src/stm32f4xx_hal_dma.c ****   }
 2573              		.loc 1 489 0 is_stmt 0 discriminator 1
 2574 00bc 02F58062 		add	r2, r2, #1024
 2575 00c0 9342     		cmp	r3, r2
 2576 00c2 46D0     		beq	.L1244
 489:../Drivers/STM32F4xx_HAL_Driver/Src/stm32f4xx_hal_dma.c ****   }
 2577              		.loc 1 489 0 discriminator 3
 2578 00c4 A2F56872 		sub	r2, r2, #928
 2579 00c8 9342     		cmp	r3, r2
 2580 00ca 40D0     		beq	.L1245
 489:../Drivers/STM32F4xx_HAL_Driver/Src/stm32f4xx_hal_dma.c ****   }
 2581              		.loc 1 489 0 discriminator 5
 2582 00cc 02F58062 		add	r2, r2, #1024
 2583 00d0 9342     		cmp	r3, r2
 2584 00d2 3AD0     		beq	.L1246
 489:../Drivers/STM32F4xx_HAL_Driver/Src/stm32f4xx_hal_dma.c ****   }
 2585              		.loc 1 489 0 discriminator 7
 2586 00d4 A2F58962 		sub	r2, r2, #1096
 2587 00d8 9342     		cmp	r3, r2
 2588 00da 33D0     		beq	.L1247
 489:../Drivers/STM32F4xx_HAL_Driver/Src/stm32f4xx_hal_dma.c ****   }
 2589              		.loc 1 489 0 discriminator 9
 2590 00dc 02F58062 		add	r2, r2, #1024
 2591 00e0 9342     		cmp	r3, r2
 2592 00e2 2CD0     		beq	.L1248
ARM GAS  /tmp/ccAPlzty.s 			page 69


 489:../Drivers/STM32F4xx_HAL_Driver/Src/stm32f4xx_hal_dma.c ****   }
 2593              		.loc 1 489 0 discriminator 11
 2594 00e4 A2F56872 		sub	r2, r2, #928
 2595 00e8 9342     		cmp	r3, r2
 2596 00ea 25D0     		beq	.L1249
 489:../Drivers/STM32F4xx_HAL_Driver/Src/stm32f4xx_hal_dma.c ****   }
 2597              		.loc 1 489 0 discriminator 13
 2598 00ec 02F58062 		add	r2, r2, #1024
 2599 00f0 9342     		cmp	r3, r2
 2600 00f2 1ED0     		beq	.L1250
 489:../Drivers/STM32F4xx_HAL_Driver/Src/stm32f4xx_hal_dma.c ****   }
 2601              		.loc 1 489 0 discriminator 15
 2602 00f4 A2F58962 		sub	r2, r2, #1096
 2603 00f8 9342     		cmp	r3, r2
 2604 00fa 17D0     		beq	.L1251
 489:../Drivers/STM32F4xx_HAL_Driver/Src/stm32f4xx_hal_dma.c ****   }
 2605              		.loc 1 489 0 discriminator 17
 2606 00fc 02F58062 		add	r2, r2, #1024
 2607 0100 9342     		cmp	r3, r2
 2608 0102 10D0     		beq	.L1252
 489:../Drivers/STM32F4xx_HAL_Driver/Src/stm32f4xx_hal_dma.c ****   }
 2609              		.loc 1 489 0 discriminator 19
 2610 0104 A2F56872 		sub	r2, r2, #928
 2611 0108 9342     		cmp	r3, r2
 2612 010a 09D0     		beq	.L1253
 489:../Drivers/STM32F4xx_HAL_Driver/Src/stm32f4xx_hal_dma.c ****   }
 2613              		.loc 1 489 0 discriminator 21
 2614 010c 02F58062 		add	r2, r2, #1024
 2615 0110 9342     		cmp	r3, r2
 2616 0112 02D1     		bne	.L1254
 489:../Drivers/STM32F4xx_HAL_Driver/Src/stm32f4xx_hal_dma.c ****   }
 2617              		.loc 1 489 0
 2618 0114 4FF48015 		mov	r5, #1048576
 2619 0118 1EE0     		b	.L560
 2620              	.L1254:
 2621 011a 4FF08065 		mov	r5, #67108864
 2622 011e 1BE0     		b	.L560
 2623              	.L1253:
 2624 0120 4FF48015 		mov	r5, #1048576
 2625 0124 18E0     		b	.L560
 2626              	.L1252:
 2627 0126 4FF48015 		mov	r5, #1048576
 2628 012a 15E0     		b	.L560
 2629              	.L1251:
 2630 012c 4FF48015 		mov	r5, #1048576
 2631 0130 12E0     		b	.L560
 2632              	.L1250:
 2633 0132 4FF48065 		mov	r5, #1024
 2634 0136 0FE0     		b	.L560
 2635              	.L1249:
 2636 0138 4FF48065 		mov	r5, #1024
 2637 013c 0CE0     		b	.L560
 2638              	.L1248:
 2639 013e 4FF48065 		mov	r5, #1024
 2640 0142 09E0     		b	.L560
 2641              	.L1247:
 2642 0144 4FF48065 		mov	r5, #1024
ARM GAS  /tmp/ccAPlzty.s 			page 70


 2643 0148 06E0     		b	.L560
 2644              	.L1246:
 2645 014a 1025     		movs	r5, #16
 2646 014c 04E0     		b	.L560
 2647              	.L1245:
 2648 014e 1025     		movs	r5, #16
 2649 0150 02E0     		b	.L560
 2650              	.L1244:
 2651 0152 1025     		movs	r5, #16
 2652 0154 00E0     		b	.L560
 2653              	.L1243:
 2654 0156 1025     		movs	r5, #16
 2655              	.LVL48:
 2656              	.L560:
 493:../Drivers/STM32F4xx_HAL_Driver/Src/stm32f4xx_hal_dma.c **** 
 2657              		.loc 1 493 0 is_stmt 1
 2658 0158 FFF7FEFF 		bl	HAL_GetTick
 2659              	.LVL49:
 2660 015c 8046     		mov	r8, r0
 2661              	.LVL50:
 495:../Drivers/STM32F4xx_HAL_Driver/Src/stm32f4xx_hal_dma.c ****   {
 2662              		.loc 1 495 0
 2663 015e 01F08EB8 		b	.L898
 2664              	.LVL51:
 2665              	.L906:
 497:../Drivers/STM32F4xx_HAL_Driver/Src/stm32f4xx_hal_dma.c ****     tmp1 = __HAL_DMA_GET_FLAG(hdma, __HAL_DMA_GET_FE_FLAG_INDEX(hdma));
 2666              		.loc 1 497 0
 2667 0162 594A     		ldr	r2, .L1833+4
 2668 0164 9342     		cmp	r3, r2
 2669 0166 53D9     		bls	.L574
 497:../Drivers/STM32F4xx_HAL_Driver/Src/stm32f4xx_hal_dma.c ****     tmp1 = __HAL_DMA_GET_FLAG(hdma, __HAL_DMA_GET_FE_FLAG_INDEX(hdma));
 2670              		.loc 1 497 0 is_stmt 0 discriminator 1
 2671 0168 583A     		subs	r2, r2, #88
 2672 016a 5068     		ldr	r0, [r2, #4]
 2673 016c 5549     		ldr	r1, .L1833
 2674 016e 8B42     		cmp	r3, r1
 2675 0170 4BD0     		beq	.L1255
 497:../Drivers/STM32F4xx_HAL_Driver/Src/stm32f4xx_hal_dma.c ****     tmp1 = __HAL_DMA_GET_FLAG(hdma, __HAL_DMA_GET_FE_FLAG_INDEX(hdma));
 2676              		.loc 1 497 0 discriminator 3
 2677 0172 01F58061 		add	r1, r1, #1024
 2678 0176 8B42     		cmp	r3, r1
 2679 0178 45D0     		beq	.L1256
 497:../Drivers/STM32F4xx_HAL_Driver/Src/stm32f4xx_hal_dma.c ****     tmp1 = __HAL_DMA_GET_FLAG(hdma, __HAL_DMA_GET_FE_FLAG_INDEX(hdma));
 2680              		.loc 1 497 0 discriminator 5
 2681 017a A1F56871 		sub	r1, r1, #928
 2682 017e 8B42     		cmp	r3, r1
 2683 0180 3FD0     		beq	.L1257
 497:../Drivers/STM32F4xx_HAL_Driver/Src/stm32f4xx_hal_dma.c ****     tmp1 = __HAL_DMA_GET_FLAG(hdma, __HAL_DMA_GET_FE_FLAG_INDEX(hdma));
 2684              		.loc 1 497 0 discriminator 7
 2685 0182 7032     		adds	r2, r2, #112
 2686 0184 9342     		cmp	r3, r2
 2687 0186 3AD0     		beq	.L1258
 497:../Drivers/STM32F4xx_HAL_Driver/Src/stm32f4xx_hal_dma.c ****     tmp1 = __HAL_DMA_GET_FLAG(hdma, __HAL_DMA_GET_FE_FLAG_INDEX(hdma));
 2688              		.loc 1 497 0 discriminator 9
 2689 0188 A2F58962 		sub	r2, r2, #1096
 2690 018c 9342     		cmp	r3, r2
 2691 018e 33D0     		beq	.L1259
ARM GAS  /tmp/ccAPlzty.s 			page 71


 497:../Drivers/STM32F4xx_HAL_Driver/Src/stm32f4xx_hal_dma.c ****     tmp1 = __HAL_DMA_GET_FLAG(hdma, __HAL_DMA_GET_FE_FLAG_INDEX(hdma));
 2692              		.loc 1 497 0 discriminator 11
 2693 0190 02F58062 		add	r2, r2, #1024
 2694 0194 9342     		cmp	r3, r2
 2695 0196 2CD0     		beq	.L1260
 497:../Drivers/STM32F4xx_HAL_Driver/Src/stm32f4xx_hal_dma.c ****     tmp1 = __HAL_DMA_GET_FLAG(hdma, __HAL_DMA_GET_FE_FLAG_INDEX(hdma));
 2696              		.loc 1 497 0 discriminator 13
 2697 0198 A2F56872 		sub	r2, r2, #928
 2698 019c 9342     		cmp	r3, r2
 2699 019e 25D0     		beq	.L1261
 497:../Drivers/STM32F4xx_HAL_Driver/Src/stm32f4xx_hal_dma.c ****     tmp1 = __HAL_DMA_GET_FLAG(hdma, __HAL_DMA_GET_FE_FLAG_INDEX(hdma));
 2700              		.loc 1 497 0 discriminator 15
 2701 01a0 02F58062 		add	r2, r2, #1024
 2702 01a4 9342     		cmp	r3, r2
 2703 01a6 1ED0     		beq	.L1262
 497:../Drivers/STM32F4xx_HAL_Driver/Src/stm32f4xx_hal_dma.c ****     tmp1 = __HAL_DMA_GET_FLAG(hdma, __HAL_DMA_GET_FE_FLAG_INDEX(hdma));
 2704              		.loc 1 497 0 discriminator 17
 2705 01a8 A2F58962 		sub	r2, r2, #1096
 2706 01ac 9342     		cmp	r3, r2
 2707 01ae 17D0     		beq	.L1263
 497:../Drivers/STM32F4xx_HAL_Driver/Src/stm32f4xx_hal_dma.c ****     tmp1 = __HAL_DMA_GET_FLAG(hdma, __HAL_DMA_GET_FE_FLAG_INDEX(hdma));
 2708              		.loc 1 497 0 discriminator 19
 2709 01b0 02F58062 		add	r2, r2, #1024
 2710 01b4 9342     		cmp	r3, r2
 2711 01b6 10D0     		beq	.L1264
 497:../Drivers/STM32F4xx_HAL_Driver/Src/stm32f4xx_hal_dma.c ****     tmp1 = __HAL_DMA_GET_FLAG(hdma, __HAL_DMA_GET_FE_FLAG_INDEX(hdma));
 2712              		.loc 1 497 0 discriminator 21
 2713 01b8 A2F56872 		sub	r2, r2, #928
 2714 01bc 9342     		cmp	r3, r2
 2715 01be 09D0     		beq	.L1265
 497:../Drivers/STM32F4xx_HAL_Driver/Src/stm32f4xx_hal_dma.c ****     tmp1 = __HAL_DMA_GET_FLAG(hdma, __HAL_DMA_GET_FE_FLAG_INDEX(hdma));
 2716              		.loc 1 497 0 discriminator 23
 2717 01c0 02F58062 		add	r2, r2, #1024
 2718 01c4 9342     		cmp	r3, r2
 2719 01c6 02D1     		bne	.L1266
 497:../Drivers/STM32F4xx_HAL_Driver/Src/stm32f4xx_hal_dma.c ****     tmp1 = __HAL_DMA_GET_FLAG(hdma, __HAL_DMA_GET_FE_FLAG_INDEX(hdma));
 2720              		.loc 1 497 0
 2721 01c8 4FF40022 		mov	r2, #524288
 2722 01cc 1EE0     		b	.L575
 2723              	.L1266:
 2724 01ce 4FF00072 		mov	r2, #33554432
 2725 01d2 1BE0     		b	.L575
 2726              	.L1265:
 2727 01d4 4FF40022 		mov	r2, #524288
 2728 01d8 18E0     		b	.L575
 2729              	.L1264:
 2730 01da 4FF40022 		mov	r2, #524288
 2731 01de 15E0     		b	.L575
 2732              	.L1263:
 2733 01e0 4FF40022 		mov	r2, #524288
 2734 01e4 12E0     		b	.L575
 2735              	.L1262:
 2736 01e6 4FF40072 		mov	r2, #512
 2737 01ea 0FE0     		b	.L575
 2738              	.L1261:
 2739 01ec 4FF40072 		mov	r2, #512
 2740 01f0 0CE0     		b	.L575
ARM GAS  /tmp/ccAPlzty.s 			page 72


 2741              	.L1260:
 2742 01f2 4FF40072 		mov	r2, #512
 2743 01f6 09E0     		b	.L575
 2744              	.L1259:
 2745 01f8 4FF40072 		mov	r2, #512
 2746 01fc 06E0     		b	.L575
 2747              	.L1258:
 2748 01fe 0822     		movs	r2, #8
 2749 0200 04E0     		b	.L575
 2750              	.L1257:
 2751 0202 0822     		movs	r2, #8
 2752 0204 02E0     		b	.L575
 2753              	.L1256:
 2754 0206 0822     		movs	r2, #8
 2755 0208 00E0     		b	.L575
 2756              	.L1255:
 2757 020a 0822     		movs	r2, #8
 2758              	.L575:
 497:../Drivers/STM32F4xx_HAL_Driver/Src/stm32f4xx_hal_dma.c ****     tmp1 = __HAL_DMA_GET_FLAG(hdma, __HAL_DMA_GET_FE_FLAG_INDEX(hdma));
 2759              		.loc 1 497 0 discriminator 50
 2760 020c 0240     		ands	r2, r2, r0
 2761 020e 0BE1     		b	.L587
 2762              	.L574:
 497:../Drivers/STM32F4xx_HAL_Driver/Src/stm32f4xx_hal_dma.c ****     tmp1 = __HAL_DMA_GET_FLAG(hdma, __HAL_DMA_GET_FE_FLAG_INDEX(hdma));
 2763              		.loc 1 497 0 discriminator 2
 2764 0210 2E4A     		ldr	r2, .L1833+8
 2765 0212 9342     		cmp	r3, r2
 2766 0214 5CD9     		bls	.L588
 497:../Drivers/STM32F4xx_HAL_Driver/Src/stm32f4xx_hal_dma.c ****     tmp1 = __HAL_DMA_GET_FLAG(hdma, __HAL_DMA_GET_FE_FLAG_INDEX(hdma));
 2767              		.loc 1 497 0 discriminator 52
 2768 0216 02F55272 		add	r2, r2, #840
 2769 021a 1268     		ldr	r2, [r2]
 2770 021c 2949     		ldr	r1, .L1833
 2771 021e 8B42     		cmp	r3, r1
 2772 0220 4CD0     		beq	.L1267
 497:../Drivers/STM32F4xx_HAL_Driver/Src/stm32f4xx_hal_dma.c ****     tmp1 = __HAL_DMA_GET_FLAG(hdma, __HAL_DMA_GET_FE_FLAG_INDEX(hdma));
 2773              		.loc 1 497 0 discriminator 54
 2774 0222 01F58061 		add	r1, r1, #1024
 2775 0226 8B42     		cmp	r3, r1
 2776 0228 46D0     		beq	.L1268
 497:../Drivers/STM32F4xx_HAL_Driver/Src/stm32f4xx_hal_dma.c ****     tmp1 = __HAL_DMA_GET_FLAG(hdma, __HAL_DMA_GET_FE_FLAG_INDEX(hdma));
 2777              		.loc 1 497 0 discriminator 56
 2778 022a A1F56871 		sub	r1, r1, #928
 2779 022e 8B42     		cmp	r3, r1
 2780 0230 40D0     		beq	.L1269
 497:../Drivers/STM32F4xx_HAL_Driver/Src/stm32f4xx_hal_dma.c ****     tmp1 = __HAL_DMA_GET_FLAG(hdma, __HAL_DMA_GET_FE_FLAG_INDEX(hdma));
 2781              		.loc 1 497 0 discriminator 58
 2782 0232 01F58061 		add	r1, r1, #1024
 2783 0236 8B42     		cmp	r3, r1
 2784 0238 3AD0     		beq	.L1270
 497:../Drivers/STM32F4xx_HAL_Driver/Src/stm32f4xx_hal_dma.c ****     tmp1 = __HAL_DMA_GET_FLAG(hdma, __HAL_DMA_GET_FE_FLAG_INDEX(hdma));
 2785              		.loc 1 497 0 discriminator 60
 2786 023a A1F58961 		sub	r1, r1, #1096
 2787 023e 8B42     		cmp	r3, r1
 2788 0240 33D0     		beq	.L1271
 497:../Drivers/STM32F4xx_HAL_Driver/Src/stm32f4xx_hal_dma.c ****     tmp1 = __HAL_DMA_GET_FLAG(hdma, __HAL_DMA_GET_FE_FLAG_INDEX(hdma));
 2789              		.loc 1 497 0 discriminator 62
ARM GAS  /tmp/ccAPlzty.s 			page 73


 2790 0242 01F58061 		add	r1, r1, #1024
 2791 0246 8B42     		cmp	r3, r1
 2792 0248 2CD0     		beq	.L1272
 497:../Drivers/STM32F4xx_HAL_Driver/Src/stm32f4xx_hal_dma.c ****     tmp1 = __HAL_DMA_GET_FLAG(hdma, __HAL_DMA_GET_FE_FLAG_INDEX(hdma));
 2793              		.loc 1 497 0 discriminator 64
 2794 024a A1F56871 		sub	r1, r1, #928
 2795 024e 8B42     		cmp	r3, r1
 2796 0250 25D0     		beq	.L1273
 497:../Drivers/STM32F4xx_HAL_Driver/Src/stm32f4xx_hal_dma.c ****     tmp1 = __HAL_DMA_GET_FLAG(hdma, __HAL_DMA_GET_FE_FLAG_INDEX(hdma));
 2797              		.loc 1 497 0 discriminator 66
 2798 0252 01F58061 		add	r1, r1, #1024
 2799 0256 8B42     		cmp	r3, r1
 2800 0258 1ED0     		beq	.L1274
 497:../Drivers/STM32F4xx_HAL_Driver/Src/stm32f4xx_hal_dma.c ****     tmp1 = __HAL_DMA_GET_FLAG(hdma, __HAL_DMA_GET_FE_FLAG_INDEX(hdma));
 2801              		.loc 1 497 0 discriminator 68
 2802 025a A1F58961 		sub	r1, r1, #1096
 2803 025e 8B42     		cmp	r3, r1
 2804 0260 17D0     		beq	.L1275
 497:../Drivers/STM32F4xx_HAL_Driver/Src/stm32f4xx_hal_dma.c ****     tmp1 = __HAL_DMA_GET_FLAG(hdma, __HAL_DMA_GET_FE_FLAG_INDEX(hdma));
 2805              		.loc 1 497 0 discriminator 70
 2806 0262 01F58061 		add	r1, r1, #1024
 2807 0266 8B42     		cmp	r3, r1
 2808 0268 10D0     		beq	.L1276
 497:../Drivers/STM32F4xx_HAL_Driver/Src/stm32f4xx_hal_dma.c ****     tmp1 = __HAL_DMA_GET_FLAG(hdma, __HAL_DMA_GET_FE_FLAG_INDEX(hdma));
 2809              		.loc 1 497 0 discriminator 72
 2810 026a A1F56871 		sub	r1, r1, #928
 2811 026e 8B42     		cmp	r3, r1
 2812 0270 09D0     		beq	.L1277
 497:../Drivers/STM32F4xx_HAL_Driver/Src/stm32f4xx_hal_dma.c ****     tmp1 = __HAL_DMA_GET_FLAG(hdma, __HAL_DMA_GET_FE_FLAG_INDEX(hdma));
 2813              		.loc 1 497 0 discriminator 74
 2814 0272 01F58061 		add	r1, r1, #1024
 2815 0276 8B42     		cmp	r3, r1
 2816 0278 02D1     		bne	.L1278
 497:../Drivers/STM32F4xx_HAL_Driver/Src/stm32f4xx_hal_dma.c ****     tmp1 = __HAL_DMA_GET_FLAG(hdma, __HAL_DMA_GET_FE_FLAG_INDEX(hdma));
 2817              		.loc 1 497 0
 2818 027a 4FF40021 		mov	r1, #524288
 2819 027e 1EE0     		b	.L589
 2820              	.L1278:
 2821 0280 4FF00071 		mov	r1, #33554432
 2822 0284 1BE0     		b	.L589
 2823              	.L1277:
 2824 0286 4FF40021 		mov	r1, #524288
 2825 028a 18E0     		b	.L589
 2826              	.L1276:
 2827 028c 4FF40021 		mov	r1, #524288
 2828 0290 15E0     		b	.L589
 2829              	.L1275:
 2830 0292 4FF40021 		mov	r1, #524288
 2831 0296 12E0     		b	.L589
 2832              	.L1274:
 2833 0298 4FF40071 		mov	r1, #512
 2834 029c 0FE0     		b	.L589
 2835              	.L1273:
 2836 029e 4FF40071 		mov	r1, #512
 2837 02a2 0CE0     		b	.L589
 2838              	.L1272:
 2839 02a4 4FF40071 		mov	r1, #512
ARM GAS  /tmp/ccAPlzty.s 			page 74


 2840 02a8 09E0     		b	.L589
 2841              	.L1271:
 2842 02aa 4FF40071 		mov	r1, #512
 2843 02ae 06E0     		b	.L589
 2844              	.L1270:
 2845 02b0 0821     		movs	r1, #8
 2846 02b2 04E0     		b	.L589
 2847              	.L1269:
 2848 02b4 0821     		movs	r1, #8
 2849 02b6 02E0     		b	.L589
 2850              	.L1268:
 2851 02b8 0821     		movs	r1, #8
 2852 02ba 00E0     		b	.L589
 2853              	.L1267:
 2854 02bc 0821     		movs	r1, #8
 2855              	.L589:
 497:../Drivers/STM32F4xx_HAL_Driver/Src/stm32f4xx_hal_dma.c ****     tmp1 = __HAL_DMA_GET_FLAG(hdma, __HAL_DMA_GET_FE_FLAG_INDEX(hdma));
 2856              		.loc 1 497 0 discriminator 101
 2857 02be 0A40     		ands	r2, r2, r1
 2858 02c0 B2E0     		b	.L587
 2859              	.L1834:
 2860 02c2 00BF     		.align	2
 2861              	.L1833:
 2862 02c4 10600240 		.word	1073897488
 2863 02c8 58640240 		.word	1073898584
 2864 02cc B8600240 		.word	1073897656
 2865              	.L588:
 497:../Drivers/STM32F4xx_HAL_Driver/Src/stm32f4xx_hal_dma.c ****     tmp1 = __HAL_DMA_GET_FLAG(hdma, __HAL_DMA_GET_FE_FLAG_INDEX(hdma));
 2866              		.loc 1 497 0 discriminator 53
 2867 02d0 A94A     		ldr	r2, .L1835
 2868 02d2 9342     		cmp	r3, r2
 2869 02d4 54D9     		bls	.L602
 497:../Drivers/STM32F4xx_HAL_Driver/Src/stm32f4xx_hal_dma.c ****     tmp1 = __HAL_DMA_GET_FLAG(hdma, __HAL_DMA_GET_FE_FLAG_INDEX(hdma));
 2870              		.loc 1 497 0 discriminator 103
 2871 02d6 583A     		subs	r2, r2, #88
 2872 02d8 5168     		ldr	r1, [r2, #4]
 2873 02da 1032     		adds	r2, r2, #16
 2874 02dc 9342     		cmp	r3, r2
 2875 02de 4CD0     		beq	.L1279
 497:../Drivers/STM32F4xx_HAL_Driver/Src/stm32f4xx_hal_dma.c ****     tmp1 = __HAL_DMA_GET_FLAG(hdma, __HAL_DMA_GET_FE_FLAG_INDEX(hdma));
 2876              		.loc 1 497 0 discriminator 105
 2877 02e0 02F58062 		add	r2, r2, #1024
 2878 02e4 9342     		cmp	r3, r2
 2879 02e6 46D0     		beq	.L1280
 497:../Drivers/STM32F4xx_HAL_Driver/Src/stm32f4xx_hal_dma.c ****     tmp1 = __HAL_DMA_GET_FLAG(hdma, __HAL_DMA_GET_FE_FLAG_INDEX(hdma));
 2880              		.loc 1 497 0 discriminator 107
 2881 02e8 A2F56872 		sub	r2, r2, #928
 2882 02ec 9342     		cmp	r3, r2
 2883 02ee 40D0     		beq	.L1281
 497:../Drivers/STM32F4xx_HAL_Driver/Src/stm32f4xx_hal_dma.c ****     tmp1 = __HAL_DMA_GET_FLAG(hdma, __HAL_DMA_GET_FE_FLAG_INDEX(hdma));
 2884              		.loc 1 497 0 discriminator 109
 2885 02f0 02F58062 		add	r2, r2, #1024
 2886 02f4 9342     		cmp	r3, r2
 2887 02f6 3AD0     		beq	.L1282
 497:../Drivers/STM32F4xx_HAL_Driver/Src/stm32f4xx_hal_dma.c ****     tmp1 = __HAL_DMA_GET_FLAG(hdma, __HAL_DMA_GET_FE_FLAG_INDEX(hdma));
 2888              		.loc 1 497 0 discriminator 111
 2889 02f8 A2F58962 		sub	r2, r2, #1096
ARM GAS  /tmp/ccAPlzty.s 			page 75


 2890 02fc 9342     		cmp	r3, r2
 2891 02fe 33D0     		beq	.L1283
 497:../Drivers/STM32F4xx_HAL_Driver/Src/stm32f4xx_hal_dma.c ****     tmp1 = __HAL_DMA_GET_FLAG(hdma, __HAL_DMA_GET_FE_FLAG_INDEX(hdma));
 2892              		.loc 1 497 0 discriminator 113
 2893 0300 02F58062 		add	r2, r2, #1024
 2894 0304 9342     		cmp	r3, r2
 2895 0306 2CD0     		beq	.L1284
 497:../Drivers/STM32F4xx_HAL_Driver/Src/stm32f4xx_hal_dma.c ****     tmp1 = __HAL_DMA_GET_FLAG(hdma, __HAL_DMA_GET_FE_FLAG_INDEX(hdma));
 2896              		.loc 1 497 0 discriminator 115
 2897 0308 A2F56872 		sub	r2, r2, #928
 2898 030c 9342     		cmp	r3, r2
 2899 030e 25D0     		beq	.L1285
 497:../Drivers/STM32F4xx_HAL_Driver/Src/stm32f4xx_hal_dma.c ****     tmp1 = __HAL_DMA_GET_FLAG(hdma, __HAL_DMA_GET_FE_FLAG_INDEX(hdma));
 2900              		.loc 1 497 0 discriminator 117
 2901 0310 02F58062 		add	r2, r2, #1024
 2902 0314 9342     		cmp	r3, r2
 2903 0316 1ED0     		beq	.L1286
 497:../Drivers/STM32F4xx_HAL_Driver/Src/stm32f4xx_hal_dma.c ****     tmp1 = __HAL_DMA_GET_FLAG(hdma, __HAL_DMA_GET_FE_FLAG_INDEX(hdma));
 2904              		.loc 1 497 0 discriminator 119
 2905 0318 A2F58962 		sub	r2, r2, #1096
 2906 031c 9342     		cmp	r3, r2
 2907 031e 17D0     		beq	.L1287
 497:../Drivers/STM32F4xx_HAL_Driver/Src/stm32f4xx_hal_dma.c ****     tmp1 = __HAL_DMA_GET_FLAG(hdma, __HAL_DMA_GET_FE_FLAG_INDEX(hdma));
 2908              		.loc 1 497 0 discriminator 121
 2909 0320 02F58062 		add	r2, r2, #1024
 2910 0324 9342     		cmp	r3, r2
 2911 0326 10D0     		beq	.L1288
 497:../Drivers/STM32F4xx_HAL_Driver/Src/stm32f4xx_hal_dma.c ****     tmp1 = __HAL_DMA_GET_FLAG(hdma, __HAL_DMA_GET_FE_FLAG_INDEX(hdma));
 2912              		.loc 1 497 0 discriminator 123
 2913 0328 A2F56872 		sub	r2, r2, #928
 2914 032c 9342     		cmp	r3, r2
 2915 032e 09D0     		beq	.L1289
 497:../Drivers/STM32F4xx_HAL_Driver/Src/stm32f4xx_hal_dma.c ****     tmp1 = __HAL_DMA_GET_FLAG(hdma, __HAL_DMA_GET_FE_FLAG_INDEX(hdma));
 2916              		.loc 1 497 0 discriminator 125
 2917 0330 02F58062 		add	r2, r2, #1024
 2918 0334 9342     		cmp	r3, r2
 2919 0336 02D1     		bne	.L1290
 497:../Drivers/STM32F4xx_HAL_Driver/Src/stm32f4xx_hal_dma.c ****     tmp1 = __HAL_DMA_GET_FLAG(hdma, __HAL_DMA_GET_FE_FLAG_INDEX(hdma));
 2920              		.loc 1 497 0
 2921 0338 4FF40022 		mov	r2, #524288
 2922 033c 1EE0     		b	.L603
 2923              	.L1290:
 2924 033e 4FF00072 		mov	r2, #33554432
 2925 0342 1BE0     		b	.L603
 2926              	.L1289:
 2927 0344 4FF40022 		mov	r2, #524288
 2928 0348 18E0     		b	.L603
 2929              	.L1288:
 2930 034a 4FF40022 		mov	r2, #524288
 2931 034e 15E0     		b	.L603
 2932              	.L1287:
 2933 0350 4FF40022 		mov	r2, #524288
 2934 0354 12E0     		b	.L603
 2935              	.L1286:
 2936 0356 4FF40072 		mov	r2, #512
 2937 035a 0FE0     		b	.L603
 2938              	.L1285:
ARM GAS  /tmp/ccAPlzty.s 			page 76


 2939 035c 4FF40072 		mov	r2, #512
 2940 0360 0CE0     		b	.L603
 2941              	.L1284:
 2942 0362 4FF40072 		mov	r2, #512
 2943 0366 09E0     		b	.L603
 2944              	.L1283:
 2945 0368 4FF40072 		mov	r2, #512
 2946 036c 06E0     		b	.L603
 2947              	.L1282:
 2948 036e 0822     		movs	r2, #8
 2949 0370 04E0     		b	.L603
 2950              	.L1281:
 2951 0372 0822     		movs	r2, #8
 2952 0374 02E0     		b	.L603
 2953              	.L1280:
 2954 0376 0822     		movs	r2, #8
 2955 0378 00E0     		b	.L603
 2956              	.L1279:
 2957 037a 0822     		movs	r2, #8
 2958              	.L603:
 497:../Drivers/STM32F4xx_HAL_Driver/Src/stm32f4xx_hal_dma.c ****     tmp1 = __HAL_DMA_GET_FLAG(hdma, __HAL_DMA_GET_FE_FLAG_INDEX(hdma));
 2959              		.loc 1 497 0 discriminator 152
 2960 037c 0A40     		ands	r2, r2, r1
 2961 037e 53E0     		b	.L587
 2962              	.L602:
 497:../Drivers/STM32F4xx_HAL_Driver/Src/stm32f4xx_hal_dma.c ****     tmp1 = __HAL_DMA_GET_FLAG(hdma, __HAL_DMA_GET_FE_FLAG_INDEX(hdma));
 2963              		.loc 1 497 0 discriminator 104
 2964 0380 7E4A     		ldr	r2, .L1835+4
 2965 0382 1168     		ldr	r1, [r2]
 2966 0384 1032     		adds	r2, r2, #16
 2967 0386 9342     		cmp	r3, r2
 2968 0388 4CD0     		beq	.L1291
 497:../Drivers/STM32F4xx_HAL_Driver/Src/stm32f4xx_hal_dma.c ****     tmp1 = __HAL_DMA_GET_FLAG(hdma, __HAL_DMA_GET_FE_FLAG_INDEX(hdma));
 2969              		.loc 1 497 0 discriminator 154
 2970 038a 02F58062 		add	r2, r2, #1024
 2971 038e 9342     		cmp	r3, r2
 2972 0390 46D0     		beq	.L1292
 497:../Drivers/STM32F4xx_HAL_Driver/Src/stm32f4xx_hal_dma.c ****     tmp1 = __HAL_DMA_GET_FLAG(hdma, __HAL_DMA_GET_FE_FLAG_INDEX(hdma));
 2973              		.loc 1 497 0 discriminator 156
 2974 0392 A2F56872 		sub	r2, r2, #928
 2975 0396 9342     		cmp	r3, r2
 2976 0398 40D0     		beq	.L1293
 497:../Drivers/STM32F4xx_HAL_Driver/Src/stm32f4xx_hal_dma.c ****     tmp1 = __HAL_DMA_GET_FLAG(hdma, __HAL_DMA_GET_FE_FLAG_INDEX(hdma));
 2977              		.loc 1 497 0 discriminator 158
 2978 039a 02F58062 		add	r2, r2, #1024
 2979 039e 9342     		cmp	r3, r2
 2980 03a0 3AD0     		beq	.L1294
 497:../Drivers/STM32F4xx_HAL_Driver/Src/stm32f4xx_hal_dma.c ****     tmp1 = __HAL_DMA_GET_FLAG(hdma, __HAL_DMA_GET_FE_FLAG_INDEX(hdma));
 2981              		.loc 1 497 0 discriminator 160
 2982 03a2 A2F58962 		sub	r2, r2, #1096
 2983 03a6 9342     		cmp	r3, r2
 2984 03a8 33D0     		beq	.L1295
 497:../Drivers/STM32F4xx_HAL_Driver/Src/stm32f4xx_hal_dma.c ****     tmp1 = __HAL_DMA_GET_FLAG(hdma, __HAL_DMA_GET_FE_FLAG_INDEX(hdma));
 2985              		.loc 1 497 0 discriminator 162
 2986 03aa 02F58062 		add	r2, r2, #1024
 2987 03ae 9342     		cmp	r3, r2
 2988 03b0 2CD0     		beq	.L1296
ARM GAS  /tmp/ccAPlzty.s 			page 77


 497:../Drivers/STM32F4xx_HAL_Driver/Src/stm32f4xx_hal_dma.c ****     tmp1 = __HAL_DMA_GET_FLAG(hdma, __HAL_DMA_GET_FE_FLAG_INDEX(hdma));
 2989              		.loc 1 497 0 discriminator 164
 2990 03b2 A2F56872 		sub	r2, r2, #928
 2991 03b6 9342     		cmp	r3, r2
 2992 03b8 25D0     		beq	.L1297
 497:../Drivers/STM32F4xx_HAL_Driver/Src/stm32f4xx_hal_dma.c ****     tmp1 = __HAL_DMA_GET_FLAG(hdma, __HAL_DMA_GET_FE_FLAG_INDEX(hdma));
 2993              		.loc 1 497 0 discriminator 166
 2994 03ba 02F58062 		add	r2, r2, #1024
