ARM GAS  /tmp/ccflrS73.s 			page 1


   1              		.syntax unified
   2              		.cpu cortex-m4
   3              		.eabi_attribute 27, 1
   4              		.eabi_attribute 28, 1
   5              		.fpu fpv4-sp-d16
   6              		.eabi_attribute 20, 1
   7              		.eabi_attribute 21, 1
   8              		.eabi_attribute 23, 3
   9              		.eabi_attribute 24, 1
  10              		.eabi_attribute 25, 1
  11              		.eabi_attribute 26, 1
  12              		.eabi_attribute 30, 1
  13              		.eabi_attribute 34, 1
  14              		.eabi_attribute 18, 4
  15              		.thumb
  16              		.file	"vl53l0x_api.c"
  17              		.text
  18              	.Ltext0:
  19              		.cfi_sections	.debug_frame
  20              		.section	.text.VL53L0X_GetVersion,"ax",%progbits
  21              		.align	2
  22              		.global	VL53L0X_GetVersion
  23              		.thumb
  24              		.thumb_func
  26              	VL53L0X_GetVersion:
  27              	.LFB112:
  28              		.file 1 "../Drivers/BSP/Components/vl53l0x/vl53l0x_api.c"
   1:../Drivers/BSP/Components/vl53l0x/vl53l0x_api.c **** /*******************************************************************************
   2:../Drivers/BSP/Components/vl53l0x/vl53l0x_api.c ****  Copyright © 2016, STMicroelectronics International N.V.
   3:../Drivers/BSP/Components/vl53l0x/vl53l0x_api.c ****  All rights reserved.
   4:../Drivers/BSP/Components/vl53l0x/vl53l0x_api.c **** 
   5:../Drivers/BSP/Components/vl53l0x/vl53l0x_api.c ****  Redistribution and use in source and binary forms, with or without
   6:../Drivers/BSP/Components/vl53l0x/vl53l0x_api.c ****  modification, are permitted provided that the following conditions are met:
   7:../Drivers/BSP/Components/vl53l0x/vl53l0x_api.c ****  * Redistributions of source code must retain the above copyright
   8:../Drivers/BSP/Components/vl53l0x/vl53l0x_api.c ****  notice, this list of conditions and the following disclaimer.
   9:../Drivers/BSP/Components/vl53l0x/vl53l0x_api.c ****  * Redistributions in binary form must reproduce the above copyright
  10:../Drivers/BSP/Components/vl53l0x/vl53l0x_api.c ****  notice, this list of conditions and the following disclaimer in the
  11:../Drivers/BSP/Components/vl53l0x/vl53l0x_api.c ****  documentation and/or other materials provided with the distribution.
  12:../Drivers/BSP/Components/vl53l0x/vl53l0x_api.c ****  * Neither the name of STMicroelectronics nor the
  13:../Drivers/BSP/Components/vl53l0x/vl53l0x_api.c ****  names of its contributors may be used to endorse or promote products
  14:../Drivers/BSP/Components/vl53l0x/vl53l0x_api.c ****  derived from this software without specific prior written permission.
  15:../Drivers/BSP/Components/vl53l0x/vl53l0x_api.c **** 
  16:../Drivers/BSP/Components/vl53l0x/vl53l0x_api.c ****  THIS SOFTWARE IS PROVIDED BY THE COPYRIGHT HOLDERS AND CONTRIBUTORS "AS IS" AND
  17:../Drivers/BSP/Components/vl53l0x/vl53l0x_api.c ****  ANY EXPRESS OR IMPLIED WARRANTIES, INCLUDING, BUT NOT LIMITED TO, THE IMPLIED
  18:../Drivers/BSP/Components/vl53l0x/vl53l0x_api.c ****  WARRANTIES OF MERCHANTABILITY, FITNESS FOR A PARTICULAR PURPOSE, AND
  19:../Drivers/BSP/Components/vl53l0x/vl53l0x_api.c ****  NON-INFRINGEMENT OF INTELLECTUAL PROPERTY RIGHTS ARE DISCLAIMED.
  20:../Drivers/BSP/Components/vl53l0x/vl53l0x_api.c ****  IN NO EVENT SHALL STMICROELECTRONICS INTERNATIONAL N.V. BE LIABLE FOR ANY
  21:../Drivers/BSP/Components/vl53l0x/vl53l0x_api.c ****  DIRECT, INDIRECT, INCIDENTAL, SPECIAL, EXEMPLARY, OR CONSEQUENTIAL DAMAGES
  22:../Drivers/BSP/Components/vl53l0x/vl53l0x_api.c ****  (INCLUDING, BUT NOT LIMITED TO, PROCUREMENT OF SUBSTITUTE GOODS OR SERVICES;
  23:../Drivers/BSP/Components/vl53l0x/vl53l0x_api.c ****  LOSS OF USE, DATA, OR PROFITS; OR BUSINESS INTERRUPTION) HOWEVER CAUSED AND
  24:../Drivers/BSP/Components/vl53l0x/vl53l0x_api.c ****  ON ANY THEORY OF LIABILITY, WHETHER IN CONTRACT, STRICT LIABILITY, OR TORT
  25:../Drivers/BSP/Components/vl53l0x/vl53l0x_api.c ****  (INCLUDING NEGLIGENCE OR OTHERWISE) ARISING IN ANY WAY OUT OF THE USE OF THIS
  26:../Drivers/BSP/Components/vl53l0x/vl53l0x_api.c ****  SOFTWARE, EVEN IF ADVISED OF THE POSSIBILITY OF SUCH DAMAGE.
  27:../Drivers/BSP/Components/vl53l0x/vl53l0x_api.c ****  ******************************************************************************/
  28:../Drivers/BSP/Components/vl53l0x/vl53l0x_api.c **** 
  29:../Drivers/BSP/Components/vl53l0x/vl53l0x_api.c **** #include "vl53l0x_api.h"
  30:../Drivers/BSP/Components/vl53l0x/vl53l0x_api.c **** #include "vl53l0x_tuning.h"
ARM GAS  /tmp/ccflrS73.s 			page 2


  31:../Drivers/BSP/Components/vl53l0x/vl53l0x_api.c **** #include "vl53l0x_interrupt_threshold_settings.h"
  32:../Drivers/BSP/Components/vl53l0x/vl53l0x_api.c **** #include "vl53l0x_api_core.h"
  33:../Drivers/BSP/Components/vl53l0x/vl53l0x_api.c **** #include "vl53l0x_api_calibration.h"
  34:../Drivers/BSP/Components/vl53l0x/vl53l0x_api.c **** #include "vl53l0x_api_strings.h"
  35:../Drivers/BSP/Components/vl53l0x/vl53l0x_api.c **** 
  36:../Drivers/BSP/Components/vl53l0x/vl53l0x_api.c **** #ifndef __KERNEL__
  37:../Drivers/BSP/Components/vl53l0x/vl53l0x_api.c **** #include <stdlib.h>
  38:../Drivers/BSP/Components/vl53l0x/vl53l0x_api.c **** #endif
  39:../Drivers/BSP/Components/vl53l0x/vl53l0x_api.c **** #define LOG_FUNCTION_START(fmt, ...) \
  40:../Drivers/BSP/Components/vl53l0x/vl53l0x_api.c **** 	_LOG_FUNCTION_START(TRACE_MODULE_API, fmt, ##__VA_ARGS__)
  41:../Drivers/BSP/Components/vl53l0x/vl53l0x_api.c **** #define LOG_FUNCTION_END(status, ...) \
  42:../Drivers/BSP/Components/vl53l0x/vl53l0x_api.c **** 	_LOG_FUNCTION_END(TRACE_MODULE_API, status, ##__VA_ARGS__)
  43:../Drivers/BSP/Components/vl53l0x/vl53l0x_api.c **** #define LOG_FUNCTION_END_FMT(status, fmt, ...) \
  44:../Drivers/BSP/Components/vl53l0x/vl53l0x_api.c **** 	_LOG_FUNCTION_END_FMT(TRACE_MODULE_API, status, fmt, ##__VA_ARGS__)
  45:../Drivers/BSP/Components/vl53l0x/vl53l0x_api.c **** 
  46:../Drivers/BSP/Components/vl53l0x/vl53l0x_api.c **** #ifdef VL53L0X_LOG_ENABLE
  47:../Drivers/BSP/Components/vl53l0x/vl53l0x_api.c **** #define trace_print(level, ...) trace_print_module_function(TRACE_MODULE_API, \
  48:../Drivers/BSP/Components/vl53l0x/vl53l0x_api.c **** 	level, TRACE_FUNCTION_NONE, ##__VA_ARGS__)
  49:../Drivers/BSP/Components/vl53l0x/vl53l0x_api.c **** #endif
  50:../Drivers/BSP/Components/vl53l0x/vl53l0x_api.c **** 
  51:../Drivers/BSP/Components/vl53l0x/vl53l0x_api.c **** /* Group PAL General Functions */
  52:../Drivers/BSP/Components/vl53l0x/vl53l0x_api.c **** 
  53:../Drivers/BSP/Components/vl53l0x/vl53l0x_api.c **** VL53L0X_Error VL53L0X_GetVersion(VL53L0X_Version_t *pVersion)
  54:../Drivers/BSP/Components/vl53l0x/vl53l0x_api.c **** {
  29              		.loc 1 54 0
  30              		.cfi_startproc
  31              		@ args = 0, pretend = 0, frame = 0
  32              		@ frame_needed = 0, uses_anonymous_args = 0
  33              		@ link register save eliminated.
  34              	.LVL0:
  35 0000 0346     		mov	r3, r0
  36              	.LVL1:
  55:../Drivers/BSP/Components/vl53l0x/vl53l0x_api.c **** 	VL53L0X_Error Status = VL53L0X_ERROR_NONE;
  56:../Drivers/BSP/Components/vl53l0x/vl53l0x_api.c **** 	LOG_FUNCTION_START("");
  57:../Drivers/BSP/Components/vl53l0x/vl53l0x_api.c **** 
  58:../Drivers/BSP/Components/vl53l0x/vl53l0x_api.c **** 	pVersion->major = VL53L0X_IMPLEMENTATION_VER_MAJOR;
  37              		.loc 1 58 0
  38 0002 0122     		movs	r2, #1
  39 0004 0271     		strb	r2, [r0, #4]
  59:../Drivers/BSP/Components/vl53l0x/vl53l0x_api.c **** 	pVersion->minor = VL53L0X_IMPLEMENTATION_VER_MINOR;
  40              		.loc 1 59 0
  41 0006 0020     		movs	r0, #0
  42              	.LVL2:
  43 0008 5871     		strb	r0, [r3, #5]
  60:../Drivers/BSP/Components/vl53l0x/vl53l0x_api.c **** 	pVersion->build = VL53L0X_IMPLEMENTATION_VER_SUB;
  44              		.loc 1 60 0
  45 000a 0222     		movs	r2, #2
  46 000c 9A71     		strb	r2, [r3, #6]
  61:../Drivers/BSP/Components/vl53l0x/vl53l0x_api.c **** 
  62:../Drivers/BSP/Components/vl53l0x/vl53l0x_api.c **** 	pVersion->revision = VL53L0X_IMPLEMENTATION_VER_REVISION;
  47              		.loc 1 62 0
  48 000e 41F2D722 		movw	r2, #4823
  49 0012 1A60     		str	r2, [r3]
  63:../Drivers/BSP/Components/vl53l0x/vl53l0x_api.c **** 
  64:../Drivers/BSP/Components/vl53l0x/vl53l0x_api.c **** 	LOG_FUNCTION_END(Status);
  65:../Drivers/BSP/Components/vl53l0x/vl53l0x_api.c **** 	return Status;
  66:../Drivers/BSP/Components/vl53l0x/vl53l0x_api.c **** }
ARM GAS  /tmp/ccflrS73.s 			page 3


  50              		.loc 1 66 0
  51 0014 7047     		bx	lr
  52              		.cfi_endproc
  53              	.LFE112:
  55 0016 00BF     		.section	.text.VL53L0X_GetPalSpecVersion,"ax",%progbits
  56              		.align	2
  57              		.global	VL53L0X_GetPalSpecVersion
  58              		.thumb
  59              		.thumb_func
  61              	VL53L0X_GetPalSpecVersion:
  62              	.LFB113:
  67:../Drivers/BSP/Components/vl53l0x/vl53l0x_api.c **** 
  68:../Drivers/BSP/Components/vl53l0x/vl53l0x_api.c **** VL53L0X_Error VL53L0X_GetPalSpecVersion(VL53L0X_Version_t *pPalSpecVersion)
  69:../Drivers/BSP/Components/vl53l0x/vl53l0x_api.c **** {
  63              		.loc 1 69 0
  64              		.cfi_startproc
  65              		@ args = 0, pretend = 0, frame = 0
  66              		@ frame_needed = 0, uses_anonymous_args = 0
  67              		@ link register save eliminated.
  68              	.LVL3:
  70:../Drivers/BSP/Components/vl53l0x/vl53l0x_api.c **** 	VL53L0X_Error Status = VL53L0X_ERROR_NONE;
  71:../Drivers/BSP/Components/vl53l0x/vl53l0x_api.c **** 
  72:../Drivers/BSP/Components/vl53l0x/vl53l0x_api.c **** 	LOG_FUNCTION_START("");
  73:../Drivers/BSP/Components/vl53l0x/vl53l0x_api.c **** 
  74:../Drivers/BSP/Components/vl53l0x/vl53l0x_api.c **** 	pPalSpecVersion->major = VL53L0X_SPECIFICATION_VER_MAJOR;
  69              		.loc 1 74 0
  70 0000 0123     		movs	r3, #1
  71 0002 0371     		strb	r3, [r0, #4]
  75:../Drivers/BSP/Components/vl53l0x/vl53l0x_api.c **** 	pPalSpecVersion->minor = VL53L0X_SPECIFICATION_VER_MINOR;
  72              		.loc 1 75 0
  73 0004 0223     		movs	r3, #2
  74 0006 4371     		strb	r3, [r0, #5]
  76:../Drivers/BSP/Components/vl53l0x/vl53l0x_api.c **** 	pPalSpecVersion->build = VL53L0X_SPECIFICATION_VER_SUB;
  75              		.loc 1 76 0
  76 0008 0723     		movs	r3, #7
  77 000a 8371     		strb	r3, [r0, #6]
  77:../Drivers/BSP/Components/vl53l0x/vl53l0x_api.c **** 
  78:../Drivers/BSP/Components/vl53l0x/vl53l0x_api.c **** 	pPalSpecVersion->revision = VL53L0X_SPECIFICATION_VER_REVISION;
  78              		.loc 1 78 0
  79 000c 4FF4B463 		mov	r3, #1440
  80 0010 0360     		str	r3, [r0]
  79:../Drivers/BSP/Components/vl53l0x/vl53l0x_api.c **** 
  80:../Drivers/BSP/Components/vl53l0x/vl53l0x_api.c **** 	LOG_FUNCTION_END(Status);
  81:../Drivers/BSP/Components/vl53l0x/vl53l0x_api.c **** 	return Status;
  82:../Drivers/BSP/Components/vl53l0x/vl53l0x_api.c **** }
  81              		.loc 1 82 0
  82 0012 0020     		movs	r0, #0
  83              	.LVL4:
  84 0014 7047     		bx	lr
  85              		.cfi_endproc
  86              	.LFE113:
  88 0016 00BF     		.section	.text.VL53L0X_GetProductRevision,"ax",%progbits
  89              		.align	2
  90              		.global	VL53L0X_GetProductRevision
  91              		.thumb
  92              		.thumb_func
  94              	VL53L0X_GetProductRevision:
ARM GAS  /tmp/ccflrS73.s 			page 4


  95              	.LFB114:
  83:../Drivers/BSP/Components/vl53l0x/vl53l0x_api.c **** 
  84:../Drivers/BSP/Components/vl53l0x/vl53l0x_api.c **** VL53L0X_Error VL53L0X_GetProductRevision(VL53L0X_DEV Dev,
  85:../Drivers/BSP/Components/vl53l0x/vl53l0x_api.c **** 	uint8_t *pProductRevisionMajor, uint8_t *pProductRevisionMinor)
  86:../Drivers/BSP/Components/vl53l0x/vl53l0x_api.c **** {
  96              		.loc 1 86 0
  97              		.cfi_startproc
  98              		@ args = 0, pretend = 0, frame = 8
  99              		@ frame_needed = 0, uses_anonymous_args = 0
 100              	.LVL5:
 101 0000 30B5     		push	{r4, r5, lr}
 102              	.LCFI0:
 103              		.cfi_def_cfa_offset 12
 104              		.cfi_offset 4, -12
 105              		.cfi_offset 5, -8
 106              		.cfi_offset 14, -4
 107 0002 83B0     		sub	sp, sp, #12
 108              	.LCFI1:
 109              		.cfi_def_cfa_offset 24
 110 0004 0D46     		mov	r5, r1
 111 0006 1446     		mov	r4, r2
 112              	.LVL6:
  87:../Drivers/BSP/Components/vl53l0x/vl53l0x_api.c **** 	VL53L0X_Error Status = VL53L0X_ERROR_NONE;
  88:../Drivers/BSP/Components/vl53l0x/vl53l0x_api.c **** 	uint8_t revision_id;
  89:../Drivers/BSP/Components/vl53l0x/vl53l0x_api.c **** 
  90:../Drivers/BSP/Components/vl53l0x/vl53l0x_api.c **** 	LOG_FUNCTION_START("");
  91:../Drivers/BSP/Components/vl53l0x/vl53l0x_api.c **** 
  92:../Drivers/BSP/Components/vl53l0x/vl53l0x_api.c **** 	Status = VL53L0X_RdByte(Dev, VL53L0X_REG_IDENTIFICATION_REVISION_ID,
 113              		.loc 1 92 0
 114 0008 C221     		movs	r1, #194
 115              	.LVL7:
 116 000a 0DF10702 		add	r2, sp, #7
 117              	.LVL8:
 118 000e FFF7FEFF 		bl	VL53L0X_RdByte
 119              	.LVL9:
  93:../Drivers/BSP/Components/vl53l0x/vl53l0x_api.c **** 		&revision_id);
  94:../Drivers/BSP/Components/vl53l0x/vl53l0x_api.c **** 	*pProductRevisionMajor = 1;
 120              		.loc 1 94 0
 121 0012 0123     		movs	r3, #1
 122 0014 2B70     		strb	r3, [r5]
  95:../Drivers/BSP/Components/vl53l0x/vl53l0x_api.c **** 	*pProductRevisionMinor = (revision_id & 0xF0) >> 4;
 123              		.loc 1 95 0
 124 0016 9DF80730 		ldrb	r3, [sp, #7]	@ zero_extendqisi2
 125 001a 1B09     		lsrs	r3, r3, #4
 126 001c 2370     		strb	r3, [r4]
  96:../Drivers/BSP/Components/vl53l0x/vl53l0x_api.c **** 
  97:../Drivers/BSP/Components/vl53l0x/vl53l0x_api.c **** 	LOG_FUNCTION_END(Status);
  98:../Drivers/BSP/Components/vl53l0x/vl53l0x_api.c **** 	return Status;
  99:../Drivers/BSP/Components/vl53l0x/vl53l0x_api.c **** 
 100:../Drivers/BSP/Components/vl53l0x/vl53l0x_api.c **** }
 127              		.loc 1 100 0
 128 001e 03B0     		add	sp, sp, #12
 129              	.LCFI2:
 130              		.cfi_def_cfa_offset 12
 131              		@ sp needed
 132 0020 30BD     		pop	{r4, r5, pc}
 133              		.cfi_endproc
ARM GAS  /tmp/ccflrS73.s 			page 5


 134              	.LFE114:
 136 0022 00BF     		.section	.text.VL53L0X_GetDeviceInfo,"ax",%progbits
 137              		.align	2
 138              		.global	VL53L0X_GetDeviceInfo
 139              		.thumb
 140              		.thumb_func
 142              	VL53L0X_GetDeviceInfo:
 143              	.LFB115:
 101:../Drivers/BSP/Components/vl53l0x/vl53l0x_api.c **** 
 102:../Drivers/BSP/Components/vl53l0x/vl53l0x_api.c **** VL53L0X_Error VL53L0X_GetDeviceInfo(VL53L0X_DEV Dev,
 103:../Drivers/BSP/Components/vl53l0x/vl53l0x_api.c **** 	VL53L0X_DeviceInfo_t *pVL53L0X_DeviceInfo)
 104:../Drivers/BSP/Components/vl53l0x/vl53l0x_api.c **** {
 144              		.loc 1 104 0
 145              		.cfi_startproc
 146              		@ args = 0, pretend = 0, frame = 0
 147              		@ frame_needed = 0, uses_anonymous_args = 0
 148              	.LVL10:
 149 0000 08B5     		push	{r3, lr}
 150              	.LCFI3:
 151              		.cfi_def_cfa_offset 8
 152              		.cfi_offset 3, -8
 153              		.cfi_offset 14, -4
 154              	.LVL11:
 105:../Drivers/BSP/Components/vl53l0x/vl53l0x_api.c **** 	VL53L0X_Error Status = VL53L0X_ERROR_NONE;
 106:../Drivers/BSP/Components/vl53l0x/vl53l0x_api.c **** 	LOG_FUNCTION_START("");
 107:../Drivers/BSP/Components/vl53l0x/vl53l0x_api.c **** 
 108:../Drivers/BSP/Components/vl53l0x/vl53l0x_api.c **** 	Status = VL53L0X_get_device_info(Dev, pVL53L0X_DeviceInfo);
 155              		.loc 1 108 0
 156 0002 FFF7FEFF 		bl	VL53L0X_get_device_info
 157              	.LVL12:
 109:../Drivers/BSP/Components/vl53l0x/vl53l0x_api.c **** 
 110:../Drivers/BSP/Components/vl53l0x/vl53l0x_api.c **** 	LOG_FUNCTION_END(Status);
 111:../Drivers/BSP/Components/vl53l0x/vl53l0x_api.c **** 	return Status;
 112:../Drivers/BSP/Components/vl53l0x/vl53l0x_api.c **** }
 158              		.loc 1 112 0
 159 0006 08BD     		pop	{r3, pc}
 160              		.cfi_endproc
 161              	.LFE115:
 163              		.section	.text.VL53L0X_GetDeviceErrorStatus,"ax",%progbits
 164              		.align	2
 165              		.global	VL53L0X_GetDeviceErrorStatus
 166              		.thumb
 167              		.thumb_func
 169              	VL53L0X_GetDeviceErrorStatus:
 170              	.LFB116:
 113:../Drivers/BSP/Components/vl53l0x/vl53l0x_api.c **** 
 114:../Drivers/BSP/Components/vl53l0x/vl53l0x_api.c **** VL53L0X_Error VL53L0X_GetDeviceErrorStatus(VL53L0X_DEV Dev,
 115:../Drivers/BSP/Components/vl53l0x/vl53l0x_api.c **** 	VL53L0X_DeviceError *pDeviceErrorStatus)
 116:../Drivers/BSP/Components/vl53l0x/vl53l0x_api.c **** {
 171              		.loc 1 116 0
 172              		.cfi_startproc
 173              		@ args = 0, pretend = 0, frame = 8
 174              		@ frame_needed = 0, uses_anonymous_args = 0
 175              	.LVL13:
 176 0000 10B5     		push	{r4, lr}
 177              	.LCFI4:
 178              		.cfi_def_cfa_offset 8
ARM GAS  /tmp/ccflrS73.s 			page 6


 179              		.cfi_offset 4, -8
 180              		.cfi_offset 14, -4
 181 0002 82B0     		sub	sp, sp, #8
 182              	.LCFI5:
 183              		.cfi_def_cfa_offset 16
 184 0004 0C46     		mov	r4, r1
 185              	.LVL14:
 117:../Drivers/BSP/Components/vl53l0x/vl53l0x_api.c **** 	VL53L0X_Error Status = VL53L0X_ERROR_NONE;
 118:../Drivers/BSP/Components/vl53l0x/vl53l0x_api.c **** 	uint8_t RangeStatus;
 119:../Drivers/BSP/Components/vl53l0x/vl53l0x_api.c **** 
 120:../Drivers/BSP/Components/vl53l0x/vl53l0x_api.c **** 	LOG_FUNCTION_START("");
 121:../Drivers/BSP/Components/vl53l0x/vl53l0x_api.c **** 
 122:../Drivers/BSP/Components/vl53l0x/vl53l0x_api.c **** 	Status = VL53L0X_RdByte(Dev, VL53L0X_REG_RESULT_RANGE_STATUS,
 186              		.loc 1 122 0
 187 0006 1421     		movs	r1, #20
 188              	.LVL15:
 189 0008 0DF10702 		add	r2, sp, #7
 190 000c FFF7FEFF 		bl	VL53L0X_RdByte
 191              	.LVL16:
 123:../Drivers/BSP/Components/vl53l0x/vl53l0x_api.c **** 		&RangeStatus);
 124:../Drivers/BSP/Components/vl53l0x/vl53l0x_api.c **** 
 125:../Drivers/BSP/Components/vl53l0x/vl53l0x_api.c **** 	*pDeviceErrorStatus = (VL53L0X_DeviceError)((RangeStatus & 0x78) >> 3);
 192              		.loc 1 125 0
 193 0010 9DF80730 		ldrb	r3, [sp, #7]	@ zero_extendqisi2
 194 0014 C3F3C303 		ubfx	r3, r3, #3, #4
 195 0018 2370     		strb	r3, [r4]
 126:../Drivers/BSP/Components/vl53l0x/vl53l0x_api.c **** 
 127:../Drivers/BSP/Components/vl53l0x/vl53l0x_api.c **** 	LOG_FUNCTION_END(Status);
 128:../Drivers/BSP/Components/vl53l0x/vl53l0x_api.c **** 	return Status;
 129:../Drivers/BSP/Components/vl53l0x/vl53l0x_api.c **** }
 196              		.loc 1 129 0
 197 001a 02B0     		add	sp, sp, #8
 198              	.LCFI6:
 199              		.cfi_def_cfa_offset 8
 200              		@ sp needed
 201 001c 10BD     		pop	{r4, pc}
 202              		.cfi_endproc
 203              	.LFE116:
 205 001e 00BF     		.section	.text.VL53L0X_GetDeviceErrorString,"ax",%progbits
 206              		.align	2
 207              		.global	VL53L0X_GetDeviceErrorString
 208              		.thumb
 209              		.thumb_func
 211              	VL53L0X_GetDeviceErrorString:
 212              	.LFB117:
 130:../Drivers/BSP/Components/vl53l0x/vl53l0x_api.c **** 
 131:../Drivers/BSP/Components/vl53l0x/vl53l0x_api.c **** 
 132:../Drivers/BSP/Components/vl53l0x/vl53l0x_api.c **** VL53L0X_Error VL53L0X_GetDeviceErrorString(VL53L0X_DeviceError ErrorCode,
 133:../Drivers/BSP/Components/vl53l0x/vl53l0x_api.c **** 	char *pDeviceErrorString)
 134:../Drivers/BSP/Components/vl53l0x/vl53l0x_api.c **** {
 213              		.loc 1 134 0
 214              		.cfi_startproc
 215              		@ args = 0, pretend = 0, frame = 0
 216              		@ frame_needed = 0, uses_anonymous_args = 0
 217              	.LVL17:
 218 0000 08B5     		push	{r3, lr}
 219              	.LCFI7:
ARM GAS  /tmp/ccflrS73.s 			page 7


 220              		.cfi_def_cfa_offset 8
 221              		.cfi_offset 3, -8
 222              		.cfi_offset 14, -4
 223              	.LVL18:
 135:../Drivers/BSP/Components/vl53l0x/vl53l0x_api.c **** 	VL53L0X_Error Status = VL53L0X_ERROR_NONE;
 136:../Drivers/BSP/Components/vl53l0x/vl53l0x_api.c **** 
 137:../Drivers/BSP/Components/vl53l0x/vl53l0x_api.c **** 	LOG_FUNCTION_START("");
 138:../Drivers/BSP/Components/vl53l0x/vl53l0x_api.c **** 
 139:../Drivers/BSP/Components/vl53l0x/vl53l0x_api.c **** 	Status = VL53L0X_get_device_error_string(ErrorCode, pDeviceErrorString);
 224              		.loc 1 139 0
 225 0002 FFF7FEFF 		bl	VL53L0X_get_device_error_string
 226              	.LVL19:
 140:../Drivers/BSP/Components/vl53l0x/vl53l0x_api.c **** 
 141:../Drivers/BSP/Components/vl53l0x/vl53l0x_api.c **** 	LOG_FUNCTION_END(Status);
 142:../Drivers/BSP/Components/vl53l0x/vl53l0x_api.c **** 	return Status;
 143:../Drivers/BSP/Components/vl53l0x/vl53l0x_api.c **** }
 227              		.loc 1 143 0
 228 0006 08BD     		pop	{r3, pc}
 229              		.cfi_endproc
 230              	.LFE117:
 232              		.section	.text.VL53L0X_GetRangeStatusString,"ax",%progbits
 233              		.align	2
 234              		.global	VL53L0X_GetRangeStatusString
 235              		.thumb
 236              		.thumb_func
 238              	VL53L0X_GetRangeStatusString:
 239              	.LFB118:
 144:../Drivers/BSP/Components/vl53l0x/vl53l0x_api.c **** 
 145:../Drivers/BSP/Components/vl53l0x/vl53l0x_api.c **** VL53L0X_Error VL53L0X_GetRangeStatusString(uint8_t RangeStatus,
 146:../Drivers/BSP/Components/vl53l0x/vl53l0x_api.c **** 	char *pRangeStatusString)
 147:../Drivers/BSP/Components/vl53l0x/vl53l0x_api.c **** {
 240              		.loc 1 147 0
 241              		.cfi_startproc
 242              		@ args = 0, pretend = 0, frame = 0
 243              		@ frame_needed = 0, uses_anonymous_args = 0
 244              	.LVL20:
 245 0000 08B5     		push	{r3, lr}
 246              	.LCFI8:
 247              		.cfi_def_cfa_offset 8
 248              		.cfi_offset 3, -8
 249              		.cfi_offset 14, -4
 250              	.LVL21:
 148:../Drivers/BSP/Components/vl53l0x/vl53l0x_api.c **** 	VL53L0X_Error Status = VL53L0X_ERROR_NONE;
 149:../Drivers/BSP/Components/vl53l0x/vl53l0x_api.c **** 	LOG_FUNCTION_START("");
 150:../Drivers/BSP/Components/vl53l0x/vl53l0x_api.c **** 
 151:../Drivers/BSP/Components/vl53l0x/vl53l0x_api.c **** 	Status = VL53L0X_get_range_status_string(RangeStatus,
 251              		.loc 1 151 0
 252 0002 FFF7FEFF 		bl	VL53L0X_get_range_status_string
 253              	.LVL22:
 152:../Drivers/BSP/Components/vl53l0x/vl53l0x_api.c **** 		pRangeStatusString);
 153:../Drivers/BSP/Components/vl53l0x/vl53l0x_api.c **** 
 154:../Drivers/BSP/Components/vl53l0x/vl53l0x_api.c **** 	LOG_FUNCTION_END(Status);
 155:../Drivers/BSP/Components/vl53l0x/vl53l0x_api.c **** 	return Status;
 156:../Drivers/BSP/Components/vl53l0x/vl53l0x_api.c **** }
 254              		.loc 1 156 0
 255 0006 08BD     		pop	{r3, pc}
 256              		.cfi_endproc
ARM GAS  /tmp/ccflrS73.s 			page 8


 257              	.LFE118:
 259              		.section	.text.VL53L0X_GetPalErrorString,"ax",%progbits
 260              		.align	2
 261              		.global	VL53L0X_GetPalErrorString
 262              		.thumb
 263              		.thumb_func
 265              	VL53L0X_GetPalErrorString:
 266              	.LFB119:
 157:../Drivers/BSP/Components/vl53l0x/vl53l0x_api.c **** 
 158:../Drivers/BSP/Components/vl53l0x/vl53l0x_api.c **** VL53L0X_Error VL53L0X_GetPalErrorString(VL53L0X_Error PalErrorCode,
 159:../Drivers/BSP/Components/vl53l0x/vl53l0x_api.c **** 	char *pPalErrorString)
 160:../Drivers/BSP/Components/vl53l0x/vl53l0x_api.c **** {
 267              		.loc 1 160 0
 268              		.cfi_startproc
 269              		@ args = 0, pretend = 0, frame = 0
 270              		@ frame_needed = 0, uses_anonymous_args = 0
 271              	.LVL23:
 272 0000 08B5     		push	{r3, lr}
 273              	.LCFI9:
 274              		.cfi_def_cfa_offset 8
 275              		.cfi_offset 3, -8
 276              		.cfi_offset 14, -4
 277              	.LVL24:
 161:../Drivers/BSP/Components/vl53l0x/vl53l0x_api.c **** 	VL53L0X_Error Status = VL53L0X_ERROR_NONE;
 162:../Drivers/BSP/Components/vl53l0x/vl53l0x_api.c **** 	LOG_FUNCTION_START("");
 163:../Drivers/BSP/Components/vl53l0x/vl53l0x_api.c **** 
 164:../Drivers/BSP/Components/vl53l0x/vl53l0x_api.c **** 	Status = VL53L0X_get_pal_error_string(PalErrorCode, pPalErrorString);
 278              		.loc 1 164 0
 279 0002 FFF7FEFF 		bl	VL53L0X_get_pal_error_string
 280              	.LVL25:
 165:../Drivers/BSP/Components/vl53l0x/vl53l0x_api.c **** 
 166:../Drivers/BSP/Components/vl53l0x/vl53l0x_api.c **** 	LOG_FUNCTION_END(Status);
 167:../Drivers/BSP/Components/vl53l0x/vl53l0x_api.c **** 	return Status;
 168:../Drivers/BSP/Components/vl53l0x/vl53l0x_api.c **** }
 281              		.loc 1 168 0
 282 0006 08BD     		pop	{r3, pc}
 283              		.cfi_endproc
 284              	.LFE119:
 286              		.section	.text.VL53L0X_GetPalStateString,"ax",%progbits
 287              		.align	2
 288              		.global	VL53L0X_GetPalStateString
 289              		.thumb
 290              		.thumb_func
 292              	VL53L0X_GetPalStateString:
 293              	.LFB120:
 169:../Drivers/BSP/Components/vl53l0x/vl53l0x_api.c **** 
 170:../Drivers/BSP/Components/vl53l0x/vl53l0x_api.c **** VL53L0X_Error VL53L0X_GetPalStateString(VL53L0X_State PalStateCode,
 171:../Drivers/BSP/Components/vl53l0x/vl53l0x_api.c **** 	char *pPalStateString)
 172:../Drivers/BSP/Components/vl53l0x/vl53l0x_api.c **** {
 294              		.loc 1 172 0
 295              		.cfi_startproc
 296              		@ args = 0, pretend = 0, frame = 0
 297              		@ frame_needed = 0, uses_anonymous_args = 0
 298              	.LVL26:
 299 0000 08B5     		push	{r3, lr}
 300              	.LCFI10:
 301              		.cfi_def_cfa_offset 8
ARM GAS  /tmp/ccflrS73.s 			page 9


 302              		.cfi_offset 3, -8
 303              		.cfi_offset 14, -4
 304              	.LVL27:
 173:../Drivers/BSP/Components/vl53l0x/vl53l0x_api.c **** 	VL53L0X_Error Status = VL53L0X_ERROR_NONE;
 174:../Drivers/BSP/Components/vl53l0x/vl53l0x_api.c **** 	LOG_FUNCTION_START("");
 175:../Drivers/BSP/Components/vl53l0x/vl53l0x_api.c **** 
 176:../Drivers/BSP/Components/vl53l0x/vl53l0x_api.c **** 	Status = VL53L0X_get_pal_state_string(PalStateCode, pPalStateString);
 305              		.loc 1 176 0
 306 0002 FFF7FEFF 		bl	VL53L0X_get_pal_state_string
 307              	.LVL28:
 177:../Drivers/BSP/Components/vl53l0x/vl53l0x_api.c **** 
 178:../Drivers/BSP/Components/vl53l0x/vl53l0x_api.c **** 	LOG_FUNCTION_END(Status);
 179:../Drivers/BSP/Components/vl53l0x/vl53l0x_api.c **** 	return Status;
 180:../Drivers/BSP/Components/vl53l0x/vl53l0x_api.c **** }
 308              		.loc 1 180 0
 309 0006 08BD     		pop	{r3, pc}
 310              		.cfi_endproc
 311              	.LFE120:
 313              		.section	.text.VL53L0X_GetPalState,"ax",%progbits
 314              		.align	2
 315              		.global	VL53L0X_GetPalState
 316              		.thumb
 317              		.thumb_func
 319              	VL53L0X_GetPalState:
 320              	.LFB121:
 181:../Drivers/BSP/Components/vl53l0x/vl53l0x_api.c **** 
 182:../Drivers/BSP/Components/vl53l0x/vl53l0x_api.c **** VL53L0X_Error VL53L0X_GetPalState(VL53L0X_DEV Dev, VL53L0X_State *pPalState)
 183:../Drivers/BSP/Components/vl53l0x/vl53l0x_api.c **** {
 321              		.loc 1 183 0
 322              		.cfi_startproc
 323              		@ args = 0, pretend = 0, frame = 0
 324              		@ frame_needed = 0, uses_anonymous_args = 0
 325              		@ link register save eliminated.
 326              	.LVL29:
 184:../Drivers/BSP/Components/vl53l0x/vl53l0x_api.c **** 	VL53L0X_Error Status = VL53L0X_ERROR_NONE;
 185:../Drivers/BSP/Components/vl53l0x/vl53l0x_api.c **** 	LOG_FUNCTION_START("");
 186:../Drivers/BSP/Components/vl53l0x/vl53l0x_api.c **** 
 187:../Drivers/BSP/Components/vl53l0x/vl53l0x_api.c **** 	*pPalState = PALDevDataGet(Dev, PalState);
 327              		.loc 1 187 0
 328 0000 90F83231 		ldrb	r3, [r0, #306]	@ zero_extendqisi2
 329 0004 0B70     		strb	r3, [r1]
 188:../Drivers/BSP/Components/vl53l0x/vl53l0x_api.c **** 
 189:../Drivers/BSP/Components/vl53l0x/vl53l0x_api.c **** 	LOG_FUNCTION_END(Status);
 190:../Drivers/BSP/Components/vl53l0x/vl53l0x_api.c **** 	return Status;
 191:../Drivers/BSP/Components/vl53l0x/vl53l0x_api.c **** }
 330              		.loc 1 191 0
 331 0006 0020     		movs	r0, #0
 332              	.LVL30:
 333 0008 7047     		bx	lr
 334              		.cfi_endproc
 335              	.LFE121:
 337 000a 00BF     		.section	.text.VL53L0X_GetPowerMode,"ax",%progbits
 338              		.align	2
 339              		.global	VL53L0X_GetPowerMode
 340              		.thumb
 341              		.thumb_func
 343              	VL53L0X_GetPowerMode:
ARM GAS  /tmp/ccflrS73.s 			page 10


 344              	.LFB123:
 192:../Drivers/BSP/Components/vl53l0x/vl53l0x_api.c **** 
 193:../Drivers/BSP/Components/vl53l0x/vl53l0x_api.c **** VL53L0X_Error VL53L0X_SetPowerMode(VL53L0X_DEV Dev, VL53L0X_PowerModes PowerMode)
 194:../Drivers/BSP/Components/vl53l0x/vl53l0x_api.c **** {
 195:../Drivers/BSP/Components/vl53l0x/vl53l0x_api.c **** 	VL53L0X_Error Status = VL53L0X_ERROR_NONE;
 196:../Drivers/BSP/Components/vl53l0x/vl53l0x_api.c **** 	LOG_FUNCTION_START("");
 197:../Drivers/BSP/Components/vl53l0x/vl53l0x_api.c **** 
 198:../Drivers/BSP/Components/vl53l0x/vl53l0x_api.c **** 	/* Only level1 of Power mode exists */
 199:../Drivers/BSP/Components/vl53l0x/vl53l0x_api.c **** 	if ((PowerMode != VL53L0X_POWERMODE_STANDBY_LEVEL1)
 200:../Drivers/BSP/Components/vl53l0x/vl53l0x_api.c **** 		&& (PowerMode != VL53L0X_POWERMODE_IDLE_LEVEL1)) {
 201:../Drivers/BSP/Components/vl53l0x/vl53l0x_api.c **** 		Status = VL53L0X_ERROR_MODE_NOT_SUPPORTED;
 202:../Drivers/BSP/Components/vl53l0x/vl53l0x_api.c **** 	} else if (PowerMode == VL53L0X_POWERMODE_STANDBY_LEVEL1) {
 203:../Drivers/BSP/Components/vl53l0x/vl53l0x_api.c **** 		/* set the standby level1 of power mode */
 204:../Drivers/BSP/Components/vl53l0x/vl53l0x_api.c **** 		Status = VL53L0X_WrByte(Dev, 0x80, 0x00);
 205:../Drivers/BSP/Components/vl53l0x/vl53l0x_api.c **** 		if (Status == VL53L0X_ERROR_NONE) {
 206:../Drivers/BSP/Components/vl53l0x/vl53l0x_api.c **** 			/* Set PAL State to standby */
 207:../Drivers/BSP/Components/vl53l0x/vl53l0x_api.c **** 			PALDevDataSet(Dev, PalState, VL53L0X_STATE_STANDBY);
 208:../Drivers/BSP/Components/vl53l0x/vl53l0x_api.c **** 			PALDevDataSet(Dev, PowerMode,
 209:../Drivers/BSP/Components/vl53l0x/vl53l0x_api.c **** 				VL53L0X_POWERMODE_STANDBY_LEVEL1);
 210:../Drivers/BSP/Components/vl53l0x/vl53l0x_api.c **** 		}
 211:../Drivers/BSP/Components/vl53l0x/vl53l0x_api.c **** 
 212:../Drivers/BSP/Components/vl53l0x/vl53l0x_api.c **** 	} else {
 213:../Drivers/BSP/Components/vl53l0x/vl53l0x_api.c **** 		/* VL53L0X_POWERMODE_IDLE_LEVEL1 */
 214:../Drivers/BSP/Components/vl53l0x/vl53l0x_api.c **** 		Status = VL53L0X_WrByte(Dev, 0x80, 0x00);
 215:../Drivers/BSP/Components/vl53l0x/vl53l0x_api.c **** 		if (Status == VL53L0X_ERROR_NONE)
 216:../Drivers/BSP/Components/vl53l0x/vl53l0x_api.c **** 			Status = VL53L0X_StaticInit(Dev);
 217:../Drivers/BSP/Components/vl53l0x/vl53l0x_api.c **** 
 218:../Drivers/BSP/Components/vl53l0x/vl53l0x_api.c **** 		if (Status == VL53L0X_ERROR_NONE)
 219:../Drivers/BSP/Components/vl53l0x/vl53l0x_api.c **** 			PALDevDataSet(Dev, PowerMode,
 220:../Drivers/BSP/Components/vl53l0x/vl53l0x_api.c **** 				VL53L0X_POWERMODE_IDLE_LEVEL1);
 221:../Drivers/BSP/Components/vl53l0x/vl53l0x_api.c **** 
 222:../Drivers/BSP/Components/vl53l0x/vl53l0x_api.c **** 	}
 223:../Drivers/BSP/Components/vl53l0x/vl53l0x_api.c **** 
 224:../Drivers/BSP/Components/vl53l0x/vl53l0x_api.c **** 	LOG_FUNCTION_END(Status);
 225:../Drivers/BSP/Components/vl53l0x/vl53l0x_api.c **** 	return Status;
 226:../Drivers/BSP/Components/vl53l0x/vl53l0x_api.c **** }
 227:../Drivers/BSP/Components/vl53l0x/vl53l0x_api.c **** 
 228:../Drivers/BSP/Components/vl53l0x/vl53l0x_api.c **** VL53L0X_Error VL53L0X_GetPowerMode(VL53L0X_DEV Dev, VL53L0X_PowerModes *pPowerMode)
 229:../Drivers/BSP/Components/vl53l0x/vl53l0x_api.c **** {
 345              		.loc 1 229 0
 346              		.cfi_startproc
 347              		@ args = 0, pretend = 0, frame = 8
 348              		@ frame_needed = 0, uses_anonymous_args = 0
 349              	.LVL31:
 350 0000 10B5     		push	{r4, lr}
 351              	.LCFI11:
 352              		.cfi_def_cfa_offset 8
 353              		.cfi_offset 4, -8
 354              		.cfi_offset 14, -4
 355 0002 82B0     		sub	sp, sp, #8
 356              	.LCFI12:
 357              		.cfi_def_cfa_offset 16
 358 0004 0446     		mov	r4, r0
 359              	.LVL32:
 230:../Drivers/BSP/Components/vl53l0x/vl53l0x_api.c **** 	VL53L0X_Error Status = VL53L0X_ERROR_NONE;
 231:../Drivers/BSP/Components/vl53l0x/vl53l0x_api.c **** 	uint8_t Byte;
 232:../Drivers/BSP/Components/vl53l0x/vl53l0x_api.c **** 	LOG_FUNCTION_START("");
ARM GAS  /tmp/ccflrS73.s 			page 11


 233:../Drivers/BSP/Components/vl53l0x/vl53l0x_api.c **** 
 234:../Drivers/BSP/Components/vl53l0x/vl53l0x_api.c **** 	/* Only level1 of Power mode exists */
 235:../Drivers/BSP/Components/vl53l0x/vl53l0x_api.c **** 	Status = VL53L0X_RdByte(Dev, 0x80, &Byte);
 360              		.loc 1 235 0
 361 0006 8021     		movs	r1, #128
 362              	.LVL33:
 363 0008 0DF10702 		add	r2, sp, #7
 364 000c FFF7FEFF 		bl	VL53L0X_RdByte
 365              	.LVL34:
 236:../Drivers/BSP/Components/vl53l0x/vl53l0x_api.c **** 
 237:../Drivers/BSP/Components/vl53l0x/vl53l0x_api.c **** 	if (Status == VL53L0X_ERROR_NONE) {
 366              		.loc 1 237 0
 367 0010 0346     		mov	r3, r0
 368 0012 50B9     		cbnz	r0, .L19
 238:../Drivers/BSP/Components/vl53l0x/vl53l0x_api.c **** 		if (Byte == 1) {
 369              		.loc 1 238 0
 370 0014 9DF80720 		ldrb	r2, [sp, #7]	@ zero_extendqisi2
 371 0018 012A     		cmp	r2, #1
 372 001a 03D1     		bne	.L20
 239:../Drivers/BSP/Components/vl53l0x/vl53l0x_api.c **** 			PALDevDataSet(Dev, PowerMode,
 373              		.loc 1 239 0
 374 001c 0222     		movs	r2, #2
 375 001e 84F83321 		strb	r2, [r4, #307]
 376 0022 02E0     		b	.L19
 377              	.L20:
 240:../Drivers/BSP/Components/vl53l0x/vl53l0x_api.c **** 				VL53L0X_POWERMODE_IDLE_LEVEL1);
 241:../Drivers/BSP/Components/vl53l0x/vl53l0x_api.c **** 		} else {
 242:../Drivers/BSP/Components/vl53l0x/vl53l0x_api.c **** 			PALDevDataSet(Dev, PowerMode,
 378              		.loc 1 242 0
 379 0024 0022     		movs	r2, #0
 380 0026 84F83321 		strb	r2, [r4, #307]
 381              	.L19:
 243:../Drivers/BSP/Components/vl53l0x/vl53l0x_api.c **** 				VL53L0X_POWERMODE_STANDBY_LEVEL1);
 244:../Drivers/BSP/Components/vl53l0x/vl53l0x_api.c **** 		}
 245:../Drivers/BSP/Components/vl53l0x/vl53l0x_api.c **** 	}
 246:../Drivers/BSP/Components/vl53l0x/vl53l0x_api.c **** 
 247:../Drivers/BSP/Components/vl53l0x/vl53l0x_api.c **** 	LOG_FUNCTION_END(Status);
 248:../Drivers/BSP/Components/vl53l0x/vl53l0x_api.c **** 	return Status;
 249:../Drivers/BSP/Components/vl53l0x/vl53l0x_api.c **** }
 382              		.loc 1 249 0
 383 002a 1846     		mov	r0, r3
 384              	.LVL35:
 385 002c 02B0     		add	sp, sp, #8
 386              	.LCFI13:
 387              		.cfi_def_cfa_offset 8
 388              		@ sp needed
 389 002e 10BD     		pop	{r4, pc}
 390              		.cfi_endproc
 391              	.LFE123:
 393              		.section	.text.VL53L0X_SetOffsetCalibrationDataMicroMeter,"ax",%progbits
 394              		.align	2
 395              		.global	VL53L0X_SetOffsetCalibrationDataMicroMeter
 396              		.thumb
 397              		.thumb_func
 399              	VL53L0X_SetOffsetCalibrationDataMicroMeter:
 400              	.LFB124:
 250:../Drivers/BSP/Components/vl53l0x/vl53l0x_api.c **** 
ARM GAS  /tmp/ccflrS73.s 			page 12


 251:../Drivers/BSP/Components/vl53l0x/vl53l0x_api.c **** VL53L0X_Error VL53L0X_SetOffsetCalibrationDataMicroMeter(VL53L0X_DEV Dev,
 252:../Drivers/BSP/Components/vl53l0x/vl53l0x_api.c **** 	int32_t OffsetCalibrationDataMicroMeter)
 253:../Drivers/BSP/Components/vl53l0x/vl53l0x_api.c **** {
 401              		.loc 1 253 0
 402              		.cfi_startproc
 403              		@ args = 0, pretend = 0, frame = 0
 404              		@ frame_needed = 0, uses_anonymous_args = 0
 405              	.LVL36:
 406 0000 08B5     		push	{r3, lr}
 407              	.LCFI14:
 408              		.cfi_def_cfa_offset 8
 409              		.cfi_offset 3, -8
 410              		.cfi_offset 14, -4
 411              	.LVL37:
 254:../Drivers/BSP/Components/vl53l0x/vl53l0x_api.c **** 	VL53L0X_Error Status = VL53L0X_ERROR_NONE;
 255:../Drivers/BSP/Components/vl53l0x/vl53l0x_api.c **** 	LOG_FUNCTION_START("");
 256:../Drivers/BSP/Components/vl53l0x/vl53l0x_api.c **** 
 257:../Drivers/BSP/Components/vl53l0x/vl53l0x_api.c **** 	Status = VL53L0X_set_offset_calibration_data_micro_meter(Dev,
 412              		.loc 1 257 0
 413 0002 FFF7FEFF 		bl	VL53L0X_set_offset_calibration_data_micro_meter
 414              	.LVL38:
 258:../Drivers/BSP/Components/vl53l0x/vl53l0x_api.c **** 		OffsetCalibrationDataMicroMeter);
 259:../Drivers/BSP/Components/vl53l0x/vl53l0x_api.c **** 
 260:../Drivers/BSP/Components/vl53l0x/vl53l0x_api.c **** 	LOG_FUNCTION_END(Status);
 261:../Drivers/BSP/Components/vl53l0x/vl53l0x_api.c **** 	return Status;
 262:../Drivers/BSP/Components/vl53l0x/vl53l0x_api.c **** }
 415              		.loc 1 262 0
 416 0006 08BD     		pop	{r3, pc}
 417              		.cfi_endproc
 418              	.LFE124:
 420              		.section	.text.VL53L0X_GetOffsetCalibrationDataMicroMeter,"ax",%progbits
 421              		.align	2
 422              		.global	VL53L0X_GetOffsetCalibrationDataMicroMeter
 423              		.thumb
 424              		.thumb_func
 426              	VL53L0X_GetOffsetCalibrationDataMicroMeter:
 427              	.LFB125:
 263:../Drivers/BSP/Components/vl53l0x/vl53l0x_api.c **** 
 264:../Drivers/BSP/Components/vl53l0x/vl53l0x_api.c **** VL53L0X_Error VL53L0X_GetOffsetCalibrationDataMicroMeter(VL53L0X_DEV Dev,
 265:../Drivers/BSP/Components/vl53l0x/vl53l0x_api.c **** 	int32_t *pOffsetCalibrationDataMicroMeter)
 266:../Drivers/BSP/Components/vl53l0x/vl53l0x_api.c **** {
 428              		.loc 1 266 0
 429              		.cfi_startproc
 430              		@ args = 0, pretend = 0, frame = 0
 431              		@ frame_needed = 0, uses_anonymous_args = 0
 432              	.LVL39:
 433 0000 08B5     		push	{r3, lr}
 434              	.LCFI15:
 435              		.cfi_def_cfa_offset 8
 436              		.cfi_offset 3, -8
 437              		.cfi_offset 14, -4
 438              	.LVL40:
 267:../Drivers/BSP/Components/vl53l0x/vl53l0x_api.c **** 	VL53L0X_Error Status = VL53L0X_ERROR_NONE;
 268:../Drivers/BSP/Components/vl53l0x/vl53l0x_api.c **** 	LOG_FUNCTION_START("");
 269:../Drivers/BSP/Components/vl53l0x/vl53l0x_api.c **** 
 270:../Drivers/BSP/Components/vl53l0x/vl53l0x_api.c **** 	Status = VL53L0X_get_offset_calibration_data_micro_meter(Dev,
 439              		.loc 1 270 0
ARM GAS  /tmp/ccflrS73.s 			page 13


 440 0002 FFF7FEFF 		bl	VL53L0X_get_offset_calibration_data_micro_meter
 441              	.LVL41:
 271:../Drivers/BSP/Components/vl53l0x/vl53l0x_api.c **** 		pOffsetCalibrationDataMicroMeter);
 272:../Drivers/BSP/Components/vl53l0x/vl53l0x_api.c **** 
 273:../Drivers/BSP/Components/vl53l0x/vl53l0x_api.c **** 	LOG_FUNCTION_END(Status);
 274:../Drivers/BSP/Components/vl53l0x/vl53l0x_api.c **** 	return Status;
 275:../Drivers/BSP/Components/vl53l0x/vl53l0x_api.c **** }
 442              		.loc 1 275 0
 443 0006 08BD     		pop	{r3, pc}
 444              		.cfi_endproc
 445              	.LFE125:
 447              		.section	.text.VL53L0X_SetLinearityCorrectiveGain,"ax",%progbits
 448              		.align	2
 449              		.global	VL53L0X_SetLinearityCorrectiveGain
 450              		.thumb
 451              		.thumb_func
 453              	VL53L0X_SetLinearityCorrectiveGain:
 454              	.LFB126:
 276:../Drivers/BSP/Components/vl53l0x/vl53l0x_api.c **** 
 277:../Drivers/BSP/Components/vl53l0x/vl53l0x_api.c **** VL53L0X_Error VL53L0X_SetLinearityCorrectiveGain(VL53L0X_DEV Dev,
 278:../Drivers/BSP/Components/vl53l0x/vl53l0x_api.c **** 	int16_t LinearityCorrectiveGain)
 279:../Drivers/BSP/Components/vl53l0x/vl53l0x_api.c **** {
 455              		.loc 1 279 0
 456              		.cfi_startproc
 457              		@ args = 0, pretend = 0, frame = 0
 458              		@ frame_needed = 0, uses_anonymous_args = 0
 459              	.LVL42:
 460 0000 08B5     		push	{r3, lr}
 461              	.LCFI16:
 462              		.cfi_def_cfa_offset 8
 463              		.cfi_offset 3, -8
 464              		.cfi_offset 14, -4
 465              	.LVL43:
 280:../Drivers/BSP/Components/vl53l0x/vl53l0x_api.c **** 	VL53L0X_Error Status = VL53L0X_ERROR_NONE;
 281:../Drivers/BSP/Components/vl53l0x/vl53l0x_api.c **** 	LOG_FUNCTION_START("");
 282:../Drivers/BSP/Components/vl53l0x/vl53l0x_api.c **** 
 283:../Drivers/BSP/Components/vl53l0x/vl53l0x_api.c **** 	if ((LinearityCorrectiveGain < 0) || (LinearityCorrectiveGain > 1000))
 466              		.loc 1 283 0
 467 0002 8BB2     		uxth	r3, r1
 468 0004 B3F57A7F 		cmp	r3, #1000
 469 0008 09D8     		bhi	.L28
 284:../Drivers/BSP/Components/vl53l0x/vl53l0x_api.c **** 		Status = VL53L0X_ERROR_INVALID_PARAMS;
 285:../Drivers/BSP/Components/vl53l0x/vl53l0x_api.c **** 	else {
 286:../Drivers/BSP/Components/vl53l0x/vl53l0x_api.c **** 		PALDevDataSet(Dev, LinearityCorrectiveGain,
 470              		.loc 1 286 0
 471 000a A0F85231 		strh	r3, [r0, #338]	@ movhi
 287:../Drivers/BSP/Components/vl53l0x/vl53l0x_api.c **** 			LinearityCorrectiveGain);
 288:../Drivers/BSP/Components/vl53l0x/vl53l0x_api.c **** 
 289:../Drivers/BSP/Components/vl53l0x/vl53l0x_api.c **** 		if (LinearityCorrectiveGain != 1000) {
 472              		.loc 1 289 0
 473 000e B1F57A7F 		cmp	r1, #1000
 474 0012 06D0     		beq	.L29
 290:../Drivers/BSP/Components/vl53l0x/vl53l0x_api.c **** 			/* Disable FW Xtalk */
 291:../Drivers/BSP/Components/vl53l0x/vl53l0x_api.c **** 			Status = VL53L0X_WrWord(Dev,
 475              		.loc 1 291 0
 476 0014 2021     		movs	r1, #32
 477              	.LVL44:
ARM GAS  /tmp/ccflrS73.s 			page 14


 478 0016 0022     		movs	r2, #0
 479 0018 FFF7FEFF 		bl	VL53L0X_WrWord
 480              	.LVL45:
 481 001c 02E0     		b	.L27
 482              	.LVL46:
 483              	.L28:
 284:../Drivers/BSP/Components/vl53l0x/vl53l0x_api.c **** 	else {
 484              		.loc 1 284 0
 485 001e FC20     		movs	r0, #252
 486              	.LVL47:
 487 0020 00E0     		b	.L27
 488              	.LVL48:
 489              	.L29:
 280:../Drivers/BSP/Components/vl53l0x/vl53l0x_api.c **** 	LOG_FUNCTION_START("");
 490              		.loc 1 280 0
 491 0022 0020     		movs	r0, #0
 492              	.LVL49:
 493              	.L27:
 292:../Drivers/BSP/Components/vl53l0x/vl53l0x_api.c **** 			VL53L0X_REG_CROSSTALK_COMPENSATION_PEAK_RATE_MCPS, 0);
 293:../Drivers/BSP/Components/vl53l0x/vl53l0x_api.c **** 		}
 294:../Drivers/BSP/Components/vl53l0x/vl53l0x_api.c **** 	}
 295:../Drivers/BSP/Components/vl53l0x/vl53l0x_api.c **** 
 296:../Drivers/BSP/Components/vl53l0x/vl53l0x_api.c **** 	LOG_FUNCTION_END(Status);
 297:../Drivers/BSP/Components/vl53l0x/vl53l0x_api.c **** 	return Status;
 298:../Drivers/BSP/Components/vl53l0x/vl53l0x_api.c **** }
 494              		.loc 1 298 0
 495 0024 40B2     		sxtb	r0, r0
 496 0026 08BD     		pop	{r3, pc}
 497              		.cfi_endproc
 498              	.LFE126:
 500              		.section	.text.VL53L0X_GetLinearityCorrectiveGain,"ax",%progbits
 501              		.align	2
 502              		.global	VL53L0X_GetLinearityCorrectiveGain
 503              		.thumb
 504              		.thumb_func
 506              	VL53L0X_GetLinearityCorrectiveGain:
 507              	.LFB127:
 299:../Drivers/BSP/Components/vl53l0x/vl53l0x_api.c **** 
 300:../Drivers/BSP/Components/vl53l0x/vl53l0x_api.c **** VL53L0X_Error VL53L0X_GetLinearityCorrectiveGain(VL53L0X_DEV Dev,
 301:../Drivers/BSP/Components/vl53l0x/vl53l0x_api.c **** 	uint16_t *pLinearityCorrectiveGain)
 302:../Drivers/BSP/Components/vl53l0x/vl53l0x_api.c **** {
 508              		.loc 1 302 0
 509              		.cfi_startproc
 510              		@ args = 0, pretend = 0, frame = 0
 511              		@ frame_needed = 0, uses_anonymous_args = 0
 512              		@ link register save eliminated.
 513              	.LVL50:
 303:../Drivers/BSP/Components/vl53l0x/vl53l0x_api.c **** 	VL53L0X_Error Status = VL53L0X_ERROR_NONE;
 304:../Drivers/BSP/Components/vl53l0x/vl53l0x_api.c **** 	LOG_FUNCTION_START("");
 305:../Drivers/BSP/Components/vl53l0x/vl53l0x_api.c **** 
 306:../Drivers/BSP/Components/vl53l0x/vl53l0x_api.c **** 	*pLinearityCorrectiveGain = PALDevDataGet(Dev, LinearityCorrectiveGain);
 514              		.loc 1 306 0
 515 0000 B0F85231 		ldrh	r3, [r0, #338]
 516 0004 0B80     		strh	r3, [r1]	@ movhi
 307:../Drivers/BSP/Components/vl53l0x/vl53l0x_api.c **** 
 308:../Drivers/BSP/Components/vl53l0x/vl53l0x_api.c **** 	LOG_FUNCTION_END(Status);
 309:../Drivers/BSP/Components/vl53l0x/vl53l0x_api.c **** 	return Status;
ARM GAS  /tmp/ccflrS73.s 			page 15


 310:../Drivers/BSP/Components/vl53l0x/vl53l0x_api.c **** }
 517              		.loc 1 310 0
 518 0006 0020     		movs	r0, #0
 519              	.LVL51:
 520 0008 7047     		bx	lr
 521              		.cfi_endproc
 522              	.LFE127:
 524 000a 00BF     		.section	.text.VL53L0X_SetGroupParamHold,"ax",%progbits
 525              		.align	2
 526              		.global	VL53L0X_SetGroupParamHold
 527              		.thumb
 528              		.thumb_func
 530              	VL53L0X_SetGroupParamHold:
 531              	.LFB128:
 311:../Drivers/BSP/Components/vl53l0x/vl53l0x_api.c **** 
 312:../Drivers/BSP/Components/vl53l0x/vl53l0x_api.c **** VL53L0X_Error VL53L0X_SetGroupParamHold(VL53L0X_DEV Dev, uint8_t GroupParamHold)
 313:../Drivers/BSP/Components/vl53l0x/vl53l0x_api.c **** {
 532              		.loc 1 313 0
 533              		.cfi_startproc
 534              		@ args = 0, pretend = 0, frame = 0
 535              		@ frame_needed = 0, uses_anonymous_args = 0
 536              		@ link register save eliminated.
 537              	.LVL52:
 314:../Drivers/BSP/Components/vl53l0x/vl53l0x_api.c **** 	VL53L0X_Error Status = VL53L0X_ERROR_NOT_IMPLEMENTED;
 315:../Drivers/BSP/Components/vl53l0x/vl53l0x_api.c **** 	LOG_FUNCTION_START("");
 316:../Drivers/BSP/Components/vl53l0x/vl53l0x_api.c **** 
 317:../Drivers/BSP/Components/vl53l0x/vl53l0x_api.c **** 	/* not implemented on VL53L0X */
 318:../Drivers/BSP/Components/vl53l0x/vl53l0x_api.c **** 
 319:../Drivers/BSP/Components/vl53l0x/vl53l0x_api.c **** 	LOG_FUNCTION_END(Status);
 320:../Drivers/BSP/Components/vl53l0x/vl53l0x_api.c **** 	return Status;
 321:../Drivers/BSP/Components/vl53l0x/vl53l0x_api.c **** }
 538              		.loc 1 321 0
 539 0000 6FF06200 		mvn	r0, #98
 540              	.LVL53:
 541 0004 7047     		bx	lr
 542              		.cfi_endproc
 543              	.LFE128:
 545 0006 00BF     		.section	.text.VL53L0X_GetUpperLimitMilliMeter,"ax",%progbits
 546              		.align	2
 547              		.global	VL53L0X_GetUpperLimitMilliMeter
 548              		.thumb
 549              		.thumb_func
 551              	VL53L0X_GetUpperLimitMilliMeter:
 552              	.LFB129:
 322:../Drivers/BSP/Components/vl53l0x/vl53l0x_api.c **** 
 323:../Drivers/BSP/Components/vl53l0x/vl53l0x_api.c **** VL53L0X_Error VL53L0X_GetUpperLimitMilliMeter(VL53L0X_DEV Dev,
 324:../Drivers/BSP/Components/vl53l0x/vl53l0x_api.c **** 	uint16_t *pUpperLimitMilliMeter)
 325:../Drivers/BSP/Components/vl53l0x/vl53l0x_api.c **** {
 553              		.loc 1 325 0
 554              		.cfi_startproc
 555              		@ args = 0, pretend = 0, frame = 0
 556              		@ frame_needed = 0, uses_anonymous_args = 0
 557              		@ link register save eliminated.
 558              	.LVL54:
 326:../Drivers/BSP/Components/vl53l0x/vl53l0x_api.c **** 	VL53L0X_Error Status = VL53L0X_ERROR_NOT_IMPLEMENTED;
 327:../Drivers/BSP/Components/vl53l0x/vl53l0x_api.c **** 	LOG_FUNCTION_START("");
 328:../Drivers/BSP/Components/vl53l0x/vl53l0x_api.c **** 
ARM GAS  /tmp/ccflrS73.s 			page 16


 329:../Drivers/BSP/Components/vl53l0x/vl53l0x_api.c **** 	/* not implemented on VL53L0X */
 330:../Drivers/BSP/Components/vl53l0x/vl53l0x_api.c **** 
 331:../Drivers/BSP/Components/vl53l0x/vl53l0x_api.c **** 	LOG_FUNCTION_END(Status);
 332:../Drivers/BSP/Components/vl53l0x/vl53l0x_api.c **** 	return Status;
 333:../Drivers/BSP/Components/vl53l0x/vl53l0x_api.c **** }
 559              		.loc 1 333 0
 560 0000 6FF06200 		mvn	r0, #98
 561              	.LVL55:
 562 0004 7047     		bx	lr
 563              		.cfi_endproc
 564              	.LFE129:
 566 0006 00BF     		.section	.text.VL53L0X_GetTotalSignalRate,"ax",%progbits
 567              		.align	2
 568              		.global	VL53L0X_GetTotalSignalRate
 569              		.thumb
 570              		.thumb_func
 572              	VL53L0X_GetTotalSignalRate:
 573              	.LFB130:
 334:../Drivers/BSP/Components/vl53l0x/vl53l0x_api.c **** 
 335:../Drivers/BSP/Components/vl53l0x/vl53l0x_api.c **** VL53L0X_Error VL53L0X_GetTotalSignalRate(VL53L0X_DEV Dev,
 336:../Drivers/BSP/Components/vl53l0x/vl53l0x_api.c **** 	FixPoint1616_t *pTotalSignalRate)
 337:../Drivers/BSP/Components/vl53l0x/vl53l0x_api.c **** {
 574              		.loc 1 337 0
 575              		.cfi_startproc
 576              		@ args = 0, pretend = 0, frame = 32
 577              		@ frame_needed = 0, uses_anonymous_args = 0
 578              	.LVL56:
 579 0000 F0B5     		push	{r4, r5, r6, r7, lr}
 580              	.LCFI17:
 581              		.cfi_def_cfa_offset 20
 582              		.cfi_offset 4, -20
 583              		.cfi_offset 5, -16
 584              		.cfi_offset 6, -12
 585              		.cfi_offset 7, -8
 586              		.cfi_offset 14, -4
 587 0002 89B0     		sub	sp, sp, #36
 588              	.LCFI18:
 589              		.cfi_def_cfa_offset 56
 590 0004 0646     		mov	r6, r0
 591 0006 0F46     		mov	r7, r1
 592              	.LVL57:
 338:../Drivers/BSP/Components/vl53l0x/vl53l0x_api.c **** 	VL53L0X_Error Status = VL53L0X_ERROR_NONE;
 339:../Drivers/BSP/Components/vl53l0x/vl53l0x_api.c **** 	VL53L0X_RangingMeasurementData_t LastRangeDataBuffer;
 340:../Drivers/BSP/Components/vl53l0x/vl53l0x_api.c **** 
 341:../Drivers/BSP/Components/vl53l0x/vl53l0x_api.c **** 	LOG_FUNCTION_START("");
 342:../Drivers/BSP/Components/vl53l0x/vl53l0x_api.c **** 
 343:../Drivers/BSP/Components/vl53l0x/vl53l0x_api.c **** 	LastRangeDataBuffer = PALDevDataGet(Dev, LastRangeMeasure);
 593              		.loc 1 343 0
 594 0008 01AC     		add	r4, sp, #4
 595 000a 00F15005 		add	r5, r0, #80
 596 000e 0FCD     		ldmia	r5!, {r0, r1, r2, r3}
 597              	.LVL58:
 598 0010 0FC4     		stmia	r4!, {r0, r1, r2, r3}
 599 0012 95E80700 		ldmia	r5, {r0, r1, r2}
 600 0016 84E80700 		stmia	r4, {r0, r1, r2}
 344:../Drivers/BSP/Components/vl53l0x/vl53l0x_api.c **** 
 345:../Drivers/BSP/Components/vl53l0x/vl53l0x_api.c **** 	Status = VL53L0X_get_total_signal_rate(
ARM GAS  /tmp/ccflrS73.s 			page 17


 601              		.loc 1 345 0
 602 001a 3046     		mov	r0, r6
 603 001c 01A9     		add	r1, sp, #4
 604 001e 3A46     		mov	r2, r7
 605 0020 FFF7FEFF 		bl	VL53L0X_get_total_signal_rate
 606              	.LVL59:
 346:../Drivers/BSP/Components/vl53l0x/vl53l0x_api.c **** 		Dev, &LastRangeDataBuffer, pTotalSignalRate);
 347:../Drivers/BSP/Components/vl53l0x/vl53l0x_api.c **** 
 348:../Drivers/BSP/Components/vl53l0x/vl53l0x_api.c **** 	LOG_FUNCTION_END(Status);
 349:../Drivers/BSP/Components/vl53l0x/vl53l0x_api.c **** 	return Status;
 350:../Drivers/BSP/Components/vl53l0x/vl53l0x_api.c **** }
 607              		.loc 1 350 0
 608 0024 09B0     		add	sp, sp, #36
 609              	.LCFI19:
 610              		.cfi_def_cfa_offset 20
 611              		@ sp needed
 612 0026 F0BD     		pop	{r4, r5, r6, r7, pc}
 613              		.cfi_endproc
 614              	.LFE130:
 616              		.section	.text.VL53L0X_SetDeviceAddress,"ax",%progbits
 617              		.align	2
 618              		.global	VL53L0X_SetDeviceAddress
 619              		.thumb
 620              		.thumb_func
 622              	VL53L0X_SetDeviceAddress:
 623              	.LFB131:
 351:../Drivers/BSP/Components/vl53l0x/vl53l0x_api.c **** 
 352:../Drivers/BSP/Components/vl53l0x/vl53l0x_api.c **** /* End Group PAL General Functions */
 353:../Drivers/BSP/Components/vl53l0x/vl53l0x_api.c **** 
 354:../Drivers/BSP/Components/vl53l0x/vl53l0x_api.c **** /* Group PAL Init Functions */
 355:../Drivers/BSP/Components/vl53l0x/vl53l0x_api.c **** VL53L0X_Error VL53L0X_SetDeviceAddress(VL53L0X_DEV Dev, uint8_t DeviceAddress)
 356:../Drivers/BSP/Components/vl53l0x/vl53l0x_api.c **** {
 624              		.loc 1 356 0
 625              		.cfi_startproc
 626              		@ args = 0, pretend = 0, frame = 0
 627              		@ frame_needed = 0, uses_anonymous_args = 0
 628              	.LVL60:
 629 0000 08B5     		push	{r3, lr}
 630              	.LCFI20:
 631              		.cfi_def_cfa_offset 8
 632              		.cfi_offset 3, -8
 633              		.cfi_offset 14, -4
 634              	.LVL61:
 357:../Drivers/BSP/Components/vl53l0x/vl53l0x_api.c **** 	VL53L0X_Error Status = VL53L0X_ERROR_NONE;
 358:../Drivers/BSP/Components/vl53l0x/vl53l0x_api.c **** 	LOG_FUNCTION_START("");
 359:../Drivers/BSP/Components/vl53l0x/vl53l0x_api.c **** 
 360:../Drivers/BSP/Components/vl53l0x/vl53l0x_api.c **** 	Status = VL53L0X_WrByte(Dev, VL53L0X_REG_I2C_SLAVE_DEVICE_ADDRESS,
 635              		.loc 1 360 0
 636 0002 4A08     		lsrs	r2, r1, #1
 637 0004 8A21     		movs	r1, #138
 638              	.LVL62:
 639 0006 FFF7FEFF 		bl	VL53L0X_WrByte
 640              	.LVL63:
 361:../Drivers/BSP/Components/vl53l0x/vl53l0x_api.c **** 		DeviceAddress / 2);
 362:../Drivers/BSP/Components/vl53l0x/vl53l0x_api.c **** 
 363:../Drivers/BSP/Components/vl53l0x/vl53l0x_api.c **** 	LOG_FUNCTION_END(Status);
 364:../Drivers/BSP/Components/vl53l0x/vl53l0x_api.c **** 	return Status;
ARM GAS  /tmp/ccflrS73.s 			page 18


 365:../Drivers/BSP/Components/vl53l0x/vl53l0x_api.c **** }
 641              		.loc 1 365 0
 642 000a 08BD     		pop	{r3, pc}
 643              		.cfi_endproc
 644              	.LFE131:
 646              		.section	.text.VL53L0X_SetTuningSettingBuffer,"ax",%progbits
 647              		.align	2
 648              		.global	VL53L0X_SetTuningSettingBuffer
 649              		.thumb
 650              		.thumb_func
 652              	VL53L0X_SetTuningSettingBuffer:
 653              	.LFB133:
 366:../Drivers/BSP/Components/vl53l0x/vl53l0x_api.c **** 
 367:../Drivers/BSP/Components/vl53l0x/vl53l0x_api.c **** VL53L0X_Error VL53L0X_DataInit(VL53L0X_DEV Dev)
 368:../Drivers/BSP/Components/vl53l0x/vl53l0x_api.c **** {
 369:../Drivers/BSP/Components/vl53l0x/vl53l0x_api.c **** 	VL53L0X_Error Status = VL53L0X_ERROR_NONE;
 370:../Drivers/BSP/Components/vl53l0x/vl53l0x_api.c **** 	VL53L0X_DeviceParameters_t CurrentParameters;
 371:../Drivers/BSP/Components/vl53l0x/vl53l0x_api.c **** 	int i;
 372:../Drivers/BSP/Components/vl53l0x/vl53l0x_api.c **** 	uint8_t StopVariable;
 373:../Drivers/BSP/Components/vl53l0x/vl53l0x_api.c **** 
 374:../Drivers/BSP/Components/vl53l0x/vl53l0x_api.c **** 	LOG_FUNCTION_START("");
 375:../Drivers/BSP/Components/vl53l0x/vl53l0x_api.c **** 
 376:../Drivers/BSP/Components/vl53l0x/vl53l0x_api.c **** 	/* by default the I2C is running at 1V8 if you want to change it you
 377:../Drivers/BSP/Components/vl53l0x/vl53l0x_api.c **** 	 * need to include this define at compilation level. */
 378:../Drivers/BSP/Components/vl53l0x/vl53l0x_api.c **** #ifdef USE_I2C_2V8
 379:../Drivers/BSP/Components/vl53l0x/vl53l0x_api.c **** 	Status = VL53L0X_UpdateByte(Dev,
 380:../Drivers/BSP/Components/vl53l0x/vl53l0x_api.c **** 		VL53L0X_REG_VHV_CONFIG_PAD_SCL_SDA__EXTSUP_HV,
 381:../Drivers/BSP/Components/vl53l0x/vl53l0x_api.c **** 		0xFE,
 382:../Drivers/BSP/Components/vl53l0x/vl53l0x_api.c **** 		0x01);
 383:../Drivers/BSP/Components/vl53l0x/vl53l0x_api.c **** #endif
 384:../Drivers/BSP/Components/vl53l0x/vl53l0x_api.c **** 
 385:../Drivers/BSP/Components/vl53l0x/vl53l0x_api.c **** 	/* Set I2C standard mode */
 386:../Drivers/BSP/Components/vl53l0x/vl53l0x_api.c **** 	if (Status == VL53L0X_ERROR_NONE)
 387:../Drivers/BSP/Components/vl53l0x/vl53l0x_api.c **** 		Status = VL53L0X_WrByte(Dev, 0x88, 0x00);
 388:../Drivers/BSP/Components/vl53l0x/vl53l0x_api.c **** 
 389:../Drivers/BSP/Components/vl53l0x/vl53l0x_api.c **** 	VL53L0X_SETDEVICESPECIFICPARAMETER(Dev, ReadDataFromDeviceDone, 0);
 390:../Drivers/BSP/Components/vl53l0x/vl53l0x_api.c **** 
 391:../Drivers/BSP/Components/vl53l0x/vl53l0x_api.c **** #ifdef USE_IQC_STATION
 392:../Drivers/BSP/Components/vl53l0x/vl53l0x_api.c **** 	if (Status == VL53L0X_ERROR_NONE)
 393:../Drivers/BSP/Components/vl53l0x/vl53l0x_api.c **** 		Status = VL53L0X_apply_offset_adjustment(Dev);
 394:../Drivers/BSP/Components/vl53l0x/vl53l0x_api.c **** #endif
 395:../Drivers/BSP/Components/vl53l0x/vl53l0x_api.c **** 
 396:../Drivers/BSP/Components/vl53l0x/vl53l0x_api.c **** 	/* Default value is 1000 for Linearity Corrective Gain */
 397:../Drivers/BSP/Components/vl53l0x/vl53l0x_api.c **** 	PALDevDataSet(Dev, LinearityCorrectiveGain, 1000);
 398:../Drivers/BSP/Components/vl53l0x/vl53l0x_api.c **** 
 399:../Drivers/BSP/Components/vl53l0x/vl53l0x_api.c **** 	/* Dmax default Parameter */
 400:../Drivers/BSP/Components/vl53l0x/vl53l0x_api.c **** 	PALDevDataSet(Dev, DmaxCalRangeMilliMeter, 400);
 401:../Drivers/BSP/Components/vl53l0x/vl53l0x_api.c **** 	PALDevDataSet(Dev, DmaxCalSignalRateRtnMegaCps,
 402:../Drivers/BSP/Components/vl53l0x/vl53l0x_api.c **** 		(FixPoint1616_t)((0x00016B85))); /* 1.42 No Cover Glass*/
 403:../Drivers/BSP/Components/vl53l0x/vl53l0x_api.c **** 
 404:../Drivers/BSP/Components/vl53l0x/vl53l0x_api.c **** 	/* Set Default static parameters
 405:../Drivers/BSP/Components/vl53l0x/vl53l0x_api.c **** 	 *set first temporary values 9.44MHz * 65536 = 618660 */
 406:../Drivers/BSP/Components/vl53l0x/vl53l0x_api.c **** 	VL53L0X_SETDEVICESPECIFICPARAMETER(Dev, OscFrequencyMHz, 618660);
 407:../Drivers/BSP/Components/vl53l0x/vl53l0x_api.c **** 
 408:../Drivers/BSP/Components/vl53l0x/vl53l0x_api.c **** 	/* Set Default XTalkCompensationRateMegaCps to 0  */
 409:../Drivers/BSP/Components/vl53l0x/vl53l0x_api.c **** 	VL53L0X_SETPARAMETERFIELD(Dev, XTalkCompensationRateMegaCps, 0);
 410:../Drivers/BSP/Components/vl53l0x/vl53l0x_api.c **** 
ARM GAS  /tmp/ccflrS73.s 			page 19


 411:../Drivers/BSP/Components/vl53l0x/vl53l0x_api.c **** 	/* Get default parameters */
 412:../Drivers/BSP/Components/vl53l0x/vl53l0x_api.c **** 	Status = VL53L0X_GetDeviceParameters(Dev, &CurrentParameters);
 413:../Drivers/BSP/Components/vl53l0x/vl53l0x_api.c **** 	if (Status == VL53L0X_ERROR_NONE) {
 414:../Drivers/BSP/Components/vl53l0x/vl53l0x_api.c **** 		/* initialize PAL values */
 415:../Drivers/BSP/Components/vl53l0x/vl53l0x_api.c **** 		CurrentParameters.DeviceMode = VL53L0X_DEVICEMODE_SINGLE_RANGING;
 416:../Drivers/BSP/Components/vl53l0x/vl53l0x_api.c **** 		CurrentParameters.HistogramMode = VL53L0X_HISTOGRAMMODE_DISABLED;
 417:../Drivers/BSP/Components/vl53l0x/vl53l0x_api.c **** 		PALDevDataSet(Dev, CurrentParameters, CurrentParameters);
 418:../Drivers/BSP/Components/vl53l0x/vl53l0x_api.c **** 	}
 419:../Drivers/BSP/Components/vl53l0x/vl53l0x_api.c **** 
 420:../Drivers/BSP/Components/vl53l0x/vl53l0x_api.c **** 	/* Sigma estimator variable */
 421:../Drivers/BSP/Components/vl53l0x/vl53l0x_api.c **** 	PALDevDataSet(Dev, SigmaEstRefArray, 100);
 422:../Drivers/BSP/Components/vl53l0x/vl53l0x_api.c **** 	PALDevDataSet(Dev, SigmaEstEffPulseWidth, 900);
 423:../Drivers/BSP/Components/vl53l0x/vl53l0x_api.c **** 	PALDevDataSet(Dev, SigmaEstEffAmbWidth, 500);
 424:../Drivers/BSP/Components/vl53l0x/vl53l0x_api.c **** 	PALDevDataSet(Dev, targetRefRate, 0x0A00); /* 20 MCPS in 9:7 format */
 425:../Drivers/BSP/Components/vl53l0x/vl53l0x_api.c **** 
 426:../Drivers/BSP/Components/vl53l0x/vl53l0x_api.c **** 	/* Use internal default settings */
 427:../Drivers/BSP/Components/vl53l0x/vl53l0x_api.c **** 	PALDevDataSet(Dev, UseInternalTuningSettings, 1);
 428:../Drivers/BSP/Components/vl53l0x/vl53l0x_api.c **** 
 429:../Drivers/BSP/Components/vl53l0x/vl53l0x_api.c **** 	Status |= VL53L0X_WrByte(Dev, 0x80, 0x01);
 430:../Drivers/BSP/Components/vl53l0x/vl53l0x_api.c **** 	Status |= VL53L0X_WrByte(Dev, 0xFF, 0x01);
 431:../Drivers/BSP/Components/vl53l0x/vl53l0x_api.c **** 	Status |= VL53L0X_WrByte(Dev, 0x00, 0x00);
 432:../Drivers/BSP/Components/vl53l0x/vl53l0x_api.c **** 	Status |= VL53L0X_RdByte(Dev, 0x91, &StopVariable);
 433:../Drivers/BSP/Components/vl53l0x/vl53l0x_api.c **** 	PALDevDataSet(Dev, StopVariable, StopVariable);
 434:../Drivers/BSP/Components/vl53l0x/vl53l0x_api.c **** 	Status |= VL53L0X_WrByte(Dev, 0x00, 0x01);
 435:../Drivers/BSP/Components/vl53l0x/vl53l0x_api.c **** 	Status |= VL53L0X_WrByte(Dev, 0xFF, 0x00);
 436:../Drivers/BSP/Components/vl53l0x/vl53l0x_api.c **** 	Status |= VL53L0X_WrByte(Dev, 0x80, 0x00);
 437:../Drivers/BSP/Components/vl53l0x/vl53l0x_api.c **** 
 438:../Drivers/BSP/Components/vl53l0x/vl53l0x_api.c **** 	/* Enable all check */
 439:../Drivers/BSP/Components/vl53l0x/vl53l0x_api.c **** 	for (i = 0; i < VL53L0X_CHECKENABLE_NUMBER_OF_CHECKS; i++) {
 440:../Drivers/BSP/Components/vl53l0x/vl53l0x_api.c **** 		if (Status == VL53L0X_ERROR_NONE)
 441:../Drivers/BSP/Components/vl53l0x/vl53l0x_api.c **** 			Status |= VL53L0X_SetLimitCheckEnable(Dev, i, 1);
 442:../Drivers/BSP/Components/vl53l0x/vl53l0x_api.c **** 		else
 443:../Drivers/BSP/Components/vl53l0x/vl53l0x_api.c **** 			break;
 444:../Drivers/BSP/Components/vl53l0x/vl53l0x_api.c **** 
 445:../Drivers/BSP/Components/vl53l0x/vl53l0x_api.c **** 	}
 446:../Drivers/BSP/Components/vl53l0x/vl53l0x_api.c **** 
 447:../Drivers/BSP/Components/vl53l0x/vl53l0x_api.c **** 	/* Disable the following checks */
 448:../Drivers/BSP/Components/vl53l0x/vl53l0x_api.c **** 	if (Status == VL53L0X_ERROR_NONE)
 449:../Drivers/BSP/Components/vl53l0x/vl53l0x_api.c **** 		Status = VL53L0X_SetLimitCheckEnable(Dev,
 450:../Drivers/BSP/Components/vl53l0x/vl53l0x_api.c **** 			VL53L0X_CHECKENABLE_SIGNAL_REF_CLIP, 0);
 451:../Drivers/BSP/Components/vl53l0x/vl53l0x_api.c **** 
 452:../Drivers/BSP/Components/vl53l0x/vl53l0x_api.c **** 	if (Status == VL53L0X_ERROR_NONE)
 453:../Drivers/BSP/Components/vl53l0x/vl53l0x_api.c **** 		Status = VL53L0X_SetLimitCheckEnable(Dev,
 454:../Drivers/BSP/Components/vl53l0x/vl53l0x_api.c **** 			VL53L0X_CHECKENABLE_RANGE_IGNORE_THRESHOLD, 0);
 455:../Drivers/BSP/Components/vl53l0x/vl53l0x_api.c **** 
 456:../Drivers/BSP/Components/vl53l0x/vl53l0x_api.c **** 	if (Status == VL53L0X_ERROR_NONE)
 457:../Drivers/BSP/Components/vl53l0x/vl53l0x_api.c **** 		Status = VL53L0X_SetLimitCheckEnable(Dev,
 458:../Drivers/BSP/Components/vl53l0x/vl53l0x_api.c **** 			VL53L0X_CHECKENABLE_SIGNAL_RATE_MSRC, 0);
 459:../Drivers/BSP/Components/vl53l0x/vl53l0x_api.c **** 
 460:../Drivers/BSP/Components/vl53l0x/vl53l0x_api.c **** 	if (Status == VL53L0X_ERROR_NONE)
 461:../Drivers/BSP/Components/vl53l0x/vl53l0x_api.c **** 		Status = VL53L0X_SetLimitCheckEnable(Dev,
 462:../Drivers/BSP/Components/vl53l0x/vl53l0x_api.c **** 			VL53L0X_CHECKENABLE_SIGNAL_RATE_PRE_RANGE, 0);
 463:../Drivers/BSP/Components/vl53l0x/vl53l0x_api.c **** 
 464:../Drivers/BSP/Components/vl53l0x/vl53l0x_api.c **** 	/* Limit default values */
 465:../Drivers/BSP/Components/vl53l0x/vl53l0x_api.c **** 	if (Status == VL53L0X_ERROR_NONE) {
 466:../Drivers/BSP/Components/vl53l0x/vl53l0x_api.c **** 		Status = VL53L0X_SetLimitCheckValue(Dev,
 467:../Drivers/BSP/Components/vl53l0x/vl53l0x_api.c **** 			VL53L0X_CHECKENABLE_SIGMA_FINAL_RANGE,
ARM GAS  /tmp/ccflrS73.s 			page 20


 468:../Drivers/BSP/Components/vl53l0x/vl53l0x_api.c **** 				(FixPoint1616_t)(18 * 65536));
 469:../Drivers/BSP/Components/vl53l0x/vl53l0x_api.c **** 	}
 470:../Drivers/BSP/Components/vl53l0x/vl53l0x_api.c **** 	if (Status == VL53L0X_ERROR_NONE) {
 471:../Drivers/BSP/Components/vl53l0x/vl53l0x_api.c **** 		Status = VL53L0X_SetLimitCheckValue(Dev,
 472:../Drivers/BSP/Components/vl53l0x/vl53l0x_api.c **** 			VL53L0X_CHECKENABLE_SIGNAL_RATE_FINAL_RANGE,
 473:../Drivers/BSP/Components/vl53l0x/vl53l0x_api.c **** 				(FixPoint1616_t)(25 * 65536 / 100));
 474:../Drivers/BSP/Components/vl53l0x/vl53l0x_api.c **** 				/* 0.25 * 65536 */
 475:../Drivers/BSP/Components/vl53l0x/vl53l0x_api.c **** 	}
 476:../Drivers/BSP/Components/vl53l0x/vl53l0x_api.c **** 
 477:../Drivers/BSP/Components/vl53l0x/vl53l0x_api.c **** 	if (Status == VL53L0X_ERROR_NONE) {
 478:../Drivers/BSP/Components/vl53l0x/vl53l0x_api.c **** 		Status = VL53L0X_SetLimitCheckValue(Dev,
 479:../Drivers/BSP/Components/vl53l0x/vl53l0x_api.c **** 			VL53L0X_CHECKENABLE_SIGNAL_REF_CLIP,
 480:../Drivers/BSP/Components/vl53l0x/vl53l0x_api.c **** 				(FixPoint1616_t)(35 * 65536));
 481:../Drivers/BSP/Components/vl53l0x/vl53l0x_api.c **** 	}
 482:../Drivers/BSP/Components/vl53l0x/vl53l0x_api.c **** 
 483:../Drivers/BSP/Components/vl53l0x/vl53l0x_api.c **** 	if (Status == VL53L0X_ERROR_NONE) {
 484:../Drivers/BSP/Components/vl53l0x/vl53l0x_api.c **** 		Status = VL53L0X_SetLimitCheckValue(Dev,
 485:../Drivers/BSP/Components/vl53l0x/vl53l0x_api.c **** 			VL53L0X_CHECKENABLE_RANGE_IGNORE_THRESHOLD,
 486:../Drivers/BSP/Components/vl53l0x/vl53l0x_api.c **** 				(FixPoint1616_t)(0 * 65536));
 487:../Drivers/BSP/Components/vl53l0x/vl53l0x_api.c **** 	}
 488:../Drivers/BSP/Components/vl53l0x/vl53l0x_api.c **** 
 489:../Drivers/BSP/Components/vl53l0x/vl53l0x_api.c **** 	if (Status == VL53L0X_ERROR_NONE) {
 490:../Drivers/BSP/Components/vl53l0x/vl53l0x_api.c **** 
 491:../Drivers/BSP/Components/vl53l0x/vl53l0x_api.c **** 		PALDevDataSet(Dev, SequenceConfig, 0xFF);
 492:../Drivers/BSP/Components/vl53l0x/vl53l0x_api.c **** 		Status = VL53L0X_WrByte(Dev, VL53L0X_REG_SYSTEM_SEQUENCE_CONFIG,
 493:../Drivers/BSP/Components/vl53l0x/vl53l0x_api.c **** 			0xFF);
 494:../Drivers/BSP/Components/vl53l0x/vl53l0x_api.c **** 
 495:../Drivers/BSP/Components/vl53l0x/vl53l0x_api.c **** 		/* Set PAL state to tell that we are waiting for call to
 496:../Drivers/BSP/Components/vl53l0x/vl53l0x_api.c **** 		 * VL53L0X_StaticInit */
 497:../Drivers/BSP/Components/vl53l0x/vl53l0x_api.c **** 		PALDevDataSet(Dev, PalState, VL53L0X_STATE_WAIT_STATICINIT);
 498:../Drivers/BSP/Components/vl53l0x/vl53l0x_api.c **** 	}
 499:../Drivers/BSP/Components/vl53l0x/vl53l0x_api.c **** 
 500:../Drivers/BSP/Components/vl53l0x/vl53l0x_api.c **** 	if (Status == VL53L0X_ERROR_NONE)
 501:../Drivers/BSP/Components/vl53l0x/vl53l0x_api.c **** 		VL53L0X_SETDEVICESPECIFICPARAMETER(Dev, RefSpadsInitialised, 0);
 502:../Drivers/BSP/Components/vl53l0x/vl53l0x_api.c **** 
 503:../Drivers/BSP/Components/vl53l0x/vl53l0x_api.c **** 
 504:../Drivers/BSP/Components/vl53l0x/vl53l0x_api.c **** 	LOG_FUNCTION_END(Status);
 505:../Drivers/BSP/Components/vl53l0x/vl53l0x_api.c **** 	return Status;
 506:../Drivers/BSP/Components/vl53l0x/vl53l0x_api.c **** }
 507:../Drivers/BSP/Components/vl53l0x/vl53l0x_api.c **** 
 508:../Drivers/BSP/Components/vl53l0x/vl53l0x_api.c **** VL53L0X_Error VL53L0X_SetTuningSettingBuffer(VL53L0X_DEV Dev,
 509:../Drivers/BSP/Components/vl53l0x/vl53l0x_api.c **** 	uint8_t *pTuningSettingBuffer, uint8_t UseInternalTuningSettings)
 510:../Drivers/BSP/Components/vl53l0x/vl53l0x_api.c **** {
 654              		.loc 1 510 0
 655              		.cfi_startproc
 656              		@ args = 0, pretend = 0, frame = 0
 657              		@ frame_needed = 0, uses_anonymous_args = 0
 658              		@ link register save eliminated.
 659              	.LVL64:
 511:../Drivers/BSP/Components/vl53l0x/vl53l0x_api.c **** 	VL53L0X_Error Status = VL53L0X_ERROR_NONE;
 512:../Drivers/BSP/Components/vl53l0x/vl53l0x_api.c **** 
 513:../Drivers/BSP/Components/vl53l0x/vl53l0x_api.c **** 	LOG_FUNCTION_START("");
 514:../Drivers/BSP/Components/vl53l0x/vl53l0x_api.c **** 
 515:../Drivers/BSP/Components/vl53l0x/vl53l0x_api.c **** 	if (UseInternalTuningSettings == 1) {
 660              		.loc 1 515 0
 661 0000 012A     		cmp	r2, #1
 662 0002 04D1     		bne	.L39
ARM GAS  /tmp/ccflrS73.s 			page 21


 516:../Drivers/BSP/Components/vl53l0x/vl53l0x_api.c **** 		/* Force use internal settings */
 517:../Drivers/BSP/Components/vl53l0x/vl53l0x_api.c **** 		PALDevDataSet(Dev, UseInternalTuningSettings, 1);
 663              		.loc 1 517 0
 664 0004 0123     		movs	r3, #1
 665 0006 80F85031 		strb	r3, [r0, #336]
 511:../Drivers/BSP/Components/vl53l0x/vl53l0x_api.c **** 	VL53L0X_Error Status = VL53L0X_ERROR_NONE;
 666              		.loc 1 511 0
 667 000a 0020     		movs	r0, #0
 668              	.LVL65:
 669 000c 09E0     		b	.L40
 670              	.LVL66:
 671              	.L39:
 518:../Drivers/BSP/Components/vl53l0x/vl53l0x_api.c **** 	} else {
 519:../Drivers/BSP/Components/vl53l0x/vl53l0x_api.c **** 
 520:../Drivers/BSP/Components/vl53l0x/vl53l0x_api.c **** 		/* check that the first byte is not 0 */
 521:../Drivers/BSP/Components/vl53l0x/vl53l0x_api.c **** 		if (*pTuningSettingBuffer != 0) {
 672              		.loc 1 521 0
 673 000e 0B78     		ldrb	r3, [r1]	@ zero_extendqisi2
 674 0010 33B1     		cbz	r3, .L41
 522:../Drivers/BSP/Components/vl53l0x/vl53l0x_api.c **** 			PALDevDataSet(Dev, pTuningSettingsPointer,
 675              		.loc 1 522 0
 676 0012 C0F84C11 		str	r1, [r0, #332]
 523:../Drivers/BSP/Components/vl53l0x/vl53l0x_api.c **** 				pTuningSettingBuffer);
 524:../Drivers/BSP/Components/vl53l0x/vl53l0x_api.c **** 			PALDevDataSet(Dev, UseInternalTuningSettings, 0);
 677              		.loc 1 524 0
 678 0016 0023     		movs	r3, #0
 679 0018 80F85031 		strb	r3, [r0, #336]
 511:../Drivers/BSP/Components/vl53l0x/vl53l0x_api.c **** 
 680              		.loc 1 511 0
 681 001c 1846     		mov	r0, r3
 682              	.LVL67:
 683 001e 00E0     		b	.L40
 684              	.LVL68:
 685              	.L41:
 525:../Drivers/BSP/Components/vl53l0x/vl53l0x_api.c **** 
 526:../Drivers/BSP/Components/vl53l0x/vl53l0x_api.c **** 		} else {
 527:../Drivers/BSP/Components/vl53l0x/vl53l0x_api.c **** 			Status = VL53L0X_ERROR_INVALID_PARAMS;
 686              		.loc 1 527 0
 687 0020 FC20     		movs	r0, #252
 688              	.LVL69:
 689              	.L40:
 528:../Drivers/BSP/Components/vl53l0x/vl53l0x_api.c **** 		}
 529:../Drivers/BSP/Components/vl53l0x/vl53l0x_api.c **** 	}
 530:../Drivers/BSP/Components/vl53l0x/vl53l0x_api.c **** 
 531:../Drivers/BSP/Components/vl53l0x/vl53l0x_api.c **** 	LOG_FUNCTION_END(Status);
 532:../Drivers/BSP/Components/vl53l0x/vl53l0x_api.c **** 	return Status;
 533:../Drivers/BSP/Components/vl53l0x/vl53l0x_api.c **** }
 690              		.loc 1 533 0
 691 0022 40B2     		sxtb	r0, r0
 692 0024 7047     		bx	lr
 693              		.cfi_endproc
 694              	.LFE133:
 696 0026 00BF     		.section	.text.VL53L0X_GetTuningSettingBuffer,"ax",%progbits
 697              		.align	2
 698              		.global	VL53L0X_GetTuningSettingBuffer
 699              		.thumb
 700              		.thumb_func
ARM GAS  /tmp/ccflrS73.s 			page 22


 702              	VL53L0X_GetTuningSettingBuffer:
 703              	.LFB134:
 534:../Drivers/BSP/Components/vl53l0x/vl53l0x_api.c **** 
 535:../Drivers/BSP/Components/vl53l0x/vl53l0x_api.c **** VL53L0X_Error VL53L0X_GetTuningSettingBuffer(VL53L0X_DEV Dev,
 536:../Drivers/BSP/Components/vl53l0x/vl53l0x_api.c **** 	uint8_t **ppTuningSettingBuffer, uint8_t *pUseInternalTuningSettings)
 537:../Drivers/BSP/Components/vl53l0x/vl53l0x_api.c **** {
 704              		.loc 1 537 0
 705              		.cfi_startproc
 706              		@ args = 0, pretend = 0, frame = 0
 707              		@ frame_needed = 0, uses_anonymous_args = 0
 708              		@ link register save eliminated.
 709              	.LVL70:
 538:../Drivers/BSP/Components/vl53l0x/vl53l0x_api.c **** 	VL53L0X_Error Status = VL53L0X_ERROR_NONE;
 539:../Drivers/BSP/Components/vl53l0x/vl53l0x_api.c **** 
 540:../Drivers/BSP/Components/vl53l0x/vl53l0x_api.c **** 	LOG_FUNCTION_START("");
 541:../Drivers/BSP/Components/vl53l0x/vl53l0x_api.c **** 
 542:../Drivers/BSP/Components/vl53l0x/vl53l0x_api.c **** 	*ppTuningSettingBuffer = PALDevDataGet(Dev, pTuningSettingsPointer);
 710              		.loc 1 542 0
 711 0000 D0F84C31 		ldr	r3, [r0, #332]
 712 0004 0B60     		str	r3, [r1]
 543:../Drivers/BSP/Components/vl53l0x/vl53l0x_api.c **** 	*pUseInternalTuningSettings = PALDevDataGet(Dev,
 713              		.loc 1 543 0
 714 0006 90F85031 		ldrb	r3, [r0, #336]	@ zero_extendqisi2
 715 000a 1370     		strb	r3, [r2]
 544:../Drivers/BSP/Components/vl53l0x/vl53l0x_api.c **** 		UseInternalTuningSettings);
 545:../Drivers/BSP/Components/vl53l0x/vl53l0x_api.c **** 
 546:../Drivers/BSP/Components/vl53l0x/vl53l0x_api.c **** 	LOG_FUNCTION_END(Status);
 547:../Drivers/BSP/Components/vl53l0x/vl53l0x_api.c **** 	return Status;
 548:../Drivers/BSP/Components/vl53l0x/vl53l0x_api.c **** }
 716              		.loc 1 548 0
 717 000c 0020     		movs	r0, #0
 718              	.LVL71:
 719 000e 7047     		bx	lr
 720              		.cfi_endproc
 721              	.LFE134:
 723              		.section	.text.VL53L0X_WaitDeviceBooted,"ax",%progbits
 724              		.align	2
 725              		.global	VL53L0X_WaitDeviceBooted
 726              		.thumb
 727              		.thumb_func
 729              	VL53L0X_WaitDeviceBooted:
 730              	.LFB136:
 549:../Drivers/BSP/Components/vl53l0x/vl53l0x_api.c **** 
 550:../Drivers/BSP/Components/vl53l0x/vl53l0x_api.c **** VL53L0X_Error VL53L0X_StaticInit(VL53L0X_DEV Dev)
 551:../Drivers/BSP/Components/vl53l0x/vl53l0x_api.c **** {
 552:../Drivers/BSP/Components/vl53l0x/vl53l0x_api.c **** 	VL53L0X_Error Status = VL53L0X_ERROR_NONE;
 553:../Drivers/BSP/Components/vl53l0x/vl53l0x_api.c **** 	VL53L0X_DeviceParameters_t CurrentParameters = {0};
 554:../Drivers/BSP/Components/vl53l0x/vl53l0x_api.c **** 	uint8_t *pTuningSettingBuffer;
 555:../Drivers/BSP/Components/vl53l0x/vl53l0x_api.c **** 	uint16_t tempword = 0;
 556:../Drivers/BSP/Components/vl53l0x/vl53l0x_api.c **** 	uint8_t tempbyte = 0;
 557:../Drivers/BSP/Components/vl53l0x/vl53l0x_api.c **** 	uint8_t UseInternalTuningSettings = 0;
 558:../Drivers/BSP/Components/vl53l0x/vl53l0x_api.c **** 	uint32_t count = 0;
 559:../Drivers/BSP/Components/vl53l0x/vl53l0x_api.c **** 	uint8_t isApertureSpads = 0;
 560:../Drivers/BSP/Components/vl53l0x/vl53l0x_api.c **** 	uint32_t refSpadCount = 0;
 561:../Drivers/BSP/Components/vl53l0x/vl53l0x_api.c **** 	uint8_t ApertureSpads = 0;
 562:../Drivers/BSP/Components/vl53l0x/vl53l0x_api.c **** 	uint8_t vcselPulsePeriodPCLK;
 563:../Drivers/BSP/Components/vl53l0x/vl53l0x_api.c **** 	uint32_t seqTimeoutMicroSecs;
ARM GAS  /tmp/ccflrS73.s 			page 23


 564:../Drivers/BSP/Components/vl53l0x/vl53l0x_api.c **** 
 565:../Drivers/BSP/Components/vl53l0x/vl53l0x_api.c **** 	LOG_FUNCTION_START("");
 566:../Drivers/BSP/Components/vl53l0x/vl53l0x_api.c **** 
 567:../Drivers/BSP/Components/vl53l0x/vl53l0x_api.c **** 	Status = VL53L0X_get_info_from_device(Dev, 1);
 568:../Drivers/BSP/Components/vl53l0x/vl53l0x_api.c **** 
 569:../Drivers/BSP/Components/vl53l0x/vl53l0x_api.c **** 	/* set the ref spad from NVM */
 570:../Drivers/BSP/Components/vl53l0x/vl53l0x_api.c **** 	count	= (uint32_t)VL53L0X_GETDEVICESPECIFICPARAMETER(Dev,
 571:../Drivers/BSP/Components/vl53l0x/vl53l0x_api.c **** 		ReferenceSpadCount);
 572:../Drivers/BSP/Components/vl53l0x/vl53l0x_api.c **** 	ApertureSpads = VL53L0X_GETDEVICESPECIFICPARAMETER(Dev,
 573:../Drivers/BSP/Components/vl53l0x/vl53l0x_api.c **** 		ReferenceSpadType);
 574:../Drivers/BSP/Components/vl53l0x/vl53l0x_api.c **** 
 575:../Drivers/BSP/Components/vl53l0x/vl53l0x_api.c **** 	/* NVM value invalid */
 576:../Drivers/BSP/Components/vl53l0x/vl53l0x_api.c **** 	if ((ApertureSpads > 1) ||
 577:../Drivers/BSP/Components/vl53l0x/vl53l0x_api.c **** 		((ApertureSpads == 1) && (count > 32)) ||
 578:../Drivers/BSP/Components/vl53l0x/vl53l0x_api.c **** 		((ApertureSpads == 0) && (count > 12)))
 579:../Drivers/BSP/Components/vl53l0x/vl53l0x_api.c **** 		Status = VL53L0X_perform_ref_spad_management(Dev, &refSpadCount,
 580:../Drivers/BSP/Components/vl53l0x/vl53l0x_api.c **** 			&isApertureSpads);
 581:../Drivers/BSP/Components/vl53l0x/vl53l0x_api.c **** 	else
 582:../Drivers/BSP/Components/vl53l0x/vl53l0x_api.c **** 		Status = VL53L0X_set_reference_spads(Dev, count, ApertureSpads);
 583:../Drivers/BSP/Components/vl53l0x/vl53l0x_api.c **** 
 584:../Drivers/BSP/Components/vl53l0x/vl53l0x_api.c **** 
 585:../Drivers/BSP/Components/vl53l0x/vl53l0x_api.c **** 	/* Initialize tuning settings buffer to prevent compiler warning. */
 586:../Drivers/BSP/Components/vl53l0x/vl53l0x_api.c **** 	pTuningSettingBuffer = DefaultTuningSettings;
 587:../Drivers/BSP/Components/vl53l0x/vl53l0x_api.c **** 
 588:../Drivers/BSP/Components/vl53l0x/vl53l0x_api.c **** 	if (Status == VL53L0X_ERROR_NONE) {
 589:../Drivers/BSP/Components/vl53l0x/vl53l0x_api.c **** 		UseInternalTuningSettings = PALDevDataGet(Dev,
 590:../Drivers/BSP/Components/vl53l0x/vl53l0x_api.c **** 			UseInternalTuningSettings);
 591:../Drivers/BSP/Components/vl53l0x/vl53l0x_api.c **** 
 592:../Drivers/BSP/Components/vl53l0x/vl53l0x_api.c **** 		if (UseInternalTuningSettings == 0)
 593:../Drivers/BSP/Components/vl53l0x/vl53l0x_api.c **** 			pTuningSettingBuffer = PALDevDataGet(Dev,
 594:../Drivers/BSP/Components/vl53l0x/vl53l0x_api.c **** 				pTuningSettingsPointer);
 595:../Drivers/BSP/Components/vl53l0x/vl53l0x_api.c **** 		else
 596:../Drivers/BSP/Components/vl53l0x/vl53l0x_api.c **** 			pTuningSettingBuffer = DefaultTuningSettings;
 597:../Drivers/BSP/Components/vl53l0x/vl53l0x_api.c **** 
 598:../Drivers/BSP/Components/vl53l0x/vl53l0x_api.c **** 	}
 599:../Drivers/BSP/Components/vl53l0x/vl53l0x_api.c **** 
 600:../Drivers/BSP/Components/vl53l0x/vl53l0x_api.c **** 	if (Status == VL53L0X_ERROR_NONE)
 601:../Drivers/BSP/Components/vl53l0x/vl53l0x_api.c **** 		Status = VL53L0X_load_tuning_settings(Dev, pTuningSettingBuffer);
 602:../Drivers/BSP/Components/vl53l0x/vl53l0x_api.c **** 
 603:../Drivers/BSP/Components/vl53l0x/vl53l0x_api.c **** 
 604:../Drivers/BSP/Components/vl53l0x/vl53l0x_api.c **** 	/* Set interrupt config to new sample ready */
 605:../Drivers/BSP/Components/vl53l0x/vl53l0x_api.c **** 	if (Status == VL53L0X_ERROR_NONE) {
 606:../Drivers/BSP/Components/vl53l0x/vl53l0x_api.c **** 		Status = VL53L0X_SetGpioConfig(Dev, 0, 0,
 607:../Drivers/BSP/Components/vl53l0x/vl53l0x_api.c **** 		VL53L0X_REG_SYSTEM_INTERRUPT_GPIO_NEW_SAMPLE_READY,
 608:../Drivers/BSP/Components/vl53l0x/vl53l0x_api.c **** 		VL53L0X_INTERRUPTPOLARITY_LOW);
 609:../Drivers/BSP/Components/vl53l0x/vl53l0x_api.c **** 	}
 610:../Drivers/BSP/Components/vl53l0x/vl53l0x_api.c **** 
 611:../Drivers/BSP/Components/vl53l0x/vl53l0x_api.c **** 	if (Status == VL53L0X_ERROR_NONE) {
 612:../Drivers/BSP/Components/vl53l0x/vl53l0x_api.c **** 		Status = VL53L0X_WrByte(Dev, 0xFF, 0x01);
 613:../Drivers/BSP/Components/vl53l0x/vl53l0x_api.c **** 		Status |= VL53L0X_RdWord(Dev, 0x84, &tempword);
 614:../Drivers/BSP/Components/vl53l0x/vl53l0x_api.c **** 		Status |= VL53L0X_WrByte(Dev, 0xFF, 0x00);
 615:../Drivers/BSP/Components/vl53l0x/vl53l0x_api.c **** 	}
 616:../Drivers/BSP/Components/vl53l0x/vl53l0x_api.c **** 
 617:../Drivers/BSP/Components/vl53l0x/vl53l0x_api.c **** 	if (Status == VL53L0X_ERROR_NONE) {
 618:../Drivers/BSP/Components/vl53l0x/vl53l0x_api.c **** 		VL53L0X_SETDEVICESPECIFICPARAMETER(Dev, OscFrequencyMHz,
 619:../Drivers/BSP/Components/vl53l0x/vl53l0x_api.c **** 			VL53L0X_FIXPOINT412TOFIXPOINT1616(tempword));
 620:../Drivers/BSP/Components/vl53l0x/vl53l0x_api.c **** 	}
ARM GAS  /tmp/ccflrS73.s 			page 24


 621:../Drivers/BSP/Components/vl53l0x/vl53l0x_api.c **** 
 622:../Drivers/BSP/Components/vl53l0x/vl53l0x_api.c **** 	/* After static init, some device parameters may be changed,
 623:../Drivers/BSP/Components/vl53l0x/vl53l0x_api.c **** 	 * so update them */
 624:../Drivers/BSP/Components/vl53l0x/vl53l0x_api.c **** 	if (Status == VL53L0X_ERROR_NONE)
 625:../Drivers/BSP/Components/vl53l0x/vl53l0x_api.c **** 		Status = VL53L0X_GetDeviceParameters(Dev, &CurrentParameters);
 626:../Drivers/BSP/Components/vl53l0x/vl53l0x_api.c **** 
 627:../Drivers/BSP/Components/vl53l0x/vl53l0x_api.c **** 
 628:../Drivers/BSP/Components/vl53l0x/vl53l0x_api.c **** 	if (Status == VL53L0X_ERROR_NONE) {
 629:../Drivers/BSP/Components/vl53l0x/vl53l0x_api.c **** 		Status = VL53L0X_GetFractionEnable(Dev, &tempbyte);
 630:../Drivers/BSP/Components/vl53l0x/vl53l0x_api.c **** 		if (Status == VL53L0X_ERROR_NONE)
 631:../Drivers/BSP/Components/vl53l0x/vl53l0x_api.c **** 			PALDevDataSet(Dev, RangeFractionalEnable, tempbyte);
 632:../Drivers/BSP/Components/vl53l0x/vl53l0x_api.c **** 
 633:../Drivers/BSP/Components/vl53l0x/vl53l0x_api.c **** 	}
 634:../Drivers/BSP/Components/vl53l0x/vl53l0x_api.c **** 
 635:../Drivers/BSP/Components/vl53l0x/vl53l0x_api.c **** 	if (Status == VL53L0X_ERROR_NONE)
 636:../Drivers/BSP/Components/vl53l0x/vl53l0x_api.c **** 		PALDevDataSet(Dev, CurrentParameters, CurrentParameters);
 637:../Drivers/BSP/Components/vl53l0x/vl53l0x_api.c **** 
 638:../Drivers/BSP/Components/vl53l0x/vl53l0x_api.c **** 
 639:../Drivers/BSP/Components/vl53l0x/vl53l0x_api.c **** 	/* read the sequence config and save it */
 640:../Drivers/BSP/Components/vl53l0x/vl53l0x_api.c **** 	if (Status == VL53L0X_ERROR_NONE) {
 641:../Drivers/BSP/Components/vl53l0x/vl53l0x_api.c **** 		Status = VL53L0X_RdByte(Dev,
 642:../Drivers/BSP/Components/vl53l0x/vl53l0x_api.c **** 		VL53L0X_REG_SYSTEM_SEQUENCE_CONFIG, &tempbyte);
 643:../Drivers/BSP/Components/vl53l0x/vl53l0x_api.c **** 		if (Status == VL53L0X_ERROR_NONE)
 644:../Drivers/BSP/Components/vl53l0x/vl53l0x_api.c **** 			PALDevDataSet(Dev, SequenceConfig, tempbyte);
 645:../Drivers/BSP/Components/vl53l0x/vl53l0x_api.c **** 
 646:../Drivers/BSP/Components/vl53l0x/vl53l0x_api.c **** 	}
 647:../Drivers/BSP/Components/vl53l0x/vl53l0x_api.c **** 
 648:../Drivers/BSP/Components/vl53l0x/vl53l0x_api.c **** 	/* Disable MSRC and TCC by default */
 649:../Drivers/BSP/Components/vl53l0x/vl53l0x_api.c **** 	if (Status == VL53L0X_ERROR_NONE)
 650:../Drivers/BSP/Components/vl53l0x/vl53l0x_api.c **** 		Status = VL53L0X_SetSequenceStepEnable(Dev,
 651:../Drivers/BSP/Components/vl53l0x/vl53l0x_api.c **** 					VL53L0X_SEQUENCESTEP_TCC, 0);
 652:../Drivers/BSP/Components/vl53l0x/vl53l0x_api.c **** 
 653:../Drivers/BSP/Components/vl53l0x/vl53l0x_api.c **** 
 654:../Drivers/BSP/Components/vl53l0x/vl53l0x_api.c **** 	if (Status == VL53L0X_ERROR_NONE)
 655:../Drivers/BSP/Components/vl53l0x/vl53l0x_api.c **** 		Status = VL53L0X_SetSequenceStepEnable(Dev,
 656:../Drivers/BSP/Components/vl53l0x/vl53l0x_api.c **** 		VL53L0X_SEQUENCESTEP_MSRC, 0);
 657:../Drivers/BSP/Components/vl53l0x/vl53l0x_api.c **** 
 658:../Drivers/BSP/Components/vl53l0x/vl53l0x_api.c **** 
 659:../Drivers/BSP/Components/vl53l0x/vl53l0x_api.c **** 	/* Set PAL State to standby */
 660:../Drivers/BSP/Components/vl53l0x/vl53l0x_api.c **** 	if (Status == VL53L0X_ERROR_NONE)
 661:../Drivers/BSP/Components/vl53l0x/vl53l0x_api.c **** 		PALDevDataSet(Dev, PalState, VL53L0X_STATE_IDLE);
 662:../Drivers/BSP/Components/vl53l0x/vl53l0x_api.c **** 
 663:../Drivers/BSP/Components/vl53l0x/vl53l0x_api.c **** 
 664:../Drivers/BSP/Components/vl53l0x/vl53l0x_api.c **** 
 665:../Drivers/BSP/Components/vl53l0x/vl53l0x_api.c **** 	/* Store pre-range vcsel period */
 666:../Drivers/BSP/Components/vl53l0x/vl53l0x_api.c **** 	if (Status == VL53L0X_ERROR_NONE) {
 667:../Drivers/BSP/Components/vl53l0x/vl53l0x_api.c **** 		Status = VL53L0X_GetVcselPulsePeriod(
 668:../Drivers/BSP/Components/vl53l0x/vl53l0x_api.c **** 			Dev,
 669:../Drivers/BSP/Components/vl53l0x/vl53l0x_api.c **** 			VL53L0X_VCSEL_PERIOD_PRE_RANGE,
 670:../Drivers/BSP/Components/vl53l0x/vl53l0x_api.c **** 			&vcselPulsePeriodPCLK);
 671:../Drivers/BSP/Components/vl53l0x/vl53l0x_api.c **** 	}
 672:../Drivers/BSP/Components/vl53l0x/vl53l0x_api.c **** 
 673:../Drivers/BSP/Components/vl53l0x/vl53l0x_api.c **** 	if (Status == VL53L0X_ERROR_NONE) {
 674:../Drivers/BSP/Components/vl53l0x/vl53l0x_api.c **** 			VL53L0X_SETDEVICESPECIFICPARAMETER(
 675:../Drivers/BSP/Components/vl53l0x/vl53l0x_api.c **** 				Dev,
 676:../Drivers/BSP/Components/vl53l0x/vl53l0x_api.c **** 				PreRangeVcselPulsePeriod,
 677:../Drivers/BSP/Components/vl53l0x/vl53l0x_api.c **** 				vcselPulsePeriodPCLK);
ARM GAS  /tmp/ccflrS73.s 			page 25


 678:../Drivers/BSP/Components/vl53l0x/vl53l0x_api.c **** 	}
 679:../Drivers/BSP/Components/vl53l0x/vl53l0x_api.c **** 
 680:../Drivers/BSP/Components/vl53l0x/vl53l0x_api.c **** 	/* Store final-range vcsel period */
 681:../Drivers/BSP/Components/vl53l0x/vl53l0x_api.c **** 	if (Status == VL53L0X_ERROR_NONE) {
 682:../Drivers/BSP/Components/vl53l0x/vl53l0x_api.c **** 		Status = VL53L0X_GetVcselPulsePeriod(
 683:../Drivers/BSP/Components/vl53l0x/vl53l0x_api.c **** 			Dev,
 684:../Drivers/BSP/Components/vl53l0x/vl53l0x_api.c **** 			VL53L0X_VCSEL_PERIOD_FINAL_RANGE,
 685:../Drivers/BSP/Components/vl53l0x/vl53l0x_api.c **** 			&vcselPulsePeriodPCLK);
 686:../Drivers/BSP/Components/vl53l0x/vl53l0x_api.c **** 	}
 687:../Drivers/BSP/Components/vl53l0x/vl53l0x_api.c **** 
 688:../Drivers/BSP/Components/vl53l0x/vl53l0x_api.c **** 	if (Status == VL53L0X_ERROR_NONE) {
 689:../Drivers/BSP/Components/vl53l0x/vl53l0x_api.c **** 			VL53L0X_SETDEVICESPECIFICPARAMETER(
 690:../Drivers/BSP/Components/vl53l0x/vl53l0x_api.c **** 				Dev,
 691:../Drivers/BSP/Components/vl53l0x/vl53l0x_api.c **** 				FinalRangeVcselPulsePeriod,
 692:../Drivers/BSP/Components/vl53l0x/vl53l0x_api.c **** 				vcselPulsePeriodPCLK);
 693:../Drivers/BSP/Components/vl53l0x/vl53l0x_api.c **** 	}
 694:../Drivers/BSP/Components/vl53l0x/vl53l0x_api.c **** 
 695:../Drivers/BSP/Components/vl53l0x/vl53l0x_api.c **** 	/* Store pre-range timeout */
 696:../Drivers/BSP/Components/vl53l0x/vl53l0x_api.c **** 	if (Status == VL53L0X_ERROR_NONE) {
 697:../Drivers/BSP/Components/vl53l0x/vl53l0x_api.c **** 		Status = get_sequence_step_timeout(
 698:../Drivers/BSP/Components/vl53l0x/vl53l0x_api.c **** 			Dev,
 699:../Drivers/BSP/Components/vl53l0x/vl53l0x_api.c **** 			VL53L0X_SEQUENCESTEP_PRE_RANGE,
 700:../Drivers/BSP/Components/vl53l0x/vl53l0x_api.c **** 			&seqTimeoutMicroSecs);
 701:../Drivers/BSP/Components/vl53l0x/vl53l0x_api.c **** 	}
 702:../Drivers/BSP/Components/vl53l0x/vl53l0x_api.c **** 
 703:../Drivers/BSP/Components/vl53l0x/vl53l0x_api.c **** 	if (Status == VL53L0X_ERROR_NONE) {
 704:../Drivers/BSP/Components/vl53l0x/vl53l0x_api.c **** 		VL53L0X_SETDEVICESPECIFICPARAMETER(
 705:../Drivers/BSP/Components/vl53l0x/vl53l0x_api.c **** 			Dev,
 706:../Drivers/BSP/Components/vl53l0x/vl53l0x_api.c **** 			PreRangeTimeoutMicroSecs,
 707:../Drivers/BSP/Components/vl53l0x/vl53l0x_api.c **** 			seqTimeoutMicroSecs);
 708:../Drivers/BSP/Components/vl53l0x/vl53l0x_api.c **** 	}
 709:../Drivers/BSP/Components/vl53l0x/vl53l0x_api.c **** 
 710:../Drivers/BSP/Components/vl53l0x/vl53l0x_api.c **** 	/* Store final-range timeout */
 711:../Drivers/BSP/Components/vl53l0x/vl53l0x_api.c **** 	if (Status == VL53L0X_ERROR_NONE) {
 712:../Drivers/BSP/Components/vl53l0x/vl53l0x_api.c **** 		Status = get_sequence_step_timeout(
 713:../Drivers/BSP/Components/vl53l0x/vl53l0x_api.c **** 			Dev,
 714:../Drivers/BSP/Components/vl53l0x/vl53l0x_api.c **** 			VL53L0X_SEQUENCESTEP_FINAL_RANGE,
 715:../Drivers/BSP/Components/vl53l0x/vl53l0x_api.c **** 			&seqTimeoutMicroSecs);
 716:../Drivers/BSP/Components/vl53l0x/vl53l0x_api.c **** 	}
 717:../Drivers/BSP/Components/vl53l0x/vl53l0x_api.c **** 
 718:../Drivers/BSP/Components/vl53l0x/vl53l0x_api.c **** 	if (Status == VL53L0X_ERROR_NONE) {
 719:../Drivers/BSP/Components/vl53l0x/vl53l0x_api.c **** 		VL53L0X_SETDEVICESPECIFICPARAMETER(
 720:../Drivers/BSP/Components/vl53l0x/vl53l0x_api.c **** 			Dev,
 721:../Drivers/BSP/Components/vl53l0x/vl53l0x_api.c **** 			FinalRangeTimeoutMicroSecs,
 722:../Drivers/BSP/Components/vl53l0x/vl53l0x_api.c **** 			seqTimeoutMicroSecs);
 723:../Drivers/BSP/Components/vl53l0x/vl53l0x_api.c **** 	}
 724:../Drivers/BSP/Components/vl53l0x/vl53l0x_api.c **** 
 725:../Drivers/BSP/Components/vl53l0x/vl53l0x_api.c **** 	LOG_FUNCTION_END(Status);
 726:../Drivers/BSP/Components/vl53l0x/vl53l0x_api.c **** 	return Status;
 727:../Drivers/BSP/Components/vl53l0x/vl53l0x_api.c **** }
 728:../Drivers/BSP/Components/vl53l0x/vl53l0x_api.c **** 
 729:../Drivers/BSP/Components/vl53l0x/vl53l0x_api.c **** VL53L0X_Error VL53L0X_WaitDeviceBooted(VL53L0X_DEV Dev)
 730:../Drivers/BSP/Components/vl53l0x/vl53l0x_api.c **** {
 731              		.loc 1 730 0
 732              		.cfi_startproc
 733              		@ args = 0, pretend = 0, frame = 0
 734              		@ frame_needed = 0, uses_anonymous_args = 0
ARM GAS  /tmp/ccflrS73.s 			page 26


 735              		@ link register save eliminated.
 736              	.LVL72:
 731:../Drivers/BSP/Components/vl53l0x/vl53l0x_api.c **** 	VL53L0X_Error Status = VL53L0X_ERROR_NOT_IMPLEMENTED;
 732:../Drivers/BSP/Components/vl53l0x/vl53l0x_api.c **** 	LOG_FUNCTION_START("");
 733:../Drivers/BSP/Components/vl53l0x/vl53l0x_api.c **** 
 734:../Drivers/BSP/Components/vl53l0x/vl53l0x_api.c **** 	/* not implemented on VL53L0X */
 735:../Drivers/BSP/Components/vl53l0x/vl53l0x_api.c **** 
 736:../Drivers/BSP/Components/vl53l0x/vl53l0x_api.c **** 	LOG_FUNCTION_END(Status);
 737:../Drivers/BSP/Components/vl53l0x/vl53l0x_api.c **** 	return Status;
 738:../Drivers/BSP/Components/vl53l0x/vl53l0x_api.c **** }
 737              		.loc 1 738 0
 738 0000 6FF06200 		mvn	r0, #98
 739              	.LVL73:
 740 0004 7047     		bx	lr
 741              		.cfi_endproc
 742              	.LFE136:
 744 0006 00BF     		.section	.text.VL53L0X_ResetDevice,"ax",%progbits
 745              		.align	2
 746              		.global	VL53L0X_ResetDevice
 747              		.thumb
 748              		.thumb_func
 750              	VL53L0X_ResetDevice:
 751              	.LFB137:
 739:../Drivers/BSP/Components/vl53l0x/vl53l0x_api.c **** 
 740:../Drivers/BSP/Components/vl53l0x/vl53l0x_api.c **** VL53L0X_Error VL53L0X_ResetDevice(VL53L0X_DEV Dev)
 741:../Drivers/BSP/Components/vl53l0x/vl53l0x_api.c **** {
 752              		.loc 1 741 0
 753              		.cfi_startproc
 754              		@ args = 0, pretend = 0, frame = 8
 755              		@ frame_needed = 0, uses_anonymous_args = 0
 756              	.LVL74:
 757 0000 30B5     		push	{r4, r5, lr}
 758              	.LCFI21:
 759              		.cfi_def_cfa_offset 12
 760              		.cfi_offset 4, -12
 761              		.cfi_offset 5, -8
 762              		.cfi_offset 14, -4
 763 0002 83B0     		sub	sp, sp, #12
 764              	.LCFI22:
 765              		.cfi_def_cfa_offset 24
 766 0004 0446     		mov	r4, r0
 767              	.LVL75:
 742:../Drivers/BSP/Components/vl53l0x/vl53l0x_api.c **** 	VL53L0X_Error Status = VL53L0X_ERROR_NONE;
 743:../Drivers/BSP/Components/vl53l0x/vl53l0x_api.c **** 	uint8_t Byte;
 744:../Drivers/BSP/Components/vl53l0x/vl53l0x_api.c **** 	LOG_FUNCTION_START("");
 745:../Drivers/BSP/Components/vl53l0x/vl53l0x_api.c **** 
 746:../Drivers/BSP/Components/vl53l0x/vl53l0x_api.c **** 	/* Set reset bit */
 747:../Drivers/BSP/Components/vl53l0x/vl53l0x_api.c **** 	Status = VL53L0X_WrByte(Dev, VL53L0X_REG_SOFT_RESET_GO2_SOFT_RESET_N,
 768              		.loc 1 747 0
 769 0006 BF21     		movs	r1, #191
 770 0008 0022     		movs	r2, #0
 771 000a FFF7FEFF 		bl	VL53L0X_WrByte
 772              	.LVL76:
 748:../Drivers/BSP/Components/vl53l0x/vl53l0x_api.c **** 		0x00);
 749:../Drivers/BSP/Components/vl53l0x/vl53l0x_api.c **** 
 750:../Drivers/BSP/Components/vl53l0x/vl53l0x_api.c **** 	/* Wait for some time */
 751:../Drivers/BSP/Components/vl53l0x/vl53l0x_api.c **** 	if (Status == VL53L0X_ERROR_NONE) {
ARM GAS  /tmp/ccflrS73.s 			page 27


 773              		.loc 1 751 0
 774 000e 48B9     		cbnz	r0, .L45
 775              	.LVL77:
 776              	.L46:
 752:../Drivers/BSP/Components/vl53l0x/vl53l0x_api.c **** 		do {
 753:../Drivers/BSP/Components/vl53l0x/vl53l0x_api.c **** 			Status = VL53L0X_RdByte(Dev,
 777              		.loc 1 753 0 discriminator 1
 778 0010 2046     		mov	r0, r4
 779 0012 C021     		movs	r1, #192
 780 0014 0DF10702 		add	r2, sp, #7
 781 0018 FFF7FEFF 		bl	VL53L0X_RdByte
 782              	.LVL78:
 754:../Drivers/BSP/Components/vl53l0x/vl53l0x_api.c **** 			VL53L0X_REG_IDENTIFICATION_MODEL_ID, &Byte);
 755:../Drivers/BSP/Components/vl53l0x/vl53l0x_api.c **** 		} while (Byte != 0x00);
 783              		.loc 1 755 0 discriminator 1
 784 001c 9DF80730 		ldrb	r3, [sp, #7]	@ zero_extendqisi2
 785 0020 002B     		cmp	r3, #0
 786 0022 F5D1     		bne	.L46
 787              	.L45:
 756:../Drivers/BSP/Components/vl53l0x/vl53l0x_api.c **** 	}
 757:../Drivers/BSP/Components/vl53l0x/vl53l0x_api.c **** 
 758:../Drivers/BSP/Components/vl53l0x/vl53l0x_api.c **** 	VL53L0X_PollingDelay(Dev);
 788              		.loc 1 758 0
 789 0024 2046     		mov	r0, r4
 790 0026 FFF7FEFF 		bl	VL53L0X_PollingDelay
 791              	.LVL79:
 759:../Drivers/BSP/Components/vl53l0x/vl53l0x_api.c **** 
 760:../Drivers/BSP/Components/vl53l0x/vl53l0x_api.c **** 	/* Release reset */
 761:../Drivers/BSP/Components/vl53l0x/vl53l0x_api.c **** 	Status = VL53L0X_WrByte(Dev, VL53L0X_REG_SOFT_RESET_GO2_SOFT_RESET_N,
 792              		.loc 1 761 0
 793 002a 2046     		mov	r0, r4
 794 002c BF21     		movs	r1, #191
 795 002e 0122     		movs	r2, #1
 796 0030 FFF7FEFF 		bl	VL53L0X_WrByte
 797              	.LVL80:
 762:../Drivers/BSP/Components/vl53l0x/vl53l0x_api.c **** 		0x01);
 763:../Drivers/BSP/Components/vl53l0x/vl53l0x_api.c **** 
 764:../Drivers/BSP/Components/vl53l0x/vl53l0x_api.c **** 	/* Wait until correct boot-up of the device */
 765:../Drivers/BSP/Components/vl53l0x/vl53l0x_api.c **** 	if (Status == VL53L0X_ERROR_NONE) {
 798              		.loc 1 765 0
 799 0034 0546     		mov	r5, r0
 800 0036 50B9     		cbnz	r0, .L47
 801              	.LVL81:
 802              	.L48:
 766:../Drivers/BSP/Components/vl53l0x/vl53l0x_api.c **** 		do {
 767:../Drivers/BSP/Components/vl53l0x/vl53l0x_api.c **** 			Status = VL53L0X_RdByte(Dev,
 803              		.loc 1 767 0 discriminator 1
 804 0038 2046     		mov	r0, r4
 805 003a C021     		movs	r1, #192
 806 003c 0DF10702 		add	r2, sp, #7
 807 0040 FFF7FEFF 		bl	VL53L0X_RdByte
 808              	.LVL82:
 809 0044 0546     		mov	r5, r0
 810              	.LVL83:
 768:../Drivers/BSP/Components/vl53l0x/vl53l0x_api.c **** 			VL53L0X_REG_IDENTIFICATION_MODEL_ID, &Byte);
 769:../Drivers/BSP/Components/vl53l0x/vl53l0x_api.c **** 		} while (Byte == 0x00);
 811              		.loc 1 769 0 discriminator 1
ARM GAS  /tmp/ccflrS73.s 			page 28


 812 0046 9DF80730 		ldrb	r3, [sp, #7]	@ zero_extendqisi2
 813 004a 002B     		cmp	r3, #0
 814 004c F4D0     		beq	.L48
 815              	.LVL84:
 816              	.L47:
 770:../Drivers/BSP/Components/vl53l0x/vl53l0x_api.c **** 	}
 771:../Drivers/BSP/Components/vl53l0x/vl53l0x_api.c **** 
 772:../Drivers/BSP/Components/vl53l0x/vl53l0x_api.c **** 	VL53L0X_PollingDelay(Dev);
 817              		.loc 1 772 0
 818 004e 2046     		mov	r0, r4
 819 0050 FFF7FEFF 		bl	VL53L0X_PollingDelay
 820              	.LVL85:
 773:../Drivers/BSP/Components/vl53l0x/vl53l0x_api.c **** 
 774:../Drivers/BSP/Components/vl53l0x/vl53l0x_api.c **** 	/* Set PAL State to VL53L0X_STATE_POWERDOWN */
 775:../Drivers/BSP/Components/vl53l0x/vl53l0x_api.c **** 	if (Status == VL53L0X_ERROR_NONE)
 821              		.loc 1 775 0
 822 0054 15B9     		cbnz	r5, .L49
 776:../Drivers/BSP/Components/vl53l0x/vl53l0x_api.c **** 		PALDevDataSet(Dev, PalState, VL53L0X_STATE_POWERDOWN);
 823              		.loc 1 776 0
 824 0056 0023     		movs	r3, #0
 825 0058 84F83231 		strb	r3, [r4, #306]
 826              	.L49:
 777:../Drivers/BSP/Components/vl53l0x/vl53l0x_api.c **** 
 778:../Drivers/BSP/Components/vl53l0x/vl53l0x_api.c **** 
 779:../Drivers/BSP/Components/vl53l0x/vl53l0x_api.c **** 	LOG_FUNCTION_END(Status);
 780:../Drivers/BSP/Components/vl53l0x/vl53l0x_api.c **** 	return Status;
 781:../Drivers/BSP/Components/vl53l0x/vl53l0x_api.c **** }
 827              		.loc 1 781 0
 828 005c 68B2     		sxtb	r0, r5
 829 005e 03B0     		add	sp, sp, #12
 830              	.LCFI23:
 831              		.cfi_def_cfa_offset 12
 832              		@ sp needed
 833 0060 30BD     		pop	{r4, r5, pc}
 834              		.cfi_endproc
 835              	.LFE137:
 837 0062 00BF     		.section	.text.VL53L0X_SetDeviceMode,"ax",%progbits
 838              		.align	2
 839              		.global	VL53L0X_SetDeviceMode
 840              		.thumb
 841              		.thumb_func
 843              	VL53L0X_SetDeviceMode:
 844              	.LFB140:
 782:../Drivers/BSP/Components/vl53l0x/vl53l0x_api.c **** /* End Group PAL Init Functions */
 783:../Drivers/BSP/Components/vl53l0x/vl53l0x_api.c **** 
 784:../Drivers/BSP/Components/vl53l0x/vl53l0x_api.c **** /* Group PAL Parameters Functions */
 785:../Drivers/BSP/Components/vl53l0x/vl53l0x_api.c **** VL53L0X_Error VL53L0X_SetDeviceParameters(VL53L0X_DEV Dev,
 786:../Drivers/BSP/Components/vl53l0x/vl53l0x_api.c **** 	const VL53L0X_DeviceParameters_t *pDeviceParameters)
 787:../Drivers/BSP/Components/vl53l0x/vl53l0x_api.c **** {
 788:../Drivers/BSP/Components/vl53l0x/vl53l0x_api.c **** 	VL53L0X_Error Status = VL53L0X_ERROR_NONE;
 789:../Drivers/BSP/Components/vl53l0x/vl53l0x_api.c **** 	int i;
 790:../Drivers/BSP/Components/vl53l0x/vl53l0x_api.c **** 	LOG_FUNCTION_START("");
 791:../Drivers/BSP/Components/vl53l0x/vl53l0x_api.c **** 	Status = VL53L0X_SetDeviceMode(Dev, pDeviceParameters->DeviceMode);
 792:../Drivers/BSP/Components/vl53l0x/vl53l0x_api.c **** 
 793:../Drivers/BSP/Components/vl53l0x/vl53l0x_api.c **** 	if (Status == VL53L0X_ERROR_NONE)
 794:../Drivers/BSP/Components/vl53l0x/vl53l0x_api.c **** 		Status = VL53L0X_SetInterMeasurementPeriodMilliSeconds(Dev,
 795:../Drivers/BSP/Components/vl53l0x/vl53l0x_api.c **** 			pDeviceParameters->InterMeasurementPeriodMilliSeconds);
ARM GAS  /tmp/ccflrS73.s 			page 29


 796:../Drivers/BSP/Components/vl53l0x/vl53l0x_api.c **** 
 797:../Drivers/BSP/Components/vl53l0x/vl53l0x_api.c **** 
 798:../Drivers/BSP/Components/vl53l0x/vl53l0x_api.c **** 	if (Status == VL53L0X_ERROR_NONE)
 799:../Drivers/BSP/Components/vl53l0x/vl53l0x_api.c **** 		Status = VL53L0X_SetXTalkCompensationRateMegaCps(Dev,
 800:../Drivers/BSP/Components/vl53l0x/vl53l0x_api.c **** 			pDeviceParameters->XTalkCompensationRateMegaCps);
 801:../Drivers/BSP/Components/vl53l0x/vl53l0x_api.c **** 
 802:../Drivers/BSP/Components/vl53l0x/vl53l0x_api.c **** 
 803:../Drivers/BSP/Components/vl53l0x/vl53l0x_api.c **** 	if (Status == VL53L0X_ERROR_NONE)
 804:../Drivers/BSP/Components/vl53l0x/vl53l0x_api.c **** 		Status = VL53L0X_SetOffsetCalibrationDataMicroMeter(Dev,
 805:../Drivers/BSP/Components/vl53l0x/vl53l0x_api.c **** 			pDeviceParameters->RangeOffsetMicroMeters);
 806:../Drivers/BSP/Components/vl53l0x/vl53l0x_api.c **** 
 807:../Drivers/BSP/Components/vl53l0x/vl53l0x_api.c **** 
 808:../Drivers/BSP/Components/vl53l0x/vl53l0x_api.c **** 	for (i = 0; i < VL53L0X_CHECKENABLE_NUMBER_OF_CHECKS; i++) {
 809:../Drivers/BSP/Components/vl53l0x/vl53l0x_api.c **** 		if (Status == VL53L0X_ERROR_NONE)
 810:../Drivers/BSP/Components/vl53l0x/vl53l0x_api.c **** 			Status |= VL53L0X_SetLimitCheckEnable(Dev, i,
 811:../Drivers/BSP/Components/vl53l0x/vl53l0x_api.c **** 				pDeviceParameters->LimitChecksEnable[i]);
 812:../Drivers/BSP/Components/vl53l0x/vl53l0x_api.c **** 		else
 813:../Drivers/BSP/Components/vl53l0x/vl53l0x_api.c **** 			break;
 814:../Drivers/BSP/Components/vl53l0x/vl53l0x_api.c **** 
 815:../Drivers/BSP/Components/vl53l0x/vl53l0x_api.c **** 		if (Status == VL53L0X_ERROR_NONE)
 816:../Drivers/BSP/Components/vl53l0x/vl53l0x_api.c **** 			Status |= VL53L0X_SetLimitCheckValue(Dev, i,
 817:../Drivers/BSP/Components/vl53l0x/vl53l0x_api.c **** 				pDeviceParameters->LimitChecksValue[i]);
 818:../Drivers/BSP/Components/vl53l0x/vl53l0x_api.c **** 		else
 819:../Drivers/BSP/Components/vl53l0x/vl53l0x_api.c **** 			break;
 820:../Drivers/BSP/Components/vl53l0x/vl53l0x_api.c **** 
 821:../Drivers/BSP/Components/vl53l0x/vl53l0x_api.c **** 	}
 822:../Drivers/BSP/Components/vl53l0x/vl53l0x_api.c **** 
 823:../Drivers/BSP/Components/vl53l0x/vl53l0x_api.c **** 	if (Status == VL53L0X_ERROR_NONE)
 824:../Drivers/BSP/Components/vl53l0x/vl53l0x_api.c **** 		Status = VL53L0X_SetWrapAroundCheckEnable(Dev,
 825:../Drivers/BSP/Components/vl53l0x/vl53l0x_api.c **** 			pDeviceParameters->WrapAroundCheckEnable);
 826:../Drivers/BSP/Components/vl53l0x/vl53l0x_api.c **** 
 827:../Drivers/BSP/Components/vl53l0x/vl53l0x_api.c **** 	if (Status == VL53L0X_ERROR_NONE)
 828:../Drivers/BSP/Components/vl53l0x/vl53l0x_api.c **** 		Status = VL53L0X_SetMeasurementTimingBudgetMicroSeconds(Dev,
 829:../Drivers/BSP/Components/vl53l0x/vl53l0x_api.c **** 			pDeviceParameters->MeasurementTimingBudgetMicroSeconds);
 830:../Drivers/BSP/Components/vl53l0x/vl53l0x_api.c **** 
 831:../Drivers/BSP/Components/vl53l0x/vl53l0x_api.c **** 
 832:../Drivers/BSP/Components/vl53l0x/vl53l0x_api.c **** 	LOG_FUNCTION_END(Status);
 833:../Drivers/BSP/Components/vl53l0x/vl53l0x_api.c **** 	return Status;
 834:../Drivers/BSP/Components/vl53l0x/vl53l0x_api.c **** }
 835:../Drivers/BSP/Components/vl53l0x/vl53l0x_api.c **** 
 836:../Drivers/BSP/Components/vl53l0x/vl53l0x_api.c **** VL53L0X_Error VL53L0X_GetDeviceParameters(VL53L0X_DEV Dev,
 837:../Drivers/BSP/Components/vl53l0x/vl53l0x_api.c **** 	VL53L0X_DeviceParameters_t *pDeviceParameters)
 838:../Drivers/BSP/Components/vl53l0x/vl53l0x_api.c **** {
 839:../Drivers/BSP/Components/vl53l0x/vl53l0x_api.c **** 	VL53L0X_Error Status = VL53L0X_ERROR_NONE;
 840:../Drivers/BSP/Components/vl53l0x/vl53l0x_api.c **** 	int i;
 841:../Drivers/BSP/Components/vl53l0x/vl53l0x_api.c **** 
 842:../Drivers/BSP/Components/vl53l0x/vl53l0x_api.c **** 	LOG_FUNCTION_START("");
 843:../Drivers/BSP/Components/vl53l0x/vl53l0x_api.c **** 
 844:../Drivers/BSP/Components/vl53l0x/vl53l0x_api.c **** 	Status = VL53L0X_GetDeviceMode(Dev, &(pDeviceParameters->DeviceMode));
 845:../Drivers/BSP/Components/vl53l0x/vl53l0x_api.c **** 
 846:../Drivers/BSP/Components/vl53l0x/vl53l0x_api.c **** 	if (Status == VL53L0X_ERROR_NONE)
 847:../Drivers/BSP/Components/vl53l0x/vl53l0x_api.c **** 		Status = VL53L0X_GetInterMeasurementPeriodMilliSeconds(Dev,
 848:../Drivers/BSP/Components/vl53l0x/vl53l0x_api.c **** 		&(pDeviceParameters->InterMeasurementPeriodMilliSeconds));
 849:../Drivers/BSP/Components/vl53l0x/vl53l0x_api.c **** 
 850:../Drivers/BSP/Components/vl53l0x/vl53l0x_api.c **** 
 851:../Drivers/BSP/Components/vl53l0x/vl53l0x_api.c **** 	if (Status == VL53L0X_ERROR_NONE)
 852:../Drivers/BSP/Components/vl53l0x/vl53l0x_api.c **** 		pDeviceParameters->XTalkCompensationEnable = 0;
ARM GAS  /tmp/ccflrS73.s 			page 30


 853:../Drivers/BSP/Components/vl53l0x/vl53l0x_api.c **** 
 854:../Drivers/BSP/Components/vl53l0x/vl53l0x_api.c **** 	if (Status == VL53L0X_ERROR_NONE)
 855:../Drivers/BSP/Components/vl53l0x/vl53l0x_api.c **** 		Status = VL53L0X_GetXTalkCompensationRateMegaCps(Dev,
 856:../Drivers/BSP/Components/vl53l0x/vl53l0x_api.c **** 			&(pDeviceParameters->XTalkCompensationRateMegaCps));
 857:../Drivers/BSP/Components/vl53l0x/vl53l0x_api.c **** 
 858:../Drivers/BSP/Components/vl53l0x/vl53l0x_api.c **** 
 859:../Drivers/BSP/Components/vl53l0x/vl53l0x_api.c **** 	if (Status == VL53L0X_ERROR_NONE)
 860:../Drivers/BSP/Components/vl53l0x/vl53l0x_api.c **** 		Status = VL53L0X_GetOffsetCalibrationDataMicroMeter(Dev,
 861:../Drivers/BSP/Components/vl53l0x/vl53l0x_api.c **** 			&(pDeviceParameters->RangeOffsetMicroMeters));
 862:../Drivers/BSP/Components/vl53l0x/vl53l0x_api.c **** 
 863:../Drivers/BSP/Components/vl53l0x/vl53l0x_api.c **** 
 864:../Drivers/BSP/Components/vl53l0x/vl53l0x_api.c **** 	if (Status == VL53L0X_ERROR_NONE) {
 865:../Drivers/BSP/Components/vl53l0x/vl53l0x_api.c **** 		for (i = 0; i < VL53L0X_CHECKENABLE_NUMBER_OF_CHECKS; i++) {
 866:../Drivers/BSP/Components/vl53l0x/vl53l0x_api.c **** 			/* get first the values, then the enables.
 867:../Drivers/BSP/Components/vl53l0x/vl53l0x_api.c **** 			 * VL53L0X_GetLimitCheckValue will modify the enable
 868:../Drivers/BSP/Components/vl53l0x/vl53l0x_api.c **** 			 * flags
 869:../Drivers/BSP/Components/vl53l0x/vl53l0x_api.c **** 			 */
 870:../Drivers/BSP/Components/vl53l0x/vl53l0x_api.c **** 			if (Status == VL53L0X_ERROR_NONE) {
 871:../Drivers/BSP/Components/vl53l0x/vl53l0x_api.c **** 				Status |= VL53L0X_GetLimitCheckValue(Dev, i,
 872:../Drivers/BSP/Components/vl53l0x/vl53l0x_api.c **** 				&(pDeviceParameters->LimitChecksValue[i]));
 873:../Drivers/BSP/Components/vl53l0x/vl53l0x_api.c **** 			} else {
 874:../Drivers/BSP/Components/vl53l0x/vl53l0x_api.c **** 				break;
 875:../Drivers/BSP/Components/vl53l0x/vl53l0x_api.c **** 			}
 876:../Drivers/BSP/Components/vl53l0x/vl53l0x_api.c **** 			if (Status == VL53L0X_ERROR_NONE) {
 877:../Drivers/BSP/Components/vl53l0x/vl53l0x_api.c **** 				Status |= VL53L0X_GetLimitCheckEnable(Dev, i,
 878:../Drivers/BSP/Components/vl53l0x/vl53l0x_api.c **** 				&(pDeviceParameters->LimitChecksEnable[i]));
 879:../Drivers/BSP/Components/vl53l0x/vl53l0x_api.c **** 			} else {
 880:../Drivers/BSP/Components/vl53l0x/vl53l0x_api.c **** 				break;
 881:../Drivers/BSP/Components/vl53l0x/vl53l0x_api.c **** 			}
 882:../Drivers/BSP/Components/vl53l0x/vl53l0x_api.c **** 		}
 883:../Drivers/BSP/Components/vl53l0x/vl53l0x_api.c **** 	}
 884:../Drivers/BSP/Components/vl53l0x/vl53l0x_api.c **** 
 885:../Drivers/BSP/Components/vl53l0x/vl53l0x_api.c **** 	if (Status == VL53L0X_ERROR_NONE) {
 886:../Drivers/BSP/Components/vl53l0x/vl53l0x_api.c **** 		Status = VL53L0X_GetWrapAroundCheckEnable(Dev,
 887:../Drivers/BSP/Components/vl53l0x/vl53l0x_api.c **** 			&(pDeviceParameters->WrapAroundCheckEnable));
 888:../Drivers/BSP/Components/vl53l0x/vl53l0x_api.c **** 	}
 889:../Drivers/BSP/Components/vl53l0x/vl53l0x_api.c **** 
 890:../Drivers/BSP/Components/vl53l0x/vl53l0x_api.c **** 	/* Need to be done at the end as it uses VCSELPulsePeriod */
 891:../Drivers/BSP/Components/vl53l0x/vl53l0x_api.c **** 	if (Status == VL53L0X_ERROR_NONE) {
 892:../Drivers/BSP/Components/vl53l0x/vl53l0x_api.c **** 		Status = VL53L0X_GetMeasurementTimingBudgetMicroSeconds(Dev,
 893:../Drivers/BSP/Components/vl53l0x/vl53l0x_api.c **** 		&(pDeviceParameters->MeasurementTimingBudgetMicroSeconds));
 894:../Drivers/BSP/Components/vl53l0x/vl53l0x_api.c **** 	}
 895:../Drivers/BSP/Components/vl53l0x/vl53l0x_api.c **** 
 896:../Drivers/BSP/Components/vl53l0x/vl53l0x_api.c **** 	LOG_FUNCTION_END(Status);
 897:../Drivers/BSP/Components/vl53l0x/vl53l0x_api.c **** 	return Status;
 898:../Drivers/BSP/Components/vl53l0x/vl53l0x_api.c **** }
 899:../Drivers/BSP/Components/vl53l0x/vl53l0x_api.c **** 
 900:../Drivers/BSP/Components/vl53l0x/vl53l0x_api.c **** VL53L0X_Error VL53L0X_SetDeviceMode(VL53L0X_DEV Dev, VL53L0X_DeviceModes DeviceMode)
 901:../Drivers/BSP/Components/vl53l0x/vl53l0x_api.c **** {
 845              		.loc 1 901 0
 846              		.cfi_startproc
 847              		@ args = 0, pretend = 0, frame = 0
 848              		@ frame_needed = 0, uses_anonymous_args = 0
 849              		@ link register save eliminated.
 850              	.LVL86:
 902:../Drivers/BSP/Components/vl53l0x/vl53l0x_api.c **** 	VL53L0X_Error Status = VL53L0X_ERROR_NONE;
 903:../Drivers/BSP/Components/vl53l0x/vl53l0x_api.c **** 
ARM GAS  /tmp/ccflrS73.s 			page 31


 904:../Drivers/BSP/Components/vl53l0x/vl53l0x_api.c **** 	LOG_FUNCTION_START("%d", (int)DeviceMode);
 905:../Drivers/BSP/Components/vl53l0x/vl53l0x_api.c **** 
 906:../Drivers/BSP/Components/vl53l0x/vl53l0x_api.c **** 	switch (DeviceMode) {
 851              		.loc 1 906 0
 852 0000 1529     		cmp	r1, #21
 853 0002 0FD8     		bhi	.L55
 854 0004 DFE801F0 		tbb	[pc, r1]
 855              	.L54:
 856 0008 0B       		.byte	(.L53-.L54)/2
 857 0009 0B       		.byte	(.L53-.L54)/2
 858 000a 0E       		.byte	(.L55-.L54)/2
 859 000b 0B       		.byte	(.L53-.L54)/2
 860 000c 0E       		.byte	(.L55-.L54)/2
 861 000d 0E       		.byte	(.L55-.L54)/2
 862 000e 0E       		.byte	(.L55-.L54)/2
 863 000f 0E       		.byte	(.L55-.L54)/2
 864 0010 0E       		.byte	(.L55-.L54)/2
 865 0011 0E       		.byte	(.L55-.L54)/2
 866 0012 0E       		.byte	(.L55-.L54)/2
 867 0013 0E       		.byte	(.L55-.L54)/2
 868 0014 0E       		.byte	(.L55-.L54)/2
 869 0015 0E       		.byte	(.L55-.L54)/2
 870 0016 0E       		.byte	(.L55-.L54)/2
 871 0017 0E       		.byte	(.L55-.L54)/2
 872 0018 0E       		.byte	(.L55-.L54)/2
 873 0019 0E       		.byte	(.L55-.L54)/2
 874 001a 0E       		.byte	(.L55-.L54)/2
 875 001b 0E       		.byte	(.L55-.L54)/2
 876 001c 0B       		.byte	(.L53-.L54)/2
 877 001d 0B       		.byte	(.L53-.L54)/2
 878              		.p2align 1
 879              	.L53:
 907:../Drivers/BSP/Components/vl53l0x/vl53l0x_api.c **** 	case VL53L0X_DEVICEMODE_SINGLE_RANGING:
 908:../Drivers/BSP/Components/vl53l0x/vl53l0x_api.c **** 	case VL53L0X_DEVICEMODE_CONTINUOUS_RANGING:
 909:../Drivers/BSP/Components/vl53l0x/vl53l0x_api.c **** 	case VL53L0X_DEVICEMODE_CONTINUOUS_TIMED_RANGING:
 910:../Drivers/BSP/Components/vl53l0x/vl53l0x_api.c **** 	case VL53L0X_DEVICEMODE_GPIO_DRIVE:
 911:../Drivers/BSP/Components/vl53l0x/vl53l0x_api.c **** 	case VL53L0X_DEVICEMODE_GPIO_OSC:
 912:../Drivers/BSP/Components/vl53l0x/vl53l0x_api.c **** 		/* Supported modes */
 913:../Drivers/BSP/Components/vl53l0x/vl53l0x_api.c **** 		VL53L0X_SETPARAMETERFIELD(Dev, DeviceMode, DeviceMode);
 880              		.loc 1 913 0
 881 001e 0174     		strb	r1, [r0, #16]
 902:../Drivers/BSP/Components/vl53l0x/vl53l0x_api.c **** 	VL53L0X_Error Status = VL53L0X_ERROR_NONE;
 882              		.loc 1 902 0
 883 0020 0020     		movs	r0, #0
 884              	.LVL87:
 914:../Drivers/BSP/Components/vl53l0x/vl53l0x_api.c **** 		break;
 885              		.loc 1 914 0
 886 0022 00E0     		b	.L52
 887              	.LVL88:
 888              	.L55:
 915:../Drivers/BSP/Components/vl53l0x/vl53l0x_api.c **** 	default:
 916:../Drivers/BSP/Components/vl53l0x/vl53l0x_api.c **** 		/* Unsupported mode */
 917:../Drivers/BSP/Components/vl53l0x/vl53l0x_api.c **** 		Status = VL53L0X_ERROR_MODE_NOT_SUPPORTED;
 889              		.loc 1 917 0
 890 0024 F820     		movs	r0, #248
 891              	.LVL89:
 892              	.L52:
ARM GAS  /tmp/ccflrS73.s 			page 32


 918:../Drivers/BSP/Components/vl53l0x/vl53l0x_api.c **** 	}
 919:../Drivers/BSP/Components/vl53l0x/vl53l0x_api.c **** 
 920:../Drivers/BSP/Components/vl53l0x/vl53l0x_api.c **** 	LOG_FUNCTION_END(Status);
 921:../Drivers/BSP/Components/vl53l0x/vl53l0x_api.c **** 	return Status;
 922:../Drivers/BSP/Components/vl53l0x/vl53l0x_api.c **** }
 893              		.loc 1 922 0
 894 0026 40B2     		sxtb	r0, r0
 895 0028 7047     		bx	lr
 896              		.cfi_endproc
 897              	.LFE140:
 899 002a 00BF     		.section	.text.VL53L0X_GetDeviceMode,"ax",%progbits
 900              		.align	2
 901              		.global	VL53L0X_GetDeviceMode
 902              		.thumb
 903              		.thumb_func
 905              	VL53L0X_GetDeviceMode:
 906              	.LFB141:
 923:../Drivers/BSP/Components/vl53l0x/vl53l0x_api.c **** 
 924:../Drivers/BSP/Components/vl53l0x/vl53l0x_api.c **** VL53L0X_Error VL53L0X_GetDeviceMode(VL53L0X_DEV Dev,
 925:../Drivers/BSP/Components/vl53l0x/vl53l0x_api.c **** 	VL53L0X_DeviceModes *pDeviceMode)
 926:../Drivers/BSP/Components/vl53l0x/vl53l0x_api.c **** {
 907              		.loc 1 926 0
 908              		.cfi_startproc
 909              		@ args = 0, pretend = 0, frame = 0
 910              		@ frame_needed = 0, uses_anonymous_args = 0
 911              		@ link register save eliminated.
 912              	.LVL90:
 927:../Drivers/BSP/Components/vl53l0x/vl53l0x_api.c **** 	VL53L0X_Error Status = VL53L0X_ERROR_NONE;
 928:../Drivers/BSP/Components/vl53l0x/vl53l0x_api.c **** 	LOG_FUNCTION_START("");
 929:../Drivers/BSP/Components/vl53l0x/vl53l0x_api.c **** 
 930:../Drivers/BSP/Components/vl53l0x/vl53l0x_api.c **** 	VL53L0X_GETPARAMETERFIELD(Dev, DeviceMode, *pDeviceMode);
 913              		.loc 1 930 0
 914 0000 037C     		ldrb	r3, [r0, #16]	@ zero_extendqisi2
 915 0002 0B70     		strb	r3, [r1]
 931:../Drivers/BSP/Components/vl53l0x/vl53l0x_api.c **** 
 932:../Drivers/BSP/Components/vl53l0x/vl53l0x_api.c **** 	LOG_FUNCTION_END(Status);
 933:../Drivers/BSP/Components/vl53l0x/vl53l0x_api.c **** 	return Status;
 934:../Drivers/BSP/Components/vl53l0x/vl53l0x_api.c **** }
 916              		.loc 1 934 0
 917 0004 0020     		movs	r0, #0
 918              	.LVL91:
 919 0006 7047     		bx	lr
 920              		.cfi_endproc
 921              	.LFE141:
 923              		.section	.text.VL53L0X_SetRangeFractionEnable,"ax",%progbits
 924              		.align	2
 925              		.global	VL53L0X_SetRangeFractionEnable
 926              		.thumb
 927              		.thumb_func
 929              	VL53L0X_SetRangeFractionEnable:
 930              	.LFB142:
 935:../Drivers/BSP/Components/vl53l0x/vl53l0x_api.c **** 
 936:../Drivers/BSP/Components/vl53l0x/vl53l0x_api.c **** VL53L0X_Error VL53L0X_SetRangeFractionEnable(VL53L0X_DEV Dev,	uint8_t Enable)
 937:../Drivers/BSP/Components/vl53l0x/vl53l0x_api.c **** {
 931              		.loc 1 937 0
 932              		.cfi_startproc
 933              		@ args = 0, pretend = 0, frame = 0
ARM GAS  /tmp/ccflrS73.s 			page 33


 934              		@ frame_needed = 0, uses_anonymous_args = 0
 935              	.LVL92:
 936 0000 38B5     		push	{r3, r4, r5, lr}
 937              	.LCFI24:
 938              		.cfi_def_cfa_offset 16
 939              		.cfi_offset 3, -16
 940              		.cfi_offset 4, -12
 941              		.cfi_offset 5, -8
 942              		.cfi_offset 14, -4
 943 0002 0546     		mov	r5, r0
 944 0004 0C46     		mov	r4, r1
 945              	.LVL93:
 938:../Drivers/BSP/Components/vl53l0x/vl53l0x_api.c **** 	VL53L0X_Error Status = VL53L0X_ERROR_NONE;
 939:../Drivers/BSP/Components/vl53l0x/vl53l0x_api.c **** 
 940:../Drivers/BSP/Components/vl53l0x/vl53l0x_api.c **** 	LOG_FUNCTION_START("%d", (int)Enable);
 941:../Drivers/BSP/Components/vl53l0x/vl53l0x_api.c **** 
 942:../Drivers/BSP/Components/vl53l0x/vl53l0x_api.c **** 	Status = VL53L0X_WrByte(Dev, VL53L0X_REG_SYSTEM_RANGE_CONFIG, Enable);
 946              		.loc 1 942 0
 947 0006 0921     		movs	r1, #9
 948              	.LVL94:
 949 0008 2246     		mov	r2, r4
 950 000a FFF7FEFF 		bl	VL53L0X_WrByte
 951              	.LVL95:
 943:../Drivers/BSP/Components/vl53l0x/vl53l0x_api.c **** 
 944:../Drivers/BSP/Components/vl53l0x/vl53l0x_api.c **** 	if (Status == VL53L0X_ERROR_NONE)
 952              		.loc 1 944 0
 953 000e 0346     		mov	r3, r0
 954 0010 08B9     		cbnz	r0, .L58
 945:../Drivers/BSP/Components/vl53l0x/vl53l0x_api.c **** 		PALDevDataSet(Dev, RangeFractionalEnable, Enable);
 955              		.loc 1 945 0
 956 0012 85F83141 		strb	r4, [r5, #305]
 957              	.L58:
 946:../Drivers/BSP/Components/vl53l0x/vl53l0x_api.c **** 
 947:../Drivers/BSP/Components/vl53l0x/vl53l0x_api.c **** 	LOG_FUNCTION_END(Status);
 948:../Drivers/BSP/Components/vl53l0x/vl53l0x_api.c **** 	return Status;
 949:../Drivers/BSP/Components/vl53l0x/vl53l0x_api.c **** }
 958              		.loc 1 949 0
 959 0016 1846     		mov	r0, r3
 960              	.LVL96:
 961 0018 38BD     		pop	{r3, r4, r5, pc}
 962              		.cfi_endproc
 963              	.LFE142:
 965 001a 00BF     		.section	.text.VL53L0X_GetFractionEnable,"ax",%progbits
 966              		.align	2
 967              		.global	VL53L0X_GetFractionEnable
 968              		.thumb
 969              		.thumb_func
 971              	VL53L0X_GetFractionEnable:
 972              	.LFB143:
 950:../Drivers/BSP/Components/vl53l0x/vl53l0x_api.c **** 
 951:../Drivers/BSP/Components/vl53l0x/vl53l0x_api.c **** VL53L0X_Error VL53L0X_GetFractionEnable(VL53L0X_DEV Dev, uint8_t *pEnabled)
 952:../Drivers/BSP/Components/vl53l0x/vl53l0x_api.c **** {
 973              		.loc 1 952 0
 974              		.cfi_startproc
 975              		@ args = 0, pretend = 0, frame = 0
 976              		@ frame_needed = 0, uses_anonymous_args = 0
 977              	.LVL97:
ARM GAS  /tmp/ccflrS73.s 			page 34


 978 0000 10B5     		push	{r4, lr}
 979              	.LCFI25:
 980              		.cfi_def_cfa_offset 8
 981              		.cfi_offset 4, -8
 982              		.cfi_offset 14, -4
 983 0002 0C46     		mov	r4, r1
 984              	.LVL98:
 953:../Drivers/BSP/Components/vl53l0x/vl53l0x_api.c **** 	VL53L0X_Error Status = VL53L0X_ERROR_NONE;
 954:../Drivers/BSP/Components/vl53l0x/vl53l0x_api.c **** 	LOG_FUNCTION_START("");
 955:../Drivers/BSP/Components/vl53l0x/vl53l0x_api.c **** 
 956:../Drivers/BSP/Components/vl53l0x/vl53l0x_api.c **** 	Status = VL53L0X_RdByte(Dev, VL53L0X_REG_SYSTEM_RANGE_CONFIG, pEnabled);
 985              		.loc 1 956 0
 986 0004 0921     		movs	r1, #9
 987              	.LVL99:
 988 0006 2246     		mov	r2, r4
 989 0008 FFF7FEFF 		bl	VL53L0X_RdByte
 990              	.LVL100:
 957:../Drivers/BSP/Components/vl53l0x/vl53l0x_api.c **** 
 958:../Drivers/BSP/Components/vl53l0x/vl53l0x_api.c **** 	if (Status == VL53L0X_ERROR_NONE)
 991              		.loc 1 958 0
 992 000c 0246     		mov	r2, r0
 993 000e 18B9     		cbnz	r0, .L61
 959:../Drivers/BSP/Components/vl53l0x/vl53l0x_api.c **** 		*pEnabled = (*pEnabled & 1);
 994              		.loc 1 959 0
 995 0010 2378     		ldrb	r3, [r4]	@ zero_extendqisi2
 996 0012 03F00103 		and	r3, r3, #1
 997 0016 2370     		strb	r3, [r4]
 998              	.L61:
 960:../Drivers/BSP/Components/vl53l0x/vl53l0x_api.c **** 
 961:../Drivers/BSP/Components/vl53l0x/vl53l0x_api.c **** 	LOG_FUNCTION_END(Status);
 962:../Drivers/BSP/Components/vl53l0x/vl53l0x_api.c **** 	return Status;
 963:../Drivers/BSP/Components/vl53l0x/vl53l0x_api.c **** }
 999              		.loc 1 963 0
 1000 0018 1046     		mov	r0, r2
 1001              	.LVL101:
 1002 001a 10BD     		pop	{r4, pc}
 1003              		.cfi_endproc
 1004              	.LFE143:
 1006              		.section	.text.VL53L0X_SetHistogramMode,"ax",%progbits
 1007              		.align	2
 1008              		.global	VL53L0X_SetHistogramMode
 1009              		.thumb
 1010              		.thumb_func
 1012              	VL53L0X_SetHistogramMode:
 1013              	.LFB144:
 964:../Drivers/BSP/Components/vl53l0x/vl53l0x_api.c **** 
 965:../Drivers/BSP/Components/vl53l0x/vl53l0x_api.c **** VL53L0X_Error VL53L0X_SetHistogramMode(VL53L0X_DEV Dev,
 966:../Drivers/BSP/Components/vl53l0x/vl53l0x_api.c **** 	VL53L0X_HistogramModes HistogramMode)
 967:../Drivers/BSP/Components/vl53l0x/vl53l0x_api.c **** {
 1014              		.loc 1 967 0
 1015              		.cfi_startproc
 1016              		@ args = 0, pretend = 0, frame = 0
 1017              		@ frame_needed = 0, uses_anonymous_args = 0
 1018              		@ link register save eliminated.
 1019              	.LVL102:
 968:../Drivers/BSP/Components/vl53l0x/vl53l0x_api.c **** 	VL53L0X_Error Status = VL53L0X_ERROR_NOT_IMPLEMENTED;
 969:../Drivers/BSP/Components/vl53l0x/vl53l0x_api.c **** 	LOG_FUNCTION_START("");
ARM GAS  /tmp/ccflrS73.s 			page 35


 970:../Drivers/BSP/Components/vl53l0x/vl53l0x_api.c **** 
 971:../Drivers/BSP/Components/vl53l0x/vl53l0x_api.c **** 	/* not implemented on VL53L0X */
 972:../Drivers/BSP/Components/vl53l0x/vl53l0x_api.c **** 
 973:../Drivers/BSP/Components/vl53l0x/vl53l0x_api.c **** 	LOG_FUNCTION_END(Status);
 974:../Drivers/BSP/Components/vl53l0x/vl53l0x_api.c **** 	return Status;
 975:../Drivers/BSP/Components/vl53l0x/vl53l0x_api.c **** }
 1020              		.loc 1 975 0
 1021 0000 6FF06200 		mvn	r0, #98
 1022              	.LVL103:
 1023 0004 7047     		bx	lr
 1024              		.cfi_endproc
 1025              	.LFE144:
 1027 0006 00BF     		.section	.text.VL53L0X_GetHistogramMode,"ax",%progbits
 1028              		.align	2
 1029              		.global	VL53L0X_GetHistogramMode
 1030              		.thumb
 1031              		.thumb_func
 1033              	VL53L0X_GetHistogramMode:
 1034              	.LFB145:
 976:../Drivers/BSP/Components/vl53l0x/vl53l0x_api.c **** 
 977:../Drivers/BSP/Components/vl53l0x/vl53l0x_api.c **** VL53L0X_Error VL53L0X_GetHistogramMode(VL53L0X_DEV Dev,
 978:../Drivers/BSP/Components/vl53l0x/vl53l0x_api.c **** 	VL53L0X_HistogramModes *pHistogramMode)
 979:../Drivers/BSP/Components/vl53l0x/vl53l0x_api.c **** {
 1035              		.loc 1 979 0
 1036              		.cfi_startproc
 1037              		@ args = 0, pretend = 0, frame = 0
 1038              		@ frame_needed = 0, uses_anonymous_args = 0
 1039              		@ link register save eliminated.
 1040              	.LVL104:
 980:../Drivers/BSP/Components/vl53l0x/vl53l0x_api.c **** 	VL53L0X_Error Status = VL53L0X_ERROR_NOT_IMPLEMENTED;
 981:../Drivers/BSP/Components/vl53l0x/vl53l0x_api.c **** 	LOG_FUNCTION_START("");
 982:../Drivers/BSP/Components/vl53l0x/vl53l0x_api.c **** 
 983:../Drivers/BSP/Components/vl53l0x/vl53l0x_api.c **** 	/* not implemented on VL53L0X */
 984:../Drivers/BSP/Components/vl53l0x/vl53l0x_api.c **** 
 985:../Drivers/BSP/Components/vl53l0x/vl53l0x_api.c **** 	LOG_FUNCTION_END(Status);
 986:../Drivers/BSP/Components/vl53l0x/vl53l0x_api.c **** 	return Status;
 987:../Drivers/BSP/Components/vl53l0x/vl53l0x_api.c **** }
 1041              		.loc 1 987 0
 1042 0000 6FF06200 		mvn	r0, #98
 1043              	.LVL105:
 1044 0004 7047     		bx	lr
 1045              		.cfi_endproc
 1046              	.LFE145:
 1048 0006 00BF     		.section	.text.VL53L0X_SetMeasurementTimingBudgetMicroSeconds,"ax",%progbits
 1049              		.align	2
 1050              		.global	VL53L0X_SetMeasurementTimingBudgetMicroSeconds
 1051              		.thumb
 1052              		.thumb_func
 1054              	VL53L0X_SetMeasurementTimingBudgetMicroSeconds:
 1055              	.LFB146:
 988:../Drivers/BSP/Components/vl53l0x/vl53l0x_api.c **** 
 989:../Drivers/BSP/Components/vl53l0x/vl53l0x_api.c **** VL53L0X_Error VL53L0X_SetMeasurementTimingBudgetMicroSeconds(VL53L0X_DEV Dev,
 990:../Drivers/BSP/Components/vl53l0x/vl53l0x_api.c **** 	uint32_t MeasurementTimingBudgetMicroSeconds)
 991:../Drivers/BSP/Components/vl53l0x/vl53l0x_api.c **** {
 1056              		.loc 1 991 0
 1057              		.cfi_startproc
 1058              		@ args = 0, pretend = 0, frame = 0
ARM GAS  /tmp/ccflrS73.s 			page 36


 1059              		@ frame_needed = 0, uses_anonymous_args = 0
 1060              	.LVL106:
 1061 0000 08B5     		push	{r3, lr}
 1062              	.LCFI26:
 1063              		.cfi_def_cfa_offset 8
 1064              		.cfi_offset 3, -8
 1065              		.cfi_offset 14, -4
 1066              	.LVL107:
 992:../Drivers/BSP/Components/vl53l0x/vl53l0x_api.c **** 	VL53L0X_Error Status = VL53L0X_ERROR_NONE;
 993:../Drivers/BSP/Components/vl53l0x/vl53l0x_api.c **** 	LOG_FUNCTION_START("");
 994:../Drivers/BSP/Components/vl53l0x/vl53l0x_api.c **** 
 995:../Drivers/BSP/Components/vl53l0x/vl53l0x_api.c **** 	Status = VL53L0X_set_measurement_timing_budget_micro_seconds(Dev,
 1067              		.loc 1 995 0
 1068 0002 FFF7FEFF 		bl	VL53L0X_set_measurement_timing_budget_micro_seconds
 1069              	.LVL108:
 996:../Drivers/BSP/Components/vl53l0x/vl53l0x_api.c **** 		MeasurementTimingBudgetMicroSeconds);
 997:../Drivers/BSP/Components/vl53l0x/vl53l0x_api.c **** 
 998:../Drivers/BSP/Components/vl53l0x/vl53l0x_api.c **** 	LOG_FUNCTION_END(Status);
 999:../Drivers/BSP/Components/vl53l0x/vl53l0x_api.c **** 
1000:../Drivers/BSP/Components/vl53l0x/vl53l0x_api.c **** 	return Status;
1001:../Drivers/BSP/Components/vl53l0x/vl53l0x_api.c **** }
 1070              		.loc 1 1001 0
 1071 0006 08BD     		pop	{r3, pc}
 1072              		.cfi_endproc
 1073              	.LFE146:
 1075              		.section	.text.VL53L0X_GetMeasurementTimingBudgetMicroSeconds,"ax",%progbits
 1076              		.align	2
 1077              		.global	VL53L0X_GetMeasurementTimingBudgetMicroSeconds
 1078              		.thumb
 1079              		.thumb_func
 1081              	VL53L0X_GetMeasurementTimingBudgetMicroSeconds:
 1082              	.LFB147:
1002:../Drivers/BSP/Components/vl53l0x/vl53l0x_api.c **** 
1003:../Drivers/BSP/Components/vl53l0x/vl53l0x_api.c **** VL53L0X_Error VL53L0X_GetMeasurementTimingBudgetMicroSeconds(VL53L0X_DEV Dev,
1004:../Drivers/BSP/Components/vl53l0x/vl53l0x_api.c **** 	uint32_t *pMeasurementTimingBudgetMicroSeconds)
1005:../Drivers/BSP/Components/vl53l0x/vl53l0x_api.c **** {
 1083              		.loc 1 1005 0
 1084              		.cfi_startproc
 1085              		@ args = 0, pretend = 0, frame = 0
 1086              		@ frame_needed = 0, uses_anonymous_args = 0
 1087              	.LVL109:
 1088 0000 08B5     		push	{r3, lr}
 1089              	.LCFI27:
 1090              		.cfi_def_cfa_offset 8
 1091              		.cfi_offset 3, -8
 1092              		.cfi_offset 14, -4
 1093              	.LVL110:
1006:../Drivers/BSP/Components/vl53l0x/vl53l0x_api.c **** 	VL53L0X_Error Status = VL53L0X_ERROR_NONE;
1007:../Drivers/BSP/Components/vl53l0x/vl53l0x_api.c **** 	LOG_FUNCTION_START("");
1008:../Drivers/BSP/Components/vl53l0x/vl53l0x_api.c **** 
1009:../Drivers/BSP/Components/vl53l0x/vl53l0x_api.c **** 	Status = VL53L0X_get_measurement_timing_budget_micro_seconds(Dev,
 1094              		.loc 1 1009 0
 1095 0002 FFF7FEFF 		bl	VL53L0X_get_measurement_timing_budget_micro_seconds
 1096              	.LVL111:
1010:../Drivers/BSP/Components/vl53l0x/vl53l0x_api.c **** 		pMeasurementTimingBudgetMicroSeconds);
1011:../Drivers/BSP/Components/vl53l0x/vl53l0x_api.c **** 
1012:../Drivers/BSP/Components/vl53l0x/vl53l0x_api.c **** 	LOG_FUNCTION_END(Status);
ARM GAS  /tmp/ccflrS73.s 			page 37


1013:../Drivers/BSP/Components/vl53l0x/vl53l0x_api.c **** 	return Status;
1014:../Drivers/BSP/Components/vl53l0x/vl53l0x_api.c **** }
 1097              		.loc 1 1014 0
 1098 0006 08BD     		pop	{r3, pc}
 1099              		.cfi_endproc
 1100              	.LFE147:
 1102              		.section	.text.VL53L0X_SetVcselPulsePeriod,"ax",%progbits
 1103              		.align	2
 1104              		.global	VL53L0X_SetVcselPulsePeriod
 1105              		.thumb
 1106              		.thumb_func
 1108              	VL53L0X_SetVcselPulsePeriod:
 1109              	.LFB148:
1015:../Drivers/BSP/Components/vl53l0x/vl53l0x_api.c **** 
1016:../Drivers/BSP/Components/vl53l0x/vl53l0x_api.c **** VL53L0X_Error VL53L0X_SetVcselPulsePeriod(VL53L0X_DEV Dev,
1017:../Drivers/BSP/Components/vl53l0x/vl53l0x_api.c **** 	VL53L0X_VcselPeriod VcselPeriodType, uint8_t VCSELPulsePeriodPCLK)
1018:../Drivers/BSP/Components/vl53l0x/vl53l0x_api.c **** {
 1110              		.loc 1 1018 0
 1111              		.cfi_startproc
 1112              		@ args = 0, pretend = 0, frame = 0
 1113              		@ frame_needed = 0, uses_anonymous_args = 0
 1114              	.LVL112:
 1115 0000 08B5     		push	{r3, lr}
 1116              	.LCFI28:
 1117              		.cfi_def_cfa_offset 8
 1118              		.cfi_offset 3, -8
 1119              		.cfi_offset 14, -4
 1120              	.LVL113:
1019:../Drivers/BSP/Components/vl53l0x/vl53l0x_api.c **** 	VL53L0X_Error Status = VL53L0X_ERROR_NONE;
1020:../Drivers/BSP/Components/vl53l0x/vl53l0x_api.c **** 	LOG_FUNCTION_START("");
1021:../Drivers/BSP/Components/vl53l0x/vl53l0x_api.c **** 
1022:../Drivers/BSP/Components/vl53l0x/vl53l0x_api.c **** 	Status = VL53L0X_set_vcsel_pulse_period(Dev, VcselPeriodType,
 1121              		.loc 1 1022 0
 1122 0002 FFF7FEFF 		bl	VL53L0X_set_vcsel_pulse_period
 1123              	.LVL114:
1023:../Drivers/BSP/Components/vl53l0x/vl53l0x_api.c **** 		VCSELPulsePeriodPCLK);
1024:../Drivers/BSP/Components/vl53l0x/vl53l0x_api.c **** 
1025:../Drivers/BSP/Components/vl53l0x/vl53l0x_api.c **** 	LOG_FUNCTION_END(Status);
1026:../Drivers/BSP/Components/vl53l0x/vl53l0x_api.c **** 	return Status;
1027:../Drivers/BSP/Components/vl53l0x/vl53l0x_api.c **** }
 1124              		.loc 1 1027 0
 1125 0006 08BD     		pop	{r3, pc}
 1126              		.cfi_endproc
 1127              	.LFE148:
 1129              		.section	.text.VL53L0X_GetVcselPulsePeriod,"ax",%progbits
 1130              		.align	2
 1131              		.global	VL53L0X_GetVcselPulsePeriod
 1132              		.thumb
 1133              		.thumb_func
 1135              	VL53L0X_GetVcselPulsePeriod:
 1136              	.LFB149:
1028:../Drivers/BSP/Components/vl53l0x/vl53l0x_api.c **** 
1029:../Drivers/BSP/Components/vl53l0x/vl53l0x_api.c **** VL53L0X_Error VL53L0X_GetVcselPulsePeriod(VL53L0X_DEV Dev,
1030:../Drivers/BSP/Components/vl53l0x/vl53l0x_api.c **** 	VL53L0X_VcselPeriod VcselPeriodType, uint8_t *pVCSELPulsePeriodPCLK)
1031:../Drivers/BSP/Components/vl53l0x/vl53l0x_api.c **** {
 1137              		.loc 1 1031 0
 1138              		.cfi_startproc
ARM GAS  /tmp/ccflrS73.s 			page 38


 1139              		@ args = 0, pretend = 0, frame = 0
 1140              		@ frame_needed = 0, uses_anonymous_args = 0
 1141              	.LVL115:
 1142 0000 08B5     		push	{r3, lr}
 1143              	.LCFI29:
 1144              		.cfi_def_cfa_offset 8
 1145              		.cfi_offset 3, -8
 1146              		.cfi_offset 14, -4
 1147              	.LVL116:
1032:../Drivers/BSP/Components/vl53l0x/vl53l0x_api.c **** 	VL53L0X_Error Status = VL53L0X_ERROR_NONE;
1033:../Drivers/BSP/Components/vl53l0x/vl53l0x_api.c **** 	LOG_FUNCTION_START("");
1034:../Drivers/BSP/Components/vl53l0x/vl53l0x_api.c **** 
1035:../Drivers/BSP/Components/vl53l0x/vl53l0x_api.c **** 	Status = VL53L0X_get_vcsel_pulse_period(Dev, VcselPeriodType,
 1148              		.loc 1 1035 0
 1149 0002 FFF7FEFF 		bl	VL53L0X_get_vcsel_pulse_period
 1150              	.LVL117:
1036:../Drivers/BSP/Components/vl53l0x/vl53l0x_api.c **** 		pVCSELPulsePeriodPCLK);
1037:../Drivers/BSP/Components/vl53l0x/vl53l0x_api.c **** 
1038:../Drivers/BSP/Components/vl53l0x/vl53l0x_api.c **** 	LOG_FUNCTION_END(Status);
1039:../Drivers/BSP/Components/vl53l0x/vl53l0x_api.c **** 	return Status;
1040:../Drivers/BSP/Components/vl53l0x/vl53l0x_api.c **** }
 1151              		.loc 1 1040 0
 1152 0006 08BD     		pop	{r3, pc}
 1153              		.cfi_endproc
 1154              	.LFE149:
 1156              		.section	.text.VL53L0X_SetSequenceStepEnable,"ax",%progbits
 1157              		.align	2
 1158              		.global	VL53L0X_SetSequenceStepEnable
 1159              		.thumb
 1160              		.thumb_func
 1162              	VL53L0X_SetSequenceStepEnable:
 1163              	.LFB150:
1041:../Drivers/BSP/Components/vl53l0x/vl53l0x_api.c **** 
1042:../Drivers/BSP/Components/vl53l0x/vl53l0x_api.c **** VL53L0X_Error VL53L0X_SetSequenceStepEnable(VL53L0X_DEV Dev,
1043:../Drivers/BSP/Components/vl53l0x/vl53l0x_api.c **** 	VL53L0X_SequenceStepId SequenceStepId, uint8_t SequenceStepEnabled)
1044:../Drivers/BSP/Components/vl53l0x/vl53l0x_api.c **** {
 1164              		.loc 1 1044 0
 1165              		.cfi_startproc
 1166              		@ args = 0, pretend = 0, frame = 8
 1167              		@ frame_needed = 0, uses_anonymous_args = 0
 1168              	.LVL118:
 1169 0000 F0B5     		push	{r4, r5, r6, r7, lr}
 1170              	.LCFI30:
 1171              		.cfi_def_cfa_offset 20
 1172              		.cfi_offset 4, -20
 1173              		.cfi_offset 5, -16
 1174              		.cfi_offset 6, -12
 1175              		.cfi_offset 7, -8
 1176              		.cfi_offset 14, -4
 1177 0002 83B0     		sub	sp, sp, #12
 1178              	.LCFI31:
 1179              		.cfi_def_cfa_offset 32
 1180 0004 0646     		mov	r6, r0
 1181 0006 0D46     		mov	r5, r1
 1182 0008 1746     		mov	r7, r2
 1183              	.LVL119:
1045:../Drivers/BSP/Components/vl53l0x/vl53l0x_api.c **** 	VL53L0X_Error Status = VL53L0X_ERROR_NONE;
ARM GAS  /tmp/ccflrS73.s 			page 39


1046:../Drivers/BSP/Components/vl53l0x/vl53l0x_api.c **** 	uint8_t SequenceConfig = 0;
 1184              		.loc 1 1046 0
 1185 000a 02AA     		add	r2, sp, #8
 1186              	.LVL120:
 1187 000c 0023     		movs	r3, #0
 1188 000e 02F8013D 		strb	r3, [r2, #-1]!
 1189              	.LVL121:
1047:../Drivers/BSP/Components/vl53l0x/vl53l0x_api.c **** 	uint8_t SequenceConfigNew = 0;
1048:../Drivers/BSP/Components/vl53l0x/vl53l0x_api.c **** 	uint32_t MeasurementTimingBudgetMicroSeconds;
1049:../Drivers/BSP/Components/vl53l0x/vl53l0x_api.c **** 	LOG_FUNCTION_START("");
1050:../Drivers/BSP/Components/vl53l0x/vl53l0x_api.c **** 
1051:../Drivers/BSP/Components/vl53l0x/vl53l0x_api.c **** 	Status = VL53L0X_RdByte(Dev, VL53L0X_REG_SYSTEM_SEQUENCE_CONFIG,
 1190              		.loc 1 1051 0
 1191 0012 0121     		movs	r1, #1
 1192              	.LVL122:
 1193 0014 FFF7FEFF 		bl	VL53L0X_RdByte
 1194              	.LVL123:
1052:../Drivers/BSP/Components/vl53l0x/vl53l0x_api.c **** 		&SequenceConfig);
1053:../Drivers/BSP/Components/vl53l0x/vl53l0x_api.c **** 
1054:../Drivers/BSP/Components/vl53l0x/vl53l0x_api.c **** 	SequenceConfigNew = SequenceConfig;
 1195              		.loc 1 1054 0
 1196 0018 9DF80730 		ldrb	r3, [sp, #7]	@ zero_extendqisi2
 1197              	.LVL124:
1055:../Drivers/BSP/Components/vl53l0x/vl53l0x_api.c **** 
1056:../Drivers/BSP/Components/vl53l0x/vl53l0x_api.c **** 	if (Status == VL53L0X_ERROR_NONE) {
 1198              		.loc 1 1056 0
 1199 001c 0446     		mov	r4, r0
 1200 001e 68BB     		cbnz	r0, .L91
1057:../Drivers/BSP/Components/vl53l0x/vl53l0x_api.c **** 		if (SequenceStepEnabled == 1) {
 1201              		.loc 1 1057 0
 1202 0020 012F     		cmp	r7, #1
 1203 0022 15D1     		bne	.L75
1058:../Drivers/BSP/Components/vl53l0x/vl53l0x_api.c **** 
1059:../Drivers/BSP/Components/vl53l0x/vl53l0x_api.c **** 			/* Enable requested sequence step
1060:../Drivers/BSP/Components/vl53l0x/vl53l0x_api.c **** 			 */
1061:../Drivers/BSP/Components/vl53l0x/vl53l0x_api.c **** 			switch (SequenceStepId) {
 1204              		.loc 1 1061 0
 1205 0024 042D     		cmp	r5, #4
 1206 0026 2BD8     		bhi	.L92
 1207 0028 DFE805F0 		tbb	[pc, r5]
 1208              	.L77:
 1209 002c 03       		.byte	(.L76-.L77)/2
 1210 002d 06       		.byte	(.L78-.L77)/2
 1211 002e 09       		.byte	(.L79-.L77)/2
 1212 002f 0C       		.byte	(.L80-.L77)/2
 1213 0030 0F       		.byte	(.L81-.L77)/2
 1214 0031 00       		.p2align 1
 1215              	.L76:
1062:../Drivers/BSP/Components/vl53l0x/vl53l0x_api.c **** 			case VL53L0X_SEQUENCESTEP_TCC:
1063:../Drivers/BSP/Components/vl53l0x/vl53l0x_api.c **** 				SequenceConfigNew |= 0x10;
 1216              		.loc 1 1063 0
 1217 0032 43F01005 		orr	r5, r3, #16
 1218              	.LVL125:
1064:../Drivers/BSP/Components/vl53l0x/vl53l0x_api.c **** 				break;
 1219              		.loc 1 1064 0
 1220 0036 28E0     		b	.L74
 1221              	.LVL126:
ARM GAS  /tmp/ccflrS73.s 			page 40


 1222              	.L78:
1065:../Drivers/BSP/Components/vl53l0x/vl53l0x_api.c **** 			case VL53L0X_SEQUENCESTEP_DSS:
1066:../Drivers/BSP/Components/vl53l0x/vl53l0x_api.c **** 				SequenceConfigNew |= 0x28;
 1223              		.loc 1 1066 0
 1224 0038 43F02805 		orr	r5, r3, #40
 1225              	.LVL127:
1067:../Drivers/BSP/Components/vl53l0x/vl53l0x_api.c **** 				break;
 1226              		.loc 1 1067 0
 1227 003c 25E0     		b	.L74
 1228              	.LVL128:
 1229              	.L79:
1068:../Drivers/BSP/Components/vl53l0x/vl53l0x_api.c **** 			case VL53L0X_SEQUENCESTEP_MSRC:
1069:../Drivers/BSP/Components/vl53l0x/vl53l0x_api.c **** 				SequenceConfigNew |= 0x04;
 1230              		.loc 1 1069 0
 1231 003e 43F00405 		orr	r5, r3, #4
 1232              	.LVL129:
1070:../Drivers/BSP/Components/vl53l0x/vl53l0x_api.c **** 				break;
 1233              		.loc 1 1070 0
 1234 0042 22E0     		b	.L74
 1235              	.LVL130:
 1236              	.L80:
1071:../Drivers/BSP/Components/vl53l0x/vl53l0x_api.c **** 			case VL53L0X_SEQUENCESTEP_PRE_RANGE:
1072:../Drivers/BSP/Components/vl53l0x/vl53l0x_api.c **** 				SequenceConfigNew |= 0x40;
 1237              		.loc 1 1072 0
 1238 0044 43F04005 		orr	r5, r3, #64
 1239              	.LVL131:
1073:../Drivers/BSP/Components/vl53l0x/vl53l0x_api.c **** 				break;
 1240              		.loc 1 1073 0
 1241 0048 1FE0     		b	.L74
 1242              	.LVL132:
 1243              	.L81:
1074:../Drivers/BSP/Components/vl53l0x/vl53l0x_api.c **** 			case VL53L0X_SEQUENCESTEP_FINAL_RANGE:
1075:../Drivers/BSP/Components/vl53l0x/vl53l0x_api.c **** 				SequenceConfigNew |= 0x80;
 1244              		.loc 1 1075 0
 1245 004a 43F08005 		orr	r5, r3, #128
 1246              	.LVL133:
1076:../Drivers/BSP/Components/vl53l0x/vl53l0x_api.c **** 				break;
 1247              		.loc 1 1076 0
 1248 004e 1CE0     		b	.L74
 1249              	.LVL134:
 1250              	.L75:
1077:../Drivers/BSP/Components/vl53l0x/vl53l0x_api.c **** 			default:
1078:../Drivers/BSP/Components/vl53l0x/vl53l0x_api.c **** 				Status = VL53L0X_ERROR_INVALID_PARAMS;
1079:../Drivers/BSP/Components/vl53l0x/vl53l0x_api.c **** 			}
1080:../Drivers/BSP/Components/vl53l0x/vl53l0x_api.c **** 		} else {
1081:../Drivers/BSP/Components/vl53l0x/vl53l0x_api.c **** 			/* Disable requested sequence step
1082:../Drivers/BSP/Components/vl53l0x/vl53l0x_api.c **** 			 */
1083:../Drivers/BSP/Components/vl53l0x/vl53l0x_api.c **** 			switch (SequenceStepId) {
 1251              		.loc 1 1083 0
 1252 0050 042D     		cmp	r5, #4
 1253 0052 18D8     		bhi	.L93
 1254 0054 DFE805F0 		tbb	[pc, r5]
 1255              	.L83:
 1256 0058 03       		.byte	(.L82-.L83)/2
 1257 0059 06       		.byte	(.L84-.L83)/2
 1258 005a 09       		.byte	(.L85-.L83)/2
 1259 005b 0C       		.byte	(.L86-.L83)/2
ARM GAS  /tmp/ccflrS73.s 			page 41


 1260 005c 0F       		.byte	(.L87-.L83)/2
 1261 005d 00       		.p2align 1
 1262              	.L82:
1084:../Drivers/BSP/Components/vl53l0x/vl53l0x_api.c **** 			case VL53L0X_SEQUENCESTEP_TCC:
1085:../Drivers/BSP/Components/vl53l0x/vl53l0x_api.c **** 				SequenceConfigNew &= 0xef;
 1263              		.loc 1 1085 0
 1264 005e 03F0EF05 		and	r5, r3, #239
 1265              	.LVL135:
1086:../Drivers/BSP/Components/vl53l0x/vl53l0x_api.c **** 				break;
 1266              		.loc 1 1086 0
 1267 0062 12E0     		b	.L74
 1268              	.LVL136:
 1269              	.L84:
1087:../Drivers/BSP/Components/vl53l0x/vl53l0x_api.c **** 			case VL53L0X_SEQUENCESTEP_DSS:
1088:../Drivers/BSP/Components/vl53l0x/vl53l0x_api.c **** 				SequenceConfigNew &= 0xd7;
 1270              		.loc 1 1088 0
 1271 0064 03F0D705 		and	r5, r3, #215
 1272              	.LVL137:
1089:../Drivers/BSP/Components/vl53l0x/vl53l0x_api.c **** 				break;
 1273              		.loc 1 1089 0
 1274 0068 0FE0     		b	.L74
 1275              	.LVL138:
 1276              	.L85:
1090:../Drivers/BSP/Components/vl53l0x/vl53l0x_api.c **** 			case VL53L0X_SEQUENCESTEP_MSRC:
1091:../Drivers/BSP/Components/vl53l0x/vl53l0x_api.c **** 				SequenceConfigNew &= 0xfb;
 1277              		.loc 1 1091 0
 1278 006a 03F0FB05 		and	r5, r3, #251
 1279              	.LVL139:
1092:../Drivers/BSP/Components/vl53l0x/vl53l0x_api.c **** 				break;
 1280              		.loc 1 1092 0
 1281 006e 0CE0     		b	.L74
 1282              	.LVL140:
 1283              	.L86:
1093:../Drivers/BSP/Components/vl53l0x/vl53l0x_api.c **** 			case VL53L0X_SEQUENCESTEP_PRE_RANGE:
1094:../Drivers/BSP/Components/vl53l0x/vl53l0x_api.c **** 				SequenceConfigNew &= 0xbf;
 1284              		.loc 1 1094 0
 1285 0070 03F0BF05 		and	r5, r3, #191
 1286              	.LVL141:
1095:../Drivers/BSP/Components/vl53l0x/vl53l0x_api.c **** 				break;
 1287              		.loc 1 1095 0
 1288 0074 09E0     		b	.L74
 1289              	.LVL142:
 1290              	.L87:
1096:../Drivers/BSP/Components/vl53l0x/vl53l0x_api.c **** 			case VL53L0X_SEQUENCESTEP_FINAL_RANGE:
1097:../Drivers/BSP/Components/vl53l0x/vl53l0x_api.c **** 				SequenceConfigNew &= 0x7f;
 1291              		.loc 1 1097 0
 1292 0076 03F07F05 		and	r5, r3, #127
 1293              	.LVL143:
1098:../Drivers/BSP/Components/vl53l0x/vl53l0x_api.c **** 				break;
 1294              		.loc 1 1098 0
 1295 007a 06E0     		b	.L74
 1296              	.LVL144:
 1297              	.L91:
1054:../Drivers/BSP/Components/vl53l0x/vl53l0x_api.c **** 
 1298              		.loc 1 1054 0
 1299 007c 1D46     		mov	r5, r3
 1300 007e 04E0     		b	.L74
ARM GAS  /tmp/ccflrS73.s 			page 42


 1301              	.L92:
 1302 0080 1D46     		mov	r5, r3
1078:../Drivers/BSP/Components/vl53l0x/vl53l0x_api.c **** 			}
 1303              		.loc 1 1078 0
 1304 0082 FC24     		movs	r4, #252
 1305 0084 01E0     		b	.L74
 1306              	.L93:
1054:../Drivers/BSP/Components/vl53l0x/vl53l0x_api.c **** 
 1307              		.loc 1 1054 0
 1308 0086 1D46     		mov	r5, r3
1099:../Drivers/BSP/Components/vl53l0x/vl53l0x_api.c **** 			default:
1100:../Drivers/BSP/Components/vl53l0x/vl53l0x_api.c **** 				Status = VL53L0X_ERROR_INVALID_PARAMS;
 1309              		.loc 1 1100 0
 1310 0088 FC24     		movs	r4, #252
 1311              	.LVL145:
 1312              	.L74:
1101:../Drivers/BSP/Components/vl53l0x/vl53l0x_api.c **** 			}
1102:../Drivers/BSP/Components/vl53l0x/vl53l0x_api.c **** 		}
1103:../Drivers/BSP/Components/vl53l0x/vl53l0x_api.c **** 	}
1104:../Drivers/BSP/Components/vl53l0x/vl53l0x_api.c **** 
1105:../Drivers/BSP/Components/vl53l0x/vl53l0x_api.c **** 	if (SequenceConfigNew != SequenceConfig) {
 1313              		.loc 1 1105 0
 1314 008a 9D42     		cmp	r5, r3
 1315 008c 0ED0     		beq	.L88
1106:../Drivers/BSP/Components/vl53l0x/vl53l0x_api.c **** 		/* Apply New Setting */
1107:../Drivers/BSP/Components/vl53l0x/vl53l0x_api.c **** 		if (Status == VL53L0X_ERROR_NONE) {
 1316              		.loc 1 1107 0
 1317 008e 2CB9     		cbnz	r4, .L89
1108:../Drivers/BSP/Components/vl53l0x/vl53l0x_api.c **** 			Status = VL53L0X_WrByte(Dev,
 1318              		.loc 1 1108 0
 1319 0090 3046     		mov	r0, r6
 1320 0092 0121     		movs	r1, #1
 1321 0094 2A46     		mov	r2, r5
 1322 0096 FFF7FEFF 		bl	VL53L0X_WrByte
 1323              	.LVL146:
 1324 009a 0446     		mov	r4, r0
 1325              	.LVL147:
 1326              	.L89:
1109:../Drivers/BSP/Components/vl53l0x/vl53l0x_api.c **** 			VL53L0X_REG_SYSTEM_SEQUENCE_CONFIG, SequenceConfigNew);
1110:../Drivers/BSP/Components/vl53l0x/vl53l0x_api.c **** 		}
1111:../Drivers/BSP/Components/vl53l0x/vl53l0x_api.c **** 		if (Status == VL53L0X_ERROR_NONE)
 1327              		.loc 1 1111 0
 1328 009c 0CB9     		cbnz	r4, .L90
1112:../Drivers/BSP/Components/vl53l0x/vl53l0x_api.c **** 			PALDevDataSet(Dev, SequenceConfig, SequenceConfigNew);
 1329              		.loc 1 1112 0
 1330 009e 86F83051 		strb	r5, [r6, #304]
 1331              	.L90:
1113:../Drivers/BSP/Components/vl53l0x/vl53l0x_api.c **** 
1114:../Drivers/BSP/Components/vl53l0x/vl53l0x_api.c **** 
1115:../Drivers/BSP/Components/vl53l0x/vl53l0x_api.c **** 		/* Recalculate timing budget */
1116:../Drivers/BSP/Components/vl53l0x/vl53l0x_api.c **** 		if (Status == VL53L0X_ERROR_NONE) {
 1332              		.loc 1 1116 0
 1333 00a2 1CB9     		cbnz	r4, .L88
 1334              	.LVL148:
1117:../Drivers/BSP/Components/vl53l0x/vl53l0x_api.c **** 			VL53L0X_GETPARAMETERFIELD(Dev,
1118:../Drivers/BSP/Components/vl53l0x/vl53l0x_api.c **** 				MeasurementTimingBudgetMicroSeconds,
1119:../Drivers/BSP/Components/vl53l0x/vl53l0x_api.c **** 				MeasurementTimingBudgetMicroSeconds);
ARM GAS  /tmp/ccflrS73.s 			page 43


1120:../Drivers/BSP/Components/vl53l0x/vl53l0x_api.c **** 
1121:../Drivers/BSP/Components/vl53l0x/vl53l0x_api.c **** 			VL53L0X_SetMeasurementTimingBudgetMicroSeconds(Dev,
 1335              		.loc 1 1121 0
 1336 00a4 3046     		mov	r0, r6
 1337 00a6 7169     		ldr	r1, [r6, #20]
 1338 00a8 FFF7FEFF 		bl	VL53L0X_SetMeasurementTimingBudgetMicroSeconds
 1339              	.LVL149:
 1340              	.L88:
1122:../Drivers/BSP/Components/vl53l0x/vl53l0x_api.c **** 				MeasurementTimingBudgetMicroSeconds);
1123:../Drivers/BSP/Components/vl53l0x/vl53l0x_api.c **** 		}
1124:../Drivers/BSP/Components/vl53l0x/vl53l0x_api.c **** 	}
1125:../Drivers/BSP/Components/vl53l0x/vl53l0x_api.c **** 
1126:../Drivers/BSP/Components/vl53l0x/vl53l0x_api.c **** 	LOG_FUNCTION_END(Status);
1127:../Drivers/BSP/Components/vl53l0x/vl53l0x_api.c **** 
1128:../Drivers/BSP/Components/vl53l0x/vl53l0x_api.c **** 	return Status;
1129:../Drivers/BSP/Components/vl53l0x/vl53l0x_api.c **** }
 1341              		.loc 1 1129 0
 1342 00ac 60B2     		sxtb	r0, r4
 1343 00ae 03B0     		add	sp, sp, #12
 1344              	.LCFI32:
 1345              		.cfi_def_cfa_offset 20
 1346              		@ sp needed
 1347 00b0 F0BD     		pop	{r4, r5, r6, r7, pc}
 1348              		.cfi_endproc
 1349              	.LFE150:
 1351 00b2 00BF     		.section	.text.sequence_step_enabled,"ax",%progbits
 1352              		.align	2
 1353              		.global	sequence_step_enabled
 1354              		.thumb
 1355              		.thumb_func
 1357              	sequence_step_enabled:
 1358              	.LFB151:
1130:../Drivers/BSP/Components/vl53l0x/vl53l0x_api.c **** 
1131:../Drivers/BSP/Components/vl53l0x/vl53l0x_api.c **** VL53L0X_Error sequence_step_enabled(VL53L0X_DEV Dev,
1132:../Drivers/BSP/Components/vl53l0x/vl53l0x_api.c **** 	VL53L0X_SequenceStepId SequenceStepId, uint8_t SequenceConfig,
1133:../Drivers/BSP/Components/vl53l0x/vl53l0x_api.c **** 	uint8_t *pSequenceStepEnabled)
1134:../Drivers/BSP/Components/vl53l0x/vl53l0x_api.c **** {
 1359              		.loc 1 1134 0
 1360              		.cfi_startproc
 1361              		@ args = 0, pretend = 0, frame = 0
 1362              		@ frame_needed = 0, uses_anonymous_args = 0
 1363              		@ link register save eliminated.
 1364              	.LVL150:
1135:../Drivers/BSP/Components/vl53l0x/vl53l0x_api.c **** 	VL53L0X_Error Status = VL53L0X_ERROR_NONE;
1136:../Drivers/BSP/Components/vl53l0x/vl53l0x_api.c **** 	*pSequenceStepEnabled = 0;
 1365              		.loc 1 1136 0
 1366 0000 0020     		movs	r0, #0
 1367              	.LVL151:
 1368 0002 1870     		strb	r0, [r3]
1137:../Drivers/BSP/Components/vl53l0x/vl53l0x_api.c **** 	LOG_FUNCTION_START("");
1138:../Drivers/BSP/Components/vl53l0x/vl53l0x_api.c **** 
1139:../Drivers/BSP/Components/vl53l0x/vl53l0x_api.c **** 	switch (SequenceStepId) {
 1369              		.loc 1 1139 0
 1370 0004 0429     		cmp	r1, #4
 1371 0006 1CD8     		bhi	.L103
 1372 0008 DFE801F0 		tbb	[pc, r1]
 1373              	.L98:
ARM GAS  /tmp/ccflrS73.s 			page 44


 1374 000c 03       		.byte	(.L97-.L98)/2
 1375 000d 08       		.byte	(.L99-.L98)/2
 1376 000e 0D       		.byte	(.L100-.L98)/2
 1377 000f 12       		.byte	(.L101-.L98)/2
 1378 0010 17       		.byte	(.L102-.L98)/2
 1379 0011 00       		.p2align 1
 1380              	.L97:
1140:../Drivers/BSP/Components/vl53l0x/vl53l0x_api.c **** 	case VL53L0X_SEQUENCESTEP_TCC:
1141:../Drivers/BSP/Components/vl53l0x/vl53l0x_api.c **** 		*pSequenceStepEnabled = (SequenceConfig & 0x10) >> 4;
 1381              		.loc 1 1141 0
 1382 0012 C2F30012 		ubfx	r2, r2, #4, #1
 1383              	.LVL152:
 1384 0016 1A70     		strb	r2, [r3]
1135:../Drivers/BSP/Components/vl53l0x/vl53l0x_api.c **** 	*pSequenceStepEnabled = 0;
 1385              		.loc 1 1135 0
 1386 0018 0020     		movs	r0, #0
1142:../Drivers/BSP/Components/vl53l0x/vl53l0x_api.c **** 		break;
 1387              		.loc 1 1142 0
 1388 001a 13E0     		b	.L96
 1389              	.LVL153:
 1390              	.L99:
1143:../Drivers/BSP/Components/vl53l0x/vl53l0x_api.c **** 	case VL53L0X_SEQUENCESTEP_DSS:
1144:../Drivers/BSP/Components/vl53l0x/vl53l0x_api.c **** 		*pSequenceStepEnabled = (SequenceConfig & 0x08) >> 3;
 1391              		.loc 1 1144 0
 1392 001c C2F3C002 		ubfx	r2, r2, #3, #1
 1393              	.LVL154:
 1394 0020 1A70     		strb	r2, [r3]
1135:../Drivers/BSP/Components/vl53l0x/vl53l0x_api.c **** 	*pSequenceStepEnabled = 0;
 1395              		.loc 1 1135 0
 1396 0022 0020     		movs	r0, #0
1145:../Drivers/BSP/Components/vl53l0x/vl53l0x_api.c **** 		break;
 1397              		.loc 1 1145 0
 1398 0024 0EE0     		b	.L96
 1399              	.LVL155:
 1400              	.L100:
1146:../Drivers/BSP/Components/vl53l0x/vl53l0x_api.c **** 	case VL53L0X_SEQUENCESTEP_MSRC:
1147:../Drivers/BSP/Components/vl53l0x/vl53l0x_api.c **** 		*pSequenceStepEnabled = (SequenceConfig & 0x04) >> 2;
 1401              		.loc 1 1147 0
 1402 0026 C2F38002 		ubfx	r2, r2, #2, #1
 1403              	.LVL156:
 1404 002a 1A70     		strb	r2, [r3]
1135:../Drivers/BSP/Components/vl53l0x/vl53l0x_api.c **** 	*pSequenceStepEnabled = 0;
 1405              		.loc 1 1135 0
 1406 002c 0020     		movs	r0, #0
1148:../Drivers/BSP/Components/vl53l0x/vl53l0x_api.c **** 		break;
 1407              		.loc 1 1148 0
 1408 002e 09E0     		b	.L96
 1409              	.LVL157:
 1410              	.L101:
1149:../Drivers/BSP/Components/vl53l0x/vl53l0x_api.c **** 	case VL53L0X_SEQUENCESTEP_PRE_RANGE:
1150:../Drivers/BSP/Components/vl53l0x/vl53l0x_api.c **** 		*pSequenceStepEnabled = (SequenceConfig & 0x40) >> 6;
 1411              		.loc 1 1150 0
 1412 0030 C2F38012 		ubfx	r2, r2, #6, #1
 1413              	.LVL158:
 1414 0034 1A70     		strb	r2, [r3]
1135:../Drivers/BSP/Components/vl53l0x/vl53l0x_api.c **** 	*pSequenceStepEnabled = 0;
 1415              		.loc 1 1135 0
ARM GAS  /tmp/ccflrS73.s 			page 45


 1416 0036 0020     		movs	r0, #0
1151:../Drivers/BSP/Components/vl53l0x/vl53l0x_api.c **** 		break;
 1417              		.loc 1 1151 0
 1418 0038 04E0     		b	.L96
 1419              	.LVL159:
 1420              	.L102:
1152:../Drivers/BSP/Components/vl53l0x/vl53l0x_api.c **** 	case VL53L0X_SEQUENCESTEP_FINAL_RANGE:
1153:../Drivers/BSP/Components/vl53l0x/vl53l0x_api.c **** 		*pSequenceStepEnabled = (SequenceConfig & 0x80) >> 7;
 1421              		.loc 1 1153 0
 1422 003a D209     		lsrs	r2, r2, #7
 1423              	.LVL160:
 1424 003c 1A70     		strb	r2, [r3]
1135:../Drivers/BSP/Components/vl53l0x/vl53l0x_api.c **** 	*pSequenceStepEnabled = 0;
 1425              		.loc 1 1135 0
 1426 003e 0020     		movs	r0, #0
1154:../Drivers/BSP/Components/vl53l0x/vl53l0x_api.c **** 		break;
 1427              		.loc 1 1154 0
 1428 0040 00E0     		b	.L96
 1429              	.LVL161:
 1430              	.L103:
1155:../Drivers/BSP/Components/vl53l0x/vl53l0x_api.c **** 	default:
1156:../Drivers/BSP/Components/vl53l0x/vl53l0x_api.c **** 		Status = VL53L0X_ERROR_INVALID_PARAMS;
 1431              		.loc 1 1156 0
 1432 0042 FC20     		movs	r0, #252
 1433              	.LVL162:
 1434              	.L96:
1157:../Drivers/BSP/Components/vl53l0x/vl53l0x_api.c **** 	}
1158:../Drivers/BSP/Components/vl53l0x/vl53l0x_api.c **** 
1159:../Drivers/BSP/Components/vl53l0x/vl53l0x_api.c **** 	LOG_FUNCTION_END(Status);
1160:../Drivers/BSP/Components/vl53l0x/vl53l0x_api.c **** 	return Status;
1161:../Drivers/BSP/Components/vl53l0x/vl53l0x_api.c **** }
 1435              		.loc 1 1161 0
 1436 0044 40B2     		sxtb	r0, r0
 1437 0046 7047     		bx	lr
 1438              		.cfi_endproc
 1439              	.LFE151:
 1441              		.section	.text.VL53L0X_GetSequenceStepEnable,"ax",%progbits
 1442              		.align	2
 1443              		.global	VL53L0X_GetSequenceStepEnable
 1444              		.thumb
 1445              		.thumb_func
 1447              	VL53L0X_GetSequenceStepEnable:
 1448              	.LFB152:
1162:../Drivers/BSP/Components/vl53l0x/vl53l0x_api.c **** 
1163:../Drivers/BSP/Components/vl53l0x/vl53l0x_api.c **** VL53L0X_Error VL53L0X_GetSequenceStepEnable(VL53L0X_DEV Dev,
1164:../Drivers/BSP/Components/vl53l0x/vl53l0x_api.c **** 	VL53L0X_SequenceStepId SequenceStepId, uint8_t *pSequenceStepEnabled)
1165:../Drivers/BSP/Components/vl53l0x/vl53l0x_api.c **** {
 1449              		.loc 1 1165 0
 1450              		.cfi_startproc
 1451              		@ args = 0, pretend = 0, frame = 8
 1452              		@ frame_needed = 0, uses_anonymous_args = 0
 1453              	.LVL163:
 1454 0000 70B5     		push	{r4, r5, r6, lr}
 1455              	.LCFI33:
 1456              		.cfi_def_cfa_offset 16
 1457              		.cfi_offset 4, -16
 1458              		.cfi_offset 5, -12
ARM GAS  /tmp/ccflrS73.s 			page 46


 1459              		.cfi_offset 6, -8
 1460              		.cfi_offset 14, -4
 1461 0002 82B0     		sub	sp, sp, #8
 1462              	.LCFI34:
 1463              		.cfi_def_cfa_offset 24
 1464 0004 0646     		mov	r6, r0
 1465 0006 0D46     		mov	r5, r1
 1466 0008 1446     		mov	r4, r2
 1467              	.LVL164:
1166:../Drivers/BSP/Components/vl53l0x/vl53l0x_api.c **** 	VL53L0X_Error Status = VL53L0X_ERROR_NONE;
1167:../Drivers/BSP/Components/vl53l0x/vl53l0x_api.c **** 	uint8_t SequenceConfig = 0;
 1468              		.loc 1 1167 0
 1469 000a 02AA     		add	r2, sp, #8
 1470              	.LVL165:
 1471 000c 0023     		movs	r3, #0
 1472 000e 02F8013D 		strb	r3, [r2, #-1]!
1168:../Drivers/BSP/Components/vl53l0x/vl53l0x_api.c **** 	LOG_FUNCTION_START("");
1169:../Drivers/BSP/Components/vl53l0x/vl53l0x_api.c **** 
1170:../Drivers/BSP/Components/vl53l0x/vl53l0x_api.c **** 	Status = VL53L0X_RdByte(Dev, VL53L0X_REG_SYSTEM_SEQUENCE_CONFIG,
 1473              		.loc 1 1170 0
 1474 0012 0121     		movs	r1, #1
 1475              	.LVL166:
 1476 0014 FFF7FEFF 		bl	VL53L0X_RdByte
 1477              	.LVL167:
1171:../Drivers/BSP/Components/vl53l0x/vl53l0x_api.c **** 		&SequenceConfig);
1172:../Drivers/BSP/Components/vl53l0x/vl53l0x_api.c **** 
1173:../Drivers/BSP/Components/vl53l0x/vl53l0x_api.c **** 	if (Status == VL53L0X_ERROR_NONE) {
 1478              		.loc 1 1173 0
 1479 0018 0346     		mov	r3, r0
 1480 001a 38B9     		cbnz	r0, .L105
1174:../Drivers/BSP/Components/vl53l0x/vl53l0x_api.c **** 		Status = sequence_step_enabled(Dev, SequenceStepId,
 1481              		.loc 1 1174 0
 1482 001c 3046     		mov	r0, r6
 1483              	.LVL168:
 1484 001e 2946     		mov	r1, r5
 1485 0020 9DF80720 		ldrb	r2, [sp, #7]	@ zero_extendqisi2
 1486 0024 2346     		mov	r3, r4
 1487 0026 FFF7FEFF 		bl	sequence_step_enabled
 1488              	.LVL169:
 1489 002a 0346     		mov	r3, r0
 1490              	.LVL170:
 1491              	.L105:
1175:../Drivers/BSP/Components/vl53l0x/vl53l0x_api.c **** 			SequenceConfig, pSequenceStepEnabled);
1176:../Drivers/BSP/Components/vl53l0x/vl53l0x_api.c **** 	}
1177:../Drivers/BSP/Components/vl53l0x/vl53l0x_api.c **** 
1178:../Drivers/BSP/Components/vl53l0x/vl53l0x_api.c **** 	LOG_FUNCTION_END(Status);
1179:../Drivers/BSP/Components/vl53l0x/vl53l0x_api.c **** 	return Status;
1180:../Drivers/BSP/Components/vl53l0x/vl53l0x_api.c **** }
 1492              		.loc 1 1180 0
 1493 002c 58B2     		sxtb	r0, r3
 1494 002e 02B0     		add	sp, sp, #8
 1495              	.LCFI35:
 1496              		.cfi_def_cfa_offset 16
 1497              		@ sp needed
 1498 0030 70BD     		pop	{r4, r5, r6, pc}
 1499              		.cfi_endproc
 1500              	.LFE152:
ARM GAS  /tmp/ccflrS73.s 			page 47


 1502 0032 00BF     		.section	.text.VL53L0X_GetSequenceStepEnables,"ax",%progbits
 1503              		.align	2
 1504              		.global	VL53L0X_GetSequenceStepEnables
 1505              		.thumb
 1506              		.thumb_func
 1508              	VL53L0X_GetSequenceStepEnables:
 1509              	.LFB153:
1181:../Drivers/BSP/Components/vl53l0x/vl53l0x_api.c **** 
1182:../Drivers/BSP/Components/vl53l0x/vl53l0x_api.c **** VL53L0X_Error VL53L0X_GetSequenceStepEnables(VL53L0X_DEV Dev,
1183:../Drivers/BSP/Components/vl53l0x/vl53l0x_api.c **** 	VL53L0X_SchedulerSequenceSteps_t *pSchedulerSequenceSteps)
1184:../Drivers/BSP/Components/vl53l0x/vl53l0x_api.c **** {
 1510              		.loc 1 1184 0
 1511              		.cfi_startproc
 1512              		@ args = 0, pretend = 0, frame = 8
 1513              		@ frame_needed = 0, uses_anonymous_args = 0
 1514              	.LVL171:
 1515 0000 30B5     		push	{r4, r5, lr}
 1516              	.LCFI36:
 1517              		.cfi_def_cfa_offset 12
 1518              		.cfi_offset 4, -12
 1519              		.cfi_offset 5, -8
 1520              		.cfi_offset 14, -4
 1521 0002 83B0     		sub	sp, sp, #12
 1522              	.LCFI37:
 1523              		.cfi_def_cfa_offset 24
 1524 0004 0546     		mov	r5, r0
 1525 0006 0C46     		mov	r4, r1
 1526              	.LVL172:
1185:../Drivers/BSP/Components/vl53l0x/vl53l0x_api.c **** 	VL53L0X_Error Status = VL53L0X_ERROR_NONE;
1186:../Drivers/BSP/Components/vl53l0x/vl53l0x_api.c **** 	uint8_t SequenceConfig = 0;
 1527              		.loc 1 1186 0
 1528 0008 02AA     		add	r2, sp, #8
 1529 000a 0023     		movs	r3, #0
 1530 000c 02F8013D 		strb	r3, [r2, #-1]!
1187:../Drivers/BSP/Components/vl53l0x/vl53l0x_api.c **** 	LOG_FUNCTION_START("");
1188:../Drivers/BSP/Components/vl53l0x/vl53l0x_api.c **** 
1189:../Drivers/BSP/Components/vl53l0x/vl53l0x_api.c **** 	Status = VL53L0X_RdByte(Dev, VL53L0X_REG_SYSTEM_SEQUENCE_CONFIG,
 1531              		.loc 1 1189 0
 1532 0010 0121     		movs	r1, #1
 1533              	.LVL173:
 1534 0012 FFF7FEFF 		bl	VL53L0X_RdByte
 1535              	.LVL174:
1190:../Drivers/BSP/Components/vl53l0x/vl53l0x_api.c **** 		&SequenceConfig);
1191:../Drivers/BSP/Components/vl53l0x/vl53l0x_api.c **** 
1192:../Drivers/BSP/Components/vl53l0x/vl53l0x_api.c **** 	if (Status == VL53L0X_ERROR_NONE) {
 1536              		.loc 1 1192 0
 1537 0016 0346     		mov	r3, r0
 1538 0018 38B9     		cbnz	r0, .L108
1193:../Drivers/BSP/Components/vl53l0x/vl53l0x_api.c **** 		Status = sequence_step_enabled(Dev,
 1539              		.loc 1 1193 0
 1540 001a 2846     		mov	r0, r5
 1541              	.LVL175:
 1542 001c 0021     		movs	r1, #0
 1543 001e 9DF80720 		ldrb	r2, [sp, #7]	@ zero_extendqisi2
 1544 0022 2346     		mov	r3, r4
 1545 0024 FFF7FEFF 		bl	sequence_step_enabled
 1546              	.LVL176:
ARM GAS  /tmp/ccflrS73.s 			page 48


 1547 0028 0346     		mov	r3, r0
 1548              	.LVL177:
 1549              	.L108:
1194:../Drivers/BSP/Components/vl53l0x/vl53l0x_api.c **** 		VL53L0X_SEQUENCESTEP_TCC, SequenceConfig,
1195:../Drivers/BSP/Components/vl53l0x/vl53l0x_api.c **** 			&pSchedulerSequenceSteps->TccOn);
1196:../Drivers/BSP/Components/vl53l0x/vl53l0x_api.c **** 	}
1197:../Drivers/BSP/Components/vl53l0x/vl53l0x_api.c **** 	if (Status == VL53L0X_ERROR_NONE) {
 1550              		.loc 1 1197 0
 1551 002a 3BB9     		cbnz	r3, .L109
1198:../Drivers/BSP/Components/vl53l0x/vl53l0x_api.c **** 		Status = sequence_step_enabled(Dev,
 1552              		.loc 1 1198 0
 1553 002c 2846     		mov	r0, r5
 1554 002e 0121     		movs	r1, #1
 1555 0030 9DF80720 		ldrb	r2, [sp, #7]	@ zero_extendqisi2
 1556 0034 A31C     		adds	r3, r4, #2
 1557              	.LVL178:
 1558 0036 FFF7FEFF 		bl	sequence_step_enabled
 1559              	.LVL179:
 1560 003a 0346     		mov	r3, r0
 1561              	.LVL180:
 1562              	.L109:
1199:../Drivers/BSP/Components/vl53l0x/vl53l0x_api.c **** 		VL53L0X_SEQUENCESTEP_DSS, SequenceConfig,
1200:../Drivers/BSP/Components/vl53l0x/vl53l0x_api.c **** 			&pSchedulerSequenceSteps->DssOn);
1201:../Drivers/BSP/Components/vl53l0x/vl53l0x_api.c **** 	}
1202:../Drivers/BSP/Components/vl53l0x/vl53l0x_api.c **** 	if (Status == VL53L0X_ERROR_NONE) {
 1563              		.loc 1 1202 0
 1564 003c 3BB9     		cbnz	r3, .L110
1203:../Drivers/BSP/Components/vl53l0x/vl53l0x_api.c **** 		Status = sequence_step_enabled(Dev,
 1565              		.loc 1 1203 0
 1566 003e 2846     		mov	r0, r5
 1567 0040 0221     		movs	r1, #2
 1568 0042 9DF80720 		ldrb	r2, [sp, #7]	@ zero_extendqisi2
 1569 0046 631C     		adds	r3, r4, #1
 1570              	.LVL181:
 1571 0048 FFF7FEFF 		bl	sequence_step_enabled
 1572              	.LVL182:
 1573 004c 0346     		mov	r3, r0
 1574              	.LVL183:
 1575              	.L110:
1204:../Drivers/BSP/Components/vl53l0x/vl53l0x_api.c **** 		VL53L0X_SEQUENCESTEP_MSRC, SequenceConfig,
1205:../Drivers/BSP/Components/vl53l0x/vl53l0x_api.c **** 			&pSchedulerSequenceSteps->MsrcOn);
1206:../Drivers/BSP/Components/vl53l0x/vl53l0x_api.c **** 	}
1207:../Drivers/BSP/Components/vl53l0x/vl53l0x_api.c **** 	if (Status == VL53L0X_ERROR_NONE) {
 1576              		.loc 1 1207 0
 1577 004e 3BB9     		cbnz	r3, .L111
1208:../Drivers/BSP/Components/vl53l0x/vl53l0x_api.c **** 		Status = sequence_step_enabled(Dev,
 1578              		.loc 1 1208 0
 1579 0050 2846     		mov	r0, r5
 1580 0052 0321     		movs	r1, #3
 1581 0054 9DF80720 		ldrb	r2, [sp, #7]	@ zero_extendqisi2
 1582 0058 6318     		adds	r3, r4, r1
 1583              	.LVL184:
 1584 005a FFF7FEFF 		bl	sequence_step_enabled
 1585              	.LVL185:
 1586 005e 0346     		mov	r3, r0
 1587              	.LVL186:
 1588              	.L111:
ARM GAS  /tmp/ccflrS73.s 			page 49


1209:../Drivers/BSP/Components/vl53l0x/vl53l0x_api.c **** 		VL53L0X_SEQUENCESTEP_PRE_RANGE, SequenceConfig,
1210:../Drivers/BSP/Components/vl53l0x/vl53l0x_api.c **** 			&pSchedulerSequenceSteps->PreRangeOn);
1211:../Drivers/BSP/Components/vl53l0x/vl53l0x_api.c **** 	}
1212:../Drivers/BSP/Components/vl53l0x/vl53l0x_api.c **** 	if (Status == VL53L0X_ERROR_NONE) {
 1589              		.loc 1 1212 0
 1590 0060 3BB9     		cbnz	r3, .L112
1213:../Drivers/BSP/Components/vl53l0x/vl53l0x_api.c **** 		Status = sequence_step_enabled(Dev,
 1591              		.loc 1 1213 0
 1592 0062 2846     		mov	r0, r5
 1593 0064 0421     		movs	r1, #4
 1594 0066 9DF80720 		ldrb	r2, [sp, #7]	@ zero_extendqisi2
 1595 006a 6318     		adds	r3, r4, r1
 1596              	.LVL187:
 1597 006c FFF7FEFF 		bl	sequence_step_enabled
 1598              	.LVL188:
 1599 0070 0346     		mov	r3, r0
 1600              	.LVL189:
 1601              	.L112:
1214:../Drivers/BSP/Components/vl53l0x/vl53l0x_api.c **** 		VL53L0X_SEQUENCESTEP_FINAL_RANGE, SequenceConfig,
1215:../Drivers/BSP/Components/vl53l0x/vl53l0x_api.c **** 			&pSchedulerSequenceSteps->FinalRangeOn);
1216:../Drivers/BSP/Components/vl53l0x/vl53l0x_api.c **** 	}
1217:../Drivers/BSP/Components/vl53l0x/vl53l0x_api.c **** 
1218:../Drivers/BSP/Components/vl53l0x/vl53l0x_api.c **** 	LOG_FUNCTION_END(Status);
1219:../Drivers/BSP/Components/vl53l0x/vl53l0x_api.c **** 	return Status;
1220:../Drivers/BSP/Components/vl53l0x/vl53l0x_api.c **** }
 1602              		.loc 1 1220 0
 1603 0072 58B2     		sxtb	r0, r3
 1604 0074 03B0     		add	sp, sp, #12
 1605              	.LCFI38:
 1606              		.cfi_def_cfa_offset 12
 1607              		@ sp needed
 1608 0076 30BD     		pop	{r4, r5, pc}
 1609              		.cfi_endproc
 1610              	.LFE153:
 1612              		.section	.text.VL53L0X_GetNumberOfSequenceSteps,"ax",%progbits
 1613              		.align	2
 1614              		.global	VL53L0X_GetNumberOfSequenceSteps
 1615              		.thumb
 1616              		.thumb_func
 1618              	VL53L0X_GetNumberOfSequenceSteps:
 1619              	.LFB154:
1221:../Drivers/BSP/Components/vl53l0x/vl53l0x_api.c **** 
1222:../Drivers/BSP/Components/vl53l0x/vl53l0x_api.c **** VL53L0X_Error VL53L0X_GetNumberOfSequenceSteps(VL53L0X_DEV Dev,
1223:../Drivers/BSP/Components/vl53l0x/vl53l0x_api.c **** 	uint8_t *pNumberOfSequenceSteps)
1224:../Drivers/BSP/Components/vl53l0x/vl53l0x_api.c **** {
 1620              		.loc 1 1224 0
 1621              		.cfi_startproc
 1622              		@ args = 0, pretend = 0, frame = 0
 1623              		@ frame_needed = 0, uses_anonymous_args = 0
 1624              		@ link register save eliminated.
 1625              	.LVL190:
1225:../Drivers/BSP/Components/vl53l0x/vl53l0x_api.c **** 	VL53L0X_Error Status = VL53L0X_ERROR_NONE;
1226:../Drivers/BSP/Components/vl53l0x/vl53l0x_api.c **** 	LOG_FUNCTION_START("");
1227:../Drivers/BSP/Components/vl53l0x/vl53l0x_api.c **** 
1228:../Drivers/BSP/Components/vl53l0x/vl53l0x_api.c **** 	*pNumberOfSequenceSteps = VL53L0X_SEQUENCESTEP_NUMBER_OF_CHECKS;
 1626              		.loc 1 1228 0
 1627 0000 0523     		movs	r3, #5
ARM GAS  /tmp/ccflrS73.s 			page 50


 1628 0002 0B70     		strb	r3, [r1]
1229:../Drivers/BSP/Components/vl53l0x/vl53l0x_api.c **** 
1230:../Drivers/BSP/Components/vl53l0x/vl53l0x_api.c **** 	LOG_FUNCTION_END(Status);
1231:../Drivers/BSP/Components/vl53l0x/vl53l0x_api.c **** 	return Status;
1232:../Drivers/BSP/Components/vl53l0x/vl53l0x_api.c **** }
 1629              		.loc 1 1232 0
 1630 0004 0020     		movs	r0, #0
 1631              	.LVL191:
 1632 0006 7047     		bx	lr
 1633              		.cfi_endproc
 1634              	.LFE154:
 1636              		.section	.text.VL53L0X_GetSequenceStepsInfo,"ax",%progbits
 1637              		.align	2
 1638              		.global	VL53L0X_GetSequenceStepsInfo
 1639              		.thumb
 1640              		.thumb_func
 1642              	VL53L0X_GetSequenceStepsInfo:
 1643              	.LFB155:
1233:../Drivers/BSP/Components/vl53l0x/vl53l0x_api.c **** 
1234:../Drivers/BSP/Components/vl53l0x/vl53l0x_api.c **** VL53L0X_Error VL53L0X_GetSequenceStepsInfo(VL53L0X_SequenceStepId SequenceStepId,
1235:../Drivers/BSP/Components/vl53l0x/vl53l0x_api.c **** 	char *pSequenceStepsString)
1236:../Drivers/BSP/Components/vl53l0x/vl53l0x_api.c **** {
 1644              		.loc 1 1236 0
 1645              		.cfi_startproc
 1646              		@ args = 0, pretend = 0, frame = 0
 1647              		@ frame_needed = 0, uses_anonymous_args = 0
 1648              	.LVL192:
 1649 0000 08B5     		push	{r3, lr}
 1650              	.LCFI39:
 1651              		.cfi_def_cfa_offset 8
 1652              		.cfi_offset 3, -8
 1653              		.cfi_offset 14, -4
 1654              	.LVL193:
1237:../Drivers/BSP/Components/vl53l0x/vl53l0x_api.c **** 	VL53L0X_Error Status = VL53L0X_ERROR_NONE;
1238:../Drivers/BSP/Components/vl53l0x/vl53l0x_api.c **** 	LOG_FUNCTION_START("");
1239:../Drivers/BSP/Components/vl53l0x/vl53l0x_api.c **** 
1240:../Drivers/BSP/Components/vl53l0x/vl53l0x_api.c **** 	Status = VL53L0X_get_sequence_steps_info(
 1655              		.loc 1 1240 0
 1656 0002 FFF7FEFF 		bl	VL53L0X_get_sequence_steps_info
 1657              	.LVL194:
1241:../Drivers/BSP/Components/vl53l0x/vl53l0x_api.c **** 			SequenceStepId,
1242:../Drivers/BSP/Components/vl53l0x/vl53l0x_api.c **** 			pSequenceStepsString);
1243:../Drivers/BSP/Components/vl53l0x/vl53l0x_api.c **** 
1244:../Drivers/BSP/Components/vl53l0x/vl53l0x_api.c **** 	LOG_FUNCTION_END(Status);
1245:../Drivers/BSP/Components/vl53l0x/vl53l0x_api.c **** 
1246:../Drivers/BSP/Components/vl53l0x/vl53l0x_api.c **** 	return Status;
1247:../Drivers/BSP/Components/vl53l0x/vl53l0x_api.c **** }
 1658              		.loc 1 1247 0
 1659 0006 08BD     		pop	{r3, pc}
 1660              		.cfi_endproc
 1661              	.LFE155:
 1663              		.section	.text.VL53L0X_SetSequenceStepTimeout,"ax",%progbits
 1664              		.align	2
 1665              		.global	VL53L0X_SetSequenceStepTimeout
 1666              		.thumb
 1667              		.thumb_func
 1669              	VL53L0X_SetSequenceStepTimeout:
ARM GAS  /tmp/ccflrS73.s 			page 51


 1670              	.LFB156:
1248:../Drivers/BSP/Components/vl53l0x/vl53l0x_api.c **** 
1249:../Drivers/BSP/Components/vl53l0x/vl53l0x_api.c **** VL53L0X_Error VL53L0X_SetSequenceStepTimeout(VL53L0X_DEV Dev,
1250:../Drivers/BSP/Components/vl53l0x/vl53l0x_api.c **** 	VL53L0X_SequenceStepId SequenceStepId, FixPoint1616_t TimeOutMilliSecs)
1251:../Drivers/BSP/Components/vl53l0x/vl53l0x_api.c **** {
 1671              		.loc 1 1251 0
 1672              		.cfi_startproc
 1673              		@ args = 0, pretend = 0, frame = 8
 1674              		@ frame_needed = 0, uses_anonymous_args = 0
 1675              	.LVL195:
 1676 0000 70B5     		push	{r4, r5, r6, lr}
 1677              	.LCFI40:
 1678              		.cfi_def_cfa_offset 16
 1679              		.cfi_offset 4, -16
 1680              		.cfi_offset 5, -12
 1681              		.cfi_offset 6, -8
 1682              		.cfi_offset 14, -4
 1683 0002 82B0     		sub	sp, sp, #8
 1684              	.LCFI41:
 1685              		.cfi_def_cfa_offset 24
 1686 0004 0546     		mov	r5, r0
 1687 0006 0E46     		mov	r6, r1
 1688              	.LVL196:
1252:../Drivers/BSP/Components/vl53l0x/vl53l0x_api.c **** 	VL53L0X_Error Status = VL53L0X_ERROR_NONE;
1253:../Drivers/BSP/Components/vl53l0x/vl53l0x_api.c **** 	VL53L0X_Error Status1 = VL53L0X_ERROR_NONE;
1254:../Drivers/BSP/Components/vl53l0x/vl53l0x_api.c **** 	uint32_t TimeoutMicroSeconds = ((TimeOutMilliSecs * 1000) + 0x8000)
 1689              		.loc 1 1254 0
 1690 0008 4FF47A73 		mov	r3, #1000
 1691 000c 03FB02F2 		mul	r2, r3, r2
 1692              	.LVL197:
 1693 0010 02F50042 		add	r2, r2, #32768
 1694 0014 140C     		lsrs	r4, r2, #16
 1695              	.LVL198:
1255:../Drivers/BSP/Components/vl53l0x/vl53l0x_api.c **** 		>> 16;
1256:../Drivers/BSP/Components/vl53l0x/vl53l0x_api.c **** 	uint32_t MeasurementTimingBudgetMicroSeconds;
1257:../Drivers/BSP/Components/vl53l0x/vl53l0x_api.c **** 	FixPoint1616_t OldTimeOutMicroSeconds;
1258:../Drivers/BSP/Components/vl53l0x/vl53l0x_api.c **** 
1259:../Drivers/BSP/Components/vl53l0x/vl53l0x_api.c **** 	LOG_FUNCTION_START("");
1260:../Drivers/BSP/Components/vl53l0x/vl53l0x_api.c **** 
1261:../Drivers/BSP/Components/vl53l0x/vl53l0x_api.c **** 	/* Read back the current value in case we need to revert back to this.
1262:../Drivers/BSP/Components/vl53l0x/vl53l0x_api.c **** 	 */
1263:../Drivers/BSP/Components/vl53l0x/vl53l0x_api.c **** 	Status = get_sequence_step_timeout(Dev, SequenceStepId,
 1696              		.loc 1 1263 0
 1697 0016 01AA     		add	r2, sp, #4
 1698 0018 FFF7FEFF 		bl	get_sequence_step_timeout
 1699              	.LVL199:
1264:../Drivers/BSP/Components/vl53l0x/vl53l0x_api.c **** 		&OldTimeOutMicroSeconds);
1265:../Drivers/BSP/Components/vl53l0x/vl53l0x_api.c **** 
1266:../Drivers/BSP/Components/vl53l0x/vl53l0x_api.c **** 	if (Status == VL53L0X_ERROR_NONE) {
 1700              		.loc 1 1266 0
 1701 001c 0346     		mov	r3, r0
 1702 001e 28B9     		cbnz	r0, .L118
1267:../Drivers/BSP/Components/vl53l0x/vl53l0x_api.c **** 		Status = set_sequence_step_timeout(Dev, SequenceStepId,
 1703              		.loc 1 1267 0
 1704 0020 2846     		mov	r0, r5
 1705              	.LVL200:
 1706 0022 3146     		mov	r1, r6
ARM GAS  /tmp/ccflrS73.s 			page 52


 1707 0024 2246     		mov	r2, r4
 1708 0026 FFF7FEFF 		bl	set_sequence_step_timeout
 1709              	.LVL201:
 1710 002a 0346     		mov	r3, r0
 1711              	.LVL202:
 1712              	.L118:
1268:../Drivers/BSP/Components/vl53l0x/vl53l0x_api.c **** 			TimeoutMicroSeconds);
1269:../Drivers/BSP/Components/vl53l0x/vl53l0x_api.c **** 	}
1270:../Drivers/BSP/Components/vl53l0x/vl53l0x_api.c **** 
1271:../Drivers/BSP/Components/vl53l0x/vl53l0x_api.c **** 	if (Status == VL53L0X_ERROR_NONE) {
 1713              		.loc 1 1271 0
 1714 002c 93B9     		cbnz	r3, .L119
1272:../Drivers/BSP/Components/vl53l0x/vl53l0x_api.c **** 		VL53L0X_GETPARAMETERFIELD(Dev,
 1715              		.loc 1 1272 0
 1716 002e 6C69     		ldr	r4, [r5, #20]
 1717              	.LVL203:
1273:../Drivers/BSP/Components/vl53l0x/vl53l0x_api.c **** 			MeasurementTimingBudgetMicroSeconds,
1274:../Drivers/BSP/Components/vl53l0x/vl53l0x_api.c **** 			MeasurementTimingBudgetMicroSeconds);
1275:../Drivers/BSP/Components/vl53l0x/vl53l0x_api.c **** 
1276:../Drivers/BSP/Components/vl53l0x/vl53l0x_api.c **** 		/* At this point we don't know if the requested value is valid,
1277:../Drivers/BSP/Components/vl53l0x/vl53l0x_api.c **** 		 therefore proceed to update the entire timing budget and
1278:../Drivers/BSP/Components/vl53l0x/vl53l0x_api.c **** 		 if this fails, revert back to the previous value.
1279:../Drivers/BSP/Components/vl53l0x/vl53l0x_api.c **** 		 */
1280:../Drivers/BSP/Components/vl53l0x/vl53l0x_api.c **** 		Status = VL53L0X_SetMeasurementTimingBudgetMicroSeconds(Dev,
 1718              		.loc 1 1280 0
 1719 0030 2846     		mov	r0, r5
 1720 0032 2146     		mov	r1, r4
 1721 0034 FFF7FEFF 		bl	VL53L0X_SetMeasurementTimingBudgetMicroSeconds
 1722              	.LVL204:
1281:../Drivers/BSP/Components/vl53l0x/vl53l0x_api.c **** 			MeasurementTimingBudgetMicroSeconds);
1282:../Drivers/BSP/Components/vl53l0x/vl53l0x_api.c **** 
1283:../Drivers/BSP/Components/vl53l0x/vl53l0x_api.c **** 		if (Status != VL53L0X_ERROR_NONE) {
 1723              		.loc 1 1283 0
 1724 0038 0346     		mov	r3, r0
 1725 003a 58B1     		cbz	r0, .L119
1284:../Drivers/BSP/Components/vl53l0x/vl53l0x_api.c **** 			Status1 = set_sequence_step_timeout(Dev, SequenceStepId,
 1726              		.loc 1 1284 0
 1727 003c 2846     		mov	r0, r5
 1728              	.LVL205:
 1729 003e 3146     		mov	r1, r6
 1730 0040 019A     		ldr	r2, [sp, #4]
 1731 0042 FFF7FEFF 		bl	set_sequence_step_timeout
 1732              	.LVL206:
1285:../Drivers/BSP/Components/vl53l0x/vl53l0x_api.c **** 				OldTimeOutMicroSeconds);
1286:../Drivers/BSP/Components/vl53l0x/vl53l0x_api.c **** 
1287:../Drivers/BSP/Components/vl53l0x/vl53l0x_api.c **** 			if (Status1 == VL53L0X_ERROR_NONE) {
 1733              		.loc 1 1287 0
 1734 0046 0346     		mov	r3, r0
 1735 0048 20B9     		cbnz	r0, .L119
1288:../Drivers/BSP/Components/vl53l0x/vl53l0x_api.c **** 				Status1 =
 1736              		.loc 1 1288 0
 1737 004a 2846     		mov	r0, r5
 1738              	.LVL207:
 1739 004c 2146     		mov	r1, r4
 1740 004e FFF7FEFF 		bl	VL53L0X_SetMeasurementTimingBudgetMicroSeconds
 1741              	.LVL208:
 1742 0052 0346     		mov	r3, r0
ARM GAS  /tmp/ccflrS73.s 			page 53


 1743              	.LVL209:
 1744              	.L119:
1289:../Drivers/BSP/Components/vl53l0x/vl53l0x_api.c **** 				VL53L0X_SetMeasurementTimingBudgetMicroSeconds(
1290:../Drivers/BSP/Components/vl53l0x/vl53l0x_api.c **** 					Dev,
1291:../Drivers/BSP/Components/vl53l0x/vl53l0x_api.c **** 					MeasurementTimingBudgetMicroSeconds);
1292:../Drivers/BSP/Components/vl53l0x/vl53l0x_api.c **** 			}
1293:../Drivers/BSP/Components/vl53l0x/vl53l0x_api.c **** 
1294:../Drivers/BSP/Components/vl53l0x/vl53l0x_api.c **** 			Status = Status1;
1295:../Drivers/BSP/Components/vl53l0x/vl53l0x_api.c **** 		}
1296:../Drivers/BSP/Components/vl53l0x/vl53l0x_api.c **** 	}
1297:../Drivers/BSP/Components/vl53l0x/vl53l0x_api.c **** 
1298:../Drivers/BSP/Components/vl53l0x/vl53l0x_api.c **** 	LOG_FUNCTION_END(Status);
1299:../Drivers/BSP/Components/vl53l0x/vl53l0x_api.c **** 
1300:../Drivers/BSP/Components/vl53l0x/vl53l0x_api.c **** 	return Status;
1301:../Drivers/BSP/Components/vl53l0x/vl53l0x_api.c **** }
 1745              		.loc 1 1301 0
 1746 0054 58B2     		sxtb	r0, r3
 1747 0056 02B0     		add	sp, sp, #8
 1748              	.LCFI42:
 1749              		.cfi_def_cfa_offset 16
 1750              		@ sp needed
 1751 0058 70BD     		pop	{r4, r5, r6, pc}
 1752              		.cfi_endproc
 1753              	.LFE156:
 1755              		.section	.text.VL53L0X_GetSequenceStepTimeout,"ax",%progbits
 1756              		.align	2
 1757              		.global	VL53L0X_GetSequenceStepTimeout
 1758              		.thumb
 1759              		.thumb_func
 1761              	VL53L0X_GetSequenceStepTimeout:
 1762              	.LFB157:
1302:../Drivers/BSP/Components/vl53l0x/vl53l0x_api.c **** 
1303:../Drivers/BSP/Components/vl53l0x/vl53l0x_api.c **** VL53L0X_Error VL53L0X_GetSequenceStepTimeout(VL53L0X_DEV Dev,
1304:../Drivers/BSP/Components/vl53l0x/vl53l0x_api.c **** 	VL53L0X_SequenceStepId SequenceStepId, FixPoint1616_t *pTimeOutMilliSecs)
1305:../Drivers/BSP/Components/vl53l0x/vl53l0x_api.c **** {
 1763              		.loc 1 1305 0
 1764              		.cfi_startproc
 1765              		@ args = 0, pretend = 0, frame = 8
 1766              		@ frame_needed = 0, uses_anonymous_args = 0
 1767              	.LVL210:
 1768 0000 10B5     		push	{r4, lr}
 1769              	.LCFI43:
 1770              		.cfi_def_cfa_offset 8
 1771              		.cfi_offset 4, -8
 1772              		.cfi_offset 14, -4
 1773 0002 82B0     		sub	sp, sp, #8
 1774              	.LCFI44:
 1775              		.cfi_def_cfa_offset 16
 1776 0004 1446     		mov	r4, r2
 1777              	.LVL211:
1306:../Drivers/BSP/Components/vl53l0x/vl53l0x_api.c **** 	VL53L0X_Error Status = VL53L0X_ERROR_NONE;
1307:../Drivers/BSP/Components/vl53l0x/vl53l0x_api.c **** 	uint32_t TimeoutMicroSeconds;
1308:../Drivers/BSP/Components/vl53l0x/vl53l0x_api.c **** 	LOG_FUNCTION_START("");
1309:../Drivers/BSP/Components/vl53l0x/vl53l0x_api.c **** 
1310:../Drivers/BSP/Components/vl53l0x/vl53l0x_api.c **** 	Status = get_sequence_step_timeout(Dev, SequenceStepId,
 1778              		.loc 1 1310 0
 1779 0006 01AA     		add	r2, sp, #4
ARM GAS  /tmp/ccflrS73.s 			page 54


 1780              	.LVL212:
 1781 0008 FFF7FEFF 		bl	get_sequence_step_timeout
 1782              	.LVL213:
1311:../Drivers/BSP/Components/vl53l0x/vl53l0x_api.c **** 		&TimeoutMicroSeconds);
1312:../Drivers/BSP/Components/vl53l0x/vl53l0x_api.c **** 	if (Status == VL53L0X_ERROR_NONE) {
 1783              		.loc 1 1312 0
 1784 000c 0246     		mov	r2, r0
 1785 000e 48B9     		cbnz	r0, .L123
1313:../Drivers/BSP/Components/vl53l0x/vl53l0x_api.c **** 		TimeoutMicroSeconds <<= 8;
 1786              		.loc 1 1313 0
 1787 0010 019B     		ldr	r3, [sp, #4]
 1788 0012 1B02     		lsls	r3, r3, #8
 1789              	.LVL214:
1314:../Drivers/BSP/Components/vl53l0x/vl53l0x_api.c **** 		*pTimeOutMilliSecs = (TimeoutMicroSeconds + 500)/1000;
 1790              		.loc 1 1314 0
 1791 0014 03F5FA73 		add	r3, r3, #500
 1792              	.LVL215:
 1793 0018 0449     		ldr	r1, .L125
 1794 001a A1FB0313 		umull	r1, r3, r1, r3
 1795              	.LVL216:
 1796 001e 9B09     		lsrs	r3, r3, #6
1315:../Drivers/BSP/Components/vl53l0x/vl53l0x_api.c **** 		*pTimeOutMilliSecs <<= 8;
 1797              		.loc 1 1315 0
 1798 0020 1B02     		lsls	r3, r3, #8
 1799 0022 2360     		str	r3, [r4]
 1800              	.LVL217:
 1801              	.L123:
1316:../Drivers/BSP/Components/vl53l0x/vl53l0x_api.c **** 	}
1317:../Drivers/BSP/Components/vl53l0x/vl53l0x_api.c **** 
1318:../Drivers/BSP/Components/vl53l0x/vl53l0x_api.c **** 	LOG_FUNCTION_END(Status);
1319:../Drivers/BSP/Components/vl53l0x/vl53l0x_api.c **** 	return Status;
1320:../Drivers/BSP/Components/vl53l0x/vl53l0x_api.c **** }
 1802              		.loc 1 1320 0
 1803 0024 1046     		mov	r0, r2
 1804              	.LVL218:
 1805 0026 02B0     		add	sp, sp, #8
 1806              	.LCFI45:
 1807              		.cfi_def_cfa_offset 8
 1808              		@ sp needed
 1809 0028 10BD     		pop	{r4, pc}
 1810              	.LVL219:
 1811              	.L126:
 1812 002a 00BF     		.align	2
 1813              	.L125:
 1814 002c D34D6210 		.word	274877907
 1815              		.cfi_endproc
 1816              	.LFE157:
 1818              		.section	.text.VL53L0X_SetInterMeasurementPeriodMilliSeconds,"ax",%progbits
 1819              		.align	2
 1820              		.global	VL53L0X_SetInterMeasurementPeriodMilliSeconds
 1821              		.thumb
 1822              		.thumb_func
 1824              	VL53L0X_SetInterMeasurementPeriodMilliSeconds:
 1825              	.LFB158:
1321:../Drivers/BSP/Components/vl53l0x/vl53l0x_api.c **** 
1322:../Drivers/BSP/Components/vl53l0x/vl53l0x_api.c **** VL53L0X_Error VL53L0X_SetInterMeasurementPeriodMilliSeconds(VL53L0X_DEV Dev,
1323:../Drivers/BSP/Components/vl53l0x/vl53l0x_api.c **** 	uint32_t InterMeasurementPeriodMilliSeconds)
ARM GAS  /tmp/ccflrS73.s 			page 55


1324:../Drivers/BSP/Components/vl53l0x/vl53l0x_api.c **** {
 1826              		.loc 1 1324 0
 1827              		.cfi_startproc
 1828              		@ args = 0, pretend = 0, frame = 8
 1829              		@ frame_needed = 0, uses_anonymous_args = 0
 1830              	.LVL220:
 1831 0000 30B5     		push	{r4, r5, lr}
 1832              	.LCFI46:
 1833              		.cfi_def_cfa_offset 12
 1834              		.cfi_offset 4, -12
 1835              		.cfi_offset 5, -8
 1836              		.cfi_offset 14, -4
 1837 0002 83B0     		sub	sp, sp, #12
 1838              	.LCFI47:
 1839              		.cfi_def_cfa_offset 24
 1840 0004 0446     		mov	r4, r0
 1841 0006 0D46     		mov	r5, r1
 1842              	.LVL221:
1325:../Drivers/BSP/Components/vl53l0x/vl53l0x_api.c **** 	VL53L0X_Error Status = VL53L0X_ERROR_NONE;
1326:../Drivers/BSP/Components/vl53l0x/vl53l0x_api.c **** 	uint16_t osc_calibrate_val;
1327:../Drivers/BSP/Components/vl53l0x/vl53l0x_api.c **** 	uint32_t IMPeriodMilliSeconds;
1328:../Drivers/BSP/Components/vl53l0x/vl53l0x_api.c **** 
1329:../Drivers/BSP/Components/vl53l0x/vl53l0x_api.c **** 	LOG_FUNCTION_START("");
1330:../Drivers/BSP/Components/vl53l0x/vl53l0x_api.c **** 
1331:../Drivers/BSP/Components/vl53l0x/vl53l0x_api.c **** 	Status = VL53L0X_RdWord(Dev, VL53L0X_REG_OSC_CALIBRATE_VAL,
 1843              		.loc 1 1331 0
 1844 0008 F821     		movs	r1, #248
 1845              	.LVL222:
 1846 000a 0DF10602 		add	r2, sp, #6
 1847 000e FFF7FEFF 		bl	VL53L0X_RdWord
 1848              	.LVL223:
1332:../Drivers/BSP/Components/vl53l0x/vl53l0x_api.c **** 		&osc_calibrate_val);
1333:../Drivers/BSP/Components/vl53l0x/vl53l0x_api.c **** 
1334:../Drivers/BSP/Components/vl53l0x/vl53l0x_api.c **** 	if (Status == VL53L0X_ERROR_NONE) {
 1849              		.loc 1 1334 0
 1850 0012 0346     		mov	r3, r0
 1851 0014 58B9     		cbnz	r0, .L128
1335:../Drivers/BSP/Components/vl53l0x/vl53l0x_api.c **** 		if (osc_calibrate_val != 0) {
 1852              		.loc 1 1335 0
 1853 0016 BDF80620 		ldrh	r2, [sp, #6]
 1854 001a 12B1     		cbz	r2, .L131
1336:../Drivers/BSP/Components/vl53l0x/vl53l0x_api.c **** 			IMPeriodMilliSeconds =
 1855              		.loc 1 1336 0
 1856 001c 05FB02F2 		mul	r2, r5, r2
 1857              	.LVL224:
 1858 0020 00E0     		b	.L129
 1859              	.LVL225:
 1860              	.L131:
1337:../Drivers/BSP/Components/vl53l0x/vl53l0x_api.c **** 				InterMeasurementPeriodMilliSeconds
1338:../Drivers/BSP/Components/vl53l0x/vl53l0x_api.c **** 					* osc_calibrate_val;
1339:../Drivers/BSP/Components/vl53l0x/vl53l0x_api.c **** 		} else {
1340:../Drivers/BSP/Components/vl53l0x/vl53l0x_api.c **** 			IMPeriodMilliSeconds =
 1861              		.loc 1 1340 0
 1862 0022 2A46     		mov	r2, r5
 1863              	.L129:
 1864              	.LVL226:
1341:../Drivers/BSP/Components/vl53l0x/vl53l0x_api.c **** 				InterMeasurementPeriodMilliSeconds;
ARM GAS  /tmp/ccflrS73.s 			page 56


1342:../Drivers/BSP/Components/vl53l0x/vl53l0x_api.c **** 		}
1343:../Drivers/BSP/Components/vl53l0x/vl53l0x_api.c **** 		Status = VL53L0X_WrDWord(Dev,
 1865              		.loc 1 1343 0
 1866 0024 2046     		mov	r0, r4
 1867              	.LVL227:
 1868 0026 0421     		movs	r1, #4
 1869 0028 FFF7FEFF 		bl	VL53L0X_WrDWord
 1870              	.LVL228:
 1871 002c 0346     		mov	r3, r0
 1872              	.LVL229:
 1873              	.L128:
1344:../Drivers/BSP/Components/vl53l0x/vl53l0x_api.c **** 		VL53L0X_REG_SYSTEM_INTERMEASUREMENT_PERIOD,
1345:../Drivers/BSP/Components/vl53l0x/vl53l0x_api.c **** 			IMPeriodMilliSeconds);
1346:../Drivers/BSP/Components/vl53l0x/vl53l0x_api.c **** 	}
1347:../Drivers/BSP/Components/vl53l0x/vl53l0x_api.c **** 
1348:../Drivers/BSP/Components/vl53l0x/vl53l0x_api.c **** 	if (Status == VL53L0X_ERROR_NONE) {
 1874              		.loc 1 1348 0
 1875 002e 03B9     		cbnz	r3, .L130
1349:../Drivers/BSP/Components/vl53l0x/vl53l0x_api.c **** 		VL53L0X_SETPARAMETERFIELD(Dev,
 1876              		.loc 1 1349 0
 1877 0030 A561     		str	r5, [r4, #24]
 1878              	.L130:
1350:../Drivers/BSP/Components/vl53l0x/vl53l0x_api.c **** 			InterMeasurementPeriodMilliSeconds,
1351:../Drivers/BSP/Components/vl53l0x/vl53l0x_api.c **** 			InterMeasurementPeriodMilliSeconds);
1352:../Drivers/BSP/Components/vl53l0x/vl53l0x_api.c **** 	}
1353:../Drivers/BSP/Components/vl53l0x/vl53l0x_api.c **** 
1354:../Drivers/BSP/Components/vl53l0x/vl53l0x_api.c **** 	LOG_FUNCTION_END(Status);
1355:../Drivers/BSP/Components/vl53l0x/vl53l0x_api.c **** 	return Status;
1356:../Drivers/BSP/Components/vl53l0x/vl53l0x_api.c **** }
 1879              		.loc 1 1356 0
 1880 0032 58B2     		sxtb	r0, r3
 1881 0034 03B0     		add	sp, sp, #12
 1882              	.LCFI48:
 1883              		.cfi_def_cfa_offset 12
 1884              		@ sp needed
 1885 0036 30BD     		pop	{r4, r5, pc}
 1886              		.cfi_endproc
 1887              	.LFE158:
 1889              		.section	.text.VL53L0X_GetInterMeasurementPeriodMilliSeconds,"ax",%progbits
 1890              		.align	2
 1891              		.global	VL53L0X_GetInterMeasurementPeriodMilliSeconds
 1892              		.thumb
 1893              		.thumb_func
 1895              	VL53L0X_GetInterMeasurementPeriodMilliSeconds:
 1896              	.LFB159:
1357:../Drivers/BSP/Components/vl53l0x/vl53l0x_api.c **** 
1358:../Drivers/BSP/Components/vl53l0x/vl53l0x_api.c **** VL53L0X_Error VL53L0X_GetInterMeasurementPeriodMilliSeconds(VL53L0X_DEV Dev,
1359:../Drivers/BSP/Components/vl53l0x/vl53l0x_api.c **** 	uint32_t *pInterMeasurementPeriodMilliSeconds)
1360:../Drivers/BSP/Components/vl53l0x/vl53l0x_api.c **** {
 1897              		.loc 1 1360 0
 1898              		.cfi_startproc
 1899              		@ args = 0, pretend = 0, frame = 8
 1900              		@ frame_needed = 0, uses_anonymous_args = 0
 1901              	.LVL230:
 1902 0000 30B5     		push	{r4, r5, lr}
 1903              	.LCFI49:
 1904              		.cfi_def_cfa_offset 12
ARM GAS  /tmp/ccflrS73.s 			page 57


 1905              		.cfi_offset 4, -12
 1906              		.cfi_offset 5, -8
 1907              		.cfi_offset 14, -4
 1908 0002 83B0     		sub	sp, sp, #12
 1909              	.LCFI50:
 1910              		.cfi_def_cfa_offset 24
 1911 0004 0546     		mov	r5, r0
 1912 0006 0C46     		mov	r4, r1
 1913              	.LVL231:
1361:../Drivers/BSP/Components/vl53l0x/vl53l0x_api.c **** 	VL53L0X_Error Status = VL53L0X_ERROR_NONE;
1362:../Drivers/BSP/Components/vl53l0x/vl53l0x_api.c **** 	uint16_t osc_calibrate_val;
1363:../Drivers/BSP/Components/vl53l0x/vl53l0x_api.c **** 	uint32_t IMPeriodMilliSeconds;
1364:../Drivers/BSP/Components/vl53l0x/vl53l0x_api.c **** 
1365:../Drivers/BSP/Components/vl53l0x/vl53l0x_api.c **** 	LOG_FUNCTION_START("");
1366:../Drivers/BSP/Components/vl53l0x/vl53l0x_api.c **** 
1367:../Drivers/BSP/Components/vl53l0x/vl53l0x_api.c **** 	Status = VL53L0X_RdWord(Dev, VL53L0X_REG_OSC_CALIBRATE_VAL,
 1914              		.loc 1 1367 0
 1915 0008 F821     		movs	r1, #248
 1916              	.LVL232:
 1917 000a 0DF10602 		add	r2, sp, #6
 1918 000e FFF7FEFF 		bl	VL53L0X_RdWord
 1919              	.LVL233:
1368:../Drivers/BSP/Components/vl53l0x/vl53l0x_api.c **** 		&osc_calibrate_val);
1369:../Drivers/BSP/Components/vl53l0x/vl53l0x_api.c **** 
1370:../Drivers/BSP/Components/vl53l0x/vl53l0x_api.c **** 	if (Status == VL53L0X_ERROR_NONE) {
 1920              		.loc 1 1370 0
 1921 0012 0346     		mov	r3, r0
 1922 0014 28B9     		cbnz	r0, .L134
1371:../Drivers/BSP/Components/vl53l0x/vl53l0x_api.c **** 		Status = VL53L0X_RdDWord(Dev,
 1923              		.loc 1 1371 0
 1924 0016 2846     		mov	r0, r5
 1925              	.LVL234:
 1926 0018 0421     		movs	r1, #4
 1927 001a 6A46     		mov	r2, sp
 1928 001c FFF7FEFF 		bl	VL53L0X_RdDWord
 1929              	.LVL235:
 1930 0020 0346     		mov	r3, r0
 1931              	.LVL236:
 1932              	.L134:
1372:../Drivers/BSP/Components/vl53l0x/vl53l0x_api.c **** 		VL53L0X_REG_SYSTEM_INTERMEASUREMENT_PERIOD,
1373:../Drivers/BSP/Components/vl53l0x/vl53l0x_api.c **** 			&IMPeriodMilliSeconds);
1374:../Drivers/BSP/Components/vl53l0x/vl53l0x_api.c **** 	}
1375:../Drivers/BSP/Components/vl53l0x/vl53l0x_api.c **** 
1376:../Drivers/BSP/Components/vl53l0x/vl53l0x_api.c **** 	if (Status == VL53L0X_ERROR_NONE) {
 1933              		.loc 1 1376 0
 1934 0022 43B9     		cbnz	r3, .L135
1377:../Drivers/BSP/Components/vl53l0x/vl53l0x_api.c **** 		if (osc_calibrate_val != 0) {
 1935              		.loc 1 1377 0
 1936 0024 BDF80620 		ldrh	r2, [sp, #6]
 1937 0028 1AB1     		cbz	r2, .L136
1378:../Drivers/BSP/Components/vl53l0x/vl53l0x_api.c **** 			*pInterMeasurementPeriodMilliSeconds =
1379:../Drivers/BSP/Components/vl53l0x/vl53l0x_api.c **** 				IMPeriodMilliSeconds / osc_calibrate_val;
 1938              		.loc 1 1379 0
 1939 002a 0099     		ldr	r1, [sp]
 1940 002c B1FBF2F2 		udiv	r2, r1, r2
1378:../Drivers/BSP/Components/vl53l0x/vl53l0x_api.c **** 			*pInterMeasurementPeriodMilliSeconds =
 1941              		.loc 1 1378 0
ARM GAS  /tmp/ccflrS73.s 			page 58


 1942 0030 2260     		str	r2, [r4]
 1943              	.L136:
1380:../Drivers/BSP/Components/vl53l0x/vl53l0x_api.c **** 		}
1381:../Drivers/BSP/Components/vl53l0x/vl53l0x_api.c **** 		VL53L0X_SETPARAMETERFIELD(Dev,
 1944              		.loc 1 1381 0
 1945 0032 2268     		ldr	r2, [r4]
 1946 0034 AA61     		str	r2, [r5, #24]
 1947              	.L135:
1382:../Drivers/BSP/Components/vl53l0x/vl53l0x_api.c **** 			InterMeasurementPeriodMilliSeconds,
1383:../Drivers/BSP/Components/vl53l0x/vl53l0x_api.c **** 			*pInterMeasurementPeriodMilliSeconds);
1384:../Drivers/BSP/Components/vl53l0x/vl53l0x_api.c **** 	}
1385:../Drivers/BSP/Components/vl53l0x/vl53l0x_api.c **** 
1386:../Drivers/BSP/Components/vl53l0x/vl53l0x_api.c **** 	LOG_FUNCTION_END(Status);
1387:../Drivers/BSP/Components/vl53l0x/vl53l0x_api.c **** 	return Status;
1388:../Drivers/BSP/Components/vl53l0x/vl53l0x_api.c **** }
 1948              		.loc 1 1388 0
 1949 0036 58B2     		sxtb	r0, r3
 1950 0038 03B0     		add	sp, sp, #12
 1951              	.LCFI51:
 1952              		.cfi_def_cfa_offset 12
 1953              		@ sp needed
 1954 003a 30BD     		pop	{r4, r5, pc}
 1955              		.cfi_endproc
 1956              	.LFE159:
 1958              		.section	.text.VL53L0X_SetXTalkCompensationEnable,"ax",%progbits
 1959              		.align	2
 1960              		.global	VL53L0X_SetXTalkCompensationEnable
 1961              		.thumb
 1962              		.thumb_func
 1964              	VL53L0X_SetXTalkCompensationEnable:
 1965              	.LFB160:
1389:../Drivers/BSP/Components/vl53l0x/vl53l0x_api.c **** 
1390:../Drivers/BSP/Components/vl53l0x/vl53l0x_api.c **** VL53L0X_Error VL53L0X_SetXTalkCompensationEnable(VL53L0X_DEV Dev,
1391:../Drivers/BSP/Components/vl53l0x/vl53l0x_api.c **** 	uint8_t XTalkCompensationEnable)
1392:../Drivers/BSP/Components/vl53l0x/vl53l0x_api.c **** {
 1966              		.loc 1 1392 0
 1967              		.cfi_startproc
 1968              		@ args = 0, pretend = 0, frame = 0
 1969              		@ frame_needed = 0, uses_anonymous_args = 0
 1970              	.LVL237:
 1971 0000 38B5     		push	{r3, r4, r5, lr}
 1972              	.LCFI52:
 1973              		.cfi_def_cfa_offset 16
 1974              		.cfi_offset 3, -16
 1975              		.cfi_offset 4, -12
 1976              		.cfi_offset 5, -8
 1977              		.cfi_offset 14, -4
 1978 0002 0446     		mov	r4, r0
 1979              	.LVL238:
1393:../Drivers/BSP/Components/vl53l0x/vl53l0x_api.c **** 	VL53L0X_Error Status = VL53L0X_ERROR_NONE;
1394:../Drivers/BSP/Components/vl53l0x/vl53l0x_api.c **** 	FixPoint1616_t TempFix1616;
1395:../Drivers/BSP/Components/vl53l0x/vl53l0x_api.c **** 	uint16_t LinearityCorrectiveGain;
1396:../Drivers/BSP/Components/vl53l0x/vl53l0x_api.c **** 
1397:../Drivers/BSP/Components/vl53l0x/vl53l0x_api.c **** 	LOG_FUNCTION_START("");
1398:../Drivers/BSP/Components/vl53l0x/vl53l0x_api.c **** 
1399:../Drivers/BSP/Components/vl53l0x/vl53l0x_api.c **** 	LinearityCorrectiveGain = PALDevDataGet(Dev, LinearityCorrectiveGain);
 1980              		.loc 1 1399 0
ARM GAS  /tmp/ccflrS73.s 			page 59


 1981 0004 B0F85231 		ldrh	r3, [r0, #338]
 1982              	.LVL239:
1400:../Drivers/BSP/Components/vl53l0x/vl53l0x_api.c **** 
1401:../Drivers/BSP/Components/vl53l0x/vl53l0x_api.c **** 	if ((XTalkCompensationEnable == 0)
 1983              		.loc 1 1401 0
 1984 0008 0D46     		mov	r5, r1
 1985 000a 21B1     		cbz	r1, .L142
1402:../Drivers/BSP/Components/vl53l0x/vl53l0x_api.c **** 		|| (LinearityCorrectiveGain != 1000)) {
 1986              		.loc 1 1402 0
 1987 000c B3F57A7F 		cmp	r3, #1000
 1988 0010 03D1     		bne	.L143
1403:../Drivers/BSP/Components/vl53l0x/vl53l0x_api.c **** 		TempFix1616 = 0;
1404:../Drivers/BSP/Components/vl53l0x/vl53l0x_api.c **** 	} else {
1405:../Drivers/BSP/Components/vl53l0x/vl53l0x_api.c **** 		VL53L0X_GETPARAMETERFIELD(Dev, XTalkCompensationRateMegaCps,
 1989              		.loc 1 1405 0
 1990 0012 026A     		ldr	r2, [r0, #32]
 1991              	.LVL240:
 1992 0014 02E0     		b	.L139
 1993              	.LVL241:
 1994              	.L142:
1403:../Drivers/BSP/Components/vl53l0x/vl53l0x_api.c **** 		TempFix1616 = 0;
 1995              		.loc 1 1403 0
 1996 0016 0022     		movs	r2, #0
 1997 0018 00E0     		b	.L139
 1998              	.L143:
 1999 001a 0022     		movs	r2, #0
 2000              	.L139:
 2001              	.LVL242:
1406:../Drivers/BSP/Components/vl53l0x/vl53l0x_api.c **** 			TempFix1616);
1407:../Drivers/BSP/Components/vl53l0x/vl53l0x_api.c **** 	}
1408:../Drivers/BSP/Components/vl53l0x/vl53l0x_api.c **** 
1409:../Drivers/BSP/Components/vl53l0x/vl53l0x_api.c **** 	/* the following register has a format 3.13 */
1410:../Drivers/BSP/Components/vl53l0x/vl53l0x_api.c **** 	Status = VL53L0X_WrWord(Dev,
 2002              		.loc 1 1410 0
 2003 001c 2046     		mov	r0, r4
 2004              	.LVL243:
 2005 001e 2021     		movs	r1, #32
 2006              	.LVL244:
 2007 0020 C2F3CF02 		ubfx	r2, r2, #3, #16
 2008              	.LVL245:
 2009 0024 FFF7FEFF 		bl	VL53L0X_WrWord
 2010              	.LVL246:
1411:../Drivers/BSP/Components/vl53l0x/vl53l0x_api.c **** 	VL53L0X_REG_CROSSTALK_COMPENSATION_PEAK_RATE_MCPS,
1412:../Drivers/BSP/Components/vl53l0x/vl53l0x_api.c **** 		VL53L0X_FIXPOINT1616TOFIXPOINT313(TempFix1616));
1413:../Drivers/BSP/Components/vl53l0x/vl53l0x_api.c **** 
1414:../Drivers/BSP/Components/vl53l0x/vl53l0x_api.c **** 	if (Status == VL53L0X_ERROR_NONE) {
 2011              		.loc 1 1414 0
 2012 0028 0346     		mov	r3, r0
 2013 002a 28B9     		cbnz	r0, .L140
1415:../Drivers/BSP/Components/vl53l0x/vl53l0x_api.c **** 		if (XTalkCompensationEnable == 0) {
 2014              		.loc 1 1415 0
 2015 002c 15B9     		cbnz	r5, .L141
1416:../Drivers/BSP/Components/vl53l0x/vl53l0x_api.c **** 			VL53L0X_SETPARAMETERFIELD(Dev, XTalkCompensationEnable,
 2016              		.loc 1 1416 0
 2017 002e 0022     		movs	r2, #0
 2018 0030 2277     		strb	r2, [r4, #28]
 2019 0032 01E0     		b	.L140
ARM GAS  /tmp/ccflrS73.s 			page 60


 2020              	.L141:
1417:../Drivers/BSP/Components/vl53l0x/vl53l0x_api.c **** 				0);
1418:../Drivers/BSP/Components/vl53l0x/vl53l0x_api.c **** 		} else {
1419:../Drivers/BSP/Components/vl53l0x/vl53l0x_api.c **** 			VL53L0X_SETPARAMETERFIELD(Dev, XTalkCompensationEnable,
 2021              		.loc 1 1419 0
 2022 0034 0122     		movs	r2, #1
 2023 0036 2277     		strb	r2, [r4, #28]
 2024              	.L140:
1420:../Drivers/BSP/Components/vl53l0x/vl53l0x_api.c **** 				1);
1421:../Drivers/BSP/Components/vl53l0x/vl53l0x_api.c **** 		}
1422:../Drivers/BSP/Components/vl53l0x/vl53l0x_api.c **** 	}
1423:../Drivers/BSP/Components/vl53l0x/vl53l0x_api.c **** 
1424:../Drivers/BSP/Components/vl53l0x/vl53l0x_api.c **** 	LOG_FUNCTION_END(Status);
1425:../Drivers/BSP/Components/vl53l0x/vl53l0x_api.c **** 	return Status;
1426:../Drivers/BSP/Components/vl53l0x/vl53l0x_api.c **** }
 2025              		.loc 1 1426 0
 2026 0038 1846     		mov	r0, r3
 2027              	.LVL247:
 2028 003a 38BD     		pop	{r3, r4, r5, pc}
 2029              		.cfi_endproc
 2030              	.LFE160:
 2032              		.section	.text.VL53L0X_GetXTalkCompensationEnable,"ax",%progbits
 2033              		.align	2
 2034              		.global	VL53L0X_GetXTalkCompensationEnable
 2035              		.thumb
 2036              		.thumb_func
 2038              	VL53L0X_GetXTalkCompensationEnable:
 2039              	.LFB161:
1427:../Drivers/BSP/Components/vl53l0x/vl53l0x_api.c **** 
1428:../Drivers/BSP/Components/vl53l0x/vl53l0x_api.c **** VL53L0X_Error VL53L0X_GetXTalkCompensationEnable(VL53L0X_DEV Dev,
1429:../Drivers/BSP/Components/vl53l0x/vl53l0x_api.c **** 	uint8_t *pXTalkCompensationEnable)
1430:../Drivers/BSP/Components/vl53l0x/vl53l0x_api.c **** {
 2040              		.loc 1 1430 0
 2041              		.cfi_startproc
 2042              		@ args = 0, pretend = 0, frame = 0
 2043              		@ frame_needed = 0, uses_anonymous_args = 0
 2044              		@ link register save eliminated.
 2045              	.LVL248:
1431:../Drivers/BSP/Components/vl53l0x/vl53l0x_api.c **** 	VL53L0X_Error Status = VL53L0X_ERROR_NONE;
1432:../Drivers/BSP/Components/vl53l0x/vl53l0x_api.c **** 	uint8_t Temp8;
1433:../Drivers/BSP/Components/vl53l0x/vl53l0x_api.c **** 	LOG_FUNCTION_START("");
1434:../Drivers/BSP/Components/vl53l0x/vl53l0x_api.c **** 
1435:../Drivers/BSP/Components/vl53l0x/vl53l0x_api.c **** 	VL53L0X_GETPARAMETERFIELD(Dev, XTalkCompensationEnable, Temp8);
 2046              		.loc 1 1435 0
 2047 0000 037F     		ldrb	r3, [r0, #28]	@ zero_extendqisi2
 2048              	.LVL249:
1436:../Drivers/BSP/Components/vl53l0x/vl53l0x_api.c **** 	*pXTalkCompensationEnable = Temp8;
 2049              		.loc 1 1436 0
 2050 0002 0B70     		strb	r3, [r1]
1437:../Drivers/BSP/Components/vl53l0x/vl53l0x_api.c **** 
1438:../Drivers/BSP/Components/vl53l0x/vl53l0x_api.c **** 	LOG_FUNCTION_END(Status);
1439:../Drivers/BSP/Components/vl53l0x/vl53l0x_api.c **** 	return Status;
1440:../Drivers/BSP/Components/vl53l0x/vl53l0x_api.c **** }
 2051              		.loc 1 1440 0
 2052 0004 0020     		movs	r0, #0
 2053              	.LVL250:
 2054 0006 7047     		bx	lr
ARM GAS  /tmp/ccflrS73.s 			page 61


 2055              		.cfi_endproc
 2056              	.LFE161:
 2058              		.section	.text.VL53L0X_SetXTalkCompensationRateMegaCps,"ax",%progbits
 2059              		.align	2
 2060              		.global	VL53L0X_SetXTalkCompensationRateMegaCps
 2061              		.thumb
 2062              		.thumb_func
 2064              	VL53L0X_SetXTalkCompensationRateMegaCps:
 2065              	.LFB162:
1441:../Drivers/BSP/Components/vl53l0x/vl53l0x_api.c **** 
1442:../Drivers/BSP/Components/vl53l0x/vl53l0x_api.c **** VL53L0X_Error VL53L0X_SetXTalkCompensationRateMegaCps(VL53L0X_DEV Dev,
1443:../Drivers/BSP/Components/vl53l0x/vl53l0x_api.c **** 	FixPoint1616_t XTalkCompensationRateMegaCps)
1444:../Drivers/BSP/Components/vl53l0x/vl53l0x_api.c **** {
 2066              		.loc 1 1444 0
 2067              		.cfi_startproc
 2068              		@ args = 0, pretend = 0, frame = 0
 2069              		@ frame_needed = 0, uses_anonymous_args = 0
 2070              	.LVL251:
 2071 0000 38B5     		push	{r3, r4, r5, lr}
 2072              	.LCFI53:
 2073              		.cfi_def_cfa_offset 16
 2074              		.cfi_offset 3, -16
 2075              		.cfi_offset 4, -12
 2076              		.cfi_offset 5, -8
 2077              		.cfi_offset 14, -4
 2078              	.LVL252:
1445:../Drivers/BSP/Components/vl53l0x/vl53l0x_api.c **** 	VL53L0X_Error Status = VL53L0X_ERROR_NONE;
1446:../Drivers/BSP/Components/vl53l0x/vl53l0x_api.c **** 	uint8_t Temp8;
1447:../Drivers/BSP/Components/vl53l0x/vl53l0x_api.c **** 	uint16_t LinearityCorrectiveGain;
1448:../Drivers/BSP/Components/vl53l0x/vl53l0x_api.c **** 	uint16_t data;
1449:../Drivers/BSP/Components/vl53l0x/vl53l0x_api.c **** 	LOG_FUNCTION_START("");
1450:../Drivers/BSP/Components/vl53l0x/vl53l0x_api.c **** 
1451:../Drivers/BSP/Components/vl53l0x/vl53l0x_api.c **** 	VL53L0X_GETPARAMETERFIELD(Dev, XTalkCompensationEnable, Temp8);
 2079              		.loc 1 1451 0
 2080 0002 037F     		ldrb	r3, [r0, #28]	@ zero_extendqisi2
 2081              	.LVL253:
1452:../Drivers/BSP/Components/vl53l0x/vl53l0x_api.c **** 	LinearityCorrectiveGain = PALDevDataGet(Dev, LinearityCorrectiveGain);
 2082              		.loc 1 1452 0
 2083 0004 B0F85221 		ldrh	r2, [r0, #338]
 2084              	.LVL254:
1453:../Drivers/BSP/Components/vl53l0x/vl53l0x_api.c **** 
1454:../Drivers/BSP/Components/vl53l0x/vl53l0x_api.c **** 	if (Temp8 == 0) { /* disabled write only internal value */
 2085              		.loc 1 1454 0
 2086 0008 0BB9     		cbnz	r3, .L147
1455:../Drivers/BSP/Components/vl53l0x/vl53l0x_api.c **** 		VL53L0X_SETPARAMETERFIELD(Dev, XTalkCompensationRateMegaCps,
 2087              		.loc 1 1455 0
 2088 000a 0162     		str	r1, [r0, #32]
 2089 000c 0EE0     		b	.L148
 2090              	.L147:
1456:../Drivers/BSP/Components/vl53l0x/vl53l0x_api.c **** 			XTalkCompensationRateMegaCps);
1457:../Drivers/BSP/Components/vl53l0x/vl53l0x_api.c **** 	} else {
1458:../Drivers/BSP/Components/vl53l0x/vl53l0x_api.c **** 		/* the following register has a format 3.13 */
1459:../Drivers/BSP/Components/vl53l0x/vl53l0x_api.c **** 		if (LinearityCorrectiveGain == 1000) {
 2091              		.loc 1 1459 0
 2092 000e B2F57A7F 		cmp	r2, #1000
 2093 0012 02D1     		bne	.L150
1460:../Drivers/BSP/Components/vl53l0x/vl53l0x_api.c **** 			data = VL53L0X_FIXPOINT1616TOFIXPOINT313(
ARM GAS  /tmp/ccflrS73.s 			page 62


 2094              		.loc 1 1460 0
 2095 0014 C1F3CF02 		ubfx	r2, r1, #3, #16
 2096              	.LVL255:
 2097 0018 00E0     		b	.L149
 2098              	.LVL256:
 2099              	.L150:
1461:../Drivers/BSP/Components/vl53l0x/vl53l0x_api.c **** 				XTalkCompensationRateMegaCps);
1462:../Drivers/BSP/Components/vl53l0x/vl53l0x_api.c **** 		} else {
1463:../Drivers/BSP/Components/vl53l0x/vl53l0x_api.c **** 			data = 0;
 2100              		.loc 1 1463 0
 2101 001a 0022     		movs	r2, #0
 2102              	.LVL257:
 2103              	.L149:
 2104 001c 0D46     		mov	r5, r1
 2105 001e 0446     		mov	r4, r0
 2106              	.LVL258:
1464:../Drivers/BSP/Components/vl53l0x/vl53l0x_api.c **** 		}
1465:../Drivers/BSP/Components/vl53l0x/vl53l0x_api.c **** 
1466:../Drivers/BSP/Components/vl53l0x/vl53l0x_api.c **** 		Status = VL53L0X_WrWord(Dev,
 2107              		.loc 1 1466 0
 2108 0020 2021     		movs	r1, #32
 2109              	.LVL259:
 2110 0022 FFF7FEFF 		bl	VL53L0X_WrWord
 2111              	.LVL260:
1467:../Drivers/BSP/Components/vl53l0x/vl53l0x_api.c **** 		VL53L0X_REG_CROSSTALK_COMPENSATION_PEAK_RATE_MCPS, data);
1468:../Drivers/BSP/Components/vl53l0x/vl53l0x_api.c **** 
1469:../Drivers/BSP/Components/vl53l0x/vl53l0x_api.c **** 		if (Status == VL53L0X_ERROR_NONE) {
 2112              		.loc 1 1469 0
 2113 0026 0346     		mov	r3, r0
 2114 0028 00B9     		cbnz	r0, .L148
1470:../Drivers/BSP/Components/vl53l0x/vl53l0x_api.c **** 			VL53L0X_SETPARAMETERFIELD(Dev,
 2115              		.loc 1 1470 0
 2116 002a 2562     		str	r5, [r4, #32]
 2117              	.LVL261:
 2118              	.L148:
1471:../Drivers/BSP/Components/vl53l0x/vl53l0x_api.c **** 				XTalkCompensationRateMegaCps,
1472:../Drivers/BSP/Components/vl53l0x/vl53l0x_api.c **** 				XTalkCompensationRateMegaCps);
1473:../Drivers/BSP/Components/vl53l0x/vl53l0x_api.c **** 		}
1474:../Drivers/BSP/Components/vl53l0x/vl53l0x_api.c **** 	}
1475:../Drivers/BSP/Components/vl53l0x/vl53l0x_api.c **** 
1476:../Drivers/BSP/Components/vl53l0x/vl53l0x_api.c **** 	LOG_FUNCTION_END(Status);
1477:../Drivers/BSP/Components/vl53l0x/vl53l0x_api.c **** 	return Status;
1478:../Drivers/BSP/Components/vl53l0x/vl53l0x_api.c **** }
 2119              		.loc 1 1478 0
 2120 002c 58B2     		sxtb	r0, r3
 2121 002e 38BD     		pop	{r3, r4, r5, pc}
 2122              		.cfi_endproc
 2123              	.LFE162:
 2125              		.section	.text.VL53L0X_GetXTalkCompensationRateMegaCps,"ax",%progbits
 2126              		.align	2
 2127              		.global	VL53L0X_GetXTalkCompensationRateMegaCps
 2128              		.thumb
 2129              		.thumb_func
 2131              	VL53L0X_GetXTalkCompensationRateMegaCps:
 2132              	.LFB163:
1479:../Drivers/BSP/Components/vl53l0x/vl53l0x_api.c **** 
1480:../Drivers/BSP/Components/vl53l0x/vl53l0x_api.c **** VL53L0X_Error VL53L0X_GetXTalkCompensationRateMegaCps(VL53L0X_DEV Dev,
ARM GAS  /tmp/ccflrS73.s 			page 63


1481:../Drivers/BSP/Components/vl53l0x/vl53l0x_api.c **** 	FixPoint1616_t *pXTalkCompensationRateMegaCps)
1482:../Drivers/BSP/Components/vl53l0x/vl53l0x_api.c **** {
 2133              		.loc 1 1482 0
 2134              		.cfi_startproc
 2135              		@ args = 0, pretend = 0, frame = 8
 2136              		@ frame_needed = 0, uses_anonymous_args = 0
 2137              	.LVL262:
 2138 0000 30B5     		push	{r4, r5, lr}
 2139              	.LCFI54:
 2140              		.cfi_def_cfa_offset 12
 2141              		.cfi_offset 4, -12
 2142              		.cfi_offset 5, -8
 2143              		.cfi_offset 14, -4
 2144 0002 83B0     		sub	sp, sp, #12
 2145              	.LCFI55:
 2146              		.cfi_def_cfa_offset 24
 2147 0004 0446     		mov	r4, r0
 2148 0006 0D46     		mov	r5, r1
 2149              	.LVL263:
1483:../Drivers/BSP/Components/vl53l0x/vl53l0x_api.c **** 	VL53L0X_Error Status = VL53L0X_ERROR_NONE;
1484:../Drivers/BSP/Components/vl53l0x/vl53l0x_api.c **** 	uint16_t Value;
1485:../Drivers/BSP/Components/vl53l0x/vl53l0x_api.c **** 	FixPoint1616_t TempFix1616;
1486:../Drivers/BSP/Components/vl53l0x/vl53l0x_api.c **** 
1487:../Drivers/BSP/Components/vl53l0x/vl53l0x_api.c **** 	LOG_FUNCTION_START("");
1488:../Drivers/BSP/Components/vl53l0x/vl53l0x_api.c **** 
1489:../Drivers/BSP/Components/vl53l0x/vl53l0x_api.c **** 	Status = VL53L0X_RdWord(Dev,
 2150              		.loc 1 1489 0
 2151 0008 2021     		movs	r1, #32
 2152              	.LVL264:
 2153 000a 0DF10602 		add	r2, sp, #6
 2154 000e FFF7FEFF 		bl	VL53L0X_RdWord
 2155              	.LVL265:
1490:../Drivers/BSP/Components/vl53l0x/vl53l0x_api.c **** 	VL53L0X_REG_CROSSTALK_COMPENSATION_PEAK_RATE_MCPS, (uint16_t *)&Value);
1491:../Drivers/BSP/Components/vl53l0x/vl53l0x_api.c **** 	if (Status == VL53L0X_ERROR_NONE) {
 2156              		.loc 1 1491 0
 2157 0012 0246     		mov	r2, r0
 2158 0014 60B9     		cbnz	r0, .L153
1492:../Drivers/BSP/Components/vl53l0x/vl53l0x_api.c **** 		if (Value == 0) {
 2159              		.loc 1 1492 0
 2160 0016 BDF80630 		ldrh	r3, [sp, #6]
 2161 001a 23B9     		cbnz	r3, .L154
1493:../Drivers/BSP/Components/vl53l0x/vl53l0x_api.c **** 			/* the Xtalk is disabled return value from memory */
1494:../Drivers/BSP/Components/vl53l0x/vl53l0x_api.c **** 			VL53L0X_GETPARAMETERFIELD(Dev,
 2162              		.loc 1 1494 0
 2163 001c 236A     		ldr	r3, [r4, #32]
 2164              	.LVL266:
1495:../Drivers/BSP/Components/vl53l0x/vl53l0x_api.c **** 				XTalkCompensationRateMegaCps, TempFix1616);
1496:../Drivers/BSP/Components/vl53l0x/vl53l0x_api.c **** 			*pXTalkCompensationRateMegaCps = TempFix1616;
 2165              		.loc 1 1496 0
 2166 001e 2B60     		str	r3, [r5]
1497:../Drivers/BSP/Components/vl53l0x/vl53l0x_api.c **** 			VL53L0X_SETPARAMETERFIELD(Dev, XTalkCompensationEnable,
 2167              		.loc 1 1497 0
 2168 0020 0023     		movs	r3, #0
 2169              	.LVL267:
 2170 0022 2377     		strb	r3, [r4, #28]
 2171              	.LVL268:
 2172 0024 04E0     		b	.L153
ARM GAS  /tmp/ccflrS73.s 			page 64


 2173              	.L154:
1498:../Drivers/BSP/Components/vl53l0x/vl53l0x_api.c **** 				0);
1499:../Drivers/BSP/Components/vl53l0x/vl53l0x_api.c **** 		} else {
1500:../Drivers/BSP/Components/vl53l0x/vl53l0x_api.c **** 			TempFix1616 = VL53L0X_FIXPOINT313TOFIXPOINT1616(Value);
 2174              		.loc 1 1500 0
 2175 0026 DB00     		lsls	r3, r3, #3
 2176              	.LVL269:
1501:../Drivers/BSP/Components/vl53l0x/vl53l0x_api.c **** 			*pXTalkCompensationRateMegaCps = TempFix1616;
 2177              		.loc 1 1501 0
 2178 0028 2B60     		str	r3, [r5]
1502:../Drivers/BSP/Components/vl53l0x/vl53l0x_api.c **** 			VL53L0X_SETPARAMETERFIELD(Dev,
 2179              		.loc 1 1502 0
 2180 002a 2362     		str	r3, [r4, #32]
1503:../Drivers/BSP/Components/vl53l0x/vl53l0x_api.c **** 				XTalkCompensationRateMegaCps, TempFix1616);
1504:../Drivers/BSP/Components/vl53l0x/vl53l0x_api.c **** 			VL53L0X_SETPARAMETERFIELD(Dev, XTalkCompensationEnable,
 2181              		.loc 1 1504 0
 2182 002c 0123     		movs	r3, #1
 2183              	.LVL270:
 2184 002e 2377     		strb	r3, [r4, #28]
 2185              	.LVL271:
 2186              	.L153:
1505:../Drivers/BSP/Components/vl53l0x/vl53l0x_api.c **** 				1);
1506:../Drivers/BSP/Components/vl53l0x/vl53l0x_api.c **** 		}
1507:../Drivers/BSP/Components/vl53l0x/vl53l0x_api.c **** 	}
1508:../Drivers/BSP/Components/vl53l0x/vl53l0x_api.c **** 
1509:../Drivers/BSP/Components/vl53l0x/vl53l0x_api.c **** 	LOG_FUNCTION_END(Status);
1510:../Drivers/BSP/Components/vl53l0x/vl53l0x_api.c **** 	return Status;
1511:../Drivers/BSP/Components/vl53l0x/vl53l0x_api.c **** }
 2187              		.loc 1 1511 0
 2188 0030 1046     		mov	r0, r2
 2189              	.LVL272:
 2190 0032 03B0     		add	sp, sp, #12
 2191              	.LCFI56:
 2192              		.cfi_def_cfa_offset 12
 2193              		@ sp needed
 2194 0034 30BD     		pop	{r4, r5, pc}
 2195              		.cfi_endproc
 2196              	.LFE163:
 2198 0036 00BF     		.section	.text.VL53L0X_SetRefCalibration,"ax",%progbits
 2199              		.align	2
 2200              		.global	VL53L0X_SetRefCalibration
 2201              		.thumb
 2202              		.thumb_func
 2204              	VL53L0X_SetRefCalibration:
 2205              	.LFB164:
1512:../Drivers/BSP/Components/vl53l0x/vl53l0x_api.c **** 
1513:../Drivers/BSP/Components/vl53l0x/vl53l0x_api.c **** VL53L0X_Error VL53L0X_SetRefCalibration(VL53L0X_DEV Dev, uint8_t VhvSettings,
1514:../Drivers/BSP/Components/vl53l0x/vl53l0x_api.c **** 	uint8_t PhaseCal)
1515:../Drivers/BSP/Components/vl53l0x/vl53l0x_api.c **** {
 2206              		.loc 1 1515 0
 2207              		.cfi_startproc
 2208              		@ args = 0, pretend = 0, frame = 0
 2209              		@ frame_needed = 0, uses_anonymous_args = 0
 2210              	.LVL273:
 2211 0000 08B5     		push	{r3, lr}
 2212              	.LCFI57:
 2213              		.cfi_def_cfa_offset 8
ARM GAS  /tmp/ccflrS73.s 			page 65


 2214              		.cfi_offset 3, -8
 2215              		.cfi_offset 14, -4
 2216              	.LVL274:
1516:../Drivers/BSP/Components/vl53l0x/vl53l0x_api.c **** 	VL53L0X_Error Status = VL53L0X_ERROR_NONE;
1517:../Drivers/BSP/Components/vl53l0x/vl53l0x_api.c **** 	LOG_FUNCTION_START("");
1518:../Drivers/BSP/Components/vl53l0x/vl53l0x_api.c **** 
1519:../Drivers/BSP/Components/vl53l0x/vl53l0x_api.c **** 	Status = VL53L0X_set_ref_calibration(Dev, VhvSettings, PhaseCal);
 2217              		.loc 1 1519 0
 2218 0002 FFF7FEFF 		bl	VL53L0X_set_ref_calibration
 2219              	.LVL275:
1520:../Drivers/BSP/Components/vl53l0x/vl53l0x_api.c **** 
1521:../Drivers/BSP/Components/vl53l0x/vl53l0x_api.c **** 	LOG_FUNCTION_END(Status);
1522:../Drivers/BSP/Components/vl53l0x/vl53l0x_api.c **** 	return Status;
1523:../Drivers/BSP/Components/vl53l0x/vl53l0x_api.c **** }
 2220              		.loc 1 1523 0
 2221 0006 08BD     		pop	{r3, pc}
 2222              		.cfi_endproc
 2223              	.LFE164:
 2225              		.section	.text.VL53L0X_GetRefCalibration,"ax",%progbits
 2226              		.align	2
 2227              		.global	VL53L0X_GetRefCalibration
 2228              		.thumb
 2229              		.thumb_func
 2231              	VL53L0X_GetRefCalibration:
 2232              	.LFB165:
1524:../Drivers/BSP/Components/vl53l0x/vl53l0x_api.c **** 
1525:../Drivers/BSP/Components/vl53l0x/vl53l0x_api.c **** VL53L0X_Error VL53L0X_GetRefCalibration(VL53L0X_DEV Dev, uint8_t *pVhvSettings,
1526:../Drivers/BSP/Components/vl53l0x/vl53l0x_api.c **** 	uint8_t *pPhaseCal)
1527:../Drivers/BSP/Components/vl53l0x/vl53l0x_api.c **** {
 2233              		.loc 1 1527 0
 2234              		.cfi_startproc
 2235              		@ args = 0, pretend = 0, frame = 0
 2236              		@ frame_needed = 0, uses_anonymous_args = 0
 2237              	.LVL276:
 2238 0000 08B5     		push	{r3, lr}
 2239              	.LCFI58:
 2240              		.cfi_def_cfa_offset 8
 2241              		.cfi_offset 3, -8
 2242              		.cfi_offset 14, -4
 2243              	.LVL277:
1528:../Drivers/BSP/Components/vl53l0x/vl53l0x_api.c **** 	VL53L0X_Error Status = VL53L0X_ERROR_NONE;
1529:../Drivers/BSP/Components/vl53l0x/vl53l0x_api.c **** 	LOG_FUNCTION_START("");
1530:../Drivers/BSP/Components/vl53l0x/vl53l0x_api.c **** 
1531:../Drivers/BSP/Components/vl53l0x/vl53l0x_api.c **** 	Status = VL53L0X_get_ref_calibration(Dev, pVhvSettings, pPhaseCal);
 2244              		.loc 1 1531 0
 2245 0002 FFF7FEFF 		bl	VL53L0X_get_ref_calibration
 2246              	.LVL278:
1532:../Drivers/BSP/Components/vl53l0x/vl53l0x_api.c **** 
1533:../Drivers/BSP/Components/vl53l0x/vl53l0x_api.c **** 	LOG_FUNCTION_END(Status);
1534:../Drivers/BSP/Components/vl53l0x/vl53l0x_api.c **** 	return Status;
1535:../Drivers/BSP/Components/vl53l0x/vl53l0x_api.c **** }
 2247              		.loc 1 1535 0
 2248 0006 08BD     		pop	{r3, pc}
 2249              		.cfi_endproc
 2250              	.LFE165:
 2252              		.section	.text.VL53L0X_GetNumberOfLimitCheck,"ax",%progbits
 2253              		.align	2
ARM GAS  /tmp/ccflrS73.s 			page 66


 2254              		.global	VL53L0X_GetNumberOfLimitCheck
 2255              		.thumb
 2256              		.thumb_func
 2258              	VL53L0X_GetNumberOfLimitCheck:
 2259              	.LFB166:
1536:../Drivers/BSP/Components/vl53l0x/vl53l0x_api.c **** 
1537:../Drivers/BSP/Components/vl53l0x/vl53l0x_api.c **** /*
1538:../Drivers/BSP/Components/vl53l0x/vl53l0x_api.c ****  * CHECK LIMIT FUNCTIONS
1539:../Drivers/BSP/Components/vl53l0x/vl53l0x_api.c ****  */
1540:../Drivers/BSP/Components/vl53l0x/vl53l0x_api.c **** 
1541:../Drivers/BSP/Components/vl53l0x/vl53l0x_api.c **** VL53L0X_Error VL53L0X_GetNumberOfLimitCheck(uint16_t *pNumberOfLimitCheck)
1542:../Drivers/BSP/Components/vl53l0x/vl53l0x_api.c **** {
 2260              		.loc 1 1542 0
 2261              		.cfi_startproc
 2262              		@ args = 0, pretend = 0, frame = 0
 2263              		@ frame_needed = 0, uses_anonymous_args = 0
 2264              		@ link register save eliminated.
 2265              	.LVL279:
1543:../Drivers/BSP/Components/vl53l0x/vl53l0x_api.c **** 	VL53L0X_Error Status = VL53L0X_ERROR_NONE;
1544:../Drivers/BSP/Components/vl53l0x/vl53l0x_api.c **** 	LOG_FUNCTION_START("");
1545:../Drivers/BSP/Components/vl53l0x/vl53l0x_api.c **** 
1546:../Drivers/BSP/Components/vl53l0x/vl53l0x_api.c **** 	*pNumberOfLimitCheck = VL53L0X_CHECKENABLE_NUMBER_OF_CHECKS;
 2266              		.loc 1 1546 0
 2267 0000 0623     		movs	r3, #6
 2268 0002 0380     		strh	r3, [r0]	@ movhi
1547:../Drivers/BSP/Components/vl53l0x/vl53l0x_api.c **** 
1548:../Drivers/BSP/Components/vl53l0x/vl53l0x_api.c **** 	LOG_FUNCTION_END(Status);
1549:../Drivers/BSP/Components/vl53l0x/vl53l0x_api.c **** 	return Status;
1550:../Drivers/BSP/Components/vl53l0x/vl53l0x_api.c **** }
 2269              		.loc 1 1550 0
 2270 0004 0020     		movs	r0, #0
 2271              	.LVL280:
 2272 0006 7047     		bx	lr
 2273              		.cfi_endproc
 2274              	.LFE166:
 2276              		.section	.text.VL53L0X_GetLimitCheckInfo,"ax",%progbits
 2277              		.align	2
 2278              		.global	VL53L0X_GetLimitCheckInfo
 2279              		.thumb
 2280              		.thumb_func
 2282              	VL53L0X_GetLimitCheckInfo:
 2283              	.LFB167:
1551:../Drivers/BSP/Components/vl53l0x/vl53l0x_api.c **** 
1552:../Drivers/BSP/Components/vl53l0x/vl53l0x_api.c **** VL53L0X_Error VL53L0X_GetLimitCheckInfo(VL53L0X_DEV Dev, uint16_t LimitCheckId,
1553:../Drivers/BSP/Components/vl53l0x/vl53l0x_api.c **** 	char *pLimitCheckString)
1554:../Drivers/BSP/Components/vl53l0x/vl53l0x_api.c **** {
 2284              		.loc 1 1554 0
 2285              		.cfi_startproc
 2286              		@ args = 0, pretend = 0, frame = 0
 2287              		@ frame_needed = 0, uses_anonymous_args = 0
 2288              	.LVL281:
 2289 0000 08B5     		push	{r3, lr}
 2290              	.LCFI59:
 2291              		.cfi_def_cfa_offset 8
 2292              		.cfi_offset 3, -8
 2293              		.cfi_offset 14, -4
 2294              	.LVL282:
ARM GAS  /tmp/ccflrS73.s 			page 67


1555:../Drivers/BSP/Components/vl53l0x/vl53l0x_api.c **** 	VL53L0X_Error Status = VL53L0X_ERROR_NONE;
1556:../Drivers/BSP/Components/vl53l0x/vl53l0x_api.c **** 
1557:../Drivers/BSP/Components/vl53l0x/vl53l0x_api.c **** 	LOG_FUNCTION_START("");
1558:../Drivers/BSP/Components/vl53l0x/vl53l0x_api.c **** 
1559:../Drivers/BSP/Components/vl53l0x/vl53l0x_api.c **** 	Status = VL53L0X_get_limit_check_info(Dev, LimitCheckId,
 2295              		.loc 1 1559 0
 2296 0002 FFF7FEFF 		bl	VL53L0X_get_limit_check_info
 2297              	.LVL283:
1560:../Drivers/BSP/Components/vl53l0x/vl53l0x_api.c **** 		pLimitCheckString);
1561:../Drivers/BSP/Components/vl53l0x/vl53l0x_api.c **** 
1562:../Drivers/BSP/Components/vl53l0x/vl53l0x_api.c **** 	LOG_FUNCTION_END(Status);
1563:../Drivers/BSP/Components/vl53l0x/vl53l0x_api.c **** 	return Status;
1564:../Drivers/BSP/Components/vl53l0x/vl53l0x_api.c **** }
 2298              		.loc 1 1564 0
 2299 0006 08BD     		pop	{r3, pc}
 2300              		.cfi_endproc
 2301              	.LFE167:
 2303              		.section	.text.VL53L0X_GetLimitCheckStatus,"ax",%progbits
 2304              		.align	2
 2305              		.global	VL53L0X_GetLimitCheckStatus
 2306              		.thumb
 2307              		.thumb_func
 2309              	VL53L0X_GetLimitCheckStatus:
 2310              	.LFB168:
1565:../Drivers/BSP/Components/vl53l0x/vl53l0x_api.c **** 
1566:../Drivers/BSP/Components/vl53l0x/vl53l0x_api.c **** VL53L0X_Error VL53L0X_GetLimitCheckStatus(VL53L0X_DEV Dev, uint16_t LimitCheckId,
1567:../Drivers/BSP/Components/vl53l0x/vl53l0x_api.c **** 	uint8_t *pLimitCheckStatus)
1568:../Drivers/BSP/Components/vl53l0x/vl53l0x_api.c **** {
 2311              		.loc 1 1568 0
 2312              		.cfi_startproc
 2313              		@ args = 0, pretend = 0, frame = 0
 2314              		@ frame_needed = 0, uses_anonymous_args = 0
 2315              		@ link register save eliminated.
 2316              	.LVL284:
1569:../Drivers/BSP/Components/vl53l0x/vl53l0x_api.c **** 	VL53L0X_Error Status = VL53L0X_ERROR_NONE;
1570:../Drivers/BSP/Components/vl53l0x/vl53l0x_api.c **** 	uint8_t Temp8;
1571:../Drivers/BSP/Components/vl53l0x/vl53l0x_api.c **** 
1572:../Drivers/BSP/Components/vl53l0x/vl53l0x_api.c **** 	LOG_FUNCTION_START("");
1573:../Drivers/BSP/Components/vl53l0x/vl53l0x_api.c **** 
1574:../Drivers/BSP/Components/vl53l0x/vl53l0x_api.c **** 	if (LimitCheckId >= VL53L0X_CHECKENABLE_NUMBER_OF_CHECKS) {
 2317              		.loc 1 1574 0
 2318 0000 0529     		cmp	r1, #5
 2319 0002 05D8     		bhi	.L165
1575:../Drivers/BSP/Components/vl53l0x/vl53l0x_api.c **** 		Status = VL53L0X_ERROR_INVALID_PARAMS;
1576:../Drivers/BSP/Components/vl53l0x/vl53l0x_api.c **** 	} else {
1577:../Drivers/BSP/Components/vl53l0x/vl53l0x_api.c **** 
1578:../Drivers/BSP/Components/vl53l0x/vl53l0x_api.c **** 		VL53L0X_GETARRAYPARAMETERFIELD(Dev, LimitChecksStatus,
 2320              		.loc 1 1578 0
 2321 0004 0144     		add	r1, r1, r0
 2322              	.LVL285:
 2323 0006 91F82E30 		ldrb	r3, [r1, #46]	@ zero_extendqisi2
 2324              	.LVL286:
1579:../Drivers/BSP/Components/vl53l0x/vl53l0x_api.c **** 			LimitCheckId, Temp8);
1580:../Drivers/BSP/Components/vl53l0x/vl53l0x_api.c **** 
1581:../Drivers/BSP/Components/vl53l0x/vl53l0x_api.c **** 		*pLimitCheckStatus = Temp8;
 2325              		.loc 1 1581 0
 2326 000a 1370     		strb	r3, [r2]
ARM GAS  /tmp/ccflrS73.s 			page 68


1569:../Drivers/BSP/Components/vl53l0x/vl53l0x_api.c **** 	uint8_t Temp8;
 2327              		.loc 1 1569 0
 2328 000c 0020     		movs	r0, #0
 2329              	.LVL287:
 2330 000e 00E0     		b	.L164
 2331              	.LVL288:
 2332              	.L165:
1575:../Drivers/BSP/Components/vl53l0x/vl53l0x_api.c **** 		Status = VL53L0X_ERROR_INVALID_PARAMS;
 2333              		.loc 1 1575 0
 2334 0010 FC20     		movs	r0, #252
 2335              	.LVL289:
 2336              	.L164:
1582:../Drivers/BSP/Components/vl53l0x/vl53l0x_api.c **** 
1583:../Drivers/BSP/Components/vl53l0x/vl53l0x_api.c **** 	}
1584:../Drivers/BSP/Components/vl53l0x/vl53l0x_api.c **** 
1585:../Drivers/BSP/Components/vl53l0x/vl53l0x_api.c **** 	LOG_FUNCTION_END(Status);
1586:../Drivers/BSP/Components/vl53l0x/vl53l0x_api.c **** 	return Status;
1587:../Drivers/BSP/Components/vl53l0x/vl53l0x_api.c **** }
 2337              		.loc 1 1587 0
 2338 0012 40B2     		sxtb	r0, r0
 2339 0014 7047     		bx	lr
 2340              		.cfi_endproc
 2341              	.LFE168:
 2343 0016 00BF     		.section	.text.VL53L0X_SetLimitCheckEnable,"ax",%progbits
 2344              		.align	2
 2345              		.global	VL53L0X_SetLimitCheckEnable
 2346              		.thumb
 2347              		.thumb_func
 2349              	VL53L0X_SetLimitCheckEnable:
 2350              	.LFB169:
1588:../Drivers/BSP/Components/vl53l0x/vl53l0x_api.c **** 
1589:../Drivers/BSP/Components/vl53l0x/vl53l0x_api.c **** VL53L0X_Error VL53L0X_SetLimitCheckEnable(VL53L0X_DEV Dev, uint16_t LimitCheckId,
1590:../Drivers/BSP/Components/vl53l0x/vl53l0x_api.c **** 	uint8_t LimitCheckEnable)
1591:../Drivers/BSP/Components/vl53l0x/vl53l0x_api.c **** {
 2351              		.loc 1 1591 0
 2352              		.cfi_startproc
 2353              		@ args = 0, pretend = 0, frame = 0
 2354              		@ frame_needed = 0, uses_anonymous_args = 0
 2355              	.LVL290:
 2356 0000 70B5     		push	{r4, r5, r6, lr}
 2357              	.LCFI60:
 2358              		.cfi_def_cfa_offset 16
 2359              		.cfi_offset 4, -16
 2360              		.cfi_offset 5, -12
 2361              		.cfi_offset 6, -8
 2362              		.cfi_offset 14, -4
 2363 0002 0546     		mov	r5, r0
 2364 0004 0C46     		mov	r4, r1
 2365 0006 1646     		mov	r6, r2
 2366              	.LVL291:
1592:../Drivers/BSP/Components/vl53l0x/vl53l0x_api.c **** 	VL53L0X_Error Status = VL53L0X_ERROR_NONE;
1593:../Drivers/BSP/Components/vl53l0x/vl53l0x_api.c **** 	FixPoint1616_t TempFix1616 = 0;
1594:../Drivers/BSP/Components/vl53l0x/vl53l0x_api.c **** 	uint8_t LimitCheckEnableInt = 0;
1595:../Drivers/BSP/Components/vl53l0x/vl53l0x_api.c **** 	uint8_t LimitCheckDisable = 0;
1596:../Drivers/BSP/Components/vl53l0x/vl53l0x_api.c **** 	uint8_t Temp8;
1597:../Drivers/BSP/Components/vl53l0x/vl53l0x_api.c **** 
1598:../Drivers/BSP/Components/vl53l0x/vl53l0x_api.c **** 	LOG_FUNCTION_START("");
ARM GAS  /tmp/ccflrS73.s 			page 69


1599:../Drivers/BSP/Components/vl53l0x/vl53l0x_api.c **** 
1600:../Drivers/BSP/Components/vl53l0x/vl53l0x_api.c **** 	if (LimitCheckId >= VL53L0X_CHECKENABLE_NUMBER_OF_CHECKS) {
 2367              		.loc 1 1600 0
 2368 0008 0529     		cmp	r1, #5
 2369 000a 31D8     		bhi	.L178
1601:../Drivers/BSP/Components/vl53l0x/vl53l0x_api.c **** 		Status = VL53L0X_ERROR_INVALID_PARAMS;
1602:../Drivers/BSP/Components/vl53l0x/vl53l0x_api.c **** 	} else {
1603:../Drivers/BSP/Components/vl53l0x/vl53l0x_api.c **** 		if (LimitCheckEnable == 0) {
 2370              		.loc 1 1603 0
 2371 000c 2AB1     		cbz	r2, .L179
1604:../Drivers/BSP/Components/vl53l0x/vl53l0x_api.c **** 			TempFix1616 = 0;
1605:../Drivers/BSP/Components/vl53l0x/vl53l0x_api.c **** 			LimitCheckEnableInt = 0;
1606:../Drivers/BSP/Components/vl53l0x/vl53l0x_api.c **** 			LimitCheckDisable = 1;
1607:../Drivers/BSP/Components/vl53l0x/vl53l0x_api.c **** 
1608:../Drivers/BSP/Components/vl53l0x/vl53l0x_api.c **** 		} else {
1609:../Drivers/BSP/Components/vl53l0x/vl53l0x_api.c **** 			VL53L0X_GETARRAYPARAMETERFIELD(Dev, LimitChecksValue,
 2372              		.loc 1 1609 0
 2373 000e 00EB8103 		add	r3, r0, r1, lsl #2
 2374 0012 5A6B     		ldr	r2, [r3, #52]
 2375              	.LVL292:
1610:../Drivers/BSP/Components/vl53l0x/vl53l0x_api.c **** 				LimitCheckId, TempFix1616);
1611:../Drivers/BSP/Components/vl53l0x/vl53l0x_api.c **** 			LimitCheckDisable = 0;
 2376              		.loc 1 1611 0
 2377 0014 0023     		movs	r3, #0
1612:../Drivers/BSP/Components/vl53l0x/vl53l0x_api.c **** 			/* this to be sure to have either 0 or 1 */
1613:../Drivers/BSP/Components/vl53l0x/vl53l0x_api.c **** 			LimitCheckEnableInt = 1;
 2378              		.loc 1 1613 0
 2379 0016 0121     		movs	r1, #1
 2380              	.LVL293:
 2381 0018 02E0     		b	.L168
 2382              	.LVL294:
 2383              	.L179:
1606:../Drivers/BSP/Components/vl53l0x/vl53l0x_api.c **** 
 2384              		.loc 1 1606 0
 2385 001a 0123     		movs	r3, #1
1605:../Drivers/BSP/Components/vl53l0x/vl53l0x_api.c **** 			LimitCheckDisable = 1;
 2386              		.loc 1 1605 0
 2387 001c 0021     		movs	r1, #0
 2388              	.LVL295:
1604:../Drivers/BSP/Components/vl53l0x/vl53l0x_api.c **** 			LimitCheckEnableInt = 0;
 2389              		.loc 1 1604 0
 2390 001e 0A46     		mov	r2, r1
 2391              	.LVL296:
 2392              	.L168:
1614:../Drivers/BSP/Components/vl53l0x/vl53l0x_api.c **** 		}
1615:../Drivers/BSP/Components/vl53l0x/vl53l0x_api.c **** 
1616:../Drivers/BSP/Components/vl53l0x/vl53l0x_api.c **** 		switch (LimitCheckId) {
 2393              		.loc 1 1616 0
 2394 0020 052C     		cmp	r4, #5
 2395 0022 27D8     		bhi	.L180
 2396 0024 DFE804F0 		tbb	[pc, r4]
 2397              	.LVL297:
 2398              	.L170:
 2399 0028 03       		.byte	(.L169-.L170)/2
 2400 0029 07       		.byte	(.L171-.L170)/2
 2401 002a 0E       		.byte	(.L172-.L170)/2
 2402 002b 12       		.byte	(.L173-.L170)/2
ARM GAS  /tmp/ccflrS73.s 			page 70


 2403 002c 16       		.byte	(.L174-.L170)/2
 2404 002d 1D       		.byte	(.L175-.L170)/2
 2405              		.p2align 1
 2406              	.L169:
1617:../Drivers/BSP/Components/vl53l0x/vl53l0x_api.c **** 
1618:../Drivers/BSP/Components/vl53l0x/vl53l0x_api.c **** 		case VL53L0X_CHECKENABLE_SIGMA_FINAL_RANGE:
1619:../Drivers/BSP/Components/vl53l0x/vl53l0x_api.c **** 			/* internal computation: */
1620:../Drivers/BSP/Components/vl53l0x/vl53l0x_api.c **** 			VL53L0X_SETARRAYPARAMETERFIELD(Dev, LimitChecksEnable,
 2407              		.loc 1 1620 0
 2408 002e 85F82810 		strb	r1, [r5, #40]
1592:../Drivers/BSP/Components/vl53l0x/vl53l0x_api.c **** 	FixPoint1616_t TempFix1616 = 0;
 2409              		.loc 1 1592 0
 2410 0032 0020     		movs	r0, #0
1621:../Drivers/BSP/Components/vl53l0x/vl53l0x_api.c **** 				VL53L0X_CHECKENABLE_SIGMA_FINAL_RANGE,
1622:../Drivers/BSP/Components/vl53l0x/vl53l0x_api.c **** 				LimitCheckEnableInt);
1623:../Drivers/BSP/Components/vl53l0x/vl53l0x_api.c **** 
1624:../Drivers/BSP/Components/vl53l0x/vl53l0x_api.c **** 			break;
 2411              		.loc 1 1624 0
 2412 0034 1FE0     		b	.L167
 2413              	.L171:
1625:../Drivers/BSP/Components/vl53l0x/vl53l0x_api.c **** 
1626:../Drivers/BSP/Components/vl53l0x/vl53l0x_api.c **** 		case VL53L0X_CHECKENABLE_SIGNAL_RATE_FINAL_RANGE:
1627:../Drivers/BSP/Components/vl53l0x/vl53l0x_api.c **** 
1628:../Drivers/BSP/Components/vl53l0x/vl53l0x_api.c **** 			Status = VL53L0X_WrWord(Dev,
 2414              		.loc 1 1628 0
 2415 0036 2846     		mov	r0, r5
 2416 0038 4421     		movs	r1, #68
 2417              	.LVL298:
 2418 003a C2F34F22 		ubfx	r2, r2, #9, #16
 2419              	.LVL299:
 2420 003e FFF7FEFF 		bl	VL53L0X_WrWord
 2421              	.LVL300:
1629:../Drivers/BSP/Components/vl53l0x/vl53l0x_api.c **** 			VL53L0X_REG_FINAL_RANGE_CONFIG_MIN_COUNT_RATE_RTN_LIMIT,
1630:../Drivers/BSP/Components/vl53l0x/vl53l0x_api.c **** 				VL53L0X_FIXPOINT1616TOFIXPOINT97(TempFix1616));
1631:../Drivers/BSP/Components/vl53l0x/vl53l0x_api.c **** 
1632:../Drivers/BSP/Components/vl53l0x/vl53l0x_api.c **** 			break;
 2422              		.loc 1 1632 0
 2423 0042 18E0     		b	.L167
 2424              	.LVL301:
 2425              	.L172:
1633:../Drivers/BSP/Components/vl53l0x/vl53l0x_api.c **** 
1634:../Drivers/BSP/Components/vl53l0x/vl53l0x_api.c **** 		case VL53L0X_CHECKENABLE_SIGNAL_REF_CLIP:
1635:../Drivers/BSP/Components/vl53l0x/vl53l0x_api.c **** 
1636:../Drivers/BSP/Components/vl53l0x/vl53l0x_api.c **** 			/* internal computation: */
1637:../Drivers/BSP/Components/vl53l0x/vl53l0x_api.c **** 			VL53L0X_SETARRAYPARAMETERFIELD(Dev, LimitChecksEnable,
 2426              		.loc 1 1637 0
 2427 0044 85F82A10 		strb	r1, [r5, #42]
1592:../Drivers/BSP/Components/vl53l0x/vl53l0x_api.c **** 	FixPoint1616_t TempFix1616 = 0;
 2428              		.loc 1 1592 0
 2429 0048 0020     		movs	r0, #0
1638:../Drivers/BSP/Components/vl53l0x/vl53l0x_api.c **** 				VL53L0X_CHECKENABLE_SIGNAL_REF_CLIP,
1639:../Drivers/BSP/Components/vl53l0x/vl53l0x_api.c **** 				LimitCheckEnableInt);
1640:../Drivers/BSP/Components/vl53l0x/vl53l0x_api.c **** 
1641:../Drivers/BSP/Components/vl53l0x/vl53l0x_api.c **** 			break;
 2430              		.loc 1 1641 0
 2431 004a 14E0     		b	.L167
 2432              	.L173:
ARM GAS  /tmp/ccflrS73.s 			page 71


1642:../Drivers/BSP/Components/vl53l0x/vl53l0x_api.c **** 
1643:../Drivers/BSP/Components/vl53l0x/vl53l0x_api.c **** 		case VL53L0X_CHECKENABLE_RANGE_IGNORE_THRESHOLD:
1644:../Drivers/BSP/Components/vl53l0x/vl53l0x_api.c **** 
1645:../Drivers/BSP/Components/vl53l0x/vl53l0x_api.c **** 			/* internal computation: */
1646:../Drivers/BSP/Components/vl53l0x/vl53l0x_api.c **** 			VL53L0X_SETARRAYPARAMETERFIELD(Dev, LimitChecksEnable,
 2433              		.loc 1 1646 0
 2434 004c 85F82B10 		strb	r1, [r5, #43]
1592:../Drivers/BSP/Components/vl53l0x/vl53l0x_api.c **** 	FixPoint1616_t TempFix1616 = 0;
 2435              		.loc 1 1592 0
 2436 0050 0020     		movs	r0, #0
1647:../Drivers/BSP/Components/vl53l0x/vl53l0x_api.c **** 				VL53L0X_CHECKENABLE_RANGE_IGNORE_THRESHOLD,
1648:../Drivers/BSP/Components/vl53l0x/vl53l0x_api.c **** 				LimitCheckEnableInt);
1649:../Drivers/BSP/Components/vl53l0x/vl53l0x_api.c **** 
1650:../Drivers/BSP/Components/vl53l0x/vl53l0x_api.c **** 			break;
 2437              		.loc 1 1650 0
 2438 0052 10E0     		b	.L167
 2439              	.L174:
 2440              	.LVL302:
1651:../Drivers/BSP/Components/vl53l0x/vl53l0x_api.c **** 
1652:../Drivers/BSP/Components/vl53l0x/vl53l0x_api.c **** 		case VL53L0X_CHECKENABLE_SIGNAL_RATE_MSRC:
1653:../Drivers/BSP/Components/vl53l0x/vl53l0x_api.c **** 
1654:../Drivers/BSP/Components/vl53l0x/vl53l0x_api.c **** 			Temp8 = (uint8_t)(LimitCheckDisable << 1);
1655:../Drivers/BSP/Components/vl53l0x/vl53l0x_api.c **** 			Status = VL53L0X_UpdateByte(Dev,
 2441              		.loc 1 1655 0
 2442 0054 2846     		mov	r0, r5
 2443 0056 6021     		movs	r1, #96
 2444              	.LVL303:
 2445 0058 FE22     		movs	r2, #254
 2446              	.LVL304:
 2447 005a 5B00     		lsls	r3, r3, #1
 2448              	.LVL305:
 2449 005c FFF7FEFF 		bl	VL53L0X_UpdateByte
 2450              	.LVL306:
1656:../Drivers/BSP/Components/vl53l0x/vl53l0x_api.c **** 				VL53L0X_REG_MSRC_CONFIG_CONTROL,
1657:../Drivers/BSP/Components/vl53l0x/vl53l0x_api.c **** 				0xFE, Temp8);
1658:../Drivers/BSP/Components/vl53l0x/vl53l0x_api.c **** 
1659:../Drivers/BSP/Components/vl53l0x/vl53l0x_api.c **** 			break;
 2451              		.loc 1 1659 0
 2452 0060 09E0     		b	.L167
 2453              	.LVL307:
 2454              	.L175:
1660:../Drivers/BSP/Components/vl53l0x/vl53l0x_api.c **** 
1661:../Drivers/BSP/Components/vl53l0x/vl53l0x_api.c **** 		case VL53L0X_CHECKENABLE_SIGNAL_RATE_PRE_RANGE:
1662:../Drivers/BSP/Components/vl53l0x/vl53l0x_api.c **** 
1663:../Drivers/BSP/Components/vl53l0x/vl53l0x_api.c **** 			Temp8 = (uint8_t)(LimitCheckDisable << 4);
1664:../Drivers/BSP/Components/vl53l0x/vl53l0x_api.c **** 			Status = VL53L0X_UpdateByte(Dev,
 2455              		.loc 1 1664 0
 2456 0062 2846     		mov	r0, r5
 2457 0064 6021     		movs	r1, #96
 2458              	.LVL308:
 2459 0066 EF22     		movs	r2, #239
 2460              	.LVL309:
 2461 0068 1B01     		lsls	r3, r3, #4
 2462              	.LVL310:
 2463 006a FFF7FEFF 		bl	VL53L0X_UpdateByte
 2464              	.LVL311:
1665:../Drivers/BSP/Components/vl53l0x/vl53l0x_api.c **** 				VL53L0X_REG_MSRC_CONFIG_CONTROL,
ARM GAS  /tmp/ccflrS73.s 			page 72


1666:../Drivers/BSP/Components/vl53l0x/vl53l0x_api.c **** 				0xEF, Temp8);
1667:../Drivers/BSP/Components/vl53l0x/vl53l0x_api.c **** 
1668:../Drivers/BSP/Components/vl53l0x/vl53l0x_api.c **** 			break;
 2465              		.loc 1 1668 0
 2466 006e 02E0     		b	.L167
 2467              	.LVL312:
 2468              	.L178:
1601:../Drivers/BSP/Components/vl53l0x/vl53l0x_api.c **** 	} else {
 2469              		.loc 1 1601 0
 2470 0070 FC20     		movs	r0, #252
 2471              	.LVL313:
 2472 0072 00E0     		b	.L167
 2473              	.LVL314:
 2474              	.L180:
1669:../Drivers/BSP/Components/vl53l0x/vl53l0x_api.c **** 
1670:../Drivers/BSP/Components/vl53l0x/vl53l0x_api.c **** 
1671:../Drivers/BSP/Components/vl53l0x/vl53l0x_api.c **** 		default:
1672:../Drivers/BSP/Components/vl53l0x/vl53l0x_api.c **** 			Status = VL53L0X_ERROR_INVALID_PARAMS;
 2475              		.loc 1 1672 0
 2476 0074 FC20     		movs	r0, #252
 2477              	.LVL315:
 2478              	.L167:
1673:../Drivers/BSP/Components/vl53l0x/vl53l0x_api.c **** 
1674:../Drivers/BSP/Components/vl53l0x/vl53l0x_api.c **** 		}
1675:../Drivers/BSP/Components/vl53l0x/vl53l0x_api.c **** 
1676:../Drivers/BSP/Components/vl53l0x/vl53l0x_api.c **** 	}
1677:../Drivers/BSP/Components/vl53l0x/vl53l0x_api.c **** 
1678:../Drivers/BSP/Components/vl53l0x/vl53l0x_api.c **** 	if (Status == VL53L0X_ERROR_NONE) {
 2479              		.loc 1 1678 0
 2480 0076 48B9     		cbnz	r0, .L176
1679:../Drivers/BSP/Components/vl53l0x/vl53l0x_api.c **** 		if (LimitCheckEnable == 0) {
 2481              		.loc 1 1679 0
 2482 0078 26B9     		cbnz	r6, .L177
1680:../Drivers/BSP/Components/vl53l0x/vl53l0x_api.c **** 			VL53L0X_SETARRAYPARAMETERFIELD(Dev, LimitChecksEnable,
 2483              		.loc 1 1680 0
 2484 007a 2C44     		add	r4, r4, r5
 2485 007c 0023     		movs	r3, #0
 2486 007e 84F82830 		strb	r3, [r4, #40]
 2487 0082 03E0     		b	.L176
 2488              	.L177:
1681:../Drivers/BSP/Components/vl53l0x/vl53l0x_api.c **** 				LimitCheckId, 0);
1682:../Drivers/BSP/Components/vl53l0x/vl53l0x_api.c **** 		} else {
1683:../Drivers/BSP/Components/vl53l0x/vl53l0x_api.c **** 			VL53L0X_SETARRAYPARAMETERFIELD(Dev, LimitChecksEnable,
 2489              		.loc 1 1683 0
 2490 0084 2C44     		add	r4, r4, r5
 2491 0086 0123     		movs	r3, #1
 2492 0088 84F82830 		strb	r3, [r4, #40]
 2493              	.L176:
1684:../Drivers/BSP/Components/vl53l0x/vl53l0x_api.c **** 				LimitCheckId, 1);
1685:../Drivers/BSP/Components/vl53l0x/vl53l0x_api.c **** 		}
1686:../Drivers/BSP/Components/vl53l0x/vl53l0x_api.c **** 	}
1687:../Drivers/BSP/Components/vl53l0x/vl53l0x_api.c **** 
1688:../Drivers/BSP/Components/vl53l0x/vl53l0x_api.c **** 	LOG_FUNCTION_END(Status);
1689:../Drivers/BSP/Components/vl53l0x/vl53l0x_api.c **** 	return Status;
1690:../Drivers/BSP/Components/vl53l0x/vl53l0x_api.c **** }
 2494              		.loc 1 1690 0
 2495 008c 40B2     		sxtb	r0, r0
ARM GAS  /tmp/ccflrS73.s 			page 73


 2496 008e 70BD     		pop	{r4, r5, r6, pc}
 2497              		.cfi_endproc
 2498              	.LFE169:
 2500              		.section	.text.VL53L0X_GetLimitCheckEnable,"ax",%progbits
 2501              		.align	2
 2502              		.global	VL53L0X_GetLimitCheckEnable
 2503              		.thumb
 2504              		.thumb_func
 2506              	VL53L0X_GetLimitCheckEnable:
 2507              	.LFB170:
1691:../Drivers/BSP/Components/vl53l0x/vl53l0x_api.c **** 
1692:../Drivers/BSP/Components/vl53l0x/vl53l0x_api.c **** VL53L0X_Error VL53L0X_GetLimitCheckEnable(VL53L0X_DEV Dev, uint16_t LimitCheckId,
1693:../Drivers/BSP/Components/vl53l0x/vl53l0x_api.c **** 	uint8_t *pLimitCheckEnable)
1694:../Drivers/BSP/Components/vl53l0x/vl53l0x_api.c **** {
 2508              		.loc 1 1694 0
 2509              		.cfi_startproc
 2510              		@ args = 0, pretend = 0, frame = 0
 2511              		@ frame_needed = 0, uses_anonymous_args = 0
 2512              		@ link register save eliminated.
 2513              	.LVL316:
1695:../Drivers/BSP/Components/vl53l0x/vl53l0x_api.c **** 	VL53L0X_Error Status = VL53L0X_ERROR_NONE;
1696:../Drivers/BSP/Components/vl53l0x/vl53l0x_api.c **** 	uint8_t Temp8;
1697:../Drivers/BSP/Components/vl53l0x/vl53l0x_api.c **** 
1698:../Drivers/BSP/Components/vl53l0x/vl53l0x_api.c **** 	LOG_FUNCTION_START("");
1699:../Drivers/BSP/Components/vl53l0x/vl53l0x_api.c **** 
1700:../Drivers/BSP/Components/vl53l0x/vl53l0x_api.c **** 	if (LimitCheckId >= VL53L0X_CHECKENABLE_NUMBER_OF_CHECKS) {
 2514              		.loc 1 1700 0
 2515 0000 0529     		cmp	r1, #5
 2516 0002 03D9     		bls	.L183
 2517              	.LVL317:
1701:../Drivers/BSP/Components/vl53l0x/vl53l0x_api.c **** 		Status = VL53L0X_ERROR_INVALID_PARAMS;
1702:../Drivers/BSP/Components/vl53l0x/vl53l0x_api.c **** 		*pLimitCheckEnable = 0;
 2518              		.loc 1 1702 0
 2519 0004 0023     		movs	r3, #0
 2520 0006 1370     		strb	r3, [r2]
1701:../Drivers/BSP/Components/vl53l0x/vl53l0x_api.c **** 		Status = VL53L0X_ERROR_INVALID_PARAMS;
 2521              		.loc 1 1701 0
 2522 0008 FC20     		movs	r0, #252
 2523              	.LVL318:
 2524 000a 04E0     		b	.L184
 2525              	.LVL319:
 2526              	.L183:
1703:../Drivers/BSP/Components/vl53l0x/vl53l0x_api.c **** 	} else {
1704:../Drivers/BSP/Components/vl53l0x/vl53l0x_api.c **** 		VL53L0X_GETARRAYPARAMETERFIELD(Dev, LimitChecksEnable,
 2527              		.loc 1 1704 0
 2528 000c 0144     		add	r1, r1, r0
 2529              	.LVL320:
 2530 000e 91F82830 		ldrb	r3, [r1, #40]	@ zero_extendqisi2
 2531              	.LVL321:
1705:../Drivers/BSP/Components/vl53l0x/vl53l0x_api.c **** 			LimitCheckId, Temp8);
1706:../Drivers/BSP/Components/vl53l0x/vl53l0x_api.c **** 		*pLimitCheckEnable = Temp8;
 2532              		.loc 1 1706 0
 2533 0012 1370     		strb	r3, [r2]
1695:../Drivers/BSP/Components/vl53l0x/vl53l0x_api.c **** 	uint8_t Temp8;
 2534              		.loc 1 1695 0
 2535 0014 0020     		movs	r0, #0
 2536              	.LVL322:
ARM GAS  /tmp/ccflrS73.s 			page 74


 2537              	.L184:
1707:../Drivers/BSP/Components/vl53l0x/vl53l0x_api.c **** 	}
1708:../Drivers/BSP/Components/vl53l0x/vl53l0x_api.c **** 
1709:../Drivers/BSP/Components/vl53l0x/vl53l0x_api.c **** 	LOG_FUNCTION_END(Status);
1710:../Drivers/BSP/Components/vl53l0x/vl53l0x_api.c **** 	return Status;
1711:../Drivers/BSP/Components/vl53l0x/vl53l0x_api.c **** }
 2538              		.loc 1 1711 0
 2539 0016 40B2     		sxtb	r0, r0
 2540 0018 7047     		bx	lr
 2541              		.cfi_endproc
 2542              	.LFE170:
 2544 001a 00BF     		.section	.text.VL53L0X_SetLimitCheckValue,"ax",%progbits
 2545              		.align	2
 2546              		.global	VL53L0X_SetLimitCheckValue
 2547              		.thumb
 2548              		.thumb_func
 2550              	VL53L0X_SetLimitCheckValue:
 2551              	.LFB171:
1712:../Drivers/BSP/Components/vl53l0x/vl53l0x_api.c **** 
1713:../Drivers/BSP/Components/vl53l0x/vl53l0x_api.c **** VL53L0X_Error VL53L0X_SetLimitCheckValue(VL53L0X_DEV Dev, uint16_t LimitCheckId,
1714:../Drivers/BSP/Components/vl53l0x/vl53l0x_api.c **** 	FixPoint1616_t LimitCheckValue)
1715:../Drivers/BSP/Components/vl53l0x/vl53l0x_api.c **** {
 2552              		.loc 1 1715 0
 2553              		.cfi_startproc
 2554              		@ args = 0, pretend = 0, frame = 0
 2555              		@ frame_needed = 0, uses_anonymous_args = 0
 2556              	.LVL323:
1716:../Drivers/BSP/Components/vl53l0x/vl53l0x_api.c **** 	VL53L0X_Error Status = VL53L0X_ERROR_NONE;
1717:../Drivers/BSP/Components/vl53l0x/vl53l0x_api.c **** 	uint8_t Temp8;
1718:../Drivers/BSP/Components/vl53l0x/vl53l0x_api.c **** 
1719:../Drivers/BSP/Components/vl53l0x/vl53l0x_api.c **** 	LOG_FUNCTION_START("");
1720:../Drivers/BSP/Components/vl53l0x/vl53l0x_api.c **** 
1721:../Drivers/BSP/Components/vl53l0x/vl53l0x_api.c **** 	VL53L0X_GETARRAYPARAMETERFIELD(Dev, LimitChecksEnable, LimitCheckId,
 2557              		.loc 1 1721 0
 2558 0000 4318     		adds	r3, r0, r1
 2559 0002 93F82830 		ldrb	r3, [r3, #40]	@ zero_extendqisi2
 2560              	.LVL324:
1722:../Drivers/BSP/Components/vl53l0x/vl53l0x_api.c **** 		Temp8);
1723:../Drivers/BSP/Components/vl53l0x/vl53l0x_api.c **** 
1724:../Drivers/BSP/Components/vl53l0x/vl53l0x_api.c **** 	if (Temp8 == 0) { /* disabled write only internal value */
 2561              		.loc 1 1724 0
 2562 0006 2BB9     		cbnz	r3, .L186
1725:../Drivers/BSP/Components/vl53l0x/vl53l0x_api.c **** 		VL53L0X_SETARRAYPARAMETERFIELD(Dev, LimitChecksValue,
 2563              		.loc 1 1725 0
 2564 0008 00EB8100 		add	r0, r0, r1, lsl #2
 2565              	.LVL325:
 2566 000c 4263     		str	r2, [r0, #52]
1716:../Drivers/BSP/Components/vl53l0x/vl53l0x_api.c **** 	VL53L0X_Error Status = VL53L0X_ERROR_NONE;
 2567              		.loc 1 1716 0
 2568 000e 0020     		movs	r0, #0
 2569              	.LVL326:
1726:../Drivers/BSP/Components/vl53l0x/vl53l0x_api.c **** 			LimitCheckId, LimitCheckValue);
1727:../Drivers/BSP/Components/vl53l0x/vl53l0x_api.c **** 	} else {
1728:../Drivers/BSP/Components/vl53l0x/vl53l0x_api.c **** 
1729:../Drivers/BSP/Components/vl53l0x/vl53l0x_api.c **** 		switch (LimitCheckId) {
1730:../Drivers/BSP/Components/vl53l0x/vl53l0x_api.c **** 
1731:../Drivers/BSP/Components/vl53l0x/vl53l0x_api.c **** 		case VL53L0X_CHECKENABLE_SIGMA_FINAL_RANGE:
ARM GAS  /tmp/ccflrS73.s 			page 75


1732:../Drivers/BSP/Components/vl53l0x/vl53l0x_api.c **** 			/* internal computation: */
1733:../Drivers/BSP/Components/vl53l0x/vl53l0x_api.c **** 			VL53L0X_SETARRAYPARAMETERFIELD(Dev, LimitChecksValue,
1734:../Drivers/BSP/Components/vl53l0x/vl53l0x_api.c **** 				VL53L0X_CHECKENABLE_SIGMA_FINAL_RANGE,
1735:../Drivers/BSP/Components/vl53l0x/vl53l0x_api.c **** 				LimitCheckValue);
1736:../Drivers/BSP/Components/vl53l0x/vl53l0x_api.c **** 			break;
1737:../Drivers/BSP/Components/vl53l0x/vl53l0x_api.c **** 
1738:../Drivers/BSP/Components/vl53l0x/vl53l0x_api.c **** 		case VL53L0X_CHECKENABLE_SIGNAL_RATE_FINAL_RANGE:
1739:../Drivers/BSP/Components/vl53l0x/vl53l0x_api.c **** 
1740:../Drivers/BSP/Components/vl53l0x/vl53l0x_api.c **** 			Status = VL53L0X_WrWord(Dev,
1741:../Drivers/BSP/Components/vl53l0x/vl53l0x_api.c **** 			VL53L0X_REG_FINAL_RANGE_CONFIG_MIN_COUNT_RATE_RTN_LIMIT,
1742:../Drivers/BSP/Components/vl53l0x/vl53l0x_api.c **** 				VL53L0X_FIXPOINT1616TOFIXPOINT97(
1743:../Drivers/BSP/Components/vl53l0x/vl53l0x_api.c **** 					LimitCheckValue));
1744:../Drivers/BSP/Components/vl53l0x/vl53l0x_api.c **** 
1745:../Drivers/BSP/Components/vl53l0x/vl53l0x_api.c **** 			break;
1746:../Drivers/BSP/Components/vl53l0x/vl53l0x_api.c **** 
1747:../Drivers/BSP/Components/vl53l0x/vl53l0x_api.c **** 		case VL53L0X_CHECKENABLE_SIGNAL_REF_CLIP:
1748:../Drivers/BSP/Components/vl53l0x/vl53l0x_api.c **** 
1749:../Drivers/BSP/Components/vl53l0x/vl53l0x_api.c **** 			/* internal computation: */
1750:../Drivers/BSP/Components/vl53l0x/vl53l0x_api.c **** 			VL53L0X_SETARRAYPARAMETERFIELD(Dev, LimitChecksValue,
1751:../Drivers/BSP/Components/vl53l0x/vl53l0x_api.c **** 				VL53L0X_CHECKENABLE_SIGNAL_REF_CLIP,
1752:../Drivers/BSP/Components/vl53l0x/vl53l0x_api.c **** 				LimitCheckValue);
1753:../Drivers/BSP/Components/vl53l0x/vl53l0x_api.c **** 
1754:../Drivers/BSP/Components/vl53l0x/vl53l0x_api.c **** 			break;
1755:../Drivers/BSP/Components/vl53l0x/vl53l0x_api.c **** 
1756:../Drivers/BSP/Components/vl53l0x/vl53l0x_api.c **** 		case VL53L0X_CHECKENABLE_RANGE_IGNORE_THRESHOLD:
1757:../Drivers/BSP/Components/vl53l0x/vl53l0x_api.c **** 
1758:../Drivers/BSP/Components/vl53l0x/vl53l0x_api.c **** 			/* internal computation: */
1759:../Drivers/BSP/Components/vl53l0x/vl53l0x_api.c **** 			VL53L0X_SETARRAYPARAMETERFIELD(Dev, LimitChecksValue,
1760:../Drivers/BSP/Components/vl53l0x/vl53l0x_api.c **** 				VL53L0X_CHECKENABLE_RANGE_IGNORE_THRESHOLD,
1761:../Drivers/BSP/Components/vl53l0x/vl53l0x_api.c **** 				LimitCheckValue);
1762:../Drivers/BSP/Components/vl53l0x/vl53l0x_api.c **** 
1763:../Drivers/BSP/Components/vl53l0x/vl53l0x_api.c **** 			break;
1764:../Drivers/BSP/Components/vl53l0x/vl53l0x_api.c **** 
1765:../Drivers/BSP/Components/vl53l0x/vl53l0x_api.c **** 		case VL53L0X_CHECKENABLE_SIGNAL_RATE_MSRC:
1766:../Drivers/BSP/Components/vl53l0x/vl53l0x_api.c **** 		case VL53L0X_CHECKENABLE_SIGNAL_RATE_PRE_RANGE:
1767:../Drivers/BSP/Components/vl53l0x/vl53l0x_api.c **** 
1768:../Drivers/BSP/Components/vl53l0x/vl53l0x_api.c **** 			Status = VL53L0X_WrWord(Dev,
1769:../Drivers/BSP/Components/vl53l0x/vl53l0x_api.c **** 				VL53L0X_REG_PRE_RANGE_MIN_COUNT_RATE_RTN_LIMIT,
1770:../Drivers/BSP/Components/vl53l0x/vl53l0x_api.c **** 				VL53L0X_FIXPOINT1616TOFIXPOINT97(
1771:../Drivers/BSP/Components/vl53l0x/vl53l0x_api.c **** 					LimitCheckValue));
1772:../Drivers/BSP/Components/vl53l0x/vl53l0x_api.c **** 
1773:../Drivers/BSP/Components/vl53l0x/vl53l0x_api.c **** 			break;
1774:../Drivers/BSP/Components/vl53l0x/vl53l0x_api.c **** 
1775:../Drivers/BSP/Components/vl53l0x/vl53l0x_api.c **** 		default:
1776:../Drivers/BSP/Components/vl53l0x/vl53l0x_api.c **** 			Status = VL53L0X_ERROR_INVALID_PARAMS;
1777:../Drivers/BSP/Components/vl53l0x/vl53l0x_api.c **** 
1778:../Drivers/BSP/Components/vl53l0x/vl53l0x_api.c **** 		}
1779:../Drivers/BSP/Components/vl53l0x/vl53l0x_api.c **** 
1780:../Drivers/BSP/Components/vl53l0x/vl53l0x_api.c **** 		if (Status == VL53L0X_ERROR_NONE) {
1781:../Drivers/BSP/Components/vl53l0x/vl53l0x_api.c **** 			VL53L0X_SETARRAYPARAMETERFIELD(Dev, LimitChecksValue,
1782:../Drivers/BSP/Components/vl53l0x/vl53l0x_api.c **** 				LimitCheckId, LimitCheckValue);
1783:../Drivers/BSP/Components/vl53l0x/vl53l0x_api.c **** 		}
1784:../Drivers/BSP/Components/vl53l0x/vl53l0x_api.c **** 	}
1785:../Drivers/BSP/Components/vl53l0x/vl53l0x_api.c **** 
1786:../Drivers/BSP/Components/vl53l0x/vl53l0x_api.c **** 	LOG_FUNCTION_END(Status);
1787:../Drivers/BSP/Components/vl53l0x/vl53l0x_api.c **** 	return Status;
1788:../Drivers/BSP/Components/vl53l0x/vl53l0x_api.c **** }
ARM GAS  /tmp/ccflrS73.s 			page 76


 2570              		.loc 1 1788 0
 2571 0010 40B2     		sxtb	r0, r0
 2572 0012 7047     		bx	lr
 2573              	.LVL327:
 2574              	.L186:
1715:../Drivers/BSP/Components/vl53l0x/vl53l0x_api.c **** 	VL53L0X_Error Status = VL53L0X_ERROR_NONE;
 2575              		.loc 1 1715 0
 2576 0014 70B5     		push	{r4, r5, r6, lr}
 2577              	.LCFI61:
 2578              		.cfi_def_cfa_offset 16
 2579              		.cfi_offset 4, -16
 2580              		.cfi_offset 5, -12
 2581              		.cfi_offset 6, -8
 2582              		.cfi_offset 14, -4
 2583 0016 1646     		mov	r6, r2
 2584 0018 0D46     		mov	r5, r1
 2585 001a 0446     		mov	r4, r0
1729:../Drivers/BSP/Components/vl53l0x/vl53l0x_api.c **** 
 2586              		.loc 1 1729 0
 2587 001c 0529     		cmp	r1, #5
 2588 001e 19D8     		bhi	.L195
 2589 0020 DFE801F0 		tbb	[pc, r1]
 2590              	.LVL328:
 2591              	.L190:
 2592 0024 03       		.byte	(.L189-.L190)/2
 2593 0025 06       		.byte	(.L191-.L190)/2
 2594 0026 0C       		.byte	(.L192-.L190)/2
 2595 0027 0F       		.byte	(.L193-.L190)/2
 2596 0028 12       		.byte	(.L194-.L190)/2
 2597 0029 12       		.byte	(.L194-.L190)/2
 2598              		.p2align 1
 2599              	.L189:
1733:../Drivers/BSP/Components/vl53l0x/vl53l0x_api.c **** 				VL53L0X_CHECKENABLE_SIGMA_FINAL_RANGE,
 2600              		.loc 1 1733 0
 2601 002a 6263     		str	r2, [r4, #52]
 2602              	.LVL329:
1716:../Drivers/BSP/Components/vl53l0x/vl53l0x_api.c **** 	uint8_t Temp8;
 2603              		.loc 1 1716 0
 2604 002c 0020     		movs	r0, #0
 2605              	.LVL330:
1736:../Drivers/BSP/Components/vl53l0x/vl53l0x_api.c **** 
 2606              		.loc 1 1736 0
 2607 002e 12E0     		b	.L188
 2608              	.LVL331:
 2609              	.L191:
1740:../Drivers/BSP/Components/vl53l0x/vl53l0x_api.c **** 			VL53L0X_REG_FINAL_RANGE_CONFIG_MIN_COUNT_RATE_RTN_LIMIT,
 2610              		.loc 1 1740 0
 2611 0030 4421     		movs	r1, #68
 2612              	.LVL332:
 2613 0032 C2F34F22 		ubfx	r2, r2, #9, #16
 2614              	.LVL333:
 2615 0036 FFF7FEFF 		bl	VL53L0X_WrWord
 2616              	.LVL334:
1745:../Drivers/BSP/Components/vl53l0x/vl53l0x_api.c **** 
 2617              		.loc 1 1745 0
 2618 003a 0CE0     		b	.L188
 2619              	.LVL335:
ARM GAS  /tmp/ccflrS73.s 			page 77


 2620              	.L192:
1750:../Drivers/BSP/Components/vl53l0x/vl53l0x_api.c **** 				VL53L0X_CHECKENABLE_SIGNAL_REF_CLIP,
 2621              		.loc 1 1750 0
 2622 003c E263     		str	r2, [r4, #60]
 2623              	.LVL336:
1716:../Drivers/BSP/Components/vl53l0x/vl53l0x_api.c **** 	uint8_t Temp8;
 2624              		.loc 1 1716 0
 2625 003e 0020     		movs	r0, #0
 2626              	.LVL337:
1754:../Drivers/BSP/Components/vl53l0x/vl53l0x_api.c **** 
 2627              		.loc 1 1754 0
 2628 0040 09E0     		b	.L188
 2629              	.LVL338:
 2630              	.L193:
1759:../Drivers/BSP/Components/vl53l0x/vl53l0x_api.c **** 				VL53L0X_CHECKENABLE_RANGE_IGNORE_THRESHOLD,
 2631              		.loc 1 1759 0
 2632 0042 2264     		str	r2, [r4, #64]
 2633              	.LVL339:
1716:../Drivers/BSP/Components/vl53l0x/vl53l0x_api.c **** 	uint8_t Temp8;
 2634              		.loc 1 1716 0
 2635 0044 0020     		movs	r0, #0
 2636              	.LVL340:
1763:../Drivers/BSP/Components/vl53l0x/vl53l0x_api.c **** 
 2637              		.loc 1 1763 0
 2638 0046 06E0     		b	.L188
 2639              	.LVL341:
 2640              	.L194:
1768:../Drivers/BSP/Components/vl53l0x/vl53l0x_api.c **** 				VL53L0X_REG_PRE_RANGE_MIN_COUNT_RATE_RTN_LIMIT,
 2641              		.loc 1 1768 0
 2642 0048 6421     		movs	r1, #100
 2643              	.LVL342:
 2644 004a C2F34F22 		ubfx	r2, r2, #9, #16
 2645              	.LVL343:
 2646 004e FFF7FEFF 		bl	VL53L0X_WrWord
 2647              	.LVL344:
1773:../Drivers/BSP/Components/vl53l0x/vl53l0x_api.c **** 
 2648              		.loc 1 1773 0
 2649 0052 00E0     		b	.L188
 2650              	.LVL345:
 2651              	.L195:
1776:../Drivers/BSP/Components/vl53l0x/vl53l0x_api.c **** 
 2652              		.loc 1 1776 0
 2653 0054 FC20     		movs	r0, #252
 2654              	.LVL346:
 2655              	.L188:
1780:../Drivers/BSP/Components/vl53l0x/vl53l0x_api.c **** 			VL53L0X_SETARRAYPARAMETERFIELD(Dev, LimitChecksValue,
 2656              		.loc 1 1780 0
 2657 0056 10B9     		cbnz	r0, .L187
1781:../Drivers/BSP/Components/vl53l0x/vl53l0x_api.c **** 				LimitCheckId, LimitCheckValue);
 2658              		.loc 1 1781 0
 2659 0058 04EB8504 		add	r4, r4, r5, lsl #2
 2660              	.LVL347:
 2661 005c 6663     		str	r6, [r4, #52]
 2662              	.L187:
 2663              		.loc 1 1788 0
 2664 005e 40B2     		sxtb	r0, r0
 2665 0060 70BD     		pop	{r4, r5, r6, pc}
ARM GAS  /tmp/ccflrS73.s 			page 78


 2666              		.cfi_endproc
 2667              	.LFE171:
 2669 0062 00BF     		.section	.text.VL53L0X_GetLimitCheckValue,"ax",%progbits
 2670              		.align	2
 2671              		.global	VL53L0X_GetLimitCheckValue
 2672              		.thumb
 2673              		.thumb_func
 2675              	VL53L0X_GetLimitCheckValue:
 2676              	.LFB172:
1789:../Drivers/BSP/Components/vl53l0x/vl53l0x_api.c **** 
1790:../Drivers/BSP/Components/vl53l0x/vl53l0x_api.c **** VL53L0X_Error VL53L0X_GetLimitCheckValue(VL53L0X_DEV Dev, uint16_t LimitCheckId,
1791:../Drivers/BSP/Components/vl53l0x/vl53l0x_api.c **** 	FixPoint1616_t *pLimitCheckValue)
1792:../Drivers/BSP/Components/vl53l0x/vl53l0x_api.c **** {
 2677              		.loc 1 1792 0
 2678              		.cfi_startproc
 2679              		@ args = 0, pretend = 0, frame = 8
 2680              		@ frame_needed = 0, uses_anonymous_args = 0
 2681              	.LVL348:
 2682 0000 F0B5     		push	{r4, r5, r6, r7, lr}
 2683              	.LCFI62:
 2684              		.cfi_def_cfa_offset 20
 2685              		.cfi_offset 4, -20
 2686              		.cfi_offset 5, -16
 2687              		.cfi_offset 6, -12
 2688              		.cfi_offset 7, -8
 2689              		.cfi_offset 14, -4
 2690 0002 83B0     		sub	sp, sp, #12
 2691              	.LCFI63:
 2692              		.cfi_def_cfa_offset 32
 2693 0004 0546     		mov	r5, r0
 2694 0006 0C46     		mov	r4, r1
 2695 0008 1746     		mov	r7, r2
 2696              	.LVL349:
1793:../Drivers/BSP/Components/vl53l0x/vl53l0x_api.c **** 	VL53L0X_Error Status = VL53L0X_ERROR_NONE;
1794:../Drivers/BSP/Components/vl53l0x/vl53l0x_api.c **** 	uint8_t EnableZeroValue = 0;
1795:../Drivers/BSP/Components/vl53l0x/vl53l0x_api.c **** 	uint16_t Temp16;
1796:../Drivers/BSP/Components/vl53l0x/vl53l0x_api.c **** 	FixPoint1616_t TempFix1616;
1797:../Drivers/BSP/Components/vl53l0x/vl53l0x_api.c **** 
1798:../Drivers/BSP/Components/vl53l0x/vl53l0x_api.c **** 	LOG_FUNCTION_START("");
1799:../Drivers/BSP/Components/vl53l0x/vl53l0x_api.c **** 
1800:../Drivers/BSP/Components/vl53l0x/vl53l0x_api.c **** 	switch (LimitCheckId) {
 2697              		.loc 1 1800 0
 2698 000a 0529     		cmp	r1, #5
 2699 000c 28D8     		bhi	.L208
 2700 000e DFE801F0 		tbb	[pc, r1]
 2701              	.L200:
 2702 0012 03       		.byte	(.L199-.L200)/2
 2703 0013 07       		.byte	(.L201-.L200)/2
 2704 0014 13       		.byte	(.L202-.L200)/2
 2705 0015 17       		.byte	(.L203-.L200)/2
 2706 0016 1B       		.byte	(.L204-.L200)/2
 2707 0017 1B       		.byte	(.L204-.L200)/2
 2708              		.p2align 1
 2709              	.L199:
1801:../Drivers/BSP/Components/vl53l0x/vl53l0x_api.c **** 
1802:../Drivers/BSP/Components/vl53l0x/vl53l0x_api.c **** 	case VL53L0X_CHECKENABLE_SIGMA_FINAL_RANGE:
1803:../Drivers/BSP/Components/vl53l0x/vl53l0x_api.c **** 		/* internal computation: */
ARM GAS  /tmp/ccflrS73.s 			page 79


1804:../Drivers/BSP/Components/vl53l0x/vl53l0x_api.c **** 		VL53L0X_GETARRAYPARAMETERFIELD(Dev, LimitChecksValue,
 2710              		.loc 1 1804 0
 2711 0018 466B     		ldr	r6, [r0, #52]
 2712              	.LVL350:
1805:../Drivers/BSP/Components/vl53l0x/vl53l0x_api.c **** 			VL53L0X_CHECKENABLE_SIGMA_FINAL_RANGE, TempFix1616);
1806:../Drivers/BSP/Components/vl53l0x/vl53l0x_api.c **** 		EnableZeroValue = 0;
 2713              		.loc 1 1806 0
 2714 001a 0022     		movs	r2, #0
 2715              	.LVL351:
1793:../Drivers/BSP/Components/vl53l0x/vl53l0x_api.c **** 	uint8_t EnableZeroValue = 0;
 2716              		.loc 1 1793 0
 2717 001c 1346     		mov	r3, r2
1807:../Drivers/BSP/Components/vl53l0x/vl53l0x_api.c **** 		break;
 2718              		.loc 1 1807 0
 2719 001e 25E0     		b	.L198
 2720              	.LVL352:
 2721              	.L201:
1808:../Drivers/BSP/Components/vl53l0x/vl53l0x_api.c **** 
1809:../Drivers/BSP/Components/vl53l0x/vl53l0x_api.c **** 	case VL53L0X_CHECKENABLE_SIGNAL_RATE_FINAL_RANGE:
1810:../Drivers/BSP/Components/vl53l0x/vl53l0x_api.c **** 		Status = VL53L0X_RdWord(Dev,
 2722              		.loc 1 1810 0
 2723 0020 4421     		movs	r1, #68
 2724              	.LVL353:
 2725 0022 0DF10602 		add	r2, sp, #6
 2726              	.LVL354:
 2727 0026 FFF7FEFF 		bl	VL53L0X_RdWord
 2728              	.LVL355:
1811:../Drivers/BSP/Components/vl53l0x/vl53l0x_api.c **** 		VL53L0X_REG_FINAL_RANGE_CONFIG_MIN_COUNT_RATE_RTN_LIMIT,
1812:../Drivers/BSP/Components/vl53l0x/vl53l0x_api.c **** 			&Temp16);
1813:../Drivers/BSP/Components/vl53l0x/vl53l0x_api.c **** 		if (Status == VL53L0X_ERROR_NONE)
 2729              		.loc 1 1813 0
 2730 002a 0346     		mov	r3, r0
 2731 002c D8B9     		cbnz	r0, .L209
1814:../Drivers/BSP/Components/vl53l0x/vl53l0x_api.c **** 			TempFix1616 = VL53L0X_FIXPOINT97TOFIXPOINT1616(Temp16);
 2732              		.loc 1 1814 0
 2733 002e BDF80660 		ldrh	r6, [sp, #6]
 2734 0032 7602     		lsls	r6, r6, #9
 2735              	.LVL356:
1815:../Drivers/BSP/Components/vl53l0x/vl53l0x_api.c **** 
1816:../Drivers/BSP/Components/vl53l0x/vl53l0x_api.c **** 
1817:../Drivers/BSP/Components/vl53l0x/vl53l0x_api.c **** 		EnableZeroValue = 1;
 2736              		.loc 1 1817 0
 2737 0034 0122     		movs	r2, #1
 2738 0036 19E0     		b	.L198
 2739              	.LVL357:
 2740              	.L202:
1818:../Drivers/BSP/Components/vl53l0x/vl53l0x_api.c **** 		break;
1819:../Drivers/BSP/Components/vl53l0x/vl53l0x_api.c **** 
1820:../Drivers/BSP/Components/vl53l0x/vl53l0x_api.c **** 	case VL53L0X_CHECKENABLE_SIGNAL_REF_CLIP:
1821:../Drivers/BSP/Components/vl53l0x/vl53l0x_api.c **** 		/* internal computation: */
1822:../Drivers/BSP/Components/vl53l0x/vl53l0x_api.c **** 		VL53L0X_GETARRAYPARAMETERFIELD(Dev, LimitChecksValue,
 2741              		.loc 1 1822 0
 2742 0038 C66B     		ldr	r6, [r0, #60]
 2743              	.LVL358:
1823:../Drivers/BSP/Components/vl53l0x/vl53l0x_api.c **** 			VL53L0X_CHECKENABLE_SIGNAL_REF_CLIP, TempFix1616);
1824:../Drivers/BSP/Components/vl53l0x/vl53l0x_api.c **** 		EnableZeroValue = 0;
 2744              		.loc 1 1824 0
ARM GAS  /tmp/ccflrS73.s 			page 80


 2745 003a 0022     		movs	r2, #0
 2746              	.LVL359:
1793:../Drivers/BSP/Components/vl53l0x/vl53l0x_api.c **** 	uint8_t EnableZeroValue = 0;
 2747              		.loc 1 1793 0
 2748 003c 1346     		mov	r3, r2
1825:../Drivers/BSP/Components/vl53l0x/vl53l0x_api.c **** 		break;
 2749              		.loc 1 1825 0
 2750 003e 15E0     		b	.L198
 2751              	.LVL360:
 2752              	.L203:
1826:../Drivers/BSP/Components/vl53l0x/vl53l0x_api.c **** 
1827:../Drivers/BSP/Components/vl53l0x/vl53l0x_api.c **** 	case VL53L0X_CHECKENABLE_RANGE_IGNORE_THRESHOLD:
1828:../Drivers/BSP/Components/vl53l0x/vl53l0x_api.c **** 		/* internal computation: */
1829:../Drivers/BSP/Components/vl53l0x/vl53l0x_api.c **** 		VL53L0X_GETARRAYPARAMETERFIELD(Dev, LimitChecksValue,
 2753              		.loc 1 1829 0
 2754 0040 066C     		ldr	r6, [r0, #64]
 2755              	.LVL361:
1830:../Drivers/BSP/Components/vl53l0x/vl53l0x_api.c **** 			VL53L0X_CHECKENABLE_RANGE_IGNORE_THRESHOLD, TempFix1616);
1831:../Drivers/BSP/Components/vl53l0x/vl53l0x_api.c **** 		EnableZeroValue = 0;
 2756              		.loc 1 1831 0
 2757 0042 0022     		movs	r2, #0
 2758              	.LVL362:
1793:../Drivers/BSP/Components/vl53l0x/vl53l0x_api.c **** 	uint8_t EnableZeroValue = 0;
 2759              		.loc 1 1793 0
 2760 0044 1346     		mov	r3, r2
1832:../Drivers/BSP/Components/vl53l0x/vl53l0x_api.c **** 		break;
 2761              		.loc 1 1832 0
 2762 0046 11E0     		b	.L198
 2763              	.LVL363:
 2764              	.L204:
1833:../Drivers/BSP/Components/vl53l0x/vl53l0x_api.c **** 
1834:../Drivers/BSP/Components/vl53l0x/vl53l0x_api.c **** 	case VL53L0X_CHECKENABLE_SIGNAL_RATE_MSRC:
1835:../Drivers/BSP/Components/vl53l0x/vl53l0x_api.c **** 	case VL53L0X_CHECKENABLE_SIGNAL_RATE_PRE_RANGE:
1836:../Drivers/BSP/Components/vl53l0x/vl53l0x_api.c **** 		Status = VL53L0X_RdWord(Dev,
 2765              		.loc 1 1836 0
 2766 0048 6421     		movs	r1, #100
 2767              	.LVL364:
 2768 004a 0DF10602 		add	r2, sp, #6
 2769              	.LVL365:
 2770 004e FFF7FEFF 		bl	VL53L0X_RdWord
 2771              	.LVL366:
1837:../Drivers/BSP/Components/vl53l0x/vl53l0x_api.c **** 			VL53L0X_REG_PRE_RANGE_MIN_COUNT_RATE_RTN_LIMIT,
1838:../Drivers/BSP/Components/vl53l0x/vl53l0x_api.c **** 			&Temp16);
1839:../Drivers/BSP/Components/vl53l0x/vl53l0x_api.c **** 		if (Status == VL53L0X_ERROR_NONE)
 2772              		.loc 1 1839 0
 2773 0052 0346     		mov	r3, r0
 2774 0054 48B9     		cbnz	r0, .L210
1840:../Drivers/BSP/Components/vl53l0x/vl53l0x_api.c **** 			TempFix1616 = VL53L0X_FIXPOINT97TOFIXPOINT1616(Temp16);
 2775              		.loc 1 1840 0
 2776 0056 BDF80660 		ldrh	r6, [sp, #6]
 2777 005a 7602     		lsls	r6, r6, #9
 2778              	.LVL367:
1841:../Drivers/BSP/Components/vl53l0x/vl53l0x_api.c **** 
1842:../Drivers/BSP/Components/vl53l0x/vl53l0x_api.c **** 
1843:../Drivers/BSP/Components/vl53l0x/vl53l0x_api.c **** 		EnableZeroValue = 0;
 2779              		.loc 1 1843 0
 2780 005c 0022     		movs	r2, #0
ARM GAS  /tmp/ccflrS73.s 			page 81


 2781 005e 05E0     		b	.L198
 2782              	.LVL368:
 2783              	.L208:
1794:../Drivers/BSP/Components/vl53l0x/vl53l0x_api.c **** 	uint16_t Temp16;
 2784              		.loc 1 1794 0
 2785 0060 0022     		movs	r2, #0
 2786              	.LVL369:
1844:../Drivers/BSP/Components/vl53l0x/vl53l0x_api.c **** 		break;
1845:../Drivers/BSP/Components/vl53l0x/vl53l0x_api.c **** 
1846:../Drivers/BSP/Components/vl53l0x/vl53l0x_api.c **** 	default:
1847:../Drivers/BSP/Components/vl53l0x/vl53l0x_api.c **** 		Status = VL53L0X_ERROR_INVALID_PARAMS;
 2787              		.loc 1 1847 0
 2788 0062 FC23     		movs	r3, #252
 2789 0064 02E0     		b	.L198
 2790              	.LVL370:
 2791              	.L209:
1817:../Drivers/BSP/Components/vl53l0x/vl53l0x_api.c **** 		break;
 2792              		.loc 1 1817 0
 2793 0066 0122     		movs	r2, #1
 2794 0068 00E0     		b	.L198
 2795              	.L210:
1843:../Drivers/BSP/Components/vl53l0x/vl53l0x_api.c **** 		break;
 2796              		.loc 1 1843 0
 2797 006a 0022     		movs	r2, #0
 2798              	.LVL371:
 2799              	.L198:
1848:../Drivers/BSP/Components/vl53l0x/vl53l0x_api.c **** 
1849:../Drivers/BSP/Components/vl53l0x/vl53l0x_api.c **** 	}
1850:../Drivers/BSP/Components/vl53l0x/vl53l0x_api.c **** 
1851:../Drivers/BSP/Components/vl53l0x/vl53l0x_api.c **** 	if (Status == VL53L0X_ERROR_NONE) {
 2800              		.loc 1 1851 0
 2801 006c A3B9     		cbnz	r3, .L205
1852:../Drivers/BSP/Components/vl53l0x/vl53l0x_api.c **** 
1853:../Drivers/BSP/Components/vl53l0x/vl53l0x_api.c **** 		if (EnableZeroValue == 1) {
 2802              		.loc 1 1853 0
 2803 006e 92B1     		cbz	r2, .L206
1854:../Drivers/BSP/Components/vl53l0x/vl53l0x_api.c **** 
1855:../Drivers/BSP/Components/vl53l0x/vl53l0x_api.c **** 			if (TempFix1616 == 0) {
 2804              		.loc 1 1855 0
 2805 0070 46B9     		cbnz	r6, .L207
1856:../Drivers/BSP/Components/vl53l0x/vl53l0x_api.c **** 				/* disabled: return value from memory */
1857:../Drivers/BSP/Components/vl53l0x/vl53l0x_api.c **** 				VL53L0X_GETARRAYPARAMETERFIELD(Dev,
 2806              		.loc 1 1857 0
 2807 0072 05EB8402 		add	r2, r5, r4, lsl #2
 2808              	.LVL372:
 2809 0076 526B     		ldr	r2, [r2, #52]
 2810              	.LVL373:
1858:../Drivers/BSP/Components/vl53l0x/vl53l0x_api.c **** 					LimitChecksValue, LimitCheckId,
1859:../Drivers/BSP/Components/vl53l0x/vl53l0x_api.c **** 					TempFix1616);
1860:../Drivers/BSP/Components/vl53l0x/vl53l0x_api.c **** 				*pLimitCheckValue = TempFix1616;
 2811              		.loc 1 1860 0
 2812 0078 3A60     		str	r2, [r7]
1861:../Drivers/BSP/Components/vl53l0x/vl53l0x_api.c **** 				VL53L0X_SETARRAYPARAMETERFIELD(Dev,
 2813              		.loc 1 1861 0
 2814 007a 2C44     		add	r4, r4, r5
 2815 007c 0022     		movs	r2, #0
 2816              	.LVL374:
ARM GAS  /tmp/ccflrS73.s 			page 82


 2817 007e 84F82820 		strb	r2, [r4, #40]
 2818              	.LVL375:
 2819 0082 09E0     		b	.L205
 2820              	.LVL376:
 2821              	.L207:
1862:../Drivers/BSP/Components/vl53l0x/vl53l0x_api.c **** 					LimitChecksEnable, LimitCheckId, 0);
1863:../Drivers/BSP/Components/vl53l0x/vl53l0x_api.c **** 			} else {
1864:../Drivers/BSP/Components/vl53l0x/vl53l0x_api.c **** 				*pLimitCheckValue = TempFix1616;
 2822              		.loc 1 1864 0
 2823 0084 3E60     		str	r6, [r7]
1865:../Drivers/BSP/Components/vl53l0x/vl53l0x_api.c **** 				VL53L0X_SETARRAYPARAMETERFIELD(Dev,
 2824              		.loc 1 1865 0
 2825 0086 05EB8402 		add	r2, r5, r4, lsl #2
 2826              	.LVL377:
 2827 008a 5663     		str	r6, [r2, #52]
1866:../Drivers/BSP/Components/vl53l0x/vl53l0x_api.c **** 					LimitChecksValue, LimitCheckId,
1867:../Drivers/BSP/Components/vl53l0x/vl53l0x_api.c **** 					TempFix1616);
1868:../Drivers/BSP/Components/vl53l0x/vl53l0x_api.c **** 				VL53L0X_SETARRAYPARAMETERFIELD(Dev,
 2828              		.loc 1 1868 0
 2829 008c 2C44     		add	r4, r4, r5
 2830 008e 0122     		movs	r2, #1
 2831 0090 84F82820 		strb	r2, [r4, #40]
 2832 0094 00E0     		b	.L205
 2833              	.LVL378:
 2834              	.L206:
1869:../Drivers/BSP/Components/vl53l0x/vl53l0x_api.c **** 					LimitChecksEnable, LimitCheckId, 1);
1870:../Drivers/BSP/Components/vl53l0x/vl53l0x_api.c **** 			}
1871:../Drivers/BSP/Components/vl53l0x/vl53l0x_api.c **** 		} else {
1872:../Drivers/BSP/Components/vl53l0x/vl53l0x_api.c **** 			*pLimitCheckValue = TempFix1616;
 2835              		.loc 1 1872 0
 2836 0096 3E60     		str	r6, [r7]
 2837              	.LVL379:
 2838              	.L205:
1873:../Drivers/BSP/Components/vl53l0x/vl53l0x_api.c **** 		}
1874:../Drivers/BSP/Components/vl53l0x/vl53l0x_api.c **** 	}
1875:../Drivers/BSP/Components/vl53l0x/vl53l0x_api.c **** 
1876:../Drivers/BSP/Components/vl53l0x/vl53l0x_api.c **** 	LOG_FUNCTION_END(Status);
1877:../Drivers/BSP/Components/vl53l0x/vl53l0x_api.c **** 	return Status;
1878:../Drivers/BSP/Components/vl53l0x/vl53l0x_api.c **** 
1879:../Drivers/BSP/Components/vl53l0x/vl53l0x_api.c **** }
 2839              		.loc 1 1879 0
 2840 0098 58B2     		sxtb	r0, r3
 2841 009a 03B0     		add	sp, sp, #12
 2842              	.LCFI64:
 2843              		.cfi_def_cfa_offset 20
 2844              		@ sp needed
 2845 009c F0BD     		pop	{r4, r5, r6, r7, pc}
 2846              		.cfi_endproc
 2847              	.LFE172:
 2849 009e 00BF     		.section	.text.VL53L0X_GetLimitCheckCurrent,"ax",%progbits
 2850              		.align	2
 2851              		.global	VL53L0X_GetLimitCheckCurrent
 2852              		.thumb
 2853              		.thumb_func
 2855              	VL53L0X_GetLimitCheckCurrent:
 2856              	.LFB173:
1880:../Drivers/BSP/Components/vl53l0x/vl53l0x_api.c **** 
ARM GAS  /tmp/ccflrS73.s 			page 83


1881:../Drivers/BSP/Components/vl53l0x/vl53l0x_api.c **** VL53L0X_Error VL53L0X_GetLimitCheckCurrent(VL53L0X_DEV Dev, uint16_t LimitCheckId,
1882:../Drivers/BSP/Components/vl53l0x/vl53l0x_api.c **** 	FixPoint1616_t *pLimitCheckCurrent)
1883:../Drivers/BSP/Components/vl53l0x/vl53l0x_api.c **** {
 2857              		.loc 1 1883 0
 2858              		.cfi_startproc
 2859              		@ args = 0, pretend = 0, frame = 32
 2860              		@ frame_needed = 0, uses_anonymous_args = 0
 2861              		@ link register save eliminated.
 2862              	.LVL380:
1884:../Drivers/BSP/Components/vl53l0x/vl53l0x_api.c **** 	VL53L0X_Error Status = VL53L0X_ERROR_NONE;
1885:../Drivers/BSP/Components/vl53l0x/vl53l0x_api.c **** 	VL53L0X_RangingMeasurementData_t LastRangeDataBuffer;
1886:../Drivers/BSP/Components/vl53l0x/vl53l0x_api.c **** 
1887:../Drivers/BSP/Components/vl53l0x/vl53l0x_api.c **** 	LOG_FUNCTION_START("");
1888:../Drivers/BSP/Components/vl53l0x/vl53l0x_api.c **** 
1889:../Drivers/BSP/Components/vl53l0x/vl53l0x_api.c **** 	if (LimitCheckId >= VL53L0X_CHECKENABLE_NUMBER_OF_CHECKS) {
 2863              		.loc 1 1889 0
 2864 0000 0529     		cmp	r1, #5
 2865 0002 47D8     		bhi	.L221
1883:../Drivers/BSP/Components/vl53l0x/vl53l0x_api.c **** 	VL53L0X_Error Status = VL53L0X_ERROR_NONE;
 2866              		.loc 1 1883 0
 2867 0004 70B4     		push	{r4, r5, r6}
 2868              	.LCFI65:
 2869              		.cfi_def_cfa_offset 12
 2870              		.cfi_offset 4, -12
 2871              		.cfi_offset 5, -8
 2872              		.cfi_offset 6, -4
 2873 0006 89B0     		sub	sp, sp, #36
 2874              	.LCFI66:
 2875              		.cfi_def_cfa_offset 48
 2876 0008 1546     		mov	r5, r2
1890:../Drivers/BSP/Components/vl53l0x/vl53l0x_api.c **** 		Status = VL53L0X_ERROR_INVALID_PARAMS;
1891:../Drivers/BSP/Components/vl53l0x/vl53l0x_api.c **** 	} else {
1892:../Drivers/BSP/Components/vl53l0x/vl53l0x_api.c **** 		switch (LimitCheckId) {
 2877              		.loc 1 1892 0
 2878 000a 0529     		cmp	r1, #5
 2879 000c 45D8     		bhi	.L222
 2880 000e DFE801F0 		tbb	[pc, r1]
 2881              	.L215:
 2882 0012 03       		.byte	(.L214-.L215)/2
 2883 0013 08       		.byte	(.L216-.L215)/2
 2884 0014 15       		.byte	(.L217-.L215)/2
 2885 0015 1A       		.byte	(.L218-.L215)/2
 2886 0016 27       		.byte	(.L219-.L215)/2
 2887 0017 34       		.byte	(.L220-.L215)/2
 2888              		.p2align 1
 2889              	.L214:
1893:../Drivers/BSP/Components/vl53l0x/vl53l0x_api.c **** 		case VL53L0X_CHECKENABLE_SIGMA_FINAL_RANGE:
1894:../Drivers/BSP/Components/vl53l0x/vl53l0x_api.c **** 			/* Need to run a ranging to have the latest values */
1895:../Drivers/BSP/Components/vl53l0x/vl53l0x_api.c **** 			*pLimitCheckCurrent = PALDevDataGet(Dev, SigmaEstimate);
 2890              		.loc 1 1895 0
 2891 0018 D0F84031 		ldr	r3, [r0, #320]
 2892 001c 1360     		str	r3, [r2]
1884:../Drivers/BSP/Components/vl53l0x/vl53l0x_api.c **** 	VL53L0X_RangingMeasurementData_t LastRangeDataBuffer;
 2893              		.loc 1 1884 0
 2894 001e 0020     		movs	r0, #0
 2895              	.LVL381:
1896:../Drivers/BSP/Components/vl53l0x/vl53l0x_api.c **** 
ARM GAS  /tmp/ccflrS73.s 			page 84


1897:../Drivers/BSP/Components/vl53l0x/vl53l0x_api.c **** 			break;
 2896              		.loc 1 1897 0
 2897 0020 3CE0     		b	.L213
 2898              	.LVL382:
 2899              	.L216:
1898:../Drivers/BSP/Components/vl53l0x/vl53l0x_api.c **** 
1899:../Drivers/BSP/Components/vl53l0x/vl53l0x_api.c **** 		case VL53L0X_CHECKENABLE_SIGNAL_RATE_FINAL_RANGE:
1900:../Drivers/BSP/Components/vl53l0x/vl53l0x_api.c **** 			/* Need to run a ranging to have the latest values */
1901:../Drivers/BSP/Components/vl53l0x/vl53l0x_api.c **** 			LastRangeDataBuffer = PALDevDataGet(Dev,
 2900              		.loc 1 1901 0
 2901 0022 01AE     		add	r6, sp, #4
 2902 0024 00F15004 		add	r4, r0, #80
 2903 0028 0FCC     		ldmia	r4!, {r0, r1, r2, r3}
 2904              	.LVL383:
 2905 002a 0FC6     		stmia	r6!, {r0, r1, r2, r3}
 2906 002c 94E80700 		ldmia	r4, {r0, r1, r2}
 2907 0030 86E80700 		stmia	r6, {r0, r1, r2}
1902:../Drivers/BSP/Components/vl53l0x/vl53l0x_api.c **** 				LastRangeMeasure);
1903:../Drivers/BSP/Components/vl53l0x/vl53l0x_api.c **** 			*pLimitCheckCurrent =
1904:../Drivers/BSP/Components/vl53l0x/vl53l0x_api.c **** 				LastRangeDataBuffer.SignalRateRtnMegaCps;
 2908              		.loc 1 1904 0
 2909 0034 049B     		ldr	r3, [sp, #16]
1903:../Drivers/BSP/Components/vl53l0x/vl53l0x_api.c **** 				LastRangeDataBuffer.SignalRateRtnMegaCps;
 2910              		.loc 1 1903 0
 2911 0036 2B60     		str	r3, [r5]
1884:../Drivers/BSP/Components/vl53l0x/vl53l0x_api.c **** 	VL53L0X_RangingMeasurementData_t LastRangeDataBuffer;
 2912              		.loc 1 1884 0
 2913 0038 0020     		movs	r0, #0
1905:../Drivers/BSP/Components/vl53l0x/vl53l0x_api.c **** 
1906:../Drivers/BSP/Components/vl53l0x/vl53l0x_api.c **** 			break;
 2914              		.loc 1 1906 0
 2915 003a 2FE0     		b	.L213
 2916              	.LVL384:
 2917              	.L217:
1907:../Drivers/BSP/Components/vl53l0x/vl53l0x_api.c **** 
1908:../Drivers/BSP/Components/vl53l0x/vl53l0x_api.c **** 		case VL53L0X_CHECKENABLE_SIGNAL_REF_CLIP:
1909:../Drivers/BSP/Components/vl53l0x/vl53l0x_api.c **** 			/* Need to run a ranging to have the latest values */
1910:../Drivers/BSP/Components/vl53l0x/vl53l0x_api.c **** 			*pLimitCheckCurrent = PALDevDataGet(Dev,
 2918              		.loc 1 1910 0
 2919 003c D0F84831 		ldr	r3, [r0, #328]
 2920 0040 1360     		str	r3, [r2]
1884:../Drivers/BSP/Components/vl53l0x/vl53l0x_api.c **** 	VL53L0X_RangingMeasurementData_t LastRangeDataBuffer;
 2921              		.loc 1 1884 0
 2922 0042 0020     		movs	r0, #0
 2923              	.LVL385:
1911:../Drivers/BSP/Components/vl53l0x/vl53l0x_api.c **** 				LastSignalRefMcps);
1912:../Drivers/BSP/Components/vl53l0x/vl53l0x_api.c **** 
1913:../Drivers/BSP/Components/vl53l0x/vl53l0x_api.c **** 			break;
 2924              		.loc 1 1913 0
 2925 0044 2AE0     		b	.L213
 2926              	.LVL386:
 2927              	.L218:
1914:../Drivers/BSP/Components/vl53l0x/vl53l0x_api.c **** 
1915:../Drivers/BSP/Components/vl53l0x/vl53l0x_api.c **** 		case VL53L0X_CHECKENABLE_RANGE_IGNORE_THRESHOLD:
1916:../Drivers/BSP/Components/vl53l0x/vl53l0x_api.c **** 			/* Need to run a ranging to have the latest values */
1917:../Drivers/BSP/Components/vl53l0x/vl53l0x_api.c **** 			LastRangeDataBuffer = PALDevDataGet(Dev,
 2928              		.loc 1 1917 0
ARM GAS  /tmp/ccflrS73.s 			page 85


 2929 0046 01AE     		add	r6, sp, #4
 2930 0048 00F15004 		add	r4, r0, #80
 2931 004c 0FCC     		ldmia	r4!, {r0, r1, r2, r3}
 2932              	.LVL387:
 2933 004e 0FC6     		stmia	r6!, {r0, r1, r2, r3}
 2934 0050 94E80700 		ldmia	r4, {r0, r1, r2}
 2935 0054 86E80700 		stmia	r6, {r0, r1, r2}
1918:../Drivers/BSP/Components/vl53l0x/vl53l0x_api.c **** 				LastRangeMeasure);
1919:../Drivers/BSP/Components/vl53l0x/vl53l0x_api.c **** 			*pLimitCheckCurrent =
1920:../Drivers/BSP/Components/vl53l0x/vl53l0x_api.c **** 				LastRangeDataBuffer.SignalRateRtnMegaCps;
 2936              		.loc 1 1920 0
 2937 0058 049B     		ldr	r3, [sp, #16]
1919:../Drivers/BSP/Components/vl53l0x/vl53l0x_api.c **** 				LastRangeDataBuffer.SignalRateRtnMegaCps;
 2938              		.loc 1 1919 0
 2939 005a 2B60     		str	r3, [r5]
1884:../Drivers/BSP/Components/vl53l0x/vl53l0x_api.c **** 	VL53L0X_RangingMeasurementData_t LastRangeDataBuffer;
 2940              		.loc 1 1884 0
 2941 005c 0020     		movs	r0, #0
1921:../Drivers/BSP/Components/vl53l0x/vl53l0x_api.c **** 
1922:../Drivers/BSP/Components/vl53l0x/vl53l0x_api.c **** 			break;
 2942              		.loc 1 1922 0
 2943 005e 1DE0     		b	.L213
 2944              	.LVL388:
 2945              	.L219:
1923:../Drivers/BSP/Components/vl53l0x/vl53l0x_api.c **** 
1924:../Drivers/BSP/Components/vl53l0x/vl53l0x_api.c **** 		case VL53L0X_CHECKENABLE_SIGNAL_RATE_MSRC:
1925:../Drivers/BSP/Components/vl53l0x/vl53l0x_api.c **** 			/* Need to run a ranging to have the latest values */
1926:../Drivers/BSP/Components/vl53l0x/vl53l0x_api.c **** 			LastRangeDataBuffer = PALDevDataGet(Dev,
 2946              		.loc 1 1926 0
 2947 0060 01AE     		add	r6, sp, #4
 2948 0062 00F15004 		add	r4, r0, #80
 2949 0066 0FCC     		ldmia	r4!, {r0, r1, r2, r3}
 2950              	.LVL389:
 2951 0068 0FC6     		stmia	r6!, {r0, r1, r2, r3}
 2952 006a 94E80700 		ldmia	r4, {r0, r1, r2}
 2953 006e 86E80700 		stmia	r6, {r0, r1, r2}
1927:../Drivers/BSP/Components/vl53l0x/vl53l0x_api.c **** 				LastRangeMeasure);
1928:../Drivers/BSP/Components/vl53l0x/vl53l0x_api.c **** 			*pLimitCheckCurrent =
1929:../Drivers/BSP/Components/vl53l0x/vl53l0x_api.c **** 				LastRangeDataBuffer.SignalRateRtnMegaCps;
 2954              		.loc 1 1929 0
 2955 0072 049B     		ldr	r3, [sp, #16]
1928:../Drivers/BSP/Components/vl53l0x/vl53l0x_api.c **** 				LastRangeDataBuffer.SignalRateRtnMegaCps;
 2956              		.loc 1 1928 0
 2957 0074 2B60     		str	r3, [r5]
1884:../Drivers/BSP/Components/vl53l0x/vl53l0x_api.c **** 	VL53L0X_RangingMeasurementData_t LastRangeDataBuffer;
 2958              		.loc 1 1884 0
 2959 0076 0020     		movs	r0, #0
1930:../Drivers/BSP/Components/vl53l0x/vl53l0x_api.c **** 
1931:../Drivers/BSP/Components/vl53l0x/vl53l0x_api.c **** 			break;
 2960              		.loc 1 1931 0
 2961 0078 10E0     		b	.L213
 2962              	.LVL390:
 2963              	.L220:
1932:../Drivers/BSP/Components/vl53l0x/vl53l0x_api.c **** 
1933:../Drivers/BSP/Components/vl53l0x/vl53l0x_api.c **** 		case VL53L0X_CHECKENABLE_SIGNAL_RATE_PRE_RANGE:
1934:../Drivers/BSP/Components/vl53l0x/vl53l0x_api.c **** 			/* Need to run a ranging to have the latest values */
1935:../Drivers/BSP/Components/vl53l0x/vl53l0x_api.c **** 			LastRangeDataBuffer = PALDevDataGet(Dev,
ARM GAS  /tmp/ccflrS73.s 			page 86


 2964              		.loc 1 1935 0
 2965 007a 01AE     		add	r6, sp, #4
 2966 007c 00F15004 		add	r4, r0, #80
 2967 0080 0FCC     		ldmia	r4!, {r0, r1, r2, r3}
 2968              	.LVL391:
 2969 0082 0FC6     		stmia	r6!, {r0, r1, r2, r3}
 2970 0084 94E80700 		ldmia	r4, {r0, r1, r2}
 2971 0088 86E80700 		stmia	r6, {r0, r1, r2}
1936:../Drivers/BSP/Components/vl53l0x/vl53l0x_api.c **** 				LastRangeMeasure);
1937:../Drivers/BSP/Components/vl53l0x/vl53l0x_api.c **** 			*pLimitCheckCurrent =
1938:../Drivers/BSP/Components/vl53l0x/vl53l0x_api.c **** 				LastRangeDataBuffer.SignalRateRtnMegaCps;
 2972              		.loc 1 1938 0
 2973 008c 049B     		ldr	r3, [sp, #16]
1937:../Drivers/BSP/Components/vl53l0x/vl53l0x_api.c **** 				LastRangeDataBuffer.SignalRateRtnMegaCps;
 2974              		.loc 1 1937 0
 2975 008e 2B60     		str	r3, [r5]
1884:../Drivers/BSP/Components/vl53l0x/vl53l0x_api.c **** 	VL53L0X_RangingMeasurementData_t LastRangeDataBuffer;
 2976              		.loc 1 1884 0
 2977 0090 0020     		movs	r0, #0
1939:../Drivers/BSP/Components/vl53l0x/vl53l0x_api.c **** 
1940:../Drivers/BSP/Components/vl53l0x/vl53l0x_api.c **** 			break;
 2978              		.loc 1 1940 0
 2979 0092 03E0     		b	.L213
 2980              	.LVL392:
 2981              	.L221:
 2982              	.LCFI67:
 2983              		.cfi_def_cfa_offset 0
 2984              		.cfi_restore 4
 2985              		.cfi_restore 5
 2986              		.cfi_restore 6
1890:../Drivers/BSP/Components/vl53l0x/vl53l0x_api.c **** 	} else {
 2987              		.loc 1 1890 0
 2988 0094 FC20     		movs	r0, #252
 2989              	.LVL393:
1941:../Drivers/BSP/Components/vl53l0x/vl53l0x_api.c **** 
1942:../Drivers/BSP/Components/vl53l0x/vl53l0x_api.c **** 		default:
1943:../Drivers/BSP/Components/vl53l0x/vl53l0x_api.c **** 			Status = VL53L0X_ERROR_INVALID_PARAMS;
1944:../Drivers/BSP/Components/vl53l0x/vl53l0x_api.c **** 		}
1945:../Drivers/BSP/Components/vl53l0x/vl53l0x_api.c **** 	}
1946:../Drivers/BSP/Components/vl53l0x/vl53l0x_api.c **** 
1947:../Drivers/BSP/Components/vl53l0x/vl53l0x_api.c **** 	LOG_FUNCTION_END(Status);
1948:../Drivers/BSP/Components/vl53l0x/vl53l0x_api.c **** 	return Status;
1949:../Drivers/BSP/Components/vl53l0x/vl53l0x_api.c **** 
1950:../Drivers/BSP/Components/vl53l0x/vl53l0x_api.c **** }
 2990              		.loc 1 1950 0
 2991 0096 40B2     		sxtb	r0, r0
 2992 0098 7047     		bx	lr
 2993              	.LVL394:
 2994              	.L222:
1943:../Drivers/BSP/Components/vl53l0x/vl53l0x_api.c **** 		}
 2995              		.loc 1 1943 0
 2996 009a FC20     		movs	r0, #252
 2997              	.LVL395:
 2998              	.L213:
 2999              	.LCFI68:
 3000              		.cfi_def_cfa_offset 48
 3001              		.cfi_offset 4, -12
ARM GAS  /tmp/ccflrS73.s 			page 87


 3002              		.cfi_offset 5, -8
 3003              		.cfi_offset 6, -4
 3004              		.loc 1 1950 0
 3005 009c 40B2     		sxtb	r0, r0
 3006 009e 09B0     		add	sp, sp, #36
 3007              	.LCFI69:
 3008              		.cfi_def_cfa_offset 12
 3009              		@ sp needed
 3010 00a0 70BC     		pop	{r4, r5, r6}
 3011              	.LCFI70:
 3012              		.cfi_restore 6
 3013              		.cfi_restore 5
 3014              		.cfi_restore 4
 3015              		.cfi_def_cfa_offset 0
 3016              	.LVL396:
 3017 00a2 7047     		bx	lr
 3018              		.cfi_endproc
 3019              	.LFE173:
 3021              		.section	.text.VL53L0X_SetWrapAroundCheckEnable,"ax",%progbits
 3022              		.align	2
 3023              		.global	VL53L0X_SetWrapAroundCheckEnable
 3024              		.thumb
 3025              		.thumb_func
 3027              	VL53L0X_SetWrapAroundCheckEnable:
 3028              	.LFB174:
1951:../Drivers/BSP/Components/vl53l0x/vl53l0x_api.c **** 
1952:../Drivers/BSP/Components/vl53l0x/vl53l0x_api.c **** /*
1953:../Drivers/BSP/Components/vl53l0x/vl53l0x_api.c ****  * WRAPAROUND Check
1954:../Drivers/BSP/Components/vl53l0x/vl53l0x_api.c ****  */
1955:../Drivers/BSP/Components/vl53l0x/vl53l0x_api.c **** VL53L0X_Error VL53L0X_SetWrapAroundCheckEnable(VL53L0X_DEV Dev,
1956:../Drivers/BSP/Components/vl53l0x/vl53l0x_api.c **** 	uint8_t WrapAroundCheckEnable)
1957:../Drivers/BSP/Components/vl53l0x/vl53l0x_api.c **** {
 3029              		.loc 1 1957 0
 3030              		.cfi_startproc
 3031              		@ args = 0, pretend = 0, frame = 8
 3032              		@ frame_needed = 0, uses_anonymous_args = 0
 3033              	.LVL397:
 3034 0000 30B5     		push	{r4, r5, lr}
 3035              	.LCFI71:
 3036              		.cfi_def_cfa_offset 12
 3037              		.cfi_offset 4, -12
 3038              		.cfi_offset 5, -8
 3039              		.cfi_offset 14, -4
 3040 0002 83B0     		sub	sp, sp, #12
 3041              	.LCFI72:
 3042              		.cfi_def_cfa_offset 24
 3043 0004 0446     		mov	r4, r0
 3044 0006 0D46     		mov	r5, r1
 3045              	.LVL398:
1958:../Drivers/BSP/Components/vl53l0x/vl53l0x_api.c **** 	VL53L0X_Error Status = VL53L0X_ERROR_NONE;
1959:../Drivers/BSP/Components/vl53l0x/vl53l0x_api.c **** 	uint8_t Byte;
1960:../Drivers/BSP/Components/vl53l0x/vl53l0x_api.c **** 	uint8_t WrapAroundCheckEnableInt;
1961:../Drivers/BSP/Components/vl53l0x/vl53l0x_api.c **** 
1962:../Drivers/BSP/Components/vl53l0x/vl53l0x_api.c **** 	LOG_FUNCTION_START("");
1963:../Drivers/BSP/Components/vl53l0x/vl53l0x_api.c **** 
1964:../Drivers/BSP/Components/vl53l0x/vl53l0x_api.c **** 	Status = VL53L0X_RdByte(Dev, VL53L0X_REG_SYSTEM_SEQUENCE_CONFIG, &Byte);
 3046              		.loc 1 1964 0
ARM GAS  /tmp/ccflrS73.s 			page 88


 3047 0008 0121     		movs	r1, #1
 3048              	.LVL399:
 3049 000a 0DF10702 		add	r2, sp, #7
 3050 000e FFF7FEFF 		bl	VL53L0X_RdByte
 3051              	.LVL400:
1965:../Drivers/BSP/Components/vl53l0x/vl53l0x_api.c **** 	if (WrapAroundCheckEnable == 0) {
 3052              		.loc 1 1965 0
 3053 0012 35B9     		cbnz	r5, .L225
1966:../Drivers/BSP/Components/vl53l0x/vl53l0x_api.c **** 		/* Disable wraparound */
1967:../Drivers/BSP/Components/vl53l0x/vl53l0x_api.c **** 		Byte = Byte & 0x7F;
 3054              		.loc 1 1967 0
 3055 0014 9DF80730 		ldrb	r3, [sp, #7]	@ zero_extendqisi2
 3056 0018 03F07F03 		and	r3, r3, #127
 3057 001c 8DF80730 		strb	r3, [sp, #7]
 3058              	.LVL401:
 3059 0020 06E0     		b	.L226
 3060              	.LVL402:
 3061              	.L225:
1968:../Drivers/BSP/Components/vl53l0x/vl53l0x_api.c **** 		WrapAroundCheckEnableInt = 0;
1969:../Drivers/BSP/Components/vl53l0x/vl53l0x_api.c **** 	} else {
1970:../Drivers/BSP/Components/vl53l0x/vl53l0x_api.c **** 		/*Enable wraparound */
1971:../Drivers/BSP/Components/vl53l0x/vl53l0x_api.c **** 		Byte = Byte | 0x80;
 3062              		.loc 1 1971 0
 3063 0022 9DF80730 		ldrb	r3, [sp, #7]	@ zero_extendqisi2
 3064 0026 63F07F03 		orn	r3, r3, #127
 3065 002a 8DF80730 		strb	r3, [sp, #7]
 3066              	.LVL403:
1972:../Drivers/BSP/Components/vl53l0x/vl53l0x_api.c **** 		WrapAroundCheckEnableInt = 1;
 3067              		.loc 1 1972 0
 3068 002e 0125     		movs	r5, #1
 3069              	.LVL404:
 3070              	.L226:
1973:../Drivers/BSP/Components/vl53l0x/vl53l0x_api.c **** 	}
1974:../Drivers/BSP/Components/vl53l0x/vl53l0x_api.c **** 
1975:../Drivers/BSP/Components/vl53l0x/vl53l0x_api.c **** 	Status = VL53L0X_WrByte(Dev, VL53L0X_REG_SYSTEM_SEQUENCE_CONFIG, Byte);
 3071              		.loc 1 1975 0
 3072 0030 2046     		mov	r0, r4
 3073 0032 0121     		movs	r1, #1
 3074 0034 9DF80720 		ldrb	r2, [sp, #7]	@ zero_extendqisi2
 3075 0038 FFF7FEFF 		bl	VL53L0X_WrByte
 3076              	.LVL405:
1976:../Drivers/BSP/Components/vl53l0x/vl53l0x_api.c **** 
1977:../Drivers/BSP/Components/vl53l0x/vl53l0x_api.c **** 	if (Status == VL53L0X_ERROR_NONE) {
 3077              		.loc 1 1977 0
 3078 003c 0346     		mov	r3, r0
 3079 003e 28B9     		cbnz	r0, .L227
1978:../Drivers/BSP/Components/vl53l0x/vl53l0x_api.c **** 		PALDevDataSet(Dev, SequenceConfig, Byte);
 3080              		.loc 1 1978 0
 3081 0040 9DF80720 		ldrb	r2, [sp, #7]	@ zero_extendqisi2
 3082 0044 84F83021 		strb	r2, [r4, #304]
1979:../Drivers/BSP/Components/vl53l0x/vl53l0x_api.c **** 		VL53L0X_SETPARAMETERFIELD(Dev, WrapAroundCheckEnable,
 3083              		.loc 1 1979 0
 3084 0048 84F84C50 		strb	r5, [r4, #76]
 3085              	.L227:
1980:../Drivers/BSP/Components/vl53l0x/vl53l0x_api.c **** 			WrapAroundCheckEnableInt);
1981:../Drivers/BSP/Components/vl53l0x/vl53l0x_api.c **** 	}
1982:../Drivers/BSP/Components/vl53l0x/vl53l0x_api.c **** 
ARM GAS  /tmp/ccflrS73.s 			page 89


1983:../Drivers/BSP/Components/vl53l0x/vl53l0x_api.c **** 	LOG_FUNCTION_END(Status);
1984:../Drivers/BSP/Components/vl53l0x/vl53l0x_api.c **** 	return Status;
1985:../Drivers/BSP/Components/vl53l0x/vl53l0x_api.c **** }
 3086              		.loc 1 1985 0
 3087 004c 1846     		mov	r0, r3
 3088              	.LVL406:
 3089 004e 03B0     		add	sp, sp, #12
 3090              	.LCFI73:
 3091              		.cfi_def_cfa_offset 12
 3092              		@ sp needed
 3093 0050 30BD     		pop	{r4, r5, pc}
 3094              		.cfi_endproc
 3095              	.LFE174:
 3097 0052 00BF     		.section	.text.VL53L0X_SetDeviceParameters,"ax",%progbits
 3098              		.align	2
 3099              		.global	VL53L0X_SetDeviceParameters
 3100              		.thumb
 3101              		.thumb_func
 3103              	VL53L0X_SetDeviceParameters:
 3104              	.LFB138:
 787:../Drivers/BSP/Components/vl53l0x/vl53l0x_api.c **** 	VL53L0X_Error Status = VL53L0X_ERROR_NONE;
 3105              		.loc 1 787 0
 3106              		.cfi_startproc
 3107              		@ args = 0, pretend = 0, frame = 0
 3108              		@ frame_needed = 0, uses_anonymous_args = 0
 3109              	.LVL407:
 3110 0000 2DE9F041 		push	{r4, r5, r6, r7, r8, lr}
 3111              	.LCFI74:
 3112              		.cfi_def_cfa_offset 24
 3113              		.cfi_offset 4, -24
 3114              		.cfi_offset 5, -20
 3115              		.cfi_offset 6, -16
 3116              		.cfi_offset 7, -12
 3117              		.cfi_offset 8, -8
 3118              		.cfi_offset 14, -4
 3119 0004 0746     		mov	r7, r0
 3120 0006 0E46     		mov	r6, r1
 3121              	.LVL408:
 791:../Drivers/BSP/Components/vl53l0x/vl53l0x_api.c **** 
 3122              		.loc 1 791 0
 3123 0008 0978     		ldrb	r1, [r1]	@ zero_extendqisi2
 3124              	.LVL409:
 3125 000a FFF7FEFF 		bl	VL53L0X_SetDeviceMode
 3126              	.LVL410:
 793:../Drivers/BSP/Components/vl53l0x/vl53l0x_api.c **** 		Status = VL53L0X_SetInterMeasurementPeriodMilliSeconds(Dev,
 3127              		.loc 1 793 0
 3128 000e 0446     		mov	r4, r0
 3129 0010 20B9     		cbnz	r0, .L230
 794:../Drivers/BSP/Components/vl53l0x/vl53l0x_api.c **** 			pDeviceParameters->InterMeasurementPeriodMilliSeconds);
 3130              		.loc 1 794 0
 3131 0012 3846     		mov	r0, r7
 3132              	.LVL411:
 3133 0014 B168     		ldr	r1, [r6, #8]
 3134 0016 FFF7FEFF 		bl	VL53L0X_SetInterMeasurementPeriodMilliSeconds
 3135              	.LVL412:
 3136 001a 0446     		mov	r4, r0
 3137              	.LVL413:
ARM GAS  /tmp/ccflrS73.s 			page 90


 3138              	.L230:
 798:../Drivers/BSP/Components/vl53l0x/vl53l0x_api.c **** 		Status = VL53L0X_SetXTalkCompensationRateMegaCps(Dev,
 3139              		.loc 1 798 0
 3140 001c 24B9     		cbnz	r4, .L231
 799:../Drivers/BSP/Components/vl53l0x/vl53l0x_api.c **** 			pDeviceParameters->XTalkCompensationRateMegaCps);
 3141              		.loc 1 799 0
 3142 001e 3846     		mov	r0, r7
 3143 0020 3169     		ldr	r1, [r6, #16]
 3144 0022 FFF7FEFF 		bl	VL53L0X_SetXTalkCompensationRateMegaCps
 3145              	.LVL414:
 3146 0026 0446     		mov	r4, r0
 3147              	.LVL415:
 3148              	.L231:
 803:../Drivers/BSP/Components/vl53l0x/vl53l0x_api.c **** 		Status = VL53L0X_SetOffsetCalibrationDataMicroMeter(Dev,
 3149              		.loc 1 803 0
 3150 0028 24B9     		cbnz	r4, .L232
 804:../Drivers/BSP/Components/vl53l0x/vl53l0x_api.c **** 			pDeviceParameters->RangeOffsetMicroMeters);
 3151              		.loc 1 804 0
 3152 002a 3846     		mov	r0, r7
 3153 002c 7169     		ldr	r1, [r6, #20]
 3154 002e FFF7FEFF 		bl	VL53L0X_SetOffsetCalibrationDataMicroMeter
 3155              	.LVL416:
 3156 0032 0446     		mov	r4, r0
 3157              	.LVL417:
 3158              	.L232:
 787:../Drivers/BSP/Components/vl53l0x/vl53l0x_api.c **** 	VL53L0X_Error Status = VL53L0X_ERROR_NONE;
 3159              		.loc 1 787 0 discriminator 1
 3160 0034 0025     		movs	r5, #0
 3161 0036 16E0     		b	.L233
 3162              	.LVL418:
 3163              	.L235:
 809:../Drivers/BSP/Components/vl53l0x/vl53l0x_api.c **** 			Status |= VL53L0X_SetLimitCheckEnable(Dev, i,
 3164              		.loc 1 809 0
 3165 0038 BCB9     		cbnz	r4, .L234
 810:../Drivers/BSP/Components/vl53l0x/vl53l0x_api.c **** 				pDeviceParameters->LimitChecksEnable[i]);
 3166              		.loc 1 810 0
 3167 003a 1FFA85F8 		uxth	r8, r5
 3168 003e 7319     		adds	r3, r6, r5
 3169 0040 3846     		mov	r0, r7
 3170 0042 4146     		mov	r1, r8
 3171 0044 1A7E     		ldrb	r2, [r3, #24]	@ zero_extendqisi2
 3172 0046 FFF7FEFF 		bl	VL53L0X_SetLimitCheckEnable
 3173              	.LVL419:
 3174 004a 2043     		orrs	r0, r0, r4
 3175              	.LVL420:
 815:../Drivers/BSP/Components/vl53l0x/vl53l0x_api.c **** 			Status |= VL53L0X_SetLimitCheckValue(Dev, i,
 3176              		.loc 1 815 0
 3177 004c 10F0FF04 		ands	r4, r0, #255
 3178 0050 0BD1     		bne	.L234
 816:../Drivers/BSP/Components/vl53l0x/vl53l0x_api.c **** 				pDeviceParameters->LimitChecksValue[i]);
 3179              		.loc 1 816 0 discriminator 2
 3180 0052 06EB8503 		add	r3, r6, r5, lsl #2
 3181 0056 3846     		mov	r0, r7
 3182              	.LVL421:
 3183 0058 4146     		mov	r1, r8
 3184 005a 5A6A     		ldr	r2, [r3, #36]
 3185 005c FFF7FEFF 		bl	VL53L0X_SetLimitCheckValue
ARM GAS  /tmp/ccflrS73.s 			page 91


 3186              	.LVL422:
 3187 0060 2043     		orrs	r0, r0, r4
 3188 0062 C4B2     		uxtb	r4, r0
 3189              	.LVL423:
 808:../Drivers/BSP/Components/vl53l0x/vl53l0x_api.c **** 		if (Status == VL53L0X_ERROR_NONE)
 3190              		.loc 1 808 0 discriminator 2
 3191 0064 0135     		adds	r5, r5, #1
 3192              	.LVL424:
 3193              	.L233:
 808:../Drivers/BSP/Components/vl53l0x/vl53l0x_api.c **** 		if (Status == VL53L0X_ERROR_NONE)
 3194              		.loc 1 808 0 is_stmt 0 discriminator 1
 3195 0066 052D     		cmp	r5, #5
 3196 0068 E6DD     		ble	.L235
 3197              	.LVL425:
 3198              	.L234:
 823:../Drivers/BSP/Components/vl53l0x/vl53l0x_api.c **** 		Status = VL53L0X_SetWrapAroundCheckEnable(Dev,
 3199              		.loc 1 823 0 is_stmt 1
 3200 006a 2CB9     		cbnz	r4, .L236
 824:../Drivers/BSP/Components/vl53l0x/vl53l0x_api.c **** 			pDeviceParameters->WrapAroundCheckEnable);
 3201              		.loc 1 824 0
 3202 006c 3846     		mov	r0, r7
 3203 006e 96F83C10 		ldrb	r1, [r6, #60]	@ zero_extendqisi2
 3204 0072 FFF7FEFF 		bl	VL53L0X_SetWrapAroundCheckEnable
 3205              	.LVL426:
 3206 0076 0446     		mov	r4, r0
 3207              	.LVL427:
 3208              	.L236:
 827:../Drivers/BSP/Components/vl53l0x/vl53l0x_api.c **** 		Status = VL53L0X_SetMeasurementTimingBudgetMicroSeconds(Dev,
 3209              		.loc 1 827 0
 3210 0078 24B9     		cbnz	r4, .L237
 828:../Drivers/BSP/Components/vl53l0x/vl53l0x_api.c **** 			pDeviceParameters->MeasurementTimingBudgetMicroSeconds);
 3211              		.loc 1 828 0
 3212 007a 3846     		mov	r0, r7
 3213 007c 7168     		ldr	r1, [r6, #4]
 3214 007e FFF7FEFF 		bl	VL53L0X_SetMeasurementTimingBudgetMicroSeconds
 3215              	.LVL428:
 3216 0082 0446     		mov	r4, r0
 3217              	.LVL429:
 3218              	.L237:
 834:../Drivers/BSP/Components/vl53l0x/vl53l0x_api.c **** 
 3219              		.loc 1 834 0
 3220 0084 60B2     		sxtb	r0, r4
 3221 0086 BDE8F081 		pop	{r4, r5, r6, r7, r8, pc}
 3222              		.cfi_endproc
 3223              	.LFE138:
 3225 008a 00BF     		.section	.text.VL53L0X_GetWrapAroundCheckEnable,"ax",%progbits
 3226              		.align	2
 3227              		.global	VL53L0X_GetWrapAroundCheckEnable
 3228              		.thumb
 3229              		.thumb_func
 3231              	VL53L0X_GetWrapAroundCheckEnable:
 3232              	.LFB175:
1986:../Drivers/BSP/Components/vl53l0x/vl53l0x_api.c **** 
1987:../Drivers/BSP/Components/vl53l0x/vl53l0x_api.c **** VL53L0X_Error VL53L0X_GetWrapAroundCheckEnable(VL53L0X_DEV Dev,
1988:../Drivers/BSP/Components/vl53l0x/vl53l0x_api.c **** 	uint8_t *pWrapAroundCheckEnable)
1989:../Drivers/BSP/Components/vl53l0x/vl53l0x_api.c **** {
 3233              		.loc 1 1989 0
ARM GAS  /tmp/ccflrS73.s 			page 92


 3234              		.cfi_startproc
 3235              		@ args = 0, pretend = 0, frame = 8
 3236              		@ frame_needed = 0, uses_anonymous_args = 0
 3237              	.LVL430:
 3238 0000 30B5     		push	{r4, r5, lr}
 3239              	.LCFI75:
 3240              		.cfi_def_cfa_offset 12
 3241              		.cfi_offset 4, -12
 3242              		.cfi_offset 5, -8
 3243              		.cfi_offset 14, -4
 3244 0002 83B0     		sub	sp, sp, #12
 3245              	.LCFI76:
 3246              		.cfi_def_cfa_offset 24
 3247 0004 0446     		mov	r4, r0
 3248 0006 0D46     		mov	r5, r1
 3249              	.LVL431:
1990:../Drivers/BSP/Components/vl53l0x/vl53l0x_api.c **** 	VL53L0X_Error Status = VL53L0X_ERROR_NONE;
1991:../Drivers/BSP/Components/vl53l0x/vl53l0x_api.c **** 	uint8_t data;
1992:../Drivers/BSP/Components/vl53l0x/vl53l0x_api.c **** 
1993:../Drivers/BSP/Components/vl53l0x/vl53l0x_api.c **** 	LOG_FUNCTION_START("");
1994:../Drivers/BSP/Components/vl53l0x/vl53l0x_api.c **** 
1995:../Drivers/BSP/Components/vl53l0x/vl53l0x_api.c **** 	Status = VL53L0X_RdByte(Dev, VL53L0X_REG_SYSTEM_SEQUENCE_CONFIG, &data);
 3250              		.loc 1 1995 0
 3251 0008 0121     		movs	r1, #1
 3252              	.LVL432:
 3253 000a 0DF10702 		add	r2, sp, #7
 3254 000e FFF7FEFF 		bl	VL53L0X_RdByte
 3255              	.LVL433:
1996:../Drivers/BSP/Components/vl53l0x/vl53l0x_api.c **** 	if (Status == VL53L0X_ERROR_NONE) {
 3256              		.loc 1 1996 0
 3257 0012 0346     		mov	r3, r0
 3258 0014 58B9     		cbnz	r0, .L240
1997:../Drivers/BSP/Components/vl53l0x/vl53l0x_api.c **** 		PALDevDataSet(Dev, SequenceConfig, data);
 3259              		.loc 1 1997 0
 3260 0016 9DF80720 		ldrb	r2, [sp, #7]	@ zero_extendqisi2
 3261 001a 84F83021 		strb	r2, [r4, #304]
1998:../Drivers/BSP/Components/vl53l0x/vl53l0x_api.c **** 		if (data & (0x01 << 7))
 3262              		.loc 1 1998 0
 3263 001e 12F0800F 		tst	r2, #128
 3264 0022 02D0     		beq	.L241
1999:../Drivers/BSP/Components/vl53l0x/vl53l0x_api.c **** 			*pWrapAroundCheckEnable = 0x01;
 3265              		.loc 1 1999 0
 3266 0024 0122     		movs	r2, #1
 3267 0026 2A70     		strb	r2, [r5]
 3268 0028 01E0     		b	.L240
 3269              	.L241:
2000:../Drivers/BSP/Components/vl53l0x/vl53l0x_api.c **** 		else
2001:../Drivers/BSP/Components/vl53l0x/vl53l0x_api.c **** 			*pWrapAroundCheckEnable = 0x00;
 3270              		.loc 1 2001 0
 3271 002a 0022     		movs	r2, #0
 3272 002c 2A70     		strb	r2, [r5]
 3273              	.L240:
2002:../Drivers/BSP/Components/vl53l0x/vl53l0x_api.c **** 	}
2003:../Drivers/BSP/Components/vl53l0x/vl53l0x_api.c **** 	if (Status == VL53L0X_ERROR_NONE) {
 3274              		.loc 1 2003 0
 3275 002e 13B9     		cbnz	r3, .L242
2004:../Drivers/BSP/Components/vl53l0x/vl53l0x_api.c **** 		VL53L0X_SETPARAMETERFIELD(Dev, WrapAroundCheckEnable,
ARM GAS  /tmp/ccflrS73.s 			page 93


 3276              		.loc 1 2004 0
 3277 0030 2A78     		ldrb	r2, [r5]	@ zero_extendqisi2
 3278 0032 84F84C20 		strb	r2, [r4, #76]
 3279              	.L242:
2005:../Drivers/BSP/Components/vl53l0x/vl53l0x_api.c **** 			*pWrapAroundCheckEnable);
2006:../Drivers/BSP/Components/vl53l0x/vl53l0x_api.c **** 	}
2007:../Drivers/BSP/Components/vl53l0x/vl53l0x_api.c **** 
2008:../Drivers/BSP/Components/vl53l0x/vl53l0x_api.c **** 	LOG_FUNCTION_END(Status);
2009:../Drivers/BSP/Components/vl53l0x/vl53l0x_api.c **** 	return Status;
2010:../Drivers/BSP/Components/vl53l0x/vl53l0x_api.c **** }
 3280              		.loc 1 2010 0
 3281 0036 1846     		mov	r0, r3
 3282              	.LVL434:
 3283 0038 03B0     		add	sp, sp, #12
 3284              	.LCFI77:
 3285              		.cfi_def_cfa_offset 12
 3286              		@ sp needed
 3287 003a 30BD     		pop	{r4, r5, pc}
 3288              		.cfi_endproc
 3289              	.LFE175:
 3291              		.section	.text.VL53L0X_GetDeviceParameters,"ax",%progbits
 3292              		.align	2
 3293              		.global	VL53L0X_GetDeviceParameters
 3294              		.thumb
 3295              		.thumb_func
 3297              	VL53L0X_GetDeviceParameters:
 3298              	.LFB139:
 838:../Drivers/BSP/Components/vl53l0x/vl53l0x_api.c **** 	VL53L0X_Error Status = VL53L0X_ERROR_NONE;
 3299              		.loc 1 838 0
 3300              		.cfi_startproc
 3301              		@ args = 0, pretend = 0, frame = 0
 3302              		@ frame_needed = 0, uses_anonymous_args = 0
 3303              	.LVL435:
 3304 0000 2DE9F041 		push	{r4, r5, r6, r7, r8, lr}
 3305              	.LCFI78:
 3306              		.cfi_def_cfa_offset 24
 3307              		.cfi_offset 4, -24
 3308              		.cfi_offset 5, -20
 3309              		.cfi_offset 6, -16
 3310              		.cfi_offset 7, -12
 3311              		.cfi_offset 8, -8
 3312              		.cfi_offset 14, -4
 3313 0004 0746     		mov	r7, r0
 3314 0006 0E46     		mov	r6, r1
 3315              	.LVL436:
 844:../Drivers/BSP/Components/vl53l0x/vl53l0x_api.c **** 
 3316              		.loc 1 844 0
 3317 0008 FFF7FEFF 		bl	VL53L0X_GetDeviceMode
 3318              	.LVL437:
 846:../Drivers/BSP/Components/vl53l0x/vl53l0x_api.c **** 		Status = VL53L0X_GetInterMeasurementPeriodMilliSeconds(Dev,
 3319              		.loc 1 846 0
 3320 000c 0446     		mov	r4, r0
 3321 000e 28B9     		cbnz	r0, .L245
 847:../Drivers/BSP/Components/vl53l0x/vl53l0x_api.c **** 		&(pDeviceParameters->InterMeasurementPeriodMilliSeconds));
 3322              		.loc 1 847 0
 3323 0010 3846     		mov	r0, r7
 3324              	.LVL438:
ARM GAS  /tmp/ccflrS73.s 			page 94


 3325 0012 06F10801 		add	r1, r6, #8
 3326 0016 FFF7FEFF 		bl	VL53L0X_GetInterMeasurementPeriodMilliSeconds
 3327              	.LVL439:
 3328 001a 0446     		mov	r4, r0
 3329              	.LVL440:
 3330              	.L245:
 851:../Drivers/BSP/Components/vl53l0x/vl53l0x_api.c **** 		pDeviceParameters->XTalkCompensationEnable = 0;
 3331              		.loc 1 851 0
 3332 001c 0CB9     		cbnz	r4, .L246
 852:../Drivers/BSP/Components/vl53l0x/vl53l0x_api.c **** 
 3333              		.loc 1 852 0
 3334 001e 0023     		movs	r3, #0
 3335 0020 3373     		strb	r3, [r6, #12]
 3336              	.L246:
 854:../Drivers/BSP/Components/vl53l0x/vl53l0x_api.c **** 		Status = VL53L0X_GetXTalkCompensationRateMegaCps(Dev,
 3337              		.loc 1 854 0
 3338 0022 2CB9     		cbnz	r4, .L247
 855:../Drivers/BSP/Components/vl53l0x/vl53l0x_api.c **** 			&(pDeviceParameters->XTalkCompensationRateMegaCps));
 3339              		.loc 1 855 0
 3340 0024 3846     		mov	r0, r7
 3341 0026 06F11001 		add	r1, r6, #16
 3342 002a FFF7FEFF 		bl	VL53L0X_GetXTalkCompensationRateMegaCps
 3343              	.LVL441:
 3344 002e 0446     		mov	r4, r0
 3345              	.LVL442:
 3346              	.L247:
 859:../Drivers/BSP/Components/vl53l0x/vl53l0x_api.c **** 		Status = VL53L0X_GetOffsetCalibrationDataMicroMeter(Dev,
 3347              		.loc 1 859 0
 3348 0030 2CB9     		cbnz	r4, .L248
 860:../Drivers/BSP/Components/vl53l0x/vl53l0x_api.c **** 			&(pDeviceParameters->RangeOffsetMicroMeters));
 3349              		.loc 1 860 0
 3350 0032 3846     		mov	r0, r7
 3351 0034 06F11401 		add	r1, r6, #20
 3352 0038 FFF7FEFF 		bl	VL53L0X_GetOffsetCalibrationDataMicroMeter
 3353              	.LVL443:
 3354 003c 0446     		mov	r4, r0
 3355              	.LVL444:
 3356              	.L248:
 864:../Drivers/BSP/Components/vl53l0x/vl53l0x_api.c **** 		for (i = 0; i < VL53L0X_CHECKENABLE_NUMBER_OF_CHECKS; i++) {
 3357              		.loc 1 864 0
 3358 003e CCB1     		cbz	r4, .L254
 3359 0040 1BE0     		b	.L250
 3360              	.LVL445:
 3361              	.L251:
 870:../Drivers/BSP/Components/vl53l0x/vl53l0x_api.c **** 				Status |= VL53L0X_GetLimitCheckValue(Dev, i,
 3362              		.loc 1 870 0
 3363 0042 D4B9     		cbnz	r4, .L250
 871:../Drivers/BSP/Components/vl53l0x/vl53l0x_api.c **** 				&(pDeviceParameters->LimitChecksValue[i]));
 3364              		.loc 1 871 0
 3365 0044 1FFA85F8 		uxth	r8, r5
 3366 0048 06EB8502 		add	r2, r6, r5, lsl #2
 3367 004c 3846     		mov	r0, r7
 3368 004e 4146     		mov	r1, r8
 3369 0050 2432     		adds	r2, r2, #36
 3370 0052 FFF7FEFF 		bl	VL53L0X_GetLimitCheckValue
 3371              	.LVL446:
 3372 0056 2043     		orrs	r0, r0, r4
ARM GAS  /tmp/ccflrS73.s 			page 95


 3373              	.LVL447:
 876:../Drivers/BSP/Components/vl53l0x/vl53l0x_api.c **** 				Status |= VL53L0X_GetLimitCheckEnable(Dev, i,
 3374              		.loc 1 876 0
 3375 0058 10F0FF04 		ands	r4, r0, #255
 3376 005c 0DD1     		bne	.L250
 877:../Drivers/BSP/Components/vl53l0x/vl53l0x_api.c **** 				&(pDeviceParameters->LimitChecksEnable[i]));
 3377              		.loc 1 877 0 discriminator 2
 3378 005e 05F11802 		add	r2, r5, #24
 3379 0062 3846     		mov	r0, r7
 3380              	.LVL448:
 3381 0064 4146     		mov	r1, r8
 3382 0066 3244     		add	r2, r2, r6
 3383 0068 FFF7FEFF 		bl	VL53L0X_GetLimitCheckEnable
 3384              	.LVL449:
 3385 006c 2043     		orrs	r0, r0, r4
 3386 006e C4B2     		uxtb	r4, r0
 3387              	.LVL450:
 865:../Drivers/BSP/Components/vl53l0x/vl53l0x_api.c **** 			/* get first the values, then the enables.
 3388              		.loc 1 865 0 discriminator 2
 3389 0070 0135     		adds	r5, r5, #1
 3390              	.LVL451:
 3391 0072 00E0     		b	.L249
 3392              	.LVL452:
 3393              	.L254:
 3394 0074 0025     		movs	r5, #0
 3395              	.L249:
 3396              	.LVL453:
 865:../Drivers/BSP/Components/vl53l0x/vl53l0x_api.c **** 			/* get first the values, then the enables.
 3397              		.loc 1 865 0 is_stmt 0 discriminator 1
 3398 0076 052D     		cmp	r5, #5
 3399 0078 E3DD     		ble	.L251
 3400              	.LVL454:
 3401              	.L250:
 885:../Drivers/BSP/Components/vl53l0x/vl53l0x_api.c **** 		Status = VL53L0X_GetWrapAroundCheckEnable(Dev,
 3402              		.loc 1 885 0 is_stmt 1
 3403 007a 2CB9     		cbnz	r4, .L252
 886:../Drivers/BSP/Components/vl53l0x/vl53l0x_api.c **** 			&(pDeviceParameters->WrapAroundCheckEnable));
 3404              		.loc 1 886 0
 3405 007c 3846     		mov	r0, r7
 3406 007e 06F13C01 		add	r1, r6, #60
 3407 0082 FFF7FEFF 		bl	VL53L0X_GetWrapAroundCheckEnable
 3408              	.LVL455:
 3409 0086 0446     		mov	r4, r0
 3410              	.LVL456:
 3411              	.L252:
 891:../Drivers/BSP/Components/vl53l0x/vl53l0x_api.c **** 		Status = VL53L0X_GetMeasurementTimingBudgetMicroSeconds(Dev,
 3412              		.loc 1 891 0
 3413 0088 24B9     		cbnz	r4, .L253
 892:../Drivers/BSP/Components/vl53l0x/vl53l0x_api.c **** 		&(pDeviceParameters->MeasurementTimingBudgetMicroSeconds));
 3414              		.loc 1 892 0
 3415 008a 3846     		mov	r0, r7
 3416 008c 311D     		adds	r1, r6, #4
 3417 008e FFF7FEFF 		bl	VL53L0X_GetMeasurementTimingBudgetMicroSeconds
 3418              	.LVL457:
 3419 0092 0446     		mov	r4, r0
 3420              	.LVL458:
 3421              	.L253:
ARM GAS  /tmp/ccflrS73.s 			page 96


 898:../Drivers/BSP/Components/vl53l0x/vl53l0x_api.c **** 
 3422              		.loc 1 898 0
 3423 0094 60B2     		sxtb	r0, r4
 3424 0096 BDE8F081 		pop	{r4, r5, r6, r7, r8, pc}
 3425              		.cfi_endproc
 3426              	.LFE139:
 3428 009a 00BF     		.section	.text.VL53L0X_DataInit,"ax",%progbits
 3429              		.align	2
 3430              		.global	VL53L0X_DataInit
 3431              		.thumb
 3432              		.thumb_func
 3434              	VL53L0X_DataInit:
 3435              	.LFB132:
 368:../Drivers/BSP/Components/vl53l0x/vl53l0x_api.c **** 	VL53L0X_Error Status = VL53L0X_ERROR_NONE;
 3436              		.loc 1 368 0
 3437              		.cfi_startproc
 3438              		@ args = 0, pretend = 0, frame = 72
 3439              		@ frame_needed = 0, uses_anonymous_args = 0
 3440              	.LVL459:
 3441 0000 F0B5     		push	{r4, r5, r6, r7, lr}
 3442              	.LCFI79:
 3443              		.cfi_def_cfa_offset 20
 3444              		.cfi_offset 4, -20
 3445              		.cfi_offset 5, -16
 3446              		.cfi_offset 6, -12
 3447              		.cfi_offset 7, -8
 3448              		.cfi_offset 14, -4
 3449 0002 93B0     		sub	sp, sp, #76
 3450              	.LCFI80:
 3451              		.cfi_def_cfa_offset 96
 3452 0004 0546     		mov	r5, r0
 3453              	.LVL460:
 387:../Drivers/BSP/Components/vl53l0x/vl53l0x_api.c **** 
 3454              		.loc 1 387 0
 3455 0006 8821     		movs	r1, #136
 3456 0008 0022     		movs	r2, #0
 3457 000a FFF7FEFF 		bl	VL53L0X_WrByte
 3458              	.LVL461:
 389:../Drivers/BSP/Components/vl53l0x/vl53l0x_api.c **** 
 3459              		.loc 1 389 0
 3460 000e 0023     		movs	r3, #0
 3461 0010 85F8F030 		strb	r3, [r5, #240]
 397:../Drivers/BSP/Components/vl53l0x/vl53l0x_api.c **** 
 3462              		.loc 1 397 0
 3463 0014 4FF47A72 		mov	r2, #1000
 3464 0018 A5F85221 		strh	r2, [r5, #338]	@ movhi
 400:../Drivers/BSP/Components/vl53l0x/vl53l0x_api.c **** 	PALDevDataSet(Dev, DmaxCalSignalRateRtnMegaCps,
 3465              		.loc 1 400 0
 3466 001c 4FF4C872 		mov	r2, #400
 3467 0020 A5F85421 		strh	r2, [r5, #340]	@ movhi
 401:../Drivers/BSP/Components/vl53l0x/vl53l0x_api.c **** 		(FixPoint1616_t)((0x00016B85))); /* 1.42 No Cover Glass*/
 3468              		.loc 1 401 0
 3469 0024 604A     		ldr	r2, .L272
 3470 0026 C5F85821 		str	r2, [r5, #344]
 406:../Drivers/BSP/Components/vl53l0x/vl53l0x_api.c **** 
 3471              		.loc 1 406 0
 3472 002a 604A     		ldr	r2, .L272+4
ARM GAS  /tmp/ccflrS73.s 			page 97


 3473 002c C5F8D420 		str	r2, [r5, #212]
 409:../Drivers/BSP/Components/vl53l0x/vl53l0x_api.c **** 
 3474              		.loc 1 409 0
 3475 0030 2B62     		str	r3, [r5, #32]
 412:../Drivers/BSP/Components/vl53l0x/vl53l0x_api.c **** 	if (Status == VL53L0X_ERROR_NONE) {
 3476              		.loc 1 412 0
 3477 0032 2846     		mov	r0, r5
 3478 0034 02A9     		add	r1, sp, #8
 3479 0036 FFF7FEFF 		bl	VL53L0X_GetDeviceParameters
 3480              	.LVL462:
 413:../Drivers/BSP/Components/vl53l0x/vl53l0x_api.c **** 		/* initialize PAL values */
 3481              		.loc 1 413 0
 3482 003a 0446     		mov	r4, r0
 3483 003c 88B9     		cbnz	r0, .L257
 415:../Drivers/BSP/Components/vl53l0x/vl53l0x_api.c **** 		CurrentParameters.HistogramMode = VL53L0X_HISTOGRAMMODE_DISABLED;
 3484              		.loc 1 415 0
 3485 003e 0023     		movs	r3, #0
 3486 0040 8DF80830 		strb	r3, [sp, #8]
 416:../Drivers/BSP/Components/vl53l0x/vl53l0x_api.c **** 		PALDevDataSet(Dev, CurrentParameters, CurrentParameters);
 3487              		.loc 1 416 0
 3488 0044 8DF80930 		strb	r3, [sp, #9]
 417:../Drivers/BSP/Components/vl53l0x/vl53l0x_api.c **** 	}
 3489              		.loc 1 417 0
 3490 0048 05F11006 		add	r6, r5, #16
 3491 004c 02AF     		add	r7, sp, #8
 3492 004e 0FCF     		ldmia	r7!, {r0, r1, r2, r3}
 3493              	.LVL463:
 3494 0050 0FC6     		stmia	r6!, {r0, r1, r2, r3}
 3495 0052 0FCF     		ldmia	r7!, {r0, r1, r2, r3}
 3496 0054 0FC6     		stmia	r6!, {r0, r1, r2, r3}
 3497 0056 0FCF     		ldmia	r7!, {r0, r1, r2, r3}
 3498 0058 0FC6     		stmia	r6!, {r0, r1, r2, r3}
 3499 005a 97E80F00 		ldmia	r7, {r0, r1, r2, r3}
 3500 005e 86E80F00 		stmia	r6, {r0, r1, r2, r3}
 3501              	.L257:
 421:../Drivers/BSP/Components/vl53l0x/vl53l0x_api.c **** 	PALDevDataSet(Dev, SigmaEstEffPulseWidth, 900);
 3502              		.loc 1 421 0
 3503 0062 6423     		movs	r3, #100
 3504 0064 A5F83431 		strh	r3, [r5, #308]	@ movhi
 422:../Drivers/BSP/Components/vl53l0x/vl53l0x_api.c **** 	PALDevDataSet(Dev, SigmaEstEffAmbWidth, 500);
 3505              		.loc 1 422 0
 3506 0068 4FF46173 		mov	r3, #900
 3507 006c A5F83631 		strh	r3, [r5, #310]	@ movhi
 423:../Drivers/BSP/Components/vl53l0x/vl53l0x_api.c **** 	PALDevDataSet(Dev, targetRefRate, 0x0A00); /* 20 MCPS in 9:7 format */
 3508              		.loc 1 423 0
 3509 0070 4FF4FA73 		mov	r3, #500
 3510 0074 A5F83831 		strh	r3, [r5, #312]	@ movhi
 424:../Drivers/BSP/Components/vl53l0x/vl53l0x_api.c **** 
 3511              		.loc 1 424 0
 3512 0078 4FF42063 		mov	r3, #2560
 3513 007c A5F83C31 		strh	r3, [r5, #316]	@ movhi
 427:../Drivers/BSP/Components/vl53l0x/vl53l0x_api.c **** 
 3514              		.loc 1 427 0
 3515 0080 0126     		movs	r6, #1
 3516 0082 85F85061 		strb	r6, [r5, #336]
 429:../Drivers/BSP/Components/vl53l0x/vl53l0x_api.c **** 	Status |= VL53L0X_WrByte(Dev, 0xFF, 0x01);
 3517              		.loc 1 429 0
ARM GAS  /tmp/ccflrS73.s 			page 98


 3518 0086 2846     		mov	r0, r5
 3519 0088 8021     		movs	r1, #128
 3520 008a 3246     		mov	r2, r6
 3521 008c FFF7FEFF 		bl	VL53L0X_WrByte
 3522              	.LVL464:
 3523 0090 2043     		orrs	r0, r0, r4
 3524 0092 C4B2     		uxtb	r4, r0
 3525              	.LVL465:
 430:../Drivers/BSP/Components/vl53l0x/vl53l0x_api.c **** 	Status |= VL53L0X_WrByte(Dev, 0x00, 0x00);
 3526              		.loc 1 430 0
 3527 0094 2846     		mov	r0, r5
 3528 0096 FF21     		movs	r1, #255
 3529 0098 3246     		mov	r2, r6
 3530 009a FFF7FEFF 		bl	VL53L0X_WrByte
 3531              	.LVL466:
 3532 009e 2043     		orrs	r0, r0, r4
 3533 00a0 C4B2     		uxtb	r4, r0
 3534              	.LVL467:
 431:../Drivers/BSP/Components/vl53l0x/vl53l0x_api.c **** 	Status |= VL53L0X_RdByte(Dev, 0x91, &StopVariable);
 3535              		.loc 1 431 0
 3536 00a2 2846     		mov	r0, r5
 3537 00a4 0021     		movs	r1, #0
 3538 00a6 0A46     		mov	r2, r1
 3539 00a8 FFF7FEFF 		bl	VL53L0X_WrByte
 3540              	.LVL468:
 3541 00ac 2043     		orrs	r0, r0, r4
 3542 00ae C4B2     		uxtb	r4, r0
 3543              	.LVL469:
 432:../Drivers/BSP/Components/vl53l0x/vl53l0x_api.c **** 	PALDevDataSet(Dev, StopVariable, StopVariable);
 3544              		.loc 1 432 0
 3545 00b0 2846     		mov	r0, r5
 3546 00b2 9121     		movs	r1, #145
 3547 00b4 0DF10702 		add	r2, sp, #7
 3548 00b8 FFF7FEFF 		bl	VL53L0X_RdByte
 3549              	.LVL470:
 3550 00bc 2043     		orrs	r0, r0, r4
 3551 00be C4B2     		uxtb	r4, r0
 3552              	.LVL471:
 433:../Drivers/BSP/Components/vl53l0x/vl53l0x_api.c **** 	Status |= VL53L0X_WrByte(Dev, 0x00, 0x01);
 3553              		.loc 1 433 0
 3554 00c0 9DF80730 		ldrb	r3, [sp, #7]	@ zero_extendqisi2
 3555 00c4 85F83A31 		strb	r3, [r5, #314]
 434:../Drivers/BSP/Components/vl53l0x/vl53l0x_api.c **** 	Status |= VL53L0X_WrByte(Dev, 0xFF, 0x00);
 3556              		.loc 1 434 0
 3557 00c8 2846     		mov	r0, r5
 3558 00ca 0021     		movs	r1, #0
 3559 00cc 3246     		mov	r2, r6
 3560 00ce FFF7FEFF 		bl	VL53L0X_WrByte
 3561              	.LVL472:
 3562 00d2 2043     		orrs	r0, r0, r4
 3563 00d4 C4B2     		uxtb	r4, r0
 3564              	.LVL473:
 435:../Drivers/BSP/Components/vl53l0x/vl53l0x_api.c **** 	Status |= VL53L0X_WrByte(Dev, 0x80, 0x00);
 3565              		.loc 1 435 0
 3566 00d6 2846     		mov	r0, r5
 3567 00d8 FF21     		movs	r1, #255
 3568 00da 0022     		movs	r2, #0
ARM GAS  /tmp/ccflrS73.s 			page 99


 3569 00dc FFF7FEFF 		bl	VL53L0X_WrByte
 3570              	.LVL474:
 3571 00e0 2043     		orrs	r0, r0, r4
 3572 00e2 C4B2     		uxtb	r4, r0
 3573              	.LVL475:
 436:../Drivers/BSP/Components/vl53l0x/vl53l0x_api.c **** 
 3574              		.loc 1 436 0
 3575 00e4 2846     		mov	r0, r5
 3576 00e6 8021     		movs	r1, #128
 3577 00e8 0022     		movs	r2, #0
 3578 00ea FFF7FEFF 		bl	VL53L0X_WrByte
 3579              	.LVL476:
 3580 00ee 2043     		orrs	r0, r0, r4
 3581 00f0 C4B2     		uxtb	r4, r0
 3582              	.LVL477:
 439:../Drivers/BSP/Components/vl53l0x/vl53l0x_api.c **** 		if (Status == VL53L0X_ERROR_NONE)
 3583              		.loc 1 439 0
 3584 00f2 0026     		movs	r6, #0
 3585 00f4 08E0     		b	.L258
 3586              	.LVL478:
 3587              	.L260:
 440:../Drivers/BSP/Components/vl53l0x/vl53l0x_api.c **** 			Status |= VL53L0X_SetLimitCheckEnable(Dev, i, 1);
 3588              		.loc 1 440 0
 3589 00f6 4CB9     		cbnz	r4, .L259
 441:../Drivers/BSP/Components/vl53l0x/vl53l0x_api.c **** 		else
 3590              		.loc 1 441 0 discriminator 2
 3591 00f8 2846     		mov	r0, r5
 3592 00fa B1B2     		uxth	r1, r6
 3593 00fc 0122     		movs	r2, #1
 3594 00fe FFF7FEFF 		bl	VL53L0X_SetLimitCheckEnable
 3595              	.LVL479:
 3596 0102 2043     		orrs	r0, r0, r4
 3597 0104 C4B2     		uxtb	r4, r0
 3598              	.LVL480:
 439:../Drivers/BSP/Components/vl53l0x/vl53l0x_api.c **** 		if (Status == VL53L0X_ERROR_NONE)
 3599              		.loc 1 439 0 discriminator 2
 3600 0106 0136     		adds	r6, r6, #1
 3601              	.LVL481:
 3602              	.L258:
 439:../Drivers/BSP/Components/vl53l0x/vl53l0x_api.c **** 		if (Status == VL53L0X_ERROR_NONE)
 3603              		.loc 1 439 0 is_stmt 0 discriminator 1
 3604 0108 052E     		cmp	r6, #5
 3605 010a F4DD     		ble	.L260
 3606              	.L259:
 448:../Drivers/BSP/Components/vl53l0x/vl53l0x_api.c **** 		Status = VL53L0X_SetLimitCheckEnable(Dev,
 3607              		.loc 1 448 0 is_stmt 1
 3608 010c 2CB9     		cbnz	r4, .L261
 449:../Drivers/BSP/Components/vl53l0x/vl53l0x_api.c **** 			VL53L0X_CHECKENABLE_SIGNAL_REF_CLIP, 0);
 3609              		.loc 1 449 0
 3610 010e 2846     		mov	r0, r5
 3611 0110 0221     		movs	r1, #2
 3612 0112 0022     		movs	r2, #0
 3613 0114 FFF7FEFF 		bl	VL53L0X_SetLimitCheckEnable
 3614              	.LVL482:
 3615 0118 0446     		mov	r4, r0
 3616              	.LVL483:
 3617              	.L261:
ARM GAS  /tmp/ccflrS73.s 			page 100


 452:../Drivers/BSP/Components/vl53l0x/vl53l0x_api.c **** 		Status = VL53L0X_SetLimitCheckEnable(Dev,
 3618              		.loc 1 452 0
 3619 011a 2CB9     		cbnz	r4, .L262
 453:../Drivers/BSP/Components/vl53l0x/vl53l0x_api.c **** 			VL53L0X_CHECKENABLE_RANGE_IGNORE_THRESHOLD, 0);
 3620              		.loc 1 453 0
 3621 011c 2846     		mov	r0, r5
 3622 011e 0321     		movs	r1, #3
 3623 0120 0022     		movs	r2, #0
 3624 0122 FFF7FEFF 		bl	VL53L0X_SetLimitCheckEnable
 3625              	.LVL484:
 3626 0126 0446     		mov	r4, r0
 3627              	.LVL485:
 3628              	.L262:
 456:../Drivers/BSP/Components/vl53l0x/vl53l0x_api.c **** 		Status = VL53L0X_SetLimitCheckEnable(Dev,
 3629              		.loc 1 456 0
 3630 0128 2CB9     		cbnz	r4, .L263
 457:../Drivers/BSP/Components/vl53l0x/vl53l0x_api.c **** 			VL53L0X_CHECKENABLE_SIGNAL_RATE_MSRC, 0);
 3631              		.loc 1 457 0
 3632 012a 2846     		mov	r0, r5
 3633 012c 0421     		movs	r1, #4
 3634 012e 0022     		movs	r2, #0
 3635 0130 FFF7FEFF 		bl	VL53L0X_SetLimitCheckEnable
 3636              	.LVL486:
 3637 0134 0446     		mov	r4, r0
 3638              	.LVL487:
 3639              	.L263:
 460:../Drivers/BSP/Components/vl53l0x/vl53l0x_api.c **** 		Status = VL53L0X_SetLimitCheckEnable(Dev,
 3640              		.loc 1 460 0
 3641 0136 2CB9     		cbnz	r4, .L264
 461:../Drivers/BSP/Components/vl53l0x/vl53l0x_api.c **** 			VL53L0X_CHECKENABLE_SIGNAL_RATE_PRE_RANGE, 0);
 3642              		.loc 1 461 0
 3643 0138 2846     		mov	r0, r5
 3644 013a 0521     		movs	r1, #5
 3645 013c 0022     		movs	r2, #0
 3646 013e FFF7FEFF 		bl	VL53L0X_SetLimitCheckEnable
 3647              	.LVL488:
 3648 0142 0446     		mov	r4, r0
 3649              	.LVL489:
 3650              	.L264:
 465:../Drivers/BSP/Components/vl53l0x/vl53l0x_api.c **** 		Status = VL53L0X_SetLimitCheckValue(Dev,
 3651              		.loc 1 465 0
 3652 0144 34B9     		cbnz	r4, .L265
 466:../Drivers/BSP/Components/vl53l0x/vl53l0x_api.c **** 			VL53L0X_CHECKENABLE_SIGMA_FINAL_RANGE,
 3653              		.loc 1 466 0
 3654 0146 2846     		mov	r0, r5
 3655 0148 0021     		movs	r1, #0
 3656 014a 4FF49012 		mov	r2, #1179648
 3657 014e FFF7FEFF 		bl	VL53L0X_SetLimitCheckValue
 3658              	.LVL490:
 3659 0152 0446     		mov	r4, r0
 3660              	.LVL491:
 3661              	.L265:
 470:../Drivers/BSP/Components/vl53l0x/vl53l0x_api.c **** 		Status = VL53L0X_SetLimitCheckValue(Dev,
 3662              		.loc 1 470 0
 3663 0154 34B9     		cbnz	r4, .L266
 471:../Drivers/BSP/Components/vl53l0x/vl53l0x_api.c **** 			VL53L0X_CHECKENABLE_SIGNAL_RATE_FINAL_RANGE,
 3664              		.loc 1 471 0
ARM GAS  /tmp/ccflrS73.s 			page 101


 3665 0156 2846     		mov	r0, r5
 3666 0158 0121     		movs	r1, #1
 3667 015a 4FF48042 		mov	r2, #16384
 3668 015e FFF7FEFF 		bl	VL53L0X_SetLimitCheckValue
 3669              	.LVL492:
 3670 0162 0446     		mov	r4, r0
 3671              	.LVL493:
 3672              	.L266:
 477:../Drivers/BSP/Components/vl53l0x/vl53l0x_api.c **** 		Status = VL53L0X_SetLimitCheckValue(Dev,
 3673              		.loc 1 477 0
 3674 0164 34B9     		cbnz	r4, .L267
 478:../Drivers/BSP/Components/vl53l0x/vl53l0x_api.c **** 			VL53L0X_CHECKENABLE_SIGNAL_REF_CLIP,
 3675              		.loc 1 478 0
 3676 0166 2846     		mov	r0, r5
 3677 0168 0221     		movs	r1, #2
 3678 016a 4FF40C12 		mov	r2, #2293760
 3679 016e FFF7FEFF 		bl	VL53L0X_SetLimitCheckValue
 3680              	.LVL494:
 3681 0172 0446     		mov	r4, r0
 3682              	.LVL495:
 3683              	.L267:
 483:../Drivers/BSP/Components/vl53l0x/vl53l0x_api.c **** 		Status = VL53L0X_SetLimitCheckValue(Dev,
 3684              		.loc 1 483 0
 3685 0174 2CB9     		cbnz	r4, .L268
 484:../Drivers/BSP/Components/vl53l0x/vl53l0x_api.c **** 			VL53L0X_CHECKENABLE_RANGE_IGNORE_THRESHOLD,
 3686              		.loc 1 484 0
 3687 0176 2846     		mov	r0, r5
 3688 0178 0321     		movs	r1, #3
 3689 017a 0022     		movs	r2, #0
 3690 017c FFF7FEFF 		bl	VL53L0X_SetLimitCheckValue
 3691              	.LVL496:
 3692 0180 0446     		mov	r4, r0
 3693              	.LVL497:
 3694              	.L268:
 489:../Drivers/BSP/Components/vl53l0x/vl53l0x_api.c **** 
 3695              		.loc 1 489 0
 3696 0182 54B9     		cbnz	r4, .L269
 491:../Drivers/BSP/Components/vl53l0x/vl53l0x_api.c **** 		Status = VL53L0X_WrByte(Dev, VL53L0X_REG_SYSTEM_SEQUENCE_CONFIG,
 3697              		.loc 1 491 0
 3698 0184 FF22     		movs	r2, #255
 3699 0186 85F83021 		strb	r2, [r5, #304]
 492:../Drivers/BSP/Components/vl53l0x/vl53l0x_api.c **** 			0xFF);
 3700              		.loc 1 492 0
 3701 018a 2846     		mov	r0, r5
 3702 018c 0121     		movs	r1, #1
 3703 018e FFF7FEFF 		bl	VL53L0X_WrByte
 3704              	.LVL498:
 3705 0192 0446     		mov	r4, r0
 3706              	.LVL499:
 497:../Drivers/BSP/Components/vl53l0x/vl53l0x_api.c **** 	}
 3707              		.loc 1 497 0
 3708 0194 0123     		movs	r3, #1
 3709 0196 85F83231 		strb	r3, [r5, #306]
 3710              	.L269:
 500:../Drivers/BSP/Components/vl53l0x/vl53l0x_api.c **** 		VL53L0X_SETDEVICESPECIFICPARAMETER(Dev, RefSpadsInitialised, 0);
 3711              		.loc 1 500 0
 3712 019a 14B9     		cbnz	r4, .L270
ARM GAS  /tmp/ccflrS73.s 			page 102


 501:../Drivers/BSP/Components/vl53l0x/vl53l0x_api.c **** 
 3713              		.loc 1 501 0
 3714 019c 0023     		movs	r3, #0
 3715 019e 85F81531 		strb	r3, [r5, #277]
 3716              	.L270:
 506:../Drivers/BSP/Components/vl53l0x/vl53l0x_api.c **** 
 3717              		.loc 1 506 0
 3718 01a2 60B2     		sxtb	r0, r4
 3719 01a4 13B0     		add	sp, sp, #76
 3720              	.LCFI81:
 3721              		.cfi_def_cfa_offset 20
 3722              		@ sp needed
 3723 01a6 F0BD     		pop	{r4, r5, r6, r7, pc}
 3724              	.LVL500:
 3725              	.L273:
 3726              		.align	2
 3727              	.L272:
 3728 01a8 856B0100 		.word	93061
 3729 01ac A4700900 		.word	618660
 3730              		.cfi_endproc
 3731              	.LFE132:
 3733              		.section	.text.VL53L0X_SetDmaxCalParameters,"ax",%progbits
 3734              		.align	2
 3735              		.global	VL53L0X_SetDmaxCalParameters
 3736              		.thumb
 3737              		.thumb_func
 3739              	VL53L0X_SetDmaxCalParameters:
 3740              	.LFB176:
2011:../Drivers/BSP/Components/vl53l0x/vl53l0x_api.c **** 
2012:../Drivers/BSP/Components/vl53l0x/vl53l0x_api.c **** VL53L0X_Error VL53L0X_SetDmaxCalParameters(VL53L0X_DEV Dev,
2013:../Drivers/BSP/Components/vl53l0x/vl53l0x_api.c **** 	uint16_t RangeMilliMeter, FixPoint1616_t SignalRateRtnMegaCps)
2014:../Drivers/BSP/Components/vl53l0x/vl53l0x_api.c **** {
 3741              		.loc 1 2014 0
 3742              		.cfi_startproc
 3743              		@ args = 0, pretend = 0, frame = 0
 3744              		@ frame_needed = 0, uses_anonymous_args = 0
 3745              	.LVL501:
 3746 0000 10B5     		push	{r4, lr}
 3747              	.LCFI82:
 3748              		.cfi_def_cfa_offset 8
 3749              		.cfi_offset 4, -8
 3750              		.cfi_offset 14, -4
 3751 0002 0446     		mov	r4, r0
 3752              	.LVL502:
2015:../Drivers/BSP/Components/vl53l0x/vl53l0x_api.c **** 	VL53L0X_Error Status = VL53L0X_ERROR_NONE;
2016:../Drivers/BSP/Components/vl53l0x/vl53l0x_api.c **** 	FixPoint1616_t SignalRateRtnMegaCpsTemp = 0;
2017:../Drivers/BSP/Components/vl53l0x/vl53l0x_api.c **** 
2018:../Drivers/BSP/Components/vl53l0x/vl53l0x_api.c **** 	LOG_FUNCTION_START("");
2019:../Drivers/BSP/Components/vl53l0x/vl53l0x_api.c **** 
2020:../Drivers/BSP/Components/vl53l0x/vl53l0x_api.c **** 	/* Check if one of input parameter is zero, in that case the
2021:../Drivers/BSP/Components/vl53l0x/vl53l0x_api.c **** 	 * value are get from NVM */
2022:../Drivers/BSP/Components/vl53l0x/vl53l0x_api.c **** 	if ((RangeMilliMeter == 0) || (SignalRateRtnMegaCps == 0)) {
 3753              		.loc 1 2022 0
 3754 0004 01B1     		cbz	r1, .L275
 3755              		.loc 1 2022 0 is_stmt 0 discriminator 1
 3756 0006 62B9     		cbnz	r2, .L276
 3757              	.L275:
ARM GAS  /tmp/ccflrS73.s 			page 103


2023:../Drivers/BSP/Components/vl53l0x/vl53l0x_api.c **** 		/* NVM parameters */
2024:../Drivers/BSP/Components/vl53l0x/vl53l0x_api.c **** 		/* Run VL53L0X_get_info_from_device wit option 4 to get
2025:../Drivers/BSP/Components/vl53l0x/vl53l0x_api.c **** 		 * signal rate at 400 mm if the value have been already
2026:../Drivers/BSP/Components/vl53l0x/vl53l0x_api.c **** 		 * get this function will return with no access to device */
2027:../Drivers/BSP/Components/vl53l0x/vl53l0x_api.c **** 		VL53L0X_get_info_from_device(Dev, 4);
 3758              		.loc 1 2027 0 is_stmt 1
 3759 0008 2046     		mov	r0, r4
 3760              	.LVL503:
 3761 000a 0421     		movs	r1, #4
 3762              	.LVL504:
 3763 000c FFF7FEFF 		bl	VL53L0X_get_info_from_device
 3764              	.LVL505:
2028:../Drivers/BSP/Components/vl53l0x/vl53l0x_api.c **** 
2029:../Drivers/BSP/Components/vl53l0x/vl53l0x_api.c **** 		SignalRateRtnMegaCpsTemp = VL53L0X_GETDEVICESPECIFICPARAMETER(
 3765              		.loc 1 2029 0
 3766 0010 D4F82031 		ldr	r3, [r4, #288]
 3767              	.LVL506:
2030:../Drivers/BSP/Components/vl53l0x/vl53l0x_api.c **** 			Dev, SignalRateMeasFixed400mm);
2031:../Drivers/BSP/Components/vl53l0x/vl53l0x_api.c **** 
2032:../Drivers/BSP/Components/vl53l0x/vl53l0x_api.c **** 		PALDevDataSet(Dev, DmaxCalRangeMilliMeter, 400);
 3768              		.loc 1 2032 0
 3769 0014 4FF4C872 		mov	r2, #400
 3770 0018 A4F85421 		strh	r2, [r4, #340]	@ movhi
2033:../Drivers/BSP/Components/vl53l0x/vl53l0x_api.c **** 		PALDevDataSet(Dev, DmaxCalSignalRateRtnMegaCps,
 3771              		.loc 1 2033 0
 3772 001c C4F85831 		str	r3, [r4, #344]
 3773 0020 03E0     		b	.L277
 3774              	.LVL507:
 3775              	.L276:
2034:../Drivers/BSP/Components/vl53l0x/vl53l0x_api.c **** 			SignalRateRtnMegaCpsTemp);
2035:../Drivers/BSP/Components/vl53l0x/vl53l0x_api.c **** 	} else {
2036:../Drivers/BSP/Components/vl53l0x/vl53l0x_api.c **** 		/* User parameters */
2037:../Drivers/BSP/Components/vl53l0x/vl53l0x_api.c **** 		PALDevDataSet(Dev, DmaxCalRangeMilliMeter, RangeMilliMeter);
 3776              		.loc 1 2037 0
 3777 0022 A4F85411 		strh	r1, [r4, #340]	@ movhi
2038:../Drivers/BSP/Components/vl53l0x/vl53l0x_api.c **** 		PALDevDataSet(Dev, DmaxCalSignalRateRtnMegaCps,
 3778              		.loc 1 2038 0
 3779 0026 C0F85821 		str	r2, [r0, #344]
 3780              	.LVL508:
 3781              	.L277:
2039:../Drivers/BSP/Components/vl53l0x/vl53l0x_api.c **** 			SignalRateRtnMegaCps);
2040:../Drivers/BSP/Components/vl53l0x/vl53l0x_api.c **** 	}
2041:../Drivers/BSP/Components/vl53l0x/vl53l0x_api.c **** 
2042:../Drivers/BSP/Components/vl53l0x/vl53l0x_api.c **** 	LOG_FUNCTION_END(Status);
2043:../Drivers/BSP/Components/vl53l0x/vl53l0x_api.c **** 	return Status;
2044:../Drivers/BSP/Components/vl53l0x/vl53l0x_api.c **** }
 3782              		.loc 1 2044 0
 3783 002a 0020     		movs	r0, #0
 3784 002c 10BD     		pop	{r4, pc}
 3785              		.cfi_endproc
 3786              	.LFE176:
 3788 002e 00BF     		.section	.text.VL53L0X_GetDmaxCalParameters,"ax",%progbits
 3789              		.align	2
 3790              		.global	VL53L0X_GetDmaxCalParameters
 3791              		.thumb
 3792              		.thumb_func
 3794              	VL53L0X_GetDmaxCalParameters:
ARM GAS  /tmp/ccflrS73.s 			page 104


 3795              	.LFB177:
2045:../Drivers/BSP/Components/vl53l0x/vl53l0x_api.c **** 
2046:../Drivers/BSP/Components/vl53l0x/vl53l0x_api.c **** VL53L0X_Error VL53L0X_GetDmaxCalParameters(VL53L0X_DEV Dev,
2047:../Drivers/BSP/Components/vl53l0x/vl53l0x_api.c **** 	uint16_t *pRangeMilliMeter, FixPoint1616_t *pSignalRateRtnMegaCps)
2048:../Drivers/BSP/Components/vl53l0x/vl53l0x_api.c **** {
 3796              		.loc 1 2048 0
 3797              		.cfi_startproc
 3798              		@ args = 0, pretend = 0, frame = 0
 3799              		@ frame_needed = 0, uses_anonymous_args = 0
 3800              		@ link register save eliminated.
 3801              	.LVL509:
2049:../Drivers/BSP/Components/vl53l0x/vl53l0x_api.c **** 	VL53L0X_Error Status = VL53L0X_ERROR_NONE;
2050:../Drivers/BSP/Components/vl53l0x/vl53l0x_api.c **** 
2051:../Drivers/BSP/Components/vl53l0x/vl53l0x_api.c **** 	LOG_FUNCTION_START("");
2052:../Drivers/BSP/Components/vl53l0x/vl53l0x_api.c **** 
2053:../Drivers/BSP/Components/vl53l0x/vl53l0x_api.c **** 	*pRangeMilliMeter = PALDevDataGet(Dev, DmaxCalRangeMilliMeter);
 3802              		.loc 1 2053 0
 3803 0000 B0F85431 		ldrh	r3, [r0, #340]
 3804 0004 0B80     		strh	r3, [r1]	@ movhi
2054:../Drivers/BSP/Components/vl53l0x/vl53l0x_api.c **** 	*pSignalRateRtnMegaCps = PALDevDataGet(Dev,
 3805              		.loc 1 2054 0
 3806 0006 D0F85831 		ldr	r3, [r0, #344]
 3807 000a 1360     		str	r3, [r2]
2055:../Drivers/BSP/Components/vl53l0x/vl53l0x_api.c **** 		DmaxCalSignalRateRtnMegaCps);
2056:../Drivers/BSP/Components/vl53l0x/vl53l0x_api.c **** 
2057:../Drivers/BSP/Components/vl53l0x/vl53l0x_api.c **** 	LOG_FUNCTION_END(Status);
2058:../Drivers/BSP/Components/vl53l0x/vl53l0x_api.c **** 	return Status;
2059:../Drivers/BSP/Components/vl53l0x/vl53l0x_api.c **** }
 3808              		.loc 1 2059 0
 3809 000c 0020     		movs	r0, #0
 3810              	.LVL510:
 3811 000e 7047     		bx	lr
 3812              		.cfi_endproc
 3813              	.LFE177:
 3815              		.section	.text.VL53L0X_PerformSingleHistogramMeasurement,"ax",%progbits
 3816              		.align	2
 3817              		.global	VL53L0X_PerformSingleHistogramMeasurement
 3818              		.thumb
 3819              		.thumb_func
 3821              	VL53L0X_PerformSingleHistogramMeasurement:
 3822              	.LFB179:
2060:../Drivers/BSP/Components/vl53l0x/vl53l0x_api.c **** 
2061:../Drivers/BSP/Components/vl53l0x/vl53l0x_api.c **** /* End Group PAL Parameters Functions */
2062:../Drivers/BSP/Components/vl53l0x/vl53l0x_api.c **** 
2063:../Drivers/BSP/Components/vl53l0x/vl53l0x_api.c **** /* Group PAL Measurement Functions */
2064:../Drivers/BSP/Components/vl53l0x/vl53l0x_api.c **** VL53L0X_Error VL53L0X_PerformSingleMeasurement(VL53L0X_DEV Dev)
2065:../Drivers/BSP/Components/vl53l0x/vl53l0x_api.c **** {
2066:../Drivers/BSP/Components/vl53l0x/vl53l0x_api.c **** 	VL53L0X_Error Status = VL53L0X_ERROR_NONE;
2067:../Drivers/BSP/Components/vl53l0x/vl53l0x_api.c **** 	VL53L0X_DeviceModes DeviceMode;
2068:../Drivers/BSP/Components/vl53l0x/vl53l0x_api.c **** 
2069:../Drivers/BSP/Components/vl53l0x/vl53l0x_api.c **** 	LOG_FUNCTION_START("");
2070:../Drivers/BSP/Components/vl53l0x/vl53l0x_api.c **** 
2071:../Drivers/BSP/Components/vl53l0x/vl53l0x_api.c **** 	/* Get Current DeviceMode */
2072:../Drivers/BSP/Components/vl53l0x/vl53l0x_api.c **** 	Status = VL53L0X_GetDeviceMode(Dev, &DeviceMode);
2073:../Drivers/BSP/Components/vl53l0x/vl53l0x_api.c **** 
2074:../Drivers/BSP/Components/vl53l0x/vl53l0x_api.c **** 	/* Start immediately to run a single ranging measurement in case of
2075:../Drivers/BSP/Components/vl53l0x/vl53l0x_api.c **** 	 * single ranging or single histogram */
ARM GAS  /tmp/ccflrS73.s 			page 105


2076:../Drivers/BSP/Components/vl53l0x/vl53l0x_api.c **** 	if (Status == VL53L0X_ERROR_NONE
2077:../Drivers/BSP/Components/vl53l0x/vl53l0x_api.c **** 		&& DeviceMode == VL53L0X_DEVICEMODE_SINGLE_RANGING)
2078:../Drivers/BSP/Components/vl53l0x/vl53l0x_api.c **** 		Status = VL53L0X_StartMeasurement(Dev);
2079:../Drivers/BSP/Components/vl53l0x/vl53l0x_api.c **** 
2080:../Drivers/BSP/Components/vl53l0x/vl53l0x_api.c **** 
2081:../Drivers/BSP/Components/vl53l0x/vl53l0x_api.c **** 	if (Status == VL53L0X_ERROR_NONE)
2082:../Drivers/BSP/Components/vl53l0x/vl53l0x_api.c **** 		Status = VL53L0X_measurement_poll_for_completion(Dev);
2083:../Drivers/BSP/Components/vl53l0x/vl53l0x_api.c **** 
2084:../Drivers/BSP/Components/vl53l0x/vl53l0x_api.c **** 
2085:../Drivers/BSP/Components/vl53l0x/vl53l0x_api.c **** 	/* Change PAL State in case of single ranging or single histogram */
2086:../Drivers/BSP/Components/vl53l0x/vl53l0x_api.c **** 	if (Status == VL53L0X_ERROR_NONE
2087:../Drivers/BSP/Components/vl53l0x/vl53l0x_api.c **** 		&& DeviceMode == VL53L0X_DEVICEMODE_SINGLE_RANGING)
2088:../Drivers/BSP/Components/vl53l0x/vl53l0x_api.c **** 		PALDevDataSet(Dev, PalState, VL53L0X_STATE_IDLE);
2089:../Drivers/BSP/Components/vl53l0x/vl53l0x_api.c **** 
2090:../Drivers/BSP/Components/vl53l0x/vl53l0x_api.c **** 
2091:../Drivers/BSP/Components/vl53l0x/vl53l0x_api.c **** 	LOG_FUNCTION_END(Status);
2092:../Drivers/BSP/Components/vl53l0x/vl53l0x_api.c **** 	return Status;
2093:../Drivers/BSP/Components/vl53l0x/vl53l0x_api.c **** }
2094:../Drivers/BSP/Components/vl53l0x/vl53l0x_api.c **** 
2095:../Drivers/BSP/Components/vl53l0x/vl53l0x_api.c **** VL53L0X_Error VL53L0X_PerformSingleHistogramMeasurement(VL53L0X_DEV Dev,
2096:../Drivers/BSP/Components/vl53l0x/vl53l0x_api.c **** 	VL53L0X_HistogramMeasurementData_t *pHistogramMeasurementData)
2097:../Drivers/BSP/Components/vl53l0x/vl53l0x_api.c **** {
 3823              		.loc 1 2097 0
 3824              		.cfi_startproc
 3825              		@ args = 0, pretend = 0, frame = 0
 3826              		@ frame_needed = 0, uses_anonymous_args = 0
 3827              		@ link register save eliminated.
 3828              	.LVL511:
2098:../Drivers/BSP/Components/vl53l0x/vl53l0x_api.c **** 	VL53L0X_Error Status = VL53L0X_ERROR_NOT_IMPLEMENTED;
2099:../Drivers/BSP/Components/vl53l0x/vl53l0x_api.c **** 	LOG_FUNCTION_START("");
2100:../Drivers/BSP/Components/vl53l0x/vl53l0x_api.c **** 
2101:../Drivers/BSP/Components/vl53l0x/vl53l0x_api.c **** 	/* not implemented on VL53L0X */
2102:../Drivers/BSP/Components/vl53l0x/vl53l0x_api.c **** 
2103:../Drivers/BSP/Components/vl53l0x/vl53l0x_api.c **** 	LOG_FUNCTION_END(Status);
2104:../Drivers/BSP/Components/vl53l0x/vl53l0x_api.c **** 	return Status;
2105:../Drivers/BSP/Components/vl53l0x/vl53l0x_api.c **** }
 3829              		.loc 1 2105 0
 3830 0000 6FF06200 		mvn	r0, #98
 3831              	.LVL512:
 3832 0004 7047     		bx	lr
 3833              		.cfi_endproc
 3834              	.LFE179:
 3836 0006 00BF     		.section	.text.VL53L0X_PerformRefCalibration,"ax",%progbits
 3837              		.align	2
 3838              		.global	VL53L0X_PerformRefCalibration
 3839              		.thumb
 3840              		.thumb_func
 3842              	VL53L0X_PerformRefCalibration:
 3843              	.LFB180:
2106:../Drivers/BSP/Components/vl53l0x/vl53l0x_api.c **** 
2107:../Drivers/BSP/Components/vl53l0x/vl53l0x_api.c **** VL53L0X_Error VL53L0X_PerformRefCalibration(VL53L0X_DEV Dev, uint8_t *pVhvSettings,
2108:../Drivers/BSP/Components/vl53l0x/vl53l0x_api.c **** 	uint8_t *pPhaseCal)
2109:../Drivers/BSP/Components/vl53l0x/vl53l0x_api.c **** {
 3844              		.loc 1 2109 0
 3845              		.cfi_startproc
 3846              		@ args = 0, pretend = 0, frame = 0
 3847              		@ frame_needed = 0, uses_anonymous_args = 0
ARM GAS  /tmp/ccflrS73.s 			page 106


 3848              	.LVL513:
 3849 0000 08B5     		push	{r3, lr}
 3850              	.LCFI83:
 3851              		.cfi_def_cfa_offset 8
 3852              		.cfi_offset 3, -8
 3853              		.cfi_offset 14, -4
 3854              	.LVL514:
2110:../Drivers/BSP/Components/vl53l0x/vl53l0x_api.c **** 	VL53L0X_Error Status = VL53L0X_ERROR_NONE;
2111:../Drivers/BSP/Components/vl53l0x/vl53l0x_api.c **** 	LOG_FUNCTION_START("");
2112:../Drivers/BSP/Components/vl53l0x/vl53l0x_api.c **** 
2113:../Drivers/BSP/Components/vl53l0x/vl53l0x_api.c **** 	Status = VL53L0X_perform_ref_calibration(Dev, pVhvSettings,
 3855              		.loc 1 2113 0
 3856 0002 0123     		movs	r3, #1
 3857 0004 FFF7FEFF 		bl	VL53L0X_perform_ref_calibration
 3858              	.LVL515:
2114:../Drivers/BSP/Components/vl53l0x/vl53l0x_api.c **** 		pPhaseCal, 1);
2115:../Drivers/BSP/Components/vl53l0x/vl53l0x_api.c **** 
2116:../Drivers/BSP/Components/vl53l0x/vl53l0x_api.c **** 	LOG_FUNCTION_END(Status);
2117:../Drivers/BSP/Components/vl53l0x/vl53l0x_api.c **** 	return Status;
2118:../Drivers/BSP/Components/vl53l0x/vl53l0x_api.c **** }
 3859              		.loc 1 2118 0
 3860 0008 08BD     		pop	{r3, pc}
 3861              		.cfi_endproc
 3862              	.LFE180:
 3864 000a 00BF     		.section	.text.VL53L0X_PerformXTalkMeasurement,"ax",%progbits
 3865              		.align	2
 3866              		.global	VL53L0X_PerformXTalkMeasurement
 3867              		.thumb
 3868              		.thumb_func
 3870              	VL53L0X_PerformXTalkMeasurement:
 3871              	.LFB181:
2119:../Drivers/BSP/Components/vl53l0x/vl53l0x_api.c **** 
2120:../Drivers/BSP/Components/vl53l0x/vl53l0x_api.c **** VL53L0X_Error VL53L0X_PerformXTalkMeasurement(VL53L0X_DEV Dev,
2121:../Drivers/BSP/Components/vl53l0x/vl53l0x_api.c **** 	uint32_t TimeoutMs, FixPoint1616_t *pXtalkPerSpad,
2122:../Drivers/BSP/Components/vl53l0x/vl53l0x_api.c **** 	uint8_t *pAmbientTooHigh)
2123:../Drivers/BSP/Components/vl53l0x/vl53l0x_api.c **** {
 3872              		.loc 1 2123 0
 3873              		.cfi_startproc
 3874              		@ args = 0, pretend = 0, frame = 0
 3875              		@ frame_needed = 0, uses_anonymous_args = 0
 3876              		@ link register save eliminated.
 3877              	.LVL516:
2124:../Drivers/BSP/Components/vl53l0x/vl53l0x_api.c **** 	VL53L0X_Error Status = VL53L0X_ERROR_NOT_IMPLEMENTED;
2125:../Drivers/BSP/Components/vl53l0x/vl53l0x_api.c **** 	LOG_FUNCTION_START("");
2126:../Drivers/BSP/Components/vl53l0x/vl53l0x_api.c **** 
2127:../Drivers/BSP/Components/vl53l0x/vl53l0x_api.c **** 	/* not implemented on VL53L0X */
2128:../Drivers/BSP/Components/vl53l0x/vl53l0x_api.c **** 
2129:../Drivers/BSP/Components/vl53l0x/vl53l0x_api.c **** 	LOG_FUNCTION_END(Status);
2130:../Drivers/BSP/Components/vl53l0x/vl53l0x_api.c **** 	return Status;
2131:../Drivers/BSP/Components/vl53l0x/vl53l0x_api.c **** }
 3878              		.loc 1 2131 0
 3879 0000 6FF06200 		mvn	r0, #98
 3880              	.LVL517:
 3881 0004 7047     		bx	lr
 3882              		.cfi_endproc
 3883              	.LFE181:
 3885 0006 00BF     		.section	.text.VL53L0X_PerformXTalkCalibration,"ax",%progbits
ARM GAS  /tmp/ccflrS73.s 			page 107


 3886              		.align	2
 3887              		.global	VL53L0X_PerformXTalkCalibration
 3888              		.thumb
 3889              		.thumb_func
 3891              	VL53L0X_PerformXTalkCalibration:
 3892              	.LFB182:
2132:../Drivers/BSP/Components/vl53l0x/vl53l0x_api.c **** 
2133:../Drivers/BSP/Components/vl53l0x/vl53l0x_api.c **** VL53L0X_Error VL53L0X_PerformXTalkCalibration(VL53L0X_DEV Dev,
2134:../Drivers/BSP/Components/vl53l0x/vl53l0x_api.c **** 	FixPoint1616_t XTalkCalDistance,
2135:../Drivers/BSP/Components/vl53l0x/vl53l0x_api.c **** 	FixPoint1616_t *pXTalkCompensationRateMegaCps)
2136:../Drivers/BSP/Components/vl53l0x/vl53l0x_api.c **** {
 3893              		.loc 1 2136 0
 3894              		.cfi_startproc
 3895              		@ args = 0, pretend = 0, frame = 0
 3896              		@ frame_needed = 0, uses_anonymous_args = 0
 3897              	.LVL518:
 3898 0000 08B5     		push	{r3, lr}
 3899              	.LCFI84:
 3900              		.cfi_def_cfa_offset 8
 3901              		.cfi_offset 3, -8
 3902              		.cfi_offset 14, -4
 3903              	.LVL519:
2137:../Drivers/BSP/Components/vl53l0x/vl53l0x_api.c **** 	VL53L0X_Error Status = VL53L0X_ERROR_NONE;
2138:../Drivers/BSP/Components/vl53l0x/vl53l0x_api.c **** 	LOG_FUNCTION_START("");
2139:../Drivers/BSP/Components/vl53l0x/vl53l0x_api.c **** 
2140:../Drivers/BSP/Components/vl53l0x/vl53l0x_api.c **** 	Status = VL53L0X_perform_xtalk_calibration(Dev, XTalkCalDistance,
 3904              		.loc 1 2140 0
 3905 0002 FFF7FEFF 		bl	VL53L0X_perform_xtalk_calibration
 3906              	.LVL520:
2141:../Drivers/BSP/Components/vl53l0x/vl53l0x_api.c **** 		pXTalkCompensationRateMegaCps);
2142:../Drivers/BSP/Components/vl53l0x/vl53l0x_api.c **** 
2143:../Drivers/BSP/Components/vl53l0x/vl53l0x_api.c **** 	LOG_FUNCTION_END(Status);
2144:../Drivers/BSP/Components/vl53l0x/vl53l0x_api.c **** 	return Status;
2145:../Drivers/BSP/Components/vl53l0x/vl53l0x_api.c **** }
 3907              		.loc 1 2145 0
 3908 0006 08BD     		pop	{r3, pc}
 3909              		.cfi_endproc
 3910              	.LFE182:
 3912              		.section	.text.VL53L0X_PerformOffsetCalibration,"ax",%progbits
 3913              		.align	2
 3914              		.global	VL53L0X_PerformOffsetCalibration
 3915              		.thumb
 3916              		.thumb_func
 3918              	VL53L0X_PerformOffsetCalibration:
 3919              	.LFB183:
2146:../Drivers/BSP/Components/vl53l0x/vl53l0x_api.c **** 
2147:../Drivers/BSP/Components/vl53l0x/vl53l0x_api.c **** VL53L0X_Error VL53L0X_PerformOffsetCalibration(VL53L0X_DEV Dev,
2148:../Drivers/BSP/Components/vl53l0x/vl53l0x_api.c **** 	FixPoint1616_t CalDistanceMilliMeter, int32_t *pOffsetMicroMeter)
2149:../Drivers/BSP/Components/vl53l0x/vl53l0x_api.c **** {
 3920              		.loc 1 2149 0
 3921              		.cfi_startproc
 3922              		@ args = 0, pretend = 0, frame = 0
 3923              		@ frame_needed = 0, uses_anonymous_args = 0
 3924              	.LVL521:
 3925 0000 08B5     		push	{r3, lr}
 3926              	.LCFI85:
 3927              		.cfi_def_cfa_offset 8
ARM GAS  /tmp/ccflrS73.s 			page 108


 3928              		.cfi_offset 3, -8
 3929              		.cfi_offset 14, -4
 3930              	.LVL522:
2150:../Drivers/BSP/Components/vl53l0x/vl53l0x_api.c **** 	VL53L0X_Error Status = VL53L0X_ERROR_NONE;
2151:../Drivers/BSP/Components/vl53l0x/vl53l0x_api.c **** 	LOG_FUNCTION_START("");
2152:../Drivers/BSP/Components/vl53l0x/vl53l0x_api.c **** 
2153:../Drivers/BSP/Components/vl53l0x/vl53l0x_api.c **** 	Status = VL53L0X_perform_offset_calibration(Dev, CalDistanceMilliMeter,
 3931              		.loc 1 2153 0
 3932 0002 FFF7FEFF 		bl	VL53L0X_perform_offset_calibration
 3933              	.LVL523:
2154:../Drivers/BSP/Components/vl53l0x/vl53l0x_api.c **** 		pOffsetMicroMeter);
2155:../Drivers/BSP/Components/vl53l0x/vl53l0x_api.c **** 
2156:../Drivers/BSP/Components/vl53l0x/vl53l0x_api.c **** 	LOG_FUNCTION_END(Status);
2157:../Drivers/BSP/Components/vl53l0x/vl53l0x_api.c **** 	return Status;
2158:../Drivers/BSP/Components/vl53l0x/vl53l0x_api.c **** }
 3934              		.loc 1 2158 0
 3935 0006 08BD     		pop	{r3, pc}
 3936              		.cfi_endproc
 3937              	.LFE183:
 3939              		.section	.text.VL53L0X_WaitDeviceReadyForNewMeasurement,"ax",%progbits
 3940              		.align	2
 3941              		.global	VL53L0X_WaitDeviceReadyForNewMeasurement
 3942              		.thumb
 3943              		.thumb_func
 3945              	VL53L0X_WaitDeviceReadyForNewMeasurement:
 3946              	.LFB188:
2159:../Drivers/BSP/Components/vl53l0x/vl53l0x_api.c **** 
2160:../Drivers/BSP/Components/vl53l0x/vl53l0x_api.c **** VL53L0X_Error VL53L0X_CheckAndLoadInterruptSettings(VL53L0X_DEV Dev,
2161:../Drivers/BSP/Components/vl53l0x/vl53l0x_api.c **** 	uint8_t StartNotStopFlag)
2162:../Drivers/BSP/Components/vl53l0x/vl53l0x_api.c **** {
2163:../Drivers/BSP/Components/vl53l0x/vl53l0x_api.c **** 	uint8_t InterruptConfig;
2164:../Drivers/BSP/Components/vl53l0x/vl53l0x_api.c **** 	FixPoint1616_t ThresholdLow;
2165:../Drivers/BSP/Components/vl53l0x/vl53l0x_api.c **** 	FixPoint1616_t ThresholdHigh;
2166:../Drivers/BSP/Components/vl53l0x/vl53l0x_api.c **** 	VL53L0X_Error Status = VL53L0X_ERROR_NONE;
2167:../Drivers/BSP/Components/vl53l0x/vl53l0x_api.c **** 
2168:../Drivers/BSP/Components/vl53l0x/vl53l0x_api.c **** 	InterruptConfig = VL53L0X_GETDEVICESPECIFICPARAMETER(Dev,
2169:../Drivers/BSP/Components/vl53l0x/vl53l0x_api.c **** 		Pin0GpioFunctionality);
2170:../Drivers/BSP/Components/vl53l0x/vl53l0x_api.c **** 
2171:../Drivers/BSP/Components/vl53l0x/vl53l0x_api.c **** 	if ((InterruptConfig ==
2172:../Drivers/BSP/Components/vl53l0x/vl53l0x_api.c **** 		VL53L0X_GPIOFUNCTIONALITY_THRESHOLD_CROSSED_LOW) ||
2173:../Drivers/BSP/Components/vl53l0x/vl53l0x_api.c **** 		(InterruptConfig ==
2174:../Drivers/BSP/Components/vl53l0x/vl53l0x_api.c **** 		VL53L0X_GPIOFUNCTIONALITY_THRESHOLD_CROSSED_HIGH) ||
2175:../Drivers/BSP/Components/vl53l0x/vl53l0x_api.c **** 		(InterruptConfig ==
2176:../Drivers/BSP/Components/vl53l0x/vl53l0x_api.c **** 		VL53L0X_GPIOFUNCTIONALITY_THRESHOLD_CROSSED_OUT)) {
2177:../Drivers/BSP/Components/vl53l0x/vl53l0x_api.c **** 
2178:../Drivers/BSP/Components/vl53l0x/vl53l0x_api.c **** 		Status = VL53L0X_GetInterruptThresholds(Dev,
2179:../Drivers/BSP/Components/vl53l0x/vl53l0x_api.c **** 			VL53L0X_DEVICEMODE_CONTINUOUS_RANGING,
2180:../Drivers/BSP/Components/vl53l0x/vl53l0x_api.c **** 			&ThresholdLow, &ThresholdHigh);
2181:../Drivers/BSP/Components/vl53l0x/vl53l0x_api.c **** 
2182:../Drivers/BSP/Components/vl53l0x/vl53l0x_api.c **** 		if (((ThresholdLow > 255*65536) ||
2183:../Drivers/BSP/Components/vl53l0x/vl53l0x_api.c **** 			(ThresholdHigh > 255*65536)) &&
2184:../Drivers/BSP/Components/vl53l0x/vl53l0x_api.c **** 			(Status == VL53L0X_ERROR_NONE)) {
2185:../Drivers/BSP/Components/vl53l0x/vl53l0x_api.c **** 
2186:../Drivers/BSP/Components/vl53l0x/vl53l0x_api.c **** 			if (StartNotStopFlag != 0) {
2187:../Drivers/BSP/Components/vl53l0x/vl53l0x_api.c **** 				Status = VL53L0X_load_tuning_settings(Dev,
2188:../Drivers/BSP/Components/vl53l0x/vl53l0x_api.c **** 					InterruptThresholdSettings);
2189:../Drivers/BSP/Components/vl53l0x/vl53l0x_api.c **** 			} else {
ARM GAS  /tmp/ccflrS73.s 			page 109


2190:../Drivers/BSP/Components/vl53l0x/vl53l0x_api.c **** 				Status |= VL53L0X_WrByte(Dev, 0xFF, 0x04);
2191:../Drivers/BSP/Components/vl53l0x/vl53l0x_api.c **** 				Status |= VL53L0X_WrByte(Dev, 0x70, 0x00);
2192:../Drivers/BSP/Components/vl53l0x/vl53l0x_api.c **** 				Status |= VL53L0X_WrByte(Dev, 0xFF, 0x00);
2193:../Drivers/BSP/Components/vl53l0x/vl53l0x_api.c **** 				Status |= VL53L0X_WrByte(Dev, 0x80, 0x00);
2194:../Drivers/BSP/Components/vl53l0x/vl53l0x_api.c **** 			}
2195:../Drivers/BSP/Components/vl53l0x/vl53l0x_api.c **** 
2196:../Drivers/BSP/Components/vl53l0x/vl53l0x_api.c **** 		}
2197:../Drivers/BSP/Components/vl53l0x/vl53l0x_api.c **** 
2198:../Drivers/BSP/Components/vl53l0x/vl53l0x_api.c **** 
2199:../Drivers/BSP/Components/vl53l0x/vl53l0x_api.c **** 	}
2200:../Drivers/BSP/Components/vl53l0x/vl53l0x_api.c **** 
2201:../Drivers/BSP/Components/vl53l0x/vl53l0x_api.c **** 	return Status;
2202:../Drivers/BSP/Components/vl53l0x/vl53l0x_api.c **** 
2203:../Drivers/BSP/Components/vl53l0x/vl53l0x_api.c **** }
2204:../Drivers/BSP/Components/vl53l0x/vl53l0x_api.c **** 
2205:../Drivers/BSP/Components/vl53l0x/vl53l0x_api.c **** 
2206:../Drivers/BSP/Components/vl53l0x/vl53l0x_api.c **** VL53L0X_Error VL53L0X_StartMeasurement(VL53L0X_DEV Dev)
2207:../Drivers/BSP/Components/vl53l0x/vl53l0x_api.c **** {
2208:../Drivers/BSP/Components/vl53l0x/vl53l0x_api.c **** 	VL53L0X_Error Status = VL53L0X_ERROR_NONE;
2209:../Drivers/BSP/Components/vl53l0x/vl53l0x_api.c **** 	VL53L0X_DeviceModes DeviceMode;
2210:../Drivers/BSP/Components/vl53l0x/vl53l0x_api.c **** 	uint8_t Byte;
2211:../Drivers/BSP/Components/vl53l0x/vl53l0x_api.c **** 	uint8_t StartStopByte = VL53L0X_REG_SYSRANGE_MODE_START_STOP;
2212:../Drivers/BSP/Components/vl53l0x/vl53l0x_api.c **** 	uint32_t LoopNb;
2213:../Drivers/BSP/Components/vl53l0x/vl53l0x_api.c **** 	LOG_FUNCTION_START("");
2214:../Drivers/BSP/Components/vl53l0x/vl53l0x_api.c **** 
2215:../Drivers/BSP/Components/vl53l0x/vl53l0x_api.c **** 	/* Get Current DeviceMode */
2216:../Drivers/BSP/Components/vl53l0x/vl53l0x_api.c **** 	VL53L0X_GetDeviceMode(Dev, &DeviceMode);
2217:../Drivers/BSP/Components/vl53l0x/vl53l0x_api.c **** 
2218:../Drivers/BSP/Components/vl53l0x/vl53l0x_api.c **** 	Status = VL53L0X_WrByte(Dev, 0x80, 0x01);
2219:../Drivers/BSP/Components/vl53l0x/vl53l0x_api.c **** 	Status = VL53L0X_WrByte(Dev, 0xFF, 0x01);
2220:../Drivers/BSP/Components/vl53l0x/vl53l0x_api.c **** 	Status = VL53L0X_WrByte(Dev, 0x00, 0x00);
2221:../Drivers/BSP/Components/vl53l0x/vl53l0x_api.c **** 	Status = VL53L0X_WrByte(Dev, 0x91, PALDevDataGet(Dev, StopVariable));
2222:../Drivers/BSP/Components/vl53l0x/vl53l0x_api.c **** 	Status = VL53L0X_WrByte(Dev, 0x00, 0x01);
2223:../Drivers/BSP/Components/vl53l0x/vl53l0x_api.c **** 	Status = VL53L0X_WrByte(Dev, 0xFF, 0x00);
2224:../Drivers/BSP/Components/vl53l0x/vl53l0x_api.c **** 	Status = VL53L0X_WrByte(Dev, 0x80, 0x00);
2225:../Drivers/BSP/Components/vl53l0x/vl53l0x_api.c **** 
2226:../Drivers/BSP/Components/vl53l0x/vl53l0x_api.c **** 	switch (DeviceMode) {
2227:../Drivers/BSP/Components/vl53l0x/vl53l0x_api.c **** 	case VL53L0X_DEVICEMODE_SINGLE_RANGING:
2228:../Drivers/BSP/Components/vl53l0x/vl53l0x_api.c **** 		Status = VL53L0X_WrByte(Dev, VL53L0X_REG_SYSRANGE_START, 0x01);
2229:../Drivers/BSP/Components/vl53l0x/vl53l0x_api.c **** 
2230:../Drivers/BSP/Components/vl53l0x/vl53l0x_api.c **** 		Byte = StartStopByte;
2231:../Drivers/BSP/Components/vl53l0x/vl53l0x_api.c **** 		if (Status == VL53L0X_ERROR_NONE) {
2232:../Drivers/BSP/Components/vl53l0x/vl53l0x_api.c **** 			/* Wait until start bit has been cleared */
2233:../Drivers/BSP/Components/vl53l0x/vl53l0x_api.c **** 			LoopNb = 0;
2234:../Drivers/BSP/Components/vl53l0x/vl53l0x_api.c **** 			do {
2235:../Drivers/BSP/Components/vl53l0x/vl53l0x_api.c **** 				if (LoopNb > 0)
2236:../Drivers/BSP/Components/vl53l0x/vl53l0x_api.c **** 					Status = VL53L0X_RdByte(Dev,
2237:../Drivers/BSP/Components/vl53l0x/vl53l0x_api.c **** 					VL53L0X_REG_SYSRANGE_START, &Byte);
2238:../Drivers/BSP/Components/vl53l0x/vl53l0x_api.c **** 				LoopNb = LoopNb + 1;
2239:../Drivers/BSP/Components/vl53l0x/vl53l0x_api.c **** 			} while (((Byte & StartStopByte) == StartStopByte)
2240:../Drivers/BSP/Components/vl53l0x/vl53l0x_api.c **** 				&& (Status == VL53L0X_ERROR_NONE)
2241:../Drivers/BSP/Components/vl53l0x/vl53l0x_api.c **** 				&& (LoopNb < VL53L0X_DEFAULT_MAX_LOOP));
2242:../Drivers/BSP/Components/vl53l0x/vl53l0x_api.c **** 
2243:../Drivers/BSP/Components/vl53l0x/vl53l0x_api.c **** 			if (LoopNb >= VL53L0X_DEFAULT_MAX_LOOP)
2244:../Drivers/BSP/Components/vl53l0x/vl53l0x_api.c **** 				Status = VL53L0X_ERROR_TIME_OUT;
2245:../Drivers/BSP/Components/vl53l0x/vl53l0x_api.c **** 
2246:../Drivers/BSP/Components/vl53l0x/vl53l0x_api.c **** 		}
ARM GAS  /tmp/ccflrS73.s 			page 110


2247:../Drivers/BSP/Components/vl53l0x/vl53l0x_api.c **** 
2248:../Drivers/BSP/Components/vl53l0x/vl53l0x_api.c **** 		break;
2249:../Drivers/BSP/Components/vl53l0x/vl53l0x_api.c **** 	case VL53L0X_DEVICEMODE_CONTINUOUS_RANGING:
2250:../Drivers/BSP/Components/vl53l0x/vl53l0x_api.c **** 		/* Back-to-back mode */
2251:../Drivers/BSP/Components/vl53l0x/vl53l0x_api.c **** 
2252:../Drivers/BSP/Components/vl53l0x/vl53l0x_api.c **** 		/* Check if need to apply interrupt settings */
2253:../Drivers/BSP/Components/vl53l0x/vl53l0x_api.c **** 		if (Status == VL53L0X_ERROR_NONE)
2254:../Drivers/BSP/Components/vl53l0x/vl53l0x_api.c **** 			Status = VL53L0X_CheckAndLoadInterruptSettings(Dev, 1);
2255:../Drivers/BSP/Components/vl53l0x/vl53l0x_api.c **** 
2256:../Drivers/BSP/Components/vl53l0x/vl53l0x_api.c **** 		Status = VL53L0X_WrByte(Dev,
2257:../Drivers/BSP/Components/vl53l0x/vl53l0x_api.c **** 		VL53L0X_REG_SYSRANGE_START,
2258:../Drivers/BSP/Components/vl53l0x/vl53l0x_api.c **** 		VL53L0X_REG_SYSRANGE_MODE_BACKTOBACK);
2259:../Drivers/BSP/Components/vl53l0x/vl53l0x_api.c **** 		if (Status == VL53L0X_ERROR_NONE) {
2260:../Drivers/BSP/Components/vl53l0x/vl53l0x_api.c **** 			/* Set PAL State to Running */
2261:../Drivers/BSP/Components/vl53l0x/vl53l0x_api.c **** 			PALDevDataSet(Dev, PalState, VL53L0X_STATE_RUNNING);
2262:../Drivers/BSP/Components/vl53l0x/vl53l0x_api.c **** 		}
2263:../Drivers/BSP/Components/vl53l0x/vl53l0x_api.c **** 		break;
2264:../Drivers/BSP/Components/vl53l0x/vl53l0x_api.c **** 	case VL53L0X_DEVICEMODE_CONTINUOUS_TIMED_RANGING:
2265:../Drivers/BSP/Components/vl53l0x/vl53l0x_api.c **** 		/* Continuous mode */
2266:../Drivers/BSP/Components/vl53l0x/vl53l0x_api.c **** 		/* Check if need to apply interrupt settings */
2267:../Drivers/BSP/Components/vl53l0x/vl53l0x_api.c **** 		if (Status == VL53L0X_ERROR_NONE)
2268:../Drivers/BSP/Components/vl53l0x/vl53l0x_api.c **** 			Status = VL53L0X_CheckAndLoadInterruptSettings(Dev, 1);
2269:../Drivers/BSP/Components/vl53l0x/vl53l0x_api.c **** 
2270:../Drivers/BSP/Components/vl53l0x/vl53l0x_api.c **** 		Status = VL53L0X_WrByte(Dev,
2271:../Drivers/BSP/Components/vl53l0x/vl53l0x_api.c **** 		VL53L0X_REG_SYSRANGE_START,
2272:../Drivers/BSP/Components/vl53l0x/vl53l0x_api.c **** 		VL53L0X_REG_SYSRANGE_MODE_TIMED);
2273:../Drivers/BSP/Components/vl53l0x/vl53l0x_api.c **** 
2274:../Drivers/BSP/Components/vl53l0x/vl53l0x_api.c **** 		if (Status == VL53L0X_ERROR_NONE) {
2275:../Drivers/BSP/Components/vl53l0x/vl53l0x_api.c **** 			/* Set PAL State to Running */
2276:../Drivers/BSP/Components/vl53l0x/vl53l0x_api.c **** 			PALDevDataSet(Dev, PalState, VL53L0X_STATE_RUNNING);
2277:../Drivers/BSP/Components/vl53l0x/vl53l0x_api.c **** 		}
2278:../Drivers/BSP/Components/vl53l0x/vl53l0x_api.c **** 		break;
2279:../Drivers/BSP/Components/vl53l0x/vl53l0x_api.c **** 	default:
2280:../Drivers/BSP/Components/vl53l0x/vl53l0x_api.c **** 		/* Selected mode not supported */
2281:../Drivers/BSP/Components/vl53l0x/vl53l0x_api.c **** 		Status = VL53L0X_ERROR_MODE_NOT_SUPPORTED;
2282:../Drivers/BSP/Components/vl53l0x/vl53l0x_api.c **** 	}
2283:../Drivers/BSP/Components/vl53l0x/vl53l0x_api.c **** 
2284:../Drivers/BSP/Components/vl53l0x/vl53l0x_api.c **** 
2285:../Drivers/BSP/Components/vl53l0x/vl53l0x_api.c **** 	LOG_FUNCTION_END(Status);
2286:../Drivers/BSP/Components/vl53l0x/vl53l0x_api.c **** 	return Status;
2287:../Drivers/BSP/Components/vl53l0x/vl53l0x_api.c **** }
2288:../Drivers/BSP/Components/vl53l0x/vl53l0x_api.c **** 
2289:../Drivers/BSP/Components/vl53l0x/vl53l0x_api.c **** VL53L0X_Error VL53L0X_StopMeasurement(VL53L0X_DEV Dev)
2290:../Drivers/BSP/Components/vl53l0x/vl53l0x_api.c **** {
2291:../Drivers/BSP/Components/vl53l0x/vl53l0x_api.c **** 	VL53L0X_Error Status = VL53L0X_ERROR_NONE;
2292:../Drivers/BSP/Components/vl53l0x/vl53l0x_api.c **** 	LOG_FUNCTION_START("");
2293:../Drivers/BSP/Components/vl53l0x/vl53l0x_api.c **** 
2294:../Drivers/BSP/Components/vl53l0x/vl53l0x_api.c **** 	Status = VL53L0X_WrByte(Dev, VL53L0X_REG_SYSRANGE_START,
2295:../Drivers/BSP/Components/vl53l0x/vl53l0x_api.c **** 	VL53L0X_REG_SYSRANGE_MODE_SINGLESHOT);
2296:../Drivers/BSP/Components/vl53l0x/vl53l0x_api.c **** 
2297:../Drivers/BSP/Components/vl53l0x/vl53l0x_api.c **** 	Status = VL53L0X_WrByte(Dev, 0xFF, 0x01);
2298:../Drivers/BSP/Components/vl53l0x/vl53l0x_api.c **** 	Status = VL53L0X_WrByte(Dev, 0x00, 0x00);
2299:../Drivers/BSP/Components/vl53l0x/vl53l0x_api.c **** 	Status = VL53L0X_WrByte(Dev, 0x91, 0x00);
2300:../Drivers/BSP/Components/vl53l0x/vl53l0x_api.c **** 	Status = VL53L0X_WrByte(Dev, 0x00, 0x01);
2301:../Drivers/BSP/Components/vl53l0x/vl53l0x_api.c **** 	Status = VL53L0X_WrByte(Dev, 0xFF, 0x00);
2302:../Drivers/BSP/Components/vl53l0x/vl53l0x_api.c **** 
2303:../Drivers/BSP/Components/vl53l0x/vl53l0x_api.c **** 	if (Status == VL53L0X_ERROR_NONE) {
ARM GAS  /tmp/ccflrS73.s 			page 111


2304:../Drivers/BSP/Components/vl53l0x/vl53l0x_api.c **** 		/* Set PAL State to Idle */
2305:../Drivers/BSP/Components/vl53l0x/vl53l0x_api.c **** 		PALDevDataSet(Dev, PalState, VL53L0X_STATE_IDLE);
2306:../Drivers/BSP/Components/vl53l0x/vl53l0x_api.c **** 	}
2307:../Drivers/BSP/Components/vl53l0x/vl53l0x_api.c **** 
2308:../Drivers/BSP/Components/vl53l0x/vl53l0x_api.c **** 	/* Check if need to apply interrupt settings */
2309:../Drivers/BSP/Components/vl53l0x/vl53l0x_api.c **** 	if (Status == VL53L0X_ERROR_NONE)
2310:../Drivers/BSP/Components/vl53l0x/vl53l0x_api.c **** 		Status = VL53L0X_CheckAndLoadInterruptSettings(Dev, 0);
2311:../Drivers/BSP/Components/vl53l0x/vl53l0x_api.c **** 
2312:../Drivers/BSP/Components/vl53l0x/vl53l0x_api.c **** 	LOG_FUNCTION_END(Status);
2313:../Drivers/BSP/Components/vl53l0x/vl53l0x_api.c **** 	return Status;
2314:../Drivers/BSP/Components/vl53l0x/vl53l0x_api.c **** }
2315:../Drivers/BSP/Components/vl53l0x/vl53l0x_api.c **** 
2316:../Drivers/BSP/Components/vl53l0x/vl53l0x_api.c **** VL53L0X_Error VL53L0X_GetMeasurementDataReady(VL53L0X_DEV Dev,
2317:../Drivers/BSP/Components/vl53l0x/vl53l0x_api.c **** 	uint8_t *pMeasurementDataReady)
2318:../Drivers/BSP/Components/vl53l0x/vl53l0x_api.c **** {
2319:../Drivers/BSP/Components/vl53l0x/vl53l0x_api.c **** 	VL53L0X_Error Status = VL53L0X_ERROR_NONE;
2320:../Drivers/BSP/Components/vl53l0x/vl53l0x_api.c **** 	uint8_t SysRangeStatusRegister;
2321:../Drivers/BSP/Components/vl53l0x/vl53l0x_api.c **** 	uint8_t InterruptConfig;
2322:../Drivers/BSP/Components/vl53l0x/vl53l0x_api.c **** 	uint32_t InterruptMask;
2323:../Drivers/BSP/Components/vl53l0x/vl53l0x_api.c **** 	LOG_FUNCTION_START("");
2324:../Drivers/BSP/Components/vl53l0x/vl53l0x_api.c **** 
2325:../Drivers/BSP/Components/vl53l0x/vl53l0x_api.c **** 	InterruptConfig = VL53L0X_GETDEVICESPECIFICPARAMETER(Dev,
2326:../Drivers/BSP/Components/vl53l0x/vl53l0x_api.c **** 		Pin0GpioFunctionality);
2327:../Drivers/BSP/Components/vl53l0x/vl53l0x_api.c **** 
2328:../Drivers/BSP/Components/vl53l0x/vl53l0x_api.c **** 	if (InterruptConfig ==
2329:../Drivers/BSP/Components/vl53l0x/vl53l0x_api.c **** 		VL53L0X_REG_SYSTEM_INTERRUPT_GPIO_NEW_SAMPLE_READY) {
2330:../Drivers/BSP/Components/vl53l0x/vl53l0x_api.c **** 		Status = VL53L0X_GetInterruptMaskStatus(Dev, &InterruptMask);
2331:../Drivers/BSP/Components/vl53l0x/vl53l0x_api.c **** 		if (InterruptMask ==
2332:../Drivers/BSP/Components/vl53l0x/vl53l0x_api.c **** 		VL53L0X_REG_SYSTEM_INTERRUPT_GPIO_NEW_SAMPLE_READY)
2333:../Drivers/BSP/Components/vl53l0x/vl53l0x_api.c **** 			*pMeasurementDataReady = 1;
2334:../Drivers/BSP/Components/vl53l0x/vl53l0x_api.c **** 		else
2335:../Drivers/BSP/Components/vl53l0x/vl53l0x_api.c **** 			*pMeasurementDataReady = 0;
2336:../Drivers/BSP/Components/vl53l0x/vl53l0x_api.c **** 	} else {
2337:../Drivers/BSP/Components/vl53l0x/vl53l0x_api.c **** 		Status = VL53L0X_RdByte(Dev, VL53L0X_REG_RESULT_RANGE_STATUS,
2338:../Drivers/BSP/Components/vl53l0x/vl53l0x_api.c **** 			&SysRangeStatusRegister);
2339:../Drivers/BSP/Components/vl53l0x/vl53l0x_api.c **** 		if (Status == VL53L0X_ERROR_NONE) {
2340:../Drivers/BSP/Components/vl53l0x/vl53l0x_api.c **** 			if (SysRangeStatusRegister & 0x01)
2341:../Drivers/BSP/Components/vl53l0x/vl53l0x_api.c **** 				*pMeasurementDataReady = 1;
2342:../Drivers/BSP/Components/vl53l0x/vl53l0x_api.c **** 			else
2343:../Drivers/BSP/Components/vl53l0x/vl53l0x_api.c **** 				*pMeasurementDataReady = 0;
2344:../Drivers/BSP/Components/vl53l0x/vl53l0x_api.c **** 		}
2345:../Drivers/BSP/Components/vl53l0x/vl53l0x_api.c **** 	}
2346:../Drivers/BSP/Components/vl53l0x/vl53l0x_api.c **** 
2347:../Drivers/BSP/Components/vl53l0x/vl53l0x_api.c **** 	LOG_FUNCTION_END(Status);
2348:../Drivers/BSP/Components/vl53l0x/vl53l0x_api.c **** 	return Status;
2349:../Drivers/BSP/Components/vl53l0x/vl53l0x_api.c **** }
2350:../Drivers/BSP/Components/vl53l0x/vl53l0x_api.c **** 
2351:../Drivers/BSP/Components/vl53l0x/vl53l0x_api.c **** VL53L0X_Error VL53L0X_WaitDeviceReadyForNewMeasurement(VL53L0X_DEV Dev,
2352:../Drivers/BSP/Components/vl53l0x/vl53l0x_api.c **** 	uint32_t MaxLoop)
2353:../Drivers/BSP/Components/vl53l0x/vl53l0x_api.c **** {
 3947              		.loc 1 2353 0
 3948              		.cfi_startproc
 3949              		@ args = 0, pretend = 0, frame = 0
 3950              		@ frame_needed = 0, uses_anonymous_args = 0
 3951              		@ link register save eliminated.
 3952              	.LVL524:
2354:../Drivers/BSP/Components/vl53l0x/vl53l0x_api.c **** 	VL53L0X_Error Status = VL53L0X_ERROR_NOT_IMPLEMENTED;
ARM GAS  /tmp/ccflrS73.s 			page 112


2355:../Drivers/BSP/Components/vl53l0x/vl53l0x_api.c **** 	LOG_FUNCTION_START("");
2356:../Drivers/BSP/Components/vl53l0x/vl53l0x_api.c **** 
2357:../Drivers/BSP/Components/vl53l0x/vl53l0x_api.c **** 	/* not implemented for VL53L0X */
2358:../Drivers/BSP/Components/vl53l0x/vl53l0x_api.c **** 
2359:../Drivers/BSP/Components/vl53l0x/vl53l0x_api.c **** 	LOG_FUNCTION_END(Status);
2360:../Drivers/BSP/Components/vl53l0x/vl53l0x_api.c **** 	return Status;
2361:../Drivers/BSP/Components/vl53l0x/vl53l0x_api.c **** }
 3953              		.loc 1 2361 0
 3954 0000 6FF06200 		mvn	r0, #98
 3955              	.LVL525:
 3956 0004 7047     		bx	lr
 3957              		.cfi_endproc
 3958              	.LFE188:
 3960 0006 00BF     		.section	.text.VL53L0X_GetRangingMeasurementData,"ax",%progbits
 3961              		.align	2
 3962              		.global	VL53L0X_GetRangingMeasurementData
 3963              		.thumb
 3964              		.thumb_func
 3966              	VL53L0X_GetRangingMeasurementData:
 3967              	.LFB189:
2362:../Drivers/BSP/Components/vl53l0x/vl53l0x_api.c **** 
2363:../Drivers/BSP/Components/vl53l0x/vl53l0x_api.c **** 
2364:../Drivers/BSP/Components/vl53l0x/vl53l0x_api.c **** VL53L0X_Error VL53L0X_GetRangingMeasurementData(VL53L0X_DEV Dev,
2365:../Drivers/BSP/Components/vl53l0x/vl53l0x_api.c **** 	VL53L0X_RangingMeasurementData_t *pRangingMeasurementData)
2366:../Drivers/BSP/Components/vl53l0x/vl53l0x_api.c **** {
 3968              		.loc 1 2366 0
 3969              		.cfi_startproc
 3970              		@ args = 0, pretend = 0, frame = 48
 3971              		@ frame_needed = 0, uses_anonymous_args = 0
 3972              	.LVL526:
 3973 0000 2DE9F041 		push	{r4, r5, r6, r7, r8, lr}
 3974              	.LCFI86:
 3975              		.cfi_def_cfa_offset 24
 3976              		.cfi_offset 4, -24
 3977              		.cfi_offset 5, -20
 3978              		.cfi_offset 6, -16
 3979              		.cfi_offset 7, -12
 3980              		.cfi_offset 8, -8
 3981              		.cfi_offset 14, -4
 3982 0004 8EB0     		sub	sp, sp, #56
 3983              	.LCFI87:
 3984              		.cfi_def_cfa_offset 80
 3985 0006 0546     		mov	r5, r0
 3986 0008 0C46     		mov	r4, r1
 3987              	.LVL527:
2367:../Drivers/BSP/Components/vl53l0x/vl53l0x_api.c **** 	VL53L0X_Error Status = VL53L0X_ERROR_NONE;
2368:../Drivers/BSP/Components/vl53l0x/vl53l0x_api.c **** 	uint8_t DeviceRangeStatus;
2369:../Drivers/BSP/Components/vl53l0x/vl53l0x_api.c **** 	uint8_t RangeFractionalEnable;
2370:../Drivers/BSP/Components/vl53l0x/vl53l0x_api.c **** 	uint8_t PalRangeStatus;
2371:../Drivers/BSP/Components/vl53l0x/vl53l0x_api.c **** 	uint8_t XTalkCompensationEnable;
2372:../Drivers/BSP/Components/vl53l0x/vl53l0x_api.c **** 	uint16_t AmbientRate;
2373:../Drivers/BSP/Components/vl53l0x/vl53l0x_api.c **** 	FixPoint1616_t SignalRate;
2374:../Drivers/BSP/Components/vl53l0x/vl53l0x_api.c **** 	uint16_t XTalkCompensationRateMegaCps;
2375:../Drivers/BSP/Components/vl53l0x/vl53l0x_api.c **** 	uint16_t EffectiveSpadRtnCount;
2376:../Drivers/BSP/Components/vl53l0x/vl53l0x_api.c **** 	uint16_t tmpuint16;
2377:../Drivers/BSP/Components/vl53l0x/vl53l0x_api.c **** 	uint16_t XtalkRangeMilliMeter;
2378:../Drivers/BSP/Components/vl53l0x/vl53l0x_api.c **** 	uint16_t LinearityCorrectiveGain;
ARM GAS  /tmp/ccflrS73.s 			page 113


2379:../Drivers/BSP/Components/vl53l0x/vl53l0x_api.c **** 	uint8_t localBuffer[12];
2380:../Drivers/BSP/Components/vl53l0x/vl53l0x_api.c **** 	VL53L0X_RangingMeasurementData_t LastRangeDataBuffer;
2381:../Drivers/BSP/Components/vl53l0x/vl53l0x_api.c **** 
2382:../Drivers/BSP/Components/vl53l0x/vl53l0x_api.c **** 	LOG_FUNCTION_START("");
2383:../Drivers/BSP/Components/vl53l0x/vl53l0x_api.c **** 
2384:../Drivers/BSP/Components/vl53l0x/vl53l0x_api.c **** 	/*
2385:../Drivers/BSP/Components/vl53l0x/vl53l0x_api.c **** 	 * use multi read even if some registers are not useful, result will
2386:../Drivers/BSP/Components/vl53l0x/vl53l0x_api.c **** 	 * be more efficient
2387:../Drivers/BSP/Components/vl53l0x/vl53l0x_api.c **** 	 * start reading at 0x14 dec20
2388:../Drivers/BSP/Components/vl53l0x/vl53l0x_api.c **** 	 * end reading at 0x21 dec33 total 14 bytes to read
2389:../Drivers/BSP/Components/vl53l0x/vl53l0x_api.c **** 	 */
2390:../Drivers/BSP/Components/vl53l0x/vl53l0x_api.c **** 	Status = VL53L0X_ReadMulti(Dev, 0x14, localBuffer, 12);
 3988              		.loc 1 2390 0
 3989 000a 1421     		movs	r1, #20
 3990              	.LVL528:
 3991 000c 0AAA     		add	r2, sp, #40
 3992 000e 0C23     		movs	r3, #12
 3993 0010 FFF7FEFF 		bl	VL53L0X_ReadMulti
 3994              	.LVL529:
2391:../Drivers/BSP/Components/vl53l0x/vl53l0x_api.c **** 
2392:../Drivers/BSP/Components/vl53l0x/vl53l0x_api.c **** 	if (Status == VL53L0X_ERROR_NONE) {
 3995              		.loc 1 2392 0
 3996 0014 8046     		mov	r8, r0
 3997 0016 0028     		cmp	r0, #0
 3998 0018 70D1     		bne	.L290
2393:../Drivers/BSP/Components/vl53l0x/vl53l0x_api.c **** 
2394:../Drivers/BSP/Components/vl53l0x/vl53l0x_api.c **** 		pRangingMeasurementData->ZoneId = 0; /* Only one zone */
 3999              		.loc 1 2394 0
 4000 001a 0023     		movs	r3, #0
 4001 001c A375     		strb	r3, [r4, #22]
2395:../Drivers/BSP/Components/vl53l0x/vl53l0x_api.c **** 		pRangingMeasurementData->TimeStamp = 0; /* Not Implemented */
 4002              		.loc 1 2395 0
 4003 001e 2360     		str	r3, [r4]
2396:../Drivers/BSP/Components/vl53l0x/vl53l0x_api.c **** 
2397:../Drivers/BSP/Components/vl53l0x/vl53l0x_api.c **** 		tmpuint16 = VL53L0X_MAKEUINT16(localBuffer[11], localBuffer[10]);
 4004              		.loc 1 2397 0
 4005 0020 9DF83260 		ldrb	r6, [sp, #50]	@ zero_extendqisi2
 4006 0024 9DF83320 		ldrb	r2, [sp, #51]	@ zero_extendqisi2
 4007 0028 02EB0626 		add	r6, r2, r6, lsl #8
 4008 002c 1FFA86FE 		uxth	lr, r6
 4009              	.LVL530:
2398:../Drivers/BSP/Components/vl53l0x/vl53l0x_api.c **** 		/* cut1.1 if SYSTEM__RANGE_CONFIG if 1 range is 2bits fractional
2399:../Drivers/BSP/Components/vl53l0x/vl53l0x_api.c **** 		 *(format 11.2) else no fractional
2400:../Drivers/BSP/Components/vl53l0x/vl53l0x_api.c **** 		 */
2401:../Drivers/BSP/Components/vl53l0x/vl53l0x_api.c **** 
2402:../Drivers/BSP/Components/vl53l0x/vl53l0x_api.c **** 		pRangingMeasurementData->MeasurementTimeUsec = 0;
 4010              		.loc 1 2402 0
 4011 0030 6360     		str	r3, [r4, #4]
2403:../Drivers/BSP/Components/vl53l0x/vl53l0x_api.c **** 
2404:../Drivers/BSP/Components/vl53l0x/vl53l0x_api.c **** 		SignalRate = VL53L0X_FIXPOINT97TOFIXPOINT1616(
 4012              		.loc 1 2404 0
 4013 0032 9DF82E20 		ldrb	r2, [sp, #46]	@ zero_extendqisi2
 4014 0036 9DF82F30 		ldrb	r3, [sp, #47]	@ zero_extendqisi2
 4015 003a 03EB0222 		add	r2, r3, r2, lsl #8
 4016 003e 92B2     		uxth	r2, r2
 4017 0040 5202     		lsls	r2, r2, #9
 4018              	.LVL531:
ARM GAS  /tmp/ccflrS73.s 			page 114


2405:../Drivers/BSP/Components/vl53l0x/vl53l0x_api.c **** 			VL53L0X_MAKEUINT16(localBuffer[7], localBuffer[6]));
2406:../Drivers/BSP/Components/vl53l0x/vl53l0x_api.c **** 		/* peak_signal_count_rate_rtn_mcps */
2407:../Drivers/BSP/Components/vl53l0x/vl53l0x_api.c **** 		pRangingMeasurementData->SignalRateRtnMegaCps = SignalRate;
 4019              		.loc 1 2407 0
 4020 0042 E260     		str	r2, [r4, #12]
2408:../Drivers/BSP/Components/vl53l0x/vl53l0x_api.c **** 
2409:../Drivers/BSP/Components/vl53l0x/vl53l0x_api.c **** 		AmbientRate = VL53L0X_MAKEUINT16(localBuffer[9], localBuffer[8]);
 4021              		.loc 1 2409 0
 4022 0044 9DF83010 		ldrb	r1, [sp, #48]	@ zero_extendqisi2
 4023 0048 9DF83130 		ldrb	r3, [sp, #49]	@ zero_extendqisi2
 4024 004c 03EB0123 		add	r3, r3, r1, lsl #8
 4025 0050 9BB2     		uxth	r3, r3
 4026              	.LVL532:
2410:../Drivers/BSP/Components/vl53l0x/vl53l0x_api.c **** 		pRangingMeasurementData->AmbientRateRtnMegaCps =
2411:../Drivers/BSP/Components/vl53l0x/vl53l0x_api.c **** 			VL53L0X_FIXPOINT97TOFIXPOINT1616(AmbientRate);
 4027              		.loc 1 2411 0
 4028 0052 5B02     		lsls	r3, r3, #9
 4029              	.LVL533:
2410:../Drivers/BSP/Components/vl53l0x/vl53l0x_api.c **** 		pRangingMeasurementData->AmbientRateRtnMegaCps =
 4030              		.loc 1 2410 0
 4031 0054 2361     		str	r3, [r4, #16]
 4032              	.LVL534:
2412:../Drivers/BSP/Components/vl53l0x/vl53l0x_api.c **** 
2413:../Drivers/BSP/Components/vl53l0x/vl53l0x_api.c **** 		EffectiveSpadRtnCount = VL53L0X_MAKEUINT16(localBuffer[3],
 4033              		.loc 1 2413 0
 4034 0056 9DF82A10 		ldrb	r1, [sp, #42]	@ zero_extendqisi2
 4035 005a 9DF82B30 		ldrb	r3, [sp, #43]	@ zero_extendqisi2
 4036 005e 03EB0123 		add	r3, r3, r1, lsl #8
 4037 0062 9BB2     		uxth	r3, r3
 4038              	.LVL535:
2414:../Drivers/BSP/Components/vl53l0x/vl53l0x_api.c **** 			localBuffer[2]);
2415:../Drivers/BSP/Components/vl53l0x/vl53l0x_api.c **** 		/* EffectiveSpadRtnCount is 8.8 format */
2416:../Drivers/BSP/Components/vl53l0x/vl53l0x_api.c **** 		pRangingMeasurementData->EffectiveSpadRtnCount =
 4039              		.loc 1 2416 0
 4040 0064 A382     		strh	r3, [r4, #20]	@ movhi
2417:../Drivers/BSP/Components/vl53l0x/vl53l0x_api.c **** 			EffectiveSpadRtnCount;
2418:../Drivers/BSP/Components/vl53l0x/vl53l0x_api.c **** 
2419:../Drivers/BSP/Components/vl53l0x/vl53l0x_api.c **** 		DeviceRangeStatus = localBuffer[0];
 4041              		.loc 1 2419 0
 4042 0066 9DF82810 		ldrb	r1, [sp, #40]	@ zero_extendqisi2
 4043              	.LVL536:
2420:../Drivers/BSP/Components/vl53l0x/vl53l0x_api.c **** 
2421:../Drivers/BSP/Components/vl53l0x/vl53l0x_api.c **** 		/* Get Linearity Corrective Gain */
2422:../Drivers/BSP/Components/vl53l0x/vl53l0x_api.c **** 		LinearityCorrectiveGain = PALDevDataGet(Dev,
 4044              		.loc 1 2422 0
 4045 006a B5F85261 		ldrh	r6, [r5, #338]
 4046              	.LVL537:
2423:../Drivers/BSP/Components/vl53l0x/vl53l0x_api.c **** 			LinearityCorrectiveGain);
2424:../Drivers/BSP/Components/vl53l0x/vl53l0x_api.c **** 
2425:../Drivers/BSP/Components/vl53l0x/vl53l0x_api.c **** 		/* Get ranging configuration */
2426:../Drivers/BSP/Components/vl53l0x/vl53l0x_api.c **** 		RangeFractionalEnable = PALDevDataGet(Dev,
 4047              		.loc 1 2426 0
 4048 006e 95F83171 		ldrb	r7, [r5, #305]	@ zero_extendqisi2
 4049              	.LVL538:
2427:../Drivers/BSP/Components/vl53l0x/vl53l0x_api.c **** 			RangeFractionalEnable);
2428:../Drivers/BSP/Components/vl53l0x/vl53l0x_api.c **** 
2429:../Drivers/BSP/Components/vl53l0x/vl53l0x_api.c **** 		if (LinearityCorrectiveGain != 1000) {
ARM GAS  /tmp/ccflrS73.s 			page 115


 4050              		.loc 1 2429 0
 4051 0072 B6F57A7F 		cmp	r6, #1000
 4052 0076 26D0     		beq	.L291
2430:../Drivers/BSP/Components/vl53l0x/vl53l0x_api.c **** 
2431:../Drivers/BSP/Components/vl53l0x/vl53l0x_api.c **** 			tmpuint16 = (uint16_t)((LinearityCorrectiveGain
2432:../Drivers/BSP/Components/vl53l0x/vl53l0x_api.c **** 				* tmpuint16 + 500) / 1000);
 4053              		.loc 1 2432 0
 4054 0078 0EFB06F6 		mul	r6, lr, r6
 4055              	.LVL539:
 4056 007c 06F5FA76 		add	r6, r6, #500
 4057 0080 3648     		ldr	r0, .L299
 4058              	.LVL540:
 4059 0082 80FB06E0 		smull	lr, r0, r0, r6
 4060              	.LVL541:
 4061 0086 F617     		asrs	r6, r6, #31
 4062 0088 C6EBA010 		rsb	r0, r6, r0, asr #6
2431:../Drivers/BSP/Components/vl53l0x/vl53l0x_api.c **** 				* tmpuint16 + 500) / 1000);
 4063              		.loc 1 2431 0
 4064 008c 1FFA80FE 		uxth	lr, r0
 4065              	.LVL542:
2433:../Drivers/BSP/Components/vl53l0x/vl53l0x_api.c **** 
2434:../Drivers/BSP/Components/vl53l0x/vl53l0x_api.c **** 			/* Implement Xtalk */
2435:../Drivers/BSP/Components/vl53l0x/vl53l0x_api.c **** 			VL53L0X_GETPARAMETERFIELD(Dev,
 4066              		.loc 1 2435 0
 4067 0090 2E6A     		ldr	r6, [r5, #32]
 4068              	.LVL543:
2436:../Drivers/BSP/Components/vl53l0x/vl53l0x_api.c **** 				XTalkCompensationRateMegaCps,
2437:../Drivers/BSP/Components/vl53l0x/vl53l0x_api.c **** 				XTalkCompensationRateMegaCps);
2438:../Drivers/BSP/Components/vl53l0x/vl53l0x_api.c **** 			VL53L0X_GETPARAMETERFIELD(Dev, XTalkCompensationEnable,
 4069              		.loc 1 2438 0
 4070 0092 95F81CC0 		ldrb	ip, [r5, #28]	@ zero_extendqisi2
 4071              	.LVL544:
2439:../Drivers/BSP/Components/vl53l0x/vl53l0x_api.c **** 				XTalkCompensationEnable);
2440:../Drivers/BSP/Components/vl53l0x/vl53l0x_api.c **** 
2441:../Drivers/BSP/Components/vl53l0x/vl53l0x_api.c **** 			if (XTalkCompensationEnable) {
 4072              		.loc 1 2441 0
 4073 0096 BCF1000F 		cmp	ip, #0
 4074 009a 14D0     		beq	.L291
 4075 009c B6B2     		uxth	r6, r6
2442:../Drivers/BSP/Components/vl53l0x/vl53l0x_api.c **** 
2443:../Drivers/BSP/Components/vl53l0x/vl53l0x_api.c **** 				if ((SignalRate
2444:../Drivers/BSP/Components/vl53l0x/vl53l0x_api.c **** 					- ((XTalkCompensationRateMegaCps
2445:../Drivers/BSP/Components/vl53l0x/vl53l0x_api.c **** 					* EffectiveSpadRtnCount) >> 8))
 4076              		.loc 1 2445 0
 4077 009e 03FB06F6 		mul	r6, r3, r6
 4078              	.LVL545:
 4079 00a2 3612     		asrs	r6, r6, #8
2443:../Drivers/BSP/Components/vl53l0x/vl53l0x_api.c **** 					- ((XTalkCompensationRateMegaCps
 4080              		.loc 1 2443 0
 4081 00a4 9642     		cmp	r6, r2
 4082 00a6 03D1     		bne	.L292
2446:../Drivers/BSP/Components/vl53l0x/vl53l0x_api.c **** 					<= 0) {
2447:../Drivers/BSP/Components/vl53l0x/vl53l0x_api.c **** 					if (RangeFractionalEnable)
 4083              		.loc 1 2447 0
 4084 00a8 5FB1     		cbz	r7, .L297
2448:../Drivers/BSP/Components/vl53l0x/vl53l0x_api.c **** 						XtalkRangeMilliMeter = 8888;
 4085              		.loc 1 2448 0
ARM GAS  /tmp/ccflrS73.s 			page 116


 4086 00aa 42F2B82E 		movw	lr, #8888
 4087              	.LVL546:
 4088 00ae 0AE0     		b	.L291
 4089              	.LVL547:
 4090              	.L292:
 4091 00b0 80B2     		uxth	r0, r0
2449:../Drivers/BSP/Components/vl53l0x/vl53l0x_api.c **** 					else
2450:../Drivers/BSP/Components/vl53l0x/vl53l0x_api.c **** 						XtalkRangeMilliMeter = 8888
2451:../Drivers/BSP/Components/vl53l0x/vl53l0x_api.c **** 							<< 2;
2452:../Drivers/BSP/Components/vl53l0x/vl53l0x_api.c **** 				} else {
2453:../Drivers/BSP/Components/vl53l0x/vl53l0x_api.c **** 					XtalkRangeMilliMeter =
2454:../Drivers/BSP/Components/vl53l0x/vl53l0x_api.c **** 					(tmpuint16 * SignalRate)
 4092              		.loc 1 2454 0
 4093 00b2 02FB00F0 		mul	r0, r2, r0
2455:../Drivers/BSP/Components/vl53l0x/vl53l0x_api.c **** 						/ (SignalRate
2456:../Drivers/BSP/Components/vl53l0x/vl53l0x_api.c **** 						- ((XTalkCompensationRateMegaCps
 4094              		.loc 1 2456 0
 4095 00b6 961B     		subs	r6, r2, r6
2455:../Drivers/BSP/Components/vl53l0x/vl53l0x_api.c **** 						/ (SignalRate
 4096              		.loc 1 2455 0
 4097 00b8 B0FBF6F6 		udiv	r6, r0, r6
2453:../Drivers/BSP/Components/vl53l0x/vl53l0x_api.c **** 					(tmpuint16 * SignalRate)
 4098              		.loc 1 2453 0
 4099 00bc 1FFA86FE 		uxth	lr, r6
 4100              	.LVL548:
 4101 00c0 01E0     		b	.L291
 4102              	.LVL549:
 4103              	.L297:
2450:../Drivers/BSP/Components/vl53l0x/vl53l0x_api.c **** 							<< 2;
 4104              		.loc 1 2450 0
 4105 00c2 48F6E02E 		movw	lr, #35552
 4106              	.LVL550:
 4107              	.L291:
2457:../Drivers/BSP/Components/vl53l0x/vl53l0x_api.c **** 						* EffectiveSpadRtnCount)
2458:../Drivers/BSP/Components/vl53l0x/vl53l0x_api.c **** 						>> 8));
2459:../Drivers/BSP/Components/vl53l0x/vl53l0x_api.c **** 				}
2460:../Drivers/BSP/Components/vl53l0x/vl53l0x_api.c **** 
2461:../Drivers/BSP/Components/vl53l0x/vl53l0x_api.c **** 				tmpuint16 = XtalkRangeMilliMeter;
2462:../Drivers/BSP/Components/vl53l0x/vl53l0x_api.c **** 			}
2463:../Drivers/BSP/Components/vl53l0x/vl53l0x_api.c **** 
2464:../Drivers/BSP/Components/vl53l0x/vl53l0x_api.c **** 		}
2465:../Drivers/BSP/Components/vl53l0x/vl53l0x_api.c **** 
2466:../Drivers/BSP/Components/vl53l0x/vl53l0x_api.c **** 		if (RangeFractionalEnable) {
 4108              		.loc 1 2466 0
 4109 00c6 37B1     		cbz	r7, .L294
2467:../Drivers/BSP/Components/vl53l0x/vl53l0x_api.c **** 			pRangingMeasurementData->RangeMilliMeter =
2468:../Drivers/BSP/Components/vl53l0x/vl53l0x_api.c **** 				(uint16_t)((tmpuint16) >> 2);
 4110              		.loc 1 2468 0
 4111 00c8 4FEA9E00 		lsr	r0, lr, #2
2467:../Drivers/BSP/Components/vl53l0x/vl53l0x_api.c **** 			pRangingMeasurementData->RangeMilliMeter =
 4112              		.loc 1 2467 0
 4113 00cc 2081     		strh	r0, [r4, #8]	@ movhi
 4114              	.LVL551:
2469:../Drivers/BSP/Components/vl53l0x/vl53l0x_api.c **** 			pRangingMeasurementData->RangeFractionalPart =
2470:../Drivers/BSP/Components/vl53l0x/vl53l0x_api.c **** 				(uint8_t)((tmpuint16 & 0x03) << 6);
 4115              		.loc 1 2470 0
 4116 00ce 4FEA8E16 		lsl	r6, lr, #6
ARM GAS  /tmp/ccflrS73.s 			page 117


2469:../Drivers/BSP/Components/vl53l0x/vl53l0x_api.c **** 			pRangingMeasurementData->RangeFractionalPart =
 4117              		.loc 1 2469 0
 4118 00d2 E675     		strb	r6, [r4, #23]
 4119 00d4 03E0     		b	.L295
 4120              	.LVL552:
 4121              	.L294:
2471:../Drivers/BSP/Components/vl53l0x/vl53l0x_api.c **** 		} else {
2472:../Drivers/BSP/Components/vl53l0x/vl53l0x_api.c **** 			pRangingMeasurementData->RangeMilliMeter = tmpuint16;
 4122              		.loc 1 2472 0
 4123 00d6 A4F808E0 		strh	lr, [r4, #8]	@ movhi
 4124              	.LVL553:
2473:../Drivers/BSP/Components/vl53l0x/vl53l0x_api.c **** 			pRangingMeasurementData->RangeFractionalPart = 0;
 4125              		.loc 1 2473 0
 4126 00da 0020     		movs	r0, #0
 4127 00dc E075     		strb	r0, [r4, #23]
 4128              	.L295:
2474:../Drivers/BSP/Components/vl53l0x/vl53l0x_api.c **** 		}
2475:../Drivers/BSP/Components/vl53l0x/vl53l0x_api.c **** 
2476:../Drivers/BSP/Components/vl53l0x/vl53l0x_api.c **** 		/*
2477:../Drivers/BSP/Components/vl53l0x/vl53l0x_api.c **** 		 * For a standard definition of RangeStatus, this should
2478:../Drivers/BSP/Components/vl53l0x/vl53l0x_api.c **** 		 * return 0 in case of good result after a ranging
2479:../Drivers/BSP/Components/vl53l0x/vl53l0x_api.c **** 		 * The range status depends on the device so call a device
2480:../Drivers/BSP/Components/vl53l0x/vl53l0x_api.c **** 		 * specific function to obtain the right Status.
2481:../Drivers/BSP/Components/vl53l0x/vl53l0x_api.c **** 		 */
2482:../Drivers/BSP/Components/vl53l0x/vl53l0x_api.c **** 		Status |= VL53L0X_get_pal_range_status(Dev, DeviceRangeStatus,
 4129              		.loc 1 2482 0
 4130 00de 0094     		str	r4, [sp]
 4131 00e0 0DF13700 		add	r0, sp, #55
 4132 00e4 0190     		str	r0, [sp, #4]
 4133 00e6 2846     		mov	r0, r5
 4134 00e8 FFF7FEFF 		bl	VL53L0X_get_pal_range_status
 4135              	.LVL554:
 4136 00ec 40EA0800 		orr	r0, r0, r8
 4137              	.LVL555:
2483:../Drivers/BSP/Components/vl53l0x/vl53l0x_api.c **** 			SignalRate, EffectiveSpadRtnCount,
2484:../Drivers/BSP/Components/vl53l0x/vl53l0x_api.c **** 			pRangingMeasurementData, &PalRangeStatus);
2485:../Drivers/BSP/Components/vl53l0x/vl53l0x_api.c **** 
2486:../Drivers/BSP/Components/vl53l0x/vl53l0x_api.c **** 		if (Status == VL53L0X_ERROR_NONE)
 4138              		.loc 1 2486 0
 4139 00f0 10F0FF08 		ands	r8, r0, #255
 4140 00f4 02D1     		bne	.L290
2487:../Drivers/BSP/Components/vl53l0x/vl53l0x_api.c **** 			pRangingMeasurementData->RangeStatus = PalRangeStatus;
 4141              		.loc 1 2487 0
 4142 00f6 9DF83730 		ldrb	r3, [sp, #55]	@ zero_extendqisi2
 4143 00fa 2376     		strb	r3, [r4, #24]
 4144              	.LVL556:
 4145              	.L290:
2488:../Drivers/BSP/Components/vl53l0x/vl53l0x_api.c **** 
2489:../Drivers/BSP/Components/vl53l0x/vl53l0x_api.c **** 	}
2490:../Drivers/BSP/Components/vl53l0x/vl53l0x_api.c **** 
2491:../Drivers/BSP/Components/vl53l0x/vl53l0x_api.c **** 	if (Status == VL53L0X_ERROR_NONE) {
 4146              		.loc 1 2491 0
 4147 00fc B8F1000F 		cmp	r8, #0
 4148 0100 26D1     		bne	.L296
2492:../Drivers/BSP/Components/vl53l0x/vl53l0x_api.c **** 		/* Copy last read data into Dev buffer */
2493:../Drivers/BSP/Components/vl53l0x/vl53l0x_api.c **** 		LastRangeDataBuffer = PALDevDataGet(Dev, LastRangeMeasure);
 4149              		.loc 1 2493 0
ARM GAS  /tmp/ccflrS73.s 			page 118


 4150 0102 03AE     		add	r6, sp, #12
 4151 0104 05F15007 		add	r7, r5, #80
 4152 0108 0FCF     		ldmia	r7!, {r0, r1, r2, r3}
 4153 010a 0FC6     		stmia	r6!, {r0, r1, r2, r3}
 4154 010c 97E80700 		ldmia	r7, {r0, r1, r2}
 4155 0110 86E80700 		stmia	r6, {r0, r1, r2}
2494:../Drivers/BSP/Components/vl53l0x/vl53l0x_api.c **** 
2495:../Drivers/BSP/Components/vl53l0x/vl53l0x_api.c **** 		LastRangeDataBuffer.RangeMilliMeter =
2496:../Drivers/BSP/Components/vl53l0x/vl53l0x_api.c **** 			pRangingMeasurementData->RangeMilliMeter;
 4156              		.loc 1 2496 0
 4157 0114 2389     		ldrh	r3, [r4, #8]
2495:../Drivers/BSP/Components/vl53l0x/vl53l0x_api.c **** 			pRangingMeasurementData->RangeMilliMeter;
 4158              		.loc 1 2495 0
 4159 0116 ADF81430 		strh	r3, [sp, #20]	@ movhi
2497:../Drivers/BSP/Components/vl53l0x/vl53l0x_api.c **** 		LastRangeDataBuffer.RangeFractionalPart =
2498:../Drivers/BSP/Components/vl53l0x/vl53l0x_api.c **** 			pRangingMeasurementData->RangeFractionalPart;
 4160              		.loc 1 2498 0
 4161 011a E37D     		ldrb	r3, [r4, #23]	@ zero_extendqisi2
2497:../Drivers/BSP/Components/vl53l0x/vl53l0x_api.c **** 		LastRangeDataBuffer.RangeFractionalPart =
 4162              		.loc 1 2497 0
 4163 011c 8DF82330 		strb	r3, [sp, #35]
2499:../Drivers/BSP/Components/vl53l0x/vl53l0x_api.c **** 		LastRangeDataBuffer.RangeDMaxMilliMeter =
2500:../Drivers/BSP/Components/vl53l0x/vl53l0x_api.c **** 			pRangingMeasurementData->RangeDMaxMilliMeter;
 4164              		.loc 1 2500 0
 4165 0120 6389     		ldrh	r3, [r4, #10]
2499:../Drivers/BSP/Components/vl53l0x/vl53l0x_api.c **** 		LastRangeDataBuffer.RangeDMaxMilliMeter =
 4166              		.loc 1 2499 0
 4167 0122 ADF81630 		strh	r3, [sp, #22]	@ movhi
2501:../Drivers/BSP/Components/vl53l0x/vl53l0x_api.c **** 		LastRangeDataBuffer.MeasurementTimeUsec =
2502:../Drivers/BSP/Components/vl53l0x/vl53l0x_api.c **** 			pRangingMeasurementData->MeasurementTimeUsec;
 4168              		.loc 1 2502 0
 4169 0126 6368     		ldr	r3, [r4, #4]
2501:../Drivers/BSP/Components/vl53l0x/vl53l0x_api.c **** 		LastRangeDataBuffer.MeasurementTimeUsec =
 4170              		.loc 1 2501 0
 4171 0128 0493     		str	r3, [sp, #16]
2503:../Drivers/BSP/Components/vl53l0x/vl53l0x_api.c **** 		LastRangeDataBuffer.SignalRateRtnMegaCps =
2504:../Drivers/BSP/Components/vl53l0x/vl53l0x_api.c **** 			pRangingMeasurementData->SignalRateRtnMegaCps;
 4172              		.loc 1 2504 0
 4173 012a E368     		ldr	r3, [r4, #12]
2503:../Drivers/BSP/Components/vl53l0x/vl53l0x_api.c **** 		LastRangeDataBuffer.SignalRateRtnMegaCps =
 4174              		.loc 1 2503 0
 4175 012c 0693     		str	r3, [sp, #24]
2505:../Drivers/BSP/Components/vl53l0x/vl53l0x_api.c **** 		LastRangeDataBuffer.AmbientRateRtnMegaCps =
2506:../Drivers/BSP/Components/vl53l0x/vl53l0x_api.c **** 			pRangingMeasurementData->AmbientRateRtnMegaCps;
 4176              		.loc 1 2506 0
 4177 012e 2369     		ldr	r3, [r4, #16]
2505:../Drivers/BSP/Components/vl53l0x/vl53l0x_api.c **** 		LastRangeDataBuffer.AmbientRateRtnMegaCps =
 4178              		.loc 1 2505 0
 4179 0130 0793     		str	r3, [sp, #28]
2507:../Drivers/BSP/Components/vl53l0x/vl53l0x_api.c **** 		LastRangeDataBuffer.EffectiveSpadRtnCount =
2508:../Drivers/BSP/Components/vl53l0x/vl53l0x_api.c **** 			pRangingMeasurementData->EffectiveSpadRtnCount;
 4180              		.loc 1 2508 0
 4181 0132 A38A     		ldrh	r3, [r4, #20]
2507:../Drivers/BSP/Components/vl53l0x/vl53l0x_api.c **** 		LastRangeDataBuffer.EffectiveSpadRtnCount =
 4182              		.loc 1 2507 0
 4183 0134 ADF82030 		strh	r3, [sp, #32]	@ movhi
2509:../Drivers/BSP/Components/vl53l0x/vl53l0x_api.c **** 		LastRangeDataBuffer.RangeStatus =
ARM GAS  /tmp/ccflrS73.s 			page 119


2510:../Drivers/BSP/Components/vl53l0x/vl53l0x_api.c **** 			pRangingMeasurementData->RangeStatus;
 4184              		.loc 1 2510 0
 4185 0138 237E     		ldrb	r3, [r4, #24]	@ zero_extendqisi2
2509:../Drivers/BSP/Components/vl53l0x/vl53l0x_api.c **** 		LastRangeDataBuffer.RangeStatus =
 4186              		.loc 1 2509 0
 4187 013a 8DF82430 		strb	r3, [sp, #36]
2511:../Drivers/BSP/Components/vl53l0x/vl53l0x_api.c **** 
2512:../Drivers/BSP/Components/vl53l0x/vl53l0x_api.c **** 		PALDevDataSet(Dev, LastRangeMeasure, LastRangeDataBuffer);
 4188              		.loc 1 2512 0
 4189 013e 05F15004 		add	r4, r5, #80
 4190              	.LVL557:
 4191 0142 03AD     		add	r5, sp, #12
 4192              	.LVL558:
 4193 0144 0FCD     		ldmia	r5!, {r0, r1, r2, r3}
 4194 0146 0FC4     		stmia	r4!, {r0, r1, r2, r3}
 4195              	.LVL559:
 4196 0148 95E80700 		ldmia	r5, {r0, r1, r2}
 4197 014c 84E80700 		stmia	r4, {r0, r1, r2}
 4198              	.LVL560:
 4199              	.L296:
2513:../Drivers/BSP/Components/vl53l0x/vl53l0x_api.c **** 	}
2514:../Drivers/BSP/Components/vl53l0x/vl53l0x_api.c **** 
2515:../Drivers/BSP/Components/vl53l0x/vl53l0x_api.c **** 	LOG_FUNCTION_END(Status);
2516:../Drivers/BSP/Components/vl53l0x/vl53l0x_api.c **** 	return Status;
2517:../Drivers/BSP/Components/vl53l0x/vl53l0x_api.c **** }
 4200              		.loc 1 2517 0
 4201 0150 4FFA88F0 		sxtb	r0, r8
 4202 0154 0EB0     		add	sp, sp, #56
 4203              	.LCFI88:
 4204              		.cfi_def_cfa_offset 24
 4205              		@ sp needed
 4206 0156 BDE8F081 		pop	{r4, r5, r6, r7, r8, pc}
 4207              	.LVL561:
 4208              	.L300:
 4209 015a 00BF     		.align	2
 4210              	.L299:
 4211 015c D34D6210 		.word	274877907
 4212              		.cfi_endproc
 4213              	.LFE189:
 4215              		.section	.text.VL53L0X_GetMeasurementRefSignal,"ax",%progbits
 4216              		.align	2
 4217              		.global	VL53L0X_GetMeasurementRefSignal
 4218              		.thumb
 4219              		.thumb_func
 4221              	VL53L0X_GetMeasurementRefSignal:
 4222              	.LFB190:
2518:../Drivers/BSP/Components/vl53l0x/vl53l0x_api.c **** 
2519:../Drivers/BSP/Components/vl53l0x/vl53l0x_api.c **** VL53L0X_Error VL53L0X_GetMeasurementRefSignal(VL53L0X_DEV Dev,
2520:../Drivers/BSP/Components/vl53l0x/vl53l0x_api.c **** 	FixPoint1616_t *pMeasurementRefSignal)
2521:../Drivers/BSP/Components/vl53l0x/vl53l0x_api.c **** {
 4223              		.loc 1 2521 0
 4224              		.cfi_startproc
 4225              		@ args = 0, pretend = 0, frame = 8
 4226              		@ frame_needed = 0, uses_anonymous_args = 0
 4227              	.LVL562:
 4228 0000 30B5     		push	{r4, r5, lr}
 4229              	.LCFI89:
ARM GAS  /tmp/ccflrS73.s 			page 120


 4230              		.cfi_def_cfa_offset 12
 4231              		.cfi_offset 4, -12
 4232              		.cfi_offset 5, -8
 4233              		.cfi_offset 14, -4
 4234 0002 83B0     		sub	sp, sp, #12
 4235              	.LCFI90:
 4236              		.cfi_def_cfa_offset 24
 4237 0004 0546     		mov	r5, r0
 4238 0006 0C46     		mov	r4, r1
 4239              	.LVL563:
2522:../Drivers/BSP/Components/vl53l0x/vl53l0x_api.c **** 	VL53L0X_Error Status = VL53L0X_ERROR_NONE;
2523:../Drivers/BSP/Components/vl53l0x/vl53l0x_api.c **** 	uint8_t SignalRefClipLimitCheckEnable = 0;
 4240              		.loc 1 2523 0
 4241 0008 02AA     		add	r2, sp, #8
 4242 000a 0023     		movs	r3, #0
 4243 000c 02F8013D 		strb	r3, [r2, #-1]!
2524:../Drivers/BSP/Components/vl53l0x/vl53l0x_api.c **** 	LOG_FUNCTION_START("");
2525:../Drivers/BSP/Components/vl53l0x/vl53l0x_api.c **** 
2526:../Drivers/BSP/Components/vl53l0x/vl53l0x_api.c **** 	Status = VL53L0X_GetLimitCheckEnable(Dev,
 4244              		.loc 1 2526 0
 4245 0010 0221     		movs	r1, #2
 4246              	.LVL564:
 4247 0012 FFF7FEFF 		bl	VL53L0X_GetLimitCheckEnable
 4248              	.LVL565:
2527:../Drivers/BSP/Components/vl53l0x/vl53l0x_api.c **** 			VL53L0X_CHECKENABLE_SIGNAL_REF_CLIP,
2528:../Drivers/BSP/Components/vl53l0x/vl53l0x_api.c **** 			&SignalRefClipLimitCheckEnable);
2529:../Drivers/BSP/Components/vl53l0x/vl53l0x_api.c **** 	if (SignalRefClipLimitCheckEnable != 0) {
 4249              		.loc 1 2529 0
 4250 0016 9DF80730 		ldrb	r3, [sp, #7]	@ zero_extendqisi2
 4251 001a 1BB1     		cbz	r3, .L303
2530:../Drivers/BSP/Components/vl53l0x/vl53l0x_api.c **** 		*pMeasurementRefSignal = PALDevDataGet(Dev, LastSignalRefMcps);
 4252              		.loc 1 2530 0
 4253 001c D5F84831 		ldr	r3, [r5, #328]
 4254 0020 2360     		str	r3, [r4]
 4255 0022 00E0     		b	.L302
 4256              	.L303:
2531:../Drivers/BSP/Components/vl53l0x/vl53l0x_api.c **** 	} else {
2532:../Drivers/BSP/Components/vl53l0x/vl53l0x_api.c **** 		Status = VL53L0X_ERROR_INVALID_COMMAND;
 4257              		.loc 1 2532 0
 4258 0024 E220     		movs	r0, #226
 4259              	.LVL566:
 4260              	.L302:
2533:../Drivers/BSP/Components/vl53l0x/vl53l0x_api.c **** 	}
2534:../Drivers/BSP/Components/vl53l0x/vl53l0x_api.c **** 	LOG_FUNCTION_END(Status);
2535:../Drivers/BSP/Components/vl53l0x/vl53l0x_api.c **** 
2536:../Drivers/BSP/Components/vl53l0x/vl53l0x_api.c **** 	return Status;
2537:../Drivers/BSP/Components/vl53l0x/vl53l0x_api.c **** }
 4261              		.loc 1 2537 0
 4262 0026 40B2     		sxtb	r0, r0
 4263 0028 03B0     		add	sp, sp, #12
 4264              	.LCFI91:
 4265              		.cfi_def_cfa_offset 12
 4266              		@ sp needed
 4267 002a 30BD     		pop	{r4, r5, pc}
 4268              		.cfi_endproc
 4269              	.LFE190:
 4271              		.section	.text.VL53L0X_GetHistogramMeasurementData,"ax",%progbits
ARM GAS  /tmp/ccflrS73.s 			page 121


 4272              		.align	2
 4273              		.global	VL53L0X_GetHistogramMeasurementData
 4274              		.thumb
 4275              		.thumb_func
 4277              	VL53L0X_GetHistogramMeasurementData:
 4278              	.LFB191:
2538:../Drivers/BSP/Components/vl53l0x/vl53l0x_api.c **** 
2539:../Drivers/BSP/Components/vl53l0x/vl53l0x_api.c **** VL53L0X_Error VL53L0X_GetHistogramMeasurementData(VL53L0X_DEV Dev,
2540:../Drivers/BSP/Components/vl53l0x/vl53l0x_api.c **** 	VL53L0X_HistogramMeasurementData_t *pHistogramMeasurementData)
2541:../Drivers/BSP/Components/vl53l0x/vl53l0x_api.c **** {
 4279              		.loc 1 2541 0
 4280              		.cfi_startproc
 4281              		@ args = 0, pretend = 0, frame = 0
 4282              		@ frame_needed = 0, uses_anonymous_args = 0
 4283              		@ link register save eliminated.
 4284              	.LVL567:
2542:../Drivers/BSP/Components/vl53l0x/vl53l0x_api.c **** 	VL53L0X_Error Status = VL53L0X_ERROR_NOT_IMPLEMENTED;
2543:../Drivers/BSP/Components/vl53l0x/vl53l0x_api.c **** 	LOG_FUNCTION_START("");
2544:../Drivers/BSP/Components/vl53l0x/vl53l0x_api.c **** 
2545:../Drivers/BSP/Components/vl53l0x/vl53l0x_api.c **** 	LOG_FUNCTION_END(Status);
2546:../Drivers/BSP/Components/vl53l0x/vl53l0x_api.c **** 	return Status;
2547:../Drivers/BSP/Components/vl53l0x/vl53l0x_api.c **** }
 4285              		.loc 1 2547 0
 4286 0000 6FF06200 		mvn	r0, #98
 4287              	.LVL568:
 4288 0004 7047     		bx	lr
 4289              		.cfi_endproc
 4290              	.LFE191:
 4292 0006 00BF     		.section	.text.VL53L0X_SetNumberOfROIZones,"ax",%progbits
 4293              		.align	2
 4294              		.global	VL53L0X_SetNumberOfROIZones
 4295              		.thumb
 4296              		.thumb_func
 4298              	VL53L0X_SetNumberOfROIZones:
 4299              	.LFB193:
2548:../Drivers/BSP/Components/vl53l0x/vl53l0x_api.c **** 
2549:../Drivers/BSP/Components/vl53l0x/vl53l0x_api.c **** VL53L0X_Error VL53L0X_PerformSingleRangingMeasurement(VL53L0X_DEV Dev,
2550:../Drivers/BSP/Components/vl53l0x/vl53l0x_api.c **** 	VL53L0X_RangingMeasurementData_t *pRangingMeasurementData)
2551:../Drivers/BSP/Components/vl53l0x/vl53l0x_api.c **** {
2552:../Drivers/BSP/Components/vl53l0x/vl53l0x_api.c **** 	VL53L0X_Error Status = VL53L0X_ERROR_NONE;
2553:../Drivers/BSP/Components/vl53l0x/vl53l0x_api.c **** 
2554:../Drivers/BSP/Components/vl53l0x/vl53l0x_api.c **** 	LOG_FUNCTION_START("");
2555:../Drivers/BSP/Components/vl53l0x/vl53l0x_api.c **** 
2556:../Drivers/BSP/Components/vl53l0x/vl53l0x_api.c **** 	/* This function will do a complete single ranging
2557:../Drivers/BSP/Components/vl53l0x/vl53l0x_api.c **** 	 * Here we fix the mode! */
2558:../Drivers/BSP/Components/vl53l0x/vl53l0x_api.c **** 	Status = VL53L0X_SetDeviceMode(Dev, VL53L0X_DEVICEMODE_SINGLE_RANGING);
2559:../Drivers/BSP/Components/vl53l0x/vl53l0x_api.c **** 
2560:../Drivers/BSP/Components/vl53l0x/vl53l0x_api.c **** 	if (Status == VL53L0X_ERROR_NONE)
2561:../Drivers/BSP/Components/vl53l0x/vl53l0x_api.c **** 		Status = VL53L0X_PerformSingleMeasurement(Dev);
2562:../Drivers/BSP/Components/vl53l0x/vl53l0x_api.c **** 
2563:../Drivers/BSP/Components/vl53l0x/vl53l0x_api.c **** 
2564:../Drivers/BSP/Components/vl53l0x/vl53l0x_api.c **** 	if (Status == VL53L0X_ERROR_NONE)
2565:../Drivers/BSP/Components/vl53l0x/vl53l0x_api.c **** 		Status = VL53L0X_GetRangingMeasurementData(Dev,
2566:../Drivers/BSP/Components/vl53l0x/vl53l0x_api.c **** 			pRangingMeasurementData);
2567:../Drivers/BSP/Components/vl53l0x/vl53l0x_api.c **** 
2568:../Drivers/BSP/Components/vl53l0x/vl53l0x_api.c **** 
2569:../Drivers/BSP/Components/vl53l0x/vl53l0x_api.c **** 	if (Status == VL53L0X_ERROR_NONE)
ARM GAS  /tmp/ccflrS73.s 			page 122


2570:../Drivers/BSP/Components/vl53l0x/vl53l0x_api.c **** 		Status = VL53L0X_ClearInterruptMask(Dev, 0);
2571:../Drivers/BSP/Components/vl53l0x/vl53l0x_api.c **** 
2572:../Drivers/BSP/Components/vl53l0x/vl53l0x_api.c **** 
2573:../Drivers/BSP/Components/vl53l0x/vl53l0x_api.c **** 	LOG_FUNCTION_END(Status);
2574:../Drivers/BSP/Components/vl53l0x/vl53l0x_api.c **** 	return Status;
2575:../Drivers/BSP/Components/vl53l0x/vl53l0x_api.c **** }
2576:../Drivers/BSP/Components/vl53l0x/vl53l0x_api.c **** 
2577:../Drivers/BSP/Components/vl53l0x/vl53l0x_api.c **** VL53L0X_Error VL53L0X_SetNumberOfROIZones(VL53L0X_DEV Dev,
2578:../Drivers/BSP/Components/vl53l0x/vl53l0x_api.c **** 	uint8_t NumberOfROIZones)
2579:../Drivers/BSP/Components/vl53l0x/vl53l0x_api.c **** {
 4300              		.loc 1 2579 0
 4301              		.cfi_startproc
 4302              		@ args = 0, pretend = 0, frame = 0
 4303              		@ frame_needed = 0, uses_anonymous_args = 0
 4304              		@ link register save eliminated.
 4305              	.LVL569:
2580:../Drivers/BSP/Components/vl53l0x/vl53l0x_api.c **** 	VL53L0X_Error Status = VL53L0X_ERROR_NONE;
2581:../Drivers/BSP/Components/vl53l0x/vl53l0x_api.c **** 
2582:../Drivers/BSP/Components/vl53l0x/vl53l0x_api.c **** 	LOG_FUNCTION_START("");
2583:../Drivers/BSP/Components/vl53l0x/vl53l0x_api.c **** 
2584:../Drivers/BSP/Components/vl53l0x/vl53l0x_api.c **** 	if (NumberOfROIZones != 1)
 4306              		.loc 1 2584 0
 4307 0000 0129     		cmp	r1, #1
 4308 0002 01D1     		bne	.L308
2580:../Drivers/BSP/Components/vl53l0x/vl53l0x_api.c **** 	VL53L0X_Error Status = VL53L0X_ERROR_NONE;
 4309              		.loc 1 2580 0
 4310 0004 0020     		movs	r0, #0
 4311              	.LVL570:
 4312 0006 00E0     		b	.L307
 4313              	.LVL571:
 4314              	.L308:
2585:../Drivers/BSP/Components/vl53l0x/vl53l0x_api.c **** 		Status = VL53L0X_ERROR_INVALID_PARAMS;
 4315              		.loc 1 2585 0
 4316 0008 FC20     		movs	r0, #252
 4317              	.LVL572:
 4318              	.L307:
2586:../Drivers/BSP/Components/vl53l0x/vl53l0x_api.c **** 
2587:../Drivers/BSP/Components/vl53l0x/vl53l0x_api.c **** 
2588:../Drivers/BSP/Components/vl53l0x/vl53l0x_api.c **** 	LOG_FUNCTION_END(Status);
2589:../Drivers/BSP/Components/vl53l0x/vl53l0x_api.c **** 	return Status;
2590:../Drivers/BSP/Components/vl53l0x/vl53l0x_api.c **** }
 4319              		.loc 1 2590 0
 4320 000a 40B2     		sxtb	r0, r0
 4321 000c 7047     		bx	lr
 4322              		.cfi_endproc
 4323              	.LFE193:
 4325 000e 00BF     		.section	.text.VL53L0X_GetNumberOfROIZones,"ax",%progbits
 4326              		.align	2
 4327              		.global	VL53L0X_GetNumberOfROIZones
 4328              		.thumb
 4329              		.thumb_func
 4331              	VL53L0X_GetNumberOfROIZones:
 4332              	.LFB194:
2591:../Drivers/BSP/Components/vl53l0x/vl53l0x_api.c **** 
2592:../Drivers/BSP/Components/vl53l0x/vl53l0x_api.c **** VL53L0X_Error VL53L0X_GetNumberOfROIZones(VL53L0X_DEV Dev,
2593:../Drivers/BSP/Components/vl53l0x/vl53l0x_api.c **** 	uint8_t *pNumberOfROIZones)
2594:../Drivers/BSP/Components/vl53l0x/vl53l0x_api.c **** {
ARM GAS  /tmp/ccflrS73.s 			page 123


 4333              		.loc 1 2594 0
 4334              		.cfi_startproc
 4335              		@ args = 0, pretend = 0, frame = 0
 4336              		@ frame_needed = 0, uses_anonymous_args = 0
 4337              		@ link register save eliminated.
 4338              	.LVL573:
2595:../Drivers/BSP/Components/vl53l0x/vl53l0x_api.c **** 	VL53L0X_Error Status = VL53L0X_ERROR_NONE;
2596:../Drivers/BSP/Components/vl53l0x/vl53l0x_api.c **** 
2597:../Drivers/BSP/Components/vl53l0x/vl53l0x_api.c **** 	LOG_FUNCTION_START("");
2598:../Drivers/BSP/Components/vl53l0x/vl53l0x_api.c **** 
2599:../Drivers/BSP/Components/vl53l0x/vl53l0x_api.c **** 	*pNumberOfROIZones = 1;
 4339              		.loc 1 2599 0
 4340 0000 0123     		movs	r3, #1
 4341 0002 0B70     		strb	r3, [r1]
2600:../Drivers/BSP/Components/vl53l0x/vl53l0x_api.c **** 
2601:../Drivers/BSP/Components/vl53l0x/vl53l0x_api.c **** 	LOG_FUNCTION_END(Status);
2602:../Drivers/BSP/Components/vl53l0x/vl53l0x_api.c **** 	return Status;
2603:../Drivers/BSP/Components/vl53l0x/vl53l0x_api.c **** }
 4342              		.loc 1 2603 0
 4343 0004 0020     		movs	r0, #0
 4344              	.LVL574:
 4345 0006 7047     		bx	lr
 4346              		.cfi_endproc
 4347              	.LFE194:
 4349              		.section	.text.VL53L0X_GetMaxNumberOfROIZones,"ax",%progbits
 4350              		.align	2
 4351              		.global	VL53L0X_GetMaxNumberOfROIZones
 4352              		.thumb
 4353              		.thumb_func
 4355              	VL53L0X_GetMaxNumberOfROIZones:
 4356              	.LFB195:
2604:../Drivers/BSP/Components/vl53l0x/vl53l0x_api.c **** 
2605:../Drivers/BSP/Components/vl53l0x/vl53l0x_api.c **** VL53L0X_Error VL53L0X_GetMaxNumberOfROIZones(VL53L0X_DEV Dev,
2606:../Drivers/BSP/Components/vl53l0x/vl53l0x_api.c **** 	uint8_t *pMaxNumberOfROIZones)
2607:../Drivers/BSP/Components/vl53l0x/vl53l0x_api.c **** {
 4357              		.loc 1 2607 0
 4358              		.cfi_startproc
 4359              		@ args = 0, pretend = 0, frame = 0
 4360              		@ frame_needed = 0, uses_anonymous_args = 0
 4361              		@ link register save eliminated.
 4362              	.LVL575:
2608:../Drivers/BSP/Components/vl53l0x/vl53l0x_api.c **** 	VL53L0X_Error Status = VL53L0X_ERROR_NONE;
2609:../Drivers/BSP/Components/vl53l0x/vl53l0x_api.c **** 
2610:../Drivers/BSP/Components/vl53l0x/vl53l0x_api.c **** 	LOG_FUNCTION_START("");
2611:../Drivers/BSP/Components/vl53l0x/vl53l0x_api.c **** 
2612:../Drivers/BSP/Components/vl53l0x/vl53l0x_api.c **** 	*pMaxNumberOfROIZones = 1;
 4363              		.loc 1 2612 0
 4364 0000 0123     		movs	r3, #1
 4365 0002 0B70     		strb	r3, [r1]
2613:../Drivers/BSP/Components/vl53l0x/vl53l0x_api.c **** 
2614:../Drivers/BSP/Components/vl53l0x/vl53l0x_api.c **** 	LOG_FUNCTION_END(Status);
2615:../Drivers/BSP/Components/vl53l0x/vl53l0x_api.c **** 	return Status;
2616:../Drivers/BSP/Components/vl53l0x/vl53l0x_api.c **** }
 4366              		.loc 1 2616 0
 4367 0004 0020     		movs	r0, #0
 4368              	.LVL576:
 4369 0006 7047     		bx	lr
ARM GAS  /tmp/ccflrS73.s 			page 124


 4370              		.cfi_endproc
 4371              	.LFE195:
 4373              		.section	.text.VL53L0X_GetGpioConfig,"ax",%progbits
 4374              		.align	2
 4375              		.global	VL53L0X_GetGpioConfig
 4376              		.thumb
 4377              		.thumb_func
 4379              	VL53L0X_GetGpioConfig:
 4380              	.LFB197:
2617:../Drivers/BSP/Components/vl53l0x/vl53l0x_api.c **** 
2618:../Drivers/BSP/Components/vl53l0x/vl53l0x_api.c **** /* End Group PAL Measurement Functions */
2619:../Drivers/BSP/Components/vl53l0x/vl53l0x_api.c **** 
2620:../Drivers/BSP/Components/vl53l0x/vl53l0x_api.c **** VL53L0X_Error VL53L0X_SetGpioConfig(VL53L0X_DEV Dev, uint8_t Pin,
2621:../Drivers/BSP/Components/vl53l0x/vl53l0x_api.c **** 	VL53L0X_DeviceModes DeviceMode, VL53L0X_GpioFunctionality Functionality,
2622:../Drivers/BSP/Components/vl53l0x/vl53l0x_api.c **** 	VL53L0X_InterruptPolarity Polarity)
2623:../Drivers/BSP/Components/vl53l0x/vl53l0x_api.c **** {
2624:../Drivers/BSP/Components/vl53l0x/vl53l0x_api.c **** 	VL53L0X_Error Status = VL53L0X_ERROR_NONE;
2625:../Drivers/BSP/Components/vl53l0x/vl53l0x_api.c **** 	uint8_t data;
2626:../Drivers/BSP/Components/vl53l0x/vl53l0x_api.c **** 
2627:../Drivers/BSP/Components/vl53l0x/vl53l0x_api.c **** 	LOG_FUNCTION_START("");
2628:../Drivers/BSP/Components/vl53l0x/vl53l0x_api.c **** 
2629:../Drivers/BSP/Components/vl53l0x/vl53l0x_api.c **** 	if (Pin != 0) {
2630:../Drivers/BSP/Components/vl53l0x/vl53l0x_api.c **** 		Status = VL53L0X_ERROR_GPIO_NOT_EXISTING;
2631:../Drivers/BSP/Components/vl53l0x/vl53l0x_api.c **** 	} else if (DeviceMode == VL53L0X_DEVICEMODE_GPIO_DRIVE) {
2632:../Drivers/BSP/Components/vl53l0x/vl53l0x_api.c **** 		if (Polarity == VL53L0X_INTERRUPTPOLARITY_LOW)
2633:../Drivers/BSP/Components/vl53l0x/vl53l0x_api.c **** 			data = 0x10;
2634:../Drivers/BSP/Components/vl53l0x/vl53l0x_api.c **** 		else
2635:../Drivers/BSP/Components/vl53l0x/vl53l0x_api.c **** 			data = 1;
2636:../Drivers/BSP/Components/vl53l0x/vl53l0x_api.c **** 
2637:../Drivers/BSP/Components/vl53l0x/vl53l0x_api.c **** 		Status = VL53L0X_WrByte(Dev,
2638:../Drivers/BSP/Components/vl53l0x/vl53l0x_api.c **** 		VL53L0X_REG_GPIO_HV_MUX_ACTIVE_HIGH, data);
2639:../Drivers/BSP/Components/vl53l0x/vl53l0x_api.c **** 
2640:../Drivers/BSP/Components/vl53l0x/vl53l0x_api.c **** 	} else if (DeviceMode == VL53L0X_DEVICEMODE_GPIO_OSC) {
2641:../Drivers/BSP/Components/vl53l0x/vl53l0x_api.c **** 
2642:../Drivers/BSP/Components/vl53l0x/vl53l0x_api.c **** 		Status |= VL53L0X_WrByte(Dev, 0xff, 0x01);
2643:../Drivers/BSP/Components/vl53l0x/vl53l0x_api.c **** 		Status |= VL53L0X_WrByte(Dev, 0x00, 0x00);
2644:../Drivers/BSP/Components/vl53l0x/vl53l0x_api.c **** 
2645:../Drivers/BSP/Components/vl53l0x/vl53l0x_api.c **** 		Status |= VL53L0X_WrByte(Dev, 0xff, 0x00);
2646:../Drivers/BSP/Components/vl53l0x/vl53l0x_api.c **** 		Status |= VL53L0X_WrByte(Dev, 0x80, 0x01);
2647:../Drivers/BSP/Components/vl53l0x/vl53l0x_api.c **** 		Status |= VL53L0X_WrByte(Dev, 0x85, 0x02);
2648:../Drivers/BSP/Components/vl53l0x/vl53l0x_api.c **** 
2649:../Drivers/BSP/Components/vl53l0x/vl53l0x_api.c **** 		Status |= VL53L0X_WrByte(Dev, 0xff, 0x04);
2650:../Drivers/BSP/Components/vl53l0x/vl53l0x_api.c **** 		Status |= VL53L0X_WrByte(Dev, 0xcd, 0x00);
2651:../Drivers/BSP/Components/vl53l0x/vl53l0x_api.c **** 		Status |= VL53L0X_WrByte(Dev, 0xcc, 0x11);
2652:../Drivers/BSP/Components/vl53l0x/vl53l0x_api.c **** 
2653:../Drivers/BSP/Components/vl53l0x/vl53l0x_api.c **** 		Status |= VL53L0X_WrByte(Dev, 0xff, 0x07);
2654:../Drivers/BSP/Components/vl53l0x/vl53l0x_api.c **** 		Status |= VL53L0X_WrByte(Dev, 0xbe, 0x00);
2655:../Drivers/BSP/Components/vl53l0x/vl53l0x_api.c **** 
2656:../Drivers/BSP/Components/vl53l0x/vl53l0x_api.c **** 		Status |= VL53L0X_WrByte(Dev, 0xff, 0x06);
2657:../Drivers/BSP/Components/vl53l0x/vl53l0x_api.c **** 		Status |= VL53L0X_WrByte(Dev, 0xcc, 0x09);
2658:../Drivers/BSP/Components/vl53l0x/vl53l0x_api.c **** 
2659:../Drivers/BSP/Components/vl53l0x/vl53l0x_api.c **** 		Status |= VL53L0X_WrByte(Dev, 0xff, 0x00);
2660:../Drivers/BSP/Components/vl53l0x/vl53l0x_api.c **** 		Status |= VL53L0X_WrByte(Dev, 0xff, 0x01);
2661:../Drivers/BSP/Components/vl53l0x/vl53l0x_api.c **** 		Status |= VL53L0X_WrByte(Dev, 0x00, 0x00);
2662:../Drivers/BSP/Components/vl53l0x/vl53l0x_api.c **** 
2663:../Drivers/BSP/Components/vl53l0x/vl53l0x_api.c **** 	} else {
2664:../Drivers/BSP/Components/vl53l0x/vl53l0x_api.c **** 
ARM GAS  /tmp/ccflrS73.s 			page 125


2665:../Drivers/BSP/Components/vl53l0x/vl53l0x_api.c **** 		if (Status == VL53L0X_ERROR_NONE) {
2666:../Drivers/BSP/Components/vl53l0x/vl53l0x_api.c **** 			switch (Functionality) {
2667:../Drivers/BSP/Components/vl53l0x/vl53l0x_api.c **** 			case VL53L0X_GPIOFUNCTIONALITY_OFF:
2668:../Drivers/BSP/Components/vl53l0x/vl53l0x_api.c **** 				data = 0x00;
2669:../Drivers/BSP/Components/vl53l0x/vl53l0x_api.c **** 				break;
2670:../Drivers/BSP/Components/vl53l0x/vl53l0x_api.c **** 			case VL53L0X_GPIOFUNCTIONALITY_THRESHOLD_CROSSED_LOW:
2671:../Drivers/BSP/Components/vl53l0x/vl53l0x_api.c **** 				data = 0x01;
2672:../Drivers/BSP/Components/vl53l0x/vl53l0x_api.c **** 				break;
2673:../Drivers/BSP/Components/vl53l0x/vl53l0x_api.c **** 			case VL53L0X_GPIOFUNCTIONALITY_THRESHOLD_CROSSED_HIGH:
2674:../Drivers/BSP/Components/vl53l0x/vl53l0x_api.c **** 				data = 0x02;
2675:../Drivers/BSP/Components/vl53l0x/vl53l0x_api.c **** 				break;
2676:../Drivers/BSP/Components/vl53l0x/vl53l0x_api.c **** 			case VL53L0X_GPIOFUNCTIONALITY_THRESHOLD_CROSSED_OUT:
2677:../Drivers/BSP/Components/vl53l0x/vl53l0x_api.c **** 				data = 0x03;
2678:../Drivers/BSP/Components/vl53l0x/vl53l0x_api.c **** 				break;
2679:../Drivers/BSP/Components/vl53l0x/vl53l0x_api.c **** 			case VL53L0X_GPIOFUNCTIONALITY_NEW_MEASURE_READY:
2680:../Drivers/BSP/Components/vl53l0x/vl53l0x_api.c **** 				data = 0x04;
2681:../Drivers/BSP/Components/vl53l0x/vl53l0x_api.c **** 				break;
2682:../Drivers/BSP/Components/vl53l0x/vl53l0x_api.c **** 			default:
2683:../Drivers/BSP/Components/vl53l0x/vl53l0x_api.c **** 				Status =
2684:../Drivers/BSP/Components/vl53l0x/vl53l0x_api.c **** 				VL53L0X_ERROR_GPIO_FUNCTIONALITY_NOT_SUPPORTED;
2685:../Drivers/BSP/Components/vl53l0x/vl53l0x_api.c **** 			}
2686:../Drivers/BSP/Components/vl53l0x/vl53l0x_api.c **** 		}
2687:../Drivers/BSP/Components/vl53l0x/vl53l0x_api.c **** 
2688:../Drivers/BSP/Components/vl53l0x/vl53l0x_api.c **** 		if (Status == VL53L0X_ERROR_NONE)
2689:../Drivers/BSP/Components/vl53l0x/vl53l0x_api.c **** 			Status = VL53L0X_WrByte(Dev,
2690:../Drivers/BSP/Components/vl53l0x/vl53l0x_api.c **** 			VL53L0X_REG_SYSTEM_INTERRUPT_CONFIG_GPIO, data);
2691:../Drivers/BSP/Components/vl53l0x/vl53l0x_api.c **** 
2692:../Drivers/BSP/Components/vl53l0x/vl53l0x_api.c **** 		if (Status == VL53L0X_ERROR_NONE) {
2693:../Drivers/BSP/Components/vl53l0x/vl53l0x_api.c **** 			if (Polarity == VL53L0X_INTERRUPTPOLARITY_LOW)
2694:../Drivers/BSP/Components/vl53l0x/vl53l0x_api.c **** 				data = 0;
2695:../Drivers/BSP/Components/vl53l0x/vl53l0x_api.c **** 			else
2696:../Drivers/BSP/Components/vl53l0x/vl53l0x_api.c **** 				data = (uint8_t)(1 << 4);
2697:../Drivers/BSP/Components/vl53l0x/vl53l0x_api.c **** 
2698:../Drivers/BSP/Components/vl53l0x/vl53l0x_api.c **** 			Status = VL53L0X_UpdateByte(Dev,
2699:../Drivers/BSP/Components/vl53l0x/vl53l0x_api.c **** 			VL53L0X_REG_GPIO_HV_MUX_ACTIVE_HIGH, 0xEF, data);
2700:../Drivers/BSP/Components/vl53l0x/vl53l0x_api.c **** 		}
2701:../Drivers/BSP/Components/vl53l0x/vl53l0x_api.c **** 
2702:../Drivers/BSP/Components/vl53l0x/vl53l0x_api.c **** 		if (Status == VL53L0X_ERROR_NONE)
2703:../Drivers/BSP/Components/vl53l0x/vl53l0x_api.c **** 			VL53L0X_SETDEVICESPECIFICPARAMETER(Dev,
2704:../Drivers/BSP/Components/vl53l0x/vl53l0x_api.c **** 				Pin0GpioFunctionality, Functionality);
2705:../Drivers/BSP/Components/vl53l0x/vl53l0x_api.c **** 
2706:../Drivers/BSP/Components/vl53l0x/vl53l0x_api.c **** 		if (Status == VL53L0X_ERROR_NONE)
2707:../Drivers/BSP/Components/vl53l0x/vl53l0x_api.c **** 			Status = VL53L0X_ClearInterruptMask(Dev, 0);
2708:../Drivers/BSP/Components/vl53l0x/vl53l0x_api.c **** 
2709:../Drivers/BSP/Components/vl53l0x/vl53l0x_api.c **** 	}
2710:../Drivers/BSP/Components/vl53l0x/vl53l0x_api.c **** 
2711:../Drivers/BSP/Components/vl53l0x/vl53l0x_api.c **** 	LOG_FUNCTION_END(Status);
2712:../Drivers/BSP/Components/vl53l0x/vl53l0x_api.c **** 	return Status;
2713:../Drivers/BSP/Components/vl53l0x/vl53l0x_api.c **** }
2714:../Drivers/BSP/Components/vl53l0x/vl53l0x_api.c **** 
2715:../Drivers/BSP/Components/vl53l0x/vl53l0x_api.c **** VL53L0X_Error VL53L0X_GetGpioConfig(VL53L0X_DEV Dev, uint8_t Pin,
2716:../Drivers/BSP/Components/vl53l0x/vl53l0x_api.c **** 	VL53L0X_DeviceModes *pDeviceMode,
2717:../Drivers/BSP/Components/vl53l0x/vl53l0x_api.c **** 	VL53L0X_GpioFunctionality *pFunctionality,
2718:../Drivers/BSP/Components/vl53l0x/vl53l0x_api.c **** 	VL53L0X_InterruptPolarity *pPolarity)
2719:../Drivers/BSP/Components/vl53l0x/vl53l0x_api.c **** {
 4381              		.loc 1 2719 0
 4382              		.cfi_startproc
ARM GAS  /tmp/ccflrS73.s 			page 126


 4383              		@ args = 4, pretend = 0, frame = 8
 4384              		@ frame_needed = 0, uses_anonymous_args = 0
 4385              	.LVL577:
 4386 0000 F0B5     		push	{r4, r5, r6, r7, lr}
 4387              	.LCFI92:
 4388              		.cfi_def_cfa_offset 20
 4389              		.cfi_offset 4, -20
 4390              		.cfi_offset 5, -16
 4391              		.cfi_offset 6, -12
 4392              		.cfi_offset 7, -8
 4393              		.cfi_offset 14, -4
 4394 0002 83B0     		sub	sp, sp, #12
 4395              	.LCFI93:
 4396              		.cfi_def_cfa_offset 32
 4397 0004 0446     		mov	r4, r0
 4398 0006 0F46     		mov	r7, r1
 4399 0008 1E46     		mov	r6, r3
 4400              	.LVL578:
2720:../Drivers/BSP/Components/vl53l0x/vl53l0x_api.c **** 	VL53L0X_Error Status = VL53L0X_ERROR_NONE;
2721:../Drivers/BSP/Components/vl53l0x/vl53l0x_api.c **** 	VL53L0X_GpioFunctionality GpioFunctionality;
2722:../Drivers/BSP/Components/vl53l0x/vl53l0x_api.c **** 	uint8_t data;
2723:../Drivers/BSP/Components/vl53l0x/vl53l0x_api.c **** 
2724:../Drivers/BSP/Components/vl53l0x/vl53l0x_api.c **** 	LOG_FUNCTION_START("");
2725:../Drivers/BSP/Components/vl53l0x/vl53l0x_api.c **** 
2726:../Drivers/BSP/Components/vl53l0x/vl53l0x_api.c **** 	/* pDeviceMode not managed by Ewok it return the current mode */
2727:../Drivers/BSP/Components/vl53l0x/vl53l0x_api.c **** 
2728:../Drivers/BSP/Components/vl53l0x/vl53l0x_api.c **** 	Status = VL53L0X_GetDeviceMode(Dev, pDeviceMode);
 4401              		.loc 1 2728 0
 4402 000a 1146     		mov	r1, r2
 4403              	.LVL579:
 4404 000c FFF7FEFF 		bl	VL53L0X_GetDeviceMode
 4405              	.LVL580:
2729:../Drivers/BSP/Components/vl53l0x/vl53l0x_api.c **** 
2730:../Drivers/BSP/Components/vl53l0x/vl53l0x_api.c **** 	if (Status == VL53L0X_ERROR_NONE) {
 4406              		.loc 1 2730 0
 4407 0010 0346     		mov	r3, r0
 4408 0012 48B9     		cbnz	r0, .L312
2731:../Drivers/BSP/Components/vl53l0x/vl53l0x_api.c **** 		if (Pin != 0) {
 4409              		.loc 1 2731 0
 4410 0014 3FB9     		cbnz	r7, .L324
2732:../Drivers/BSP/Components/vl53l0x/vl53l0x_api.c **** 			Status = VL53L0X_ERROR_GPIO_NOT_EXISTING;
2733:../Drivers/BSP/Components/vl53l0x/vl53l0x_api.c **** 		} else {
2734:../Drivers/BSP/Components/vl53l0x/vl53l0x_api.c **** 			Status = VL53L0X_RdByte(Dev,
 4411              		.loc 1 2734 0
 4412 0016 2046     		mov	r0, r4
 4413              	.LVL581:
 4414 0018 0A21     		movs	r1, #10
 4415 001a 0DF10702 		add	r2, sp, #7
 4416 001e FFF7FEFF 		bl	VL53L0X_RdByte
 4417              	.LVL582:
 4418 0022 0346     		mov	r3, r0
 4419              	.LVL583:
 4420 0024 00E0     		b	.L312
 4421              	.LVL584:
 4422              	.L324:
2732:../Drivers/BSP/Components/vl53l0x/vl53l0x_api.c **** 			Status = VL53L0X_ERROR_GPIO_NOT_EXISTING;
 4423              		.loc 1 2732 0
ARM GAS  /tmp/ccflrS73.s 			page 127


 4424 0026 F623     		movs	r3, #246
 4425              	.LVL585:
 4426              	.L312:
2735:../Drivers/BSP/Components/vl53l0x/vl53l0x_api.c **** 			VL53L0X_REG_SYSTEM_INTERRUPT_CONFIG_GPIO, &data);
2736:../Drivers/BSP/Components/vl53l0x/vl53l0x_api.c **** 		}
2737:../Drivers/BSP/Components/vl53l0x/vl53l0x_api.c **** 	}
2738:../Drivers/BSP/Components/vl53l0x/vl53l0x_api.c **** 
2739:../Drivers/BSP/Components/vl53l0x/vl53l0x_api.c **** 	if (Status == VL53L0X_ERROR_NONE) {
 4427              		.loc 1 2739 0
 4428 0028 ABB9     		cbnz	r3, .L313
2740:../Drivers/BSP/Components/vl53l0x/vl53l0x_api.c **** 		switch (data & 0x07) {
 4429              		.loc 1 2740 0
 4430 002a 9DF80720 		ldrb	r2, [sp, #7]	@ zero_extendqisi2
 4431 002e 02F00702 		and	r2, r2, #7
 4432 0032 042A     		cmp	r2, #4
 4433 0034 0CD8     		bhi	.L314
 4434 0036 DFE802F0 		tbb	[pc, r2]
 4435              	.L316:
 4436 003a 03       		.byte	(.L315-.L316)/2
 4437 003b 0D       		.byte	(.L325-.L316)/2
 4438 003c 05       		.byte	(.L317-.L316)/2
 4439 003d 07       		.byte	(.L318-.L316)/2
 4440 003e 09       		.byte	(.L319-.L316)/2
 4441 003f 00       		.p2align 1
 4442              	.L315:
2741:../Drivers/BSP/Components/vl53l0x/vl53l0x_api.c **** 		case 0x00:
2742:../Drivers/BSP/Components/vl53l0x/vl53l0x_api.c **** 			GpioFunctionality = VL53L0X_GPIOFUNCTIONALITY_OFF;
 4443              		.loc 1 2742 0
 4444 0040 0025     		movs	r5, #0
 4445 0042 08E0     		b	.L313
 4446              	.L317:
 4447              	.LVL586:
2743:../Drivers/BSP/Components/vl53l0x/vl53l0x_api.c **** 			break;
2744:../Drivers/BSP/Components/vl53l0x/vl53l0x_api.c **** 		case 0x01:
2745:../Drivers/BSP/Components/vl53l0x/vl53l0x_api.c **** 			GpioFunctionality =
2746:../Drivers/BSP/Components/vl53l0x/vl53l0x_api.c **** 			VL53L0X_GPIOFUNCTIONALITY_THRESHOLD_CROSSED_LOW;
2747:../Drivers/BSP/Components/vl53l0x/vl53l0x_api.c **** 			break;
2748:../Drivers/BSP/Components/vl53l0x/vl53l0x_api.c **** 		case 0x02:
2749:../Drivers/BSP/Components/vl53l0x/vl53l0x_api.c **** 			GpioFunctionality =
 4448              		.loc 1 2749 0
 4449 0044 0225     		movs	r5, #2
2750:../Drivers/BSP/Components/vl53l0x/vl53l0x_api.c **** 			VL53L0X_GPIOFUNCTIONALITY_THRESHOLD_CROSSED_HIGH;
2751:../Drivers/BSP/Components/vl53l0x/vl53l0x_api.c **** 			break;
 4450              		.loc 1 2751 0
 4451 0046 06E0     		b	.L313
 4452              	.LVL587:
 4453              	.L318:
2752:../Drivers/BSP/Components/vl53l0x/vl53l0x_api.c **** 		case 0x03:
2753:../Drivers/BSP/Components/vl53l0x/vl53l0x_api.c **** 			GpioFunctionality =
 4454              		.loc 1 2753 0
 4455 0048 0325     		movs	r5, #3
2754:../Drivers/BSP/Components/vl53l0x/vl53l0x_api.c **** 			VL53L0X_GPIOFUNCTIONALITY_THRESHOLD_CROSSED_OUT;
2755:../Drivers/BSP/Components/vl53l0x/vl53l0x_api.c **** 			break;
 4456              		.loc 1 2755 0
 4457 004a 04E0     		b	.L313
 4458              	.LVL588:
 4459              	.L319:
ARM GAS  /tmp/ccflrS73.s 			page 128


2756:../Drivers/BSP/Components/vl53l0x/vl53l0x_api.c **** 		case 0x04:
2757:../Drivers/BSP/Components/vl53l0x/vl53l0x_api.c **** 			GpioFunctionality =
 4460              		.loc 1 2757 0
 4461 004c 0425     		movs	r5, #4
2758:../Drivers/BSP/Components/vl53l0x/vl53l0x_api.c **** 			VL53L0X_GPIOFUNCTIONALITY_NEW_MEASURE_READY;
2759:../Drivers/BSP/Components/vl53l0x/vl53l0x_api.c **** 			break;
 4462              		.loc 1 2759 0
 4463 004e 02E0     		b	.L313
 4464              	.LVL589:
 4465              	.L314:
2760:../Drivers/BSP/Components/vl53l0x/vl53l0x_api.c **** 		default:
2761:../Drivers/BSP/Components/vl53l0x/vl53l0x_api.c **** 			Status = VL53L0X_ERROR_GPIO_FUNCTIONALITY_NOT_SUPPORTED;
 4466              		.loc 1 2761 0
 4467 0050 F523     		movs	r3, #245
 4468 0052 00E0     		b	.L313
 4469              	.LVL590:
 4470              	.L325:
2745:../Drivers/BSP/Components/vl53l0x/vl53l0x_api.c **** 			VL53L0X_GPIOFUNCTIONALITY_THRESHOLD_CROSSED_LOW;
 4471              		.loc 1 2745 0
 4472 0054 0125     		movs	r5, #1
 4473              	.LVL591:
 4474              	.L313:
2762:../Drivers/BSP/Components/vl53l0x/vl53l0x_api.c **** 		}
2763:../Drivers/BSP/Components/vl53l0x/vl53l0x_api.c **** 	}
2764:../Drivers/BSP/Components/vl53l0x/vl53l0x_api.c **** 
2765:../Drivers/BSP/Components/vl53l0x/vl53l0x_api.c **** 	if (Status == VL53L0X_ERROR_NONE)
 4475              		.loc 1 2765 0
 4476 0056 33B9     		cbnz	r3, .L320
2766:../Drivers/BSP/Components/vl53l0x/vl53l0x_api.c **** 		Status = VL53L0X_RdByte(Dev, VL53L0X_REG_GPIO_HV_MUX_ACTIVE_HIGH,
 4477              		.loc 1 2766 0
 4478 0058 2046     		mov	r0, r4
 4479 005a 8421     		movs	r1, #132
 4480 005c 0DF10702 		add	r2, sp, #7
 4481 0060 FFF7FEFF 		bl	VL53L0X_RdByte
 4482              	.LVL592:
 4483 0064 0346     		mov	r3, r0
 4484              	.LVL593:
 4485              	.L320:
2767:../Drivers/BSP/Components/vl53l0x/vl53l0x_api.c **** 			&data);
2768:../Drivers/BSP/Components/vl53l0x/vl53l0x_api.c **** 
2769:../Drivers/BSP/Components/vl53l0x/vl53l0x_api.c **** 	if (Status == VL53L0X_ERROR_NONE) {
 4486              		.loc 1 2769 0
 4487 0066 5BB9     		cbnz	r3, .L321
2770:../Drivers/BSP/Components/vl53l0x/vl53l0x_api.c **** 		if ((data & (uint8_t)(1 << 4)) == 0)
 4488              		.loc 1 2770 0
 4489 0068 9DF80720 		ldrb	r2, [sp, #7]	@ zero_extendqisi2
 4490 006c 12F0100F 		tst	r2, #16
 4491 0070 03D1     		bne	.L322
2771:../Drivers/BSP/Components/vl53l0x/vl53l0x_api.c **** 			*pPolarity = VL53L0X_INTERRUPTPOLARITY_LOW;
 4492              		.loc 1 2771 0
 4493 0072 0022     		movs	r2, #0
 4494 0074 0899     		ldr	r1, [sp, #32]
 4495 0076 0A70     		strb	r2, [r1]
 4496 0078 02E0     		b	.L321
 4497              	.L322:
2772:../Drivers/BSP/Components/vl53l0x/vl53l0x_api.c **** 		else
2773:../Drivers/BSP/Components/vl53l0x/vl53l0x_api.c **** 			*pPolarity = VL53L0X_INTERRUPTPOLARITY_HIGH;
ARM GAS  /tmp/ccflrS73.s 			page 129


 4498              		.loc 1 2773 0
 4499 007a 0122     		movs	r2, #1
 4500 007c 0899     		ldr	r1, [sp, #32]
 4501 007e 0A70     		strb	r2, [r1]
 4502              	.L321:
2774:../Drivers/BSP/Components/vl53l0x/vl53l0x_api.c **** 	}
2775:../Drivers/BSP/Components/vl53l0x/vl53l0x_api.c **** 
2776:../Drivers/BSP/Components/vl53l0x/vl53l0x_api.c **** 	if (Status == VL53L0X_ERROR_NONE) {
 4503              		.loc 1 2776 0
 4504 0080 13B9     		cbnz	r3, .L323
2777:../Drivers/BSP/Components/vl53l0x/vl53l0x_api.c **** 		*pFunctionality = GpioFunctionality;
 4505              		.loc 1 2777 0
 4506 0082 3570     		strb	r5, [r6]
2778:../Drivers/BSP/Components/vl53l0x/vl53l0x_api.c **** 		VL53L0X_SETDEVICESPECIFICPARAMETER(Dev, Pin0GpioFunctionality,
 4507              		.loc 1 2778 0
 4508 0084 84F8DA50 		strb	r5, [r4, #218]
 4509              	.L323:
2779:../Drivers/BSP/Components/vl53l0x/vl53l0x_api.c **** 			GpioFunctionality);
2780:../Drivers/BSP/Components/vl53l0x/vl53l0x_api.c **** 	}
2781:../Drivers/BSP/Components/vl53l0x/vl53l0x_api.c **** 
2782:../Drivers/BSP/Components/vl53l0x/vl53l0x_api.c **** 	LOG_FUNCTION_END(Status);
2783:../Drivers/BSP/Components/vl53l0x/vl53l0x_api.c **** 	return Status;
2784:../Drivers/BSP/Components/vl53l0x/vl53l0x_api.c **** }
 4510              		.loc 1 2784 0
 4511 0088 58B2     		sxtb	r0, r3
 4512 008a 03B0     		add	sp, sp, #12
 4513              	.LCFI94:
 4514              		.cfi_def_cfa_offset 20
 4515              		@ sp needed
 4516 008c F0BD     		pop	{r4, r5, r6, r7, pc}
 4517              		.cfi_endproc
 4518              	.LFE197:
 4520 008e 00BF     		.section	.text.VL53L0X_SetInterruptThresholds,"ax",%progbits
 4521              		.align	2
 4522              		.global	VL53L0X_SetInterruptThresholds
 4523              		.thumb
 4524              		.thumb_func
 4526              	VL53L0X_SetInterruptThresholds:
 4527              	.LFB198:
2785:../Drivers/BSP/Components/vl53l0x/vl53l0x_api.c **** 
2786:../Drivers/BSP/Components/vl53l0x/vl53l0x_api.c **** VL53L0X_Error VL53L0X_SetInterruptThresholds(VL53L0X_DEV Dev,
2787:../Drivers/BSP/Components/vl53l0x/vl53l0x_api.c **** 	VL53L0X_DeviceModes DeviceMode, FixPoint1616_t ThresholdLow,
2788:../Drivers/BSP/Components/vl53l0x/vl53l0x_api.c **** 	FixPoint1616_t ThresholdHigh)
2789:../Drivers/BSP/Components/vl53l0x/vl53l0x_api.c **** {
 4528              		.loc 1 2789 0
 4529              		.cfi_startproc
 4530              		@ args = 0, pretend = 0, frame = 0
 4531              		@ frame_needed = 0, uses_anonymous_args = 0
 4532              	.LVL594:
 4533 0000 38B5     		push	{r3, r4, r5, lr}
 4534              	.LCFI95:
 4535              		.cfi_def_cfa_offset 16
 4536              		.cfi_offset 3, -16
 4537              		.cfi_offset 4, -12
 4538              		.cfi_offset 5, -8
 4539              		.cfi_offset 14, -4
 4540 0002 0546     		mov	r5, r0
ARM GAS  /tmp/ccflrS73.s 			page 130


 4541 0004 1C46     		mov	r4, r3
 4542              	.LVL595:
2790:../Drivers/BSP/Components/vl53l0x/vl53l0x_api.c **** 	VL53L0X_Error Status = VL53L0X_ERROR_NONE;
2791:../Drivers/BSP/Components/vl53l0x/vl53l0x_api.c **** 	uint16_t Threshold16;
2792:../Drivers/BSP/Components/vl53l0x/vl53l0x_api.c **** 	LOG_FUNCTION_START("");
2793:../Drivers/BSP/Components/vl53l0x/vl53l0x_api.c **** 
2794:../Drivers/BSP/Components/vl53l0x/vl53l0x_api.c **** 	/* no dependency on DeviceMode for Ewok */
2795:../Drivers/BSP/Components/vl53l0x/vl53l0x_api.c **** 	/* Need to divide by 2 because the FW will apply a x2 */
2796:../Drivers/BSP/Components/vl53l0x/vl53l0x_api.c **** 	Threshold16 = (uint16_t)((ThresholdLow >> 17) & 0x00fff);
2797:../Drivers/BSP/Components/vl53l0x/vl53l0x_api.c **** 	Status = VL53L0X_WrWord(Dev, VL53L0X_REG_SYSTEM_THRESH_LOW, Threshold16);
 4543              		.loc 1 2797 0
 4544 0006 0E21     		movs	r1, #14
 4545              	.LVL596:
 4546 0008 C2F34B42 		ubfx	r2, r2, #17, #12
 4547              	.LVL597:
 4548 000c FFF7FEFF 		bl	VL53L0X_WrWord
 4549              	.LVL598:
2798:../Drivers/BSP/Components/vl53l0x/vl53l0x_api.c **** 
2799:../Drivers/BSP/Components/vl53l0x/vl53l0x_api.c **** 	if (Status == VL53L0X_ERROR_NONE) {
 4550              		.loc 1 2799 0
 4551 0010 0346     		mov	r3, r0
 4552 0012 30B9     		cbnz	r0, .L328
 4553              	.LVL599:
2800:../Drivers/BSP/Components/vl53l0x/vl53l0x_api.c **** 		/* Need to divide by 2 because the FW will apply a x2 */
2801:../Drivers/BSP/Components/vl53l0x/vl53l0x_api.c **** 		Threshold16 = (uint16_t)((ThresholdHigh >> 17) & 0x00fff);
2802:../Drivers/BSP/Components/vl53l0x/vl53l0x_api.c **** 		Status = VL53L0X_WrWord(Dev, VL53L0X_REG_SYSTEM_THRESH_HIGH,
 4554              		.loc 1 2802 0
 4555 0014 2846     		mov	r0, r5
 4556              	.LVL600:
 4557 0016 0C21     		movs	r1, #12
 4558 0018 C4F34B42 		ubfx	r2, r4, #17, #12
 4559 001c FFF7FEFF 		bl	VL53L0X_WrWord
 4560              	.LVL601:
 4561 0020 0346     		mov	r3, r0
 4562              	.LVL602:
 4563              	.L328:
2803:../Drivers/BSP/Components/vl53l0x/vl53l0x_api.c **** 			Threshold16);
2804:../Drivers/BSP/Components/vl53l0x/vl53l0x_api.c **** 	}
2805:../Drivers/BSP/Components/vl53l0x/vl53l0x_api.c **** 
2806:../Drivers/BSP/Components/vl53l0x/vl53l0x_api.c **** 	LOG_FUNCTION_END(Status);
2807:../Drivers/BSP/Components/vl53l0x/vl53l0x_api.c **** 	return Status;
2808:../Drivers/BSP/Components/vl53l0x/vl53l0x_api.c **** }
 4564              		.loc 1 2808 0
 4565 0022 58B2     		sxtb	r0, r3
 4566 0024 38BD     		pop	{r3, r4, r5, pc}
 4567              		.cfi_endproc
 4568              	.LFE198:
 4570 0026 00BF     		.section	.text.VL53L0X_GetInterruptThresholds,"ax",%progbits
 4571              		.align	2
 4572              		.global	VL53L0X_GetInterruptThresholds
 4573              		.thumb
 4574              		.thumb_func
 4576              	VL53L0X_GetInterruptThresholds:
 4577              	.LFB199:
2809:../Drivers/BSP/Components/vl53l0x/vl53l0x_api.c **** 
2810:../Drivers/BSP/Components/vl53l0x/vl53l0x_api.c **** VL53L0X_Error VL53L0X_GetInterruptThresholds(VL53L0X_DEV Dev,
2811:../Drivers/BSP/Components/vl53l0x/vl53l0x_api.c **** 	VL53L0X_DeviceModes DeviceMode, FixPoint1616_t *pThresholdLow,
ARM GAS  /tmp/ccflrS73.s 			page 131


2812:../Drivers/BSP/Components/vl53l0x/vl53l0x_api.c **** 	FixPoint1616_t *pThresholdHigh)
2813:../Drivers/BSP/Components/vl53l0x/vl53l0x_api.c **** {
 4578              		.loc 1 2813 0
 4579              		.cfi_startproc
 4580              		@ args = 0, pretend = 0, frame = 8
 4581              		@ frame_needed = 0, uses_anonymous_args = 0
 4582              	.LVL603:
 4583 0000 70B5     		push	{r4, r5, r6, lr}
 4584              	.LCFI96:
 4585              		.cfi_def_cfa_offset 16
 4586              		.cfi_offset 4, -16
 4587              		.cfi_offset 5, -12
 4588              		.cfi_offset 6, -8
 4589              		.cfi_offset 14, -4
 4590 0002 82B0     		sub	sp, sp, #8
 4591              	.LCFI97:
 4592              		.cfi_def_cfa_offset 24
 4593 0004 0646     		mov	r6, r0
 4594 0006 1546     		mov	r5, r2
 4595 0008 1C46     		mov	r4, r3
 4596              	.LVL604:
2814:../Drivers/BSP/Components/vl53l0x/vl53l0x_api.c **** 	VL53L0X_Error Status = VL53L0X_ERROR_NONE;
2815:../Drivers/BSP/Components/vl53l0x/vl53l0x_api.c **** 	uint16_t Threshold16;
2816:../Drivers/BSP/Components/vl53l0x/vl53l0x_api.c **** 	LOG_FUNCTION_START("");
2817:../Drivers/BSP/Components/vl53l0x/vl53l0x_api.c **** 
2818:../Drivers/BSP/Components/vl53l0x/vl53l0x_api.c **** 	/* no dependency on DeviceMode for Ewok */
2819:../Drivers/BSP/Components/vl53l0x/vl53l0x_api.c **** 
2820:../Drivers/BSP/Components/vl53l0x/vl53l0x_api.c **** 	Status = VL53L0X_RdWord(Dev, VL53L0X_REG_SYSTEM_THRESH_LOW, &Threshold16);
 4597              		.loc 1 2820 0
 4598 000a 0E21     		movs	r1, #14
 4599              	.LVL605:
 4600 000c 0DF10602 		add	r2, sp, #6
 4601              	.LVL606:
 4602 0010 FFF7FEFF 		bl	VL53L0X_RdWord
 4603              	.LVL607:
2821:../Drivers/BSP/Components/vl53l0x/vl53l0x_api.c **** 	/* Need to multiply by 2 because the FW will apply a x2 */
2822:../Drivers/BSP/Components/vl53l0x/vl53l0x_api.c **** 	*pThresholdLow = (FixPoint1616_t)((0x00fff & Threshold16) << 17);
 4604              		.loc 1 2822 0
 4605 0014 BDF80630 		ldrh	r3, [sp, #6]
 4606 0018 C3F30B03 		ubfx	r3, r3, #0, #12
 4607 001c 5B04     		lsls	r3, r3, #17
 4608 001e 2B60     		str	r3, [r5]
2823:../Drivers/BSP/Components/vl53l0x/vl53l0x_api.c **** 
2824:../Drivers/BSP/Components/vl53l0x/vl53l0x_api.c **** 	if (Status == VL53L0X_ERROR_NONE) {
 4609              		.loc 1 2824 0
 4610 0020 0346     		mov	r3, r0
 4611 0022 60B9     		cbnz	r0, .L331
2825:../Drivers/BSP/Components/vl53l0x/vl53l0x_api.c **** 		Status = VL53L0X_RdWord(Dev, VL53L0X_REG_SYSTEM_THRESH_HIGH,
 4612              		.loc 1 2825 0
 4613 0024 3046     		mov	r0, r6
 4614              	.LVL608:
 4615 0026 0C21     		movs	r1, #12
 4616 0028 0DF10602 		add	r2, sp, #6
 4617 002c FFF7FEFF 		bl	VL53L0X_RdWord
 4618              	.LVL609:
 4619 0030 0346     		mov	r3, r0
 4620              	.LVL610:
ARM GAS  /tmp/ccflrS73.s 			page 132


2826:../Drivers/BSP/Components/vl53l0x/vl53l0x_api.c **** 			&Threshold16);
2827:../Drivers/BSP/Components/vl53l0x/vl53l0x_api.c **** 		/* Need to multiply by 2 because the FW will apply a x2 */
2828:../Drivers/BSP/Components/vl53l0x/vl53l0x_api.c **** 		*pThresholdHigh =
2829:../Drivers/BSP/Components/vl53l0x/vl53l0x_api.c **** 			(FixPoint1616_t)((0x00fff & Threshold16) << 17);
 4621              		.loc 1 2829 0
 4622 0032 BDF80620 		ldrh	r2, [sp, #6]
 4623 0036 C2F30B02 		ubfx	r2, r2, #0, #12
 4624 003a 5204     		lsls	r2, r2, #17
2828:../Drivers/BSP/Components/vl53l0x/vl53l0x_api.c **** 			(FixPoint1616_t)((0x00fff & Threshold16) << 17);
 4625              		.loc 1 2828 0
 4626 003c 2260     		str	r2, [r4]
 4627              	.LVL611:
 4628              	.L331:
2830:../Drivers/BSP/Components/vl53l0x/vl53l0x_api.c **** 	}
2831:../Drivers/BSP/Components/vl53l0x/vl53l0x_api.c **** 
2832:../Drivers/BSP/Components/vl53l0x/vl53l0x_api.c **** 	LOG_FUNCTION_END(Status);
2833:../Drivers/BSP/Components/vl53l0x/vl53l0x_api.c **** 	return Status;
2834:../Drivers/BSP/Components/vl53l0x/vl53l0x_api.c **** }
 4629              		.loc 1 2834 0
 4630 003e 58B2     		sxtb	r0, r3
 4631 0040 02B0     		add	sp, sp, #8
 4632              	.LCFI98:
 4633              		.cfi_def_cfa_offset 16
 4634              		@ sp needed
 4635 0042 70BD     		pop	{r4, r5, r6, pc}
 4636              		.cfi_endproc
 4637              	.LFE199:
 4639              		.section	.text.VL53L0X_CheckAndLoadInterruptSettings,"ax",%progbits
 4640              		.align	2
 4641              		.global	VL53L0X_CheckAndLoadInterruptSettings
 4642              		.thumb
 4643              		.thumb_func
 4645              	VL53L0X_CheckAndLoadInterruptSettings:
 4646              	.LFB184:
2162:../Drivers/BSP/Components/vl53l0x/vl53l0x_api.c **** 	uint8_t InterruptConfig;
 4647              		.loc 1 2162 0
 4648              		.cfi_startproc
 4649              		@ args = 0, pretend = 0, frame = 8
 4650              		@ frame_needed = 0, uses_anonymous_args = 0
 4651              	.LVL612:
 4652 0000 70B5     		push	{r4, r5, r6, lr}
 4653              	.LCFI99:
 4654              		.cfi_def_cfa_offset 16
 4655              		.cfi_offset 4, -16
 4656              		.cfi_offset 5, -12
 4657              		.cfi_offset 6, -8
 4658              		.cfi_offset 14, -4
 4659 0002 82B0     		sub	sp, sp, #8
 4660              	.LCFI100:
 4661              		.cfi_def_cfa_offset 24
 4662              	.LVL613:
2168:../Drivers/BSP/Components/vl53l0x/vl53l0x_api.c **** 		Pin0GpioFunctionality);
 4663              		.loc 1 2168 0
 4664 0004 90F8DA30 		ldrb	r3, [r0, #218]	@ zero_extendqisi2
 4665              	.LVL614:
2174:../Drivers/BSP/Components/vl53l0x/vl53l0x_api.c **** 		(InterruptConfig ==
 4666              		.loc 1 2174 0
ARM GAS  /tmp/ccflrS73.s 			page 133


 4667 0008 013B     		subs	r3, r3, #1
 4668              	.LVL615:
 4669 000a DBB2     		uxtb	r3, r3
 4670              	.LVL616:
2171:../Drivers/BSP/Components/vl53l0x/vl53l0x_api.c **** 		VL53L0X_GPIOFUNCTIONALITY_THRESHOLD_CROSSED_LOW) ||
 4671              		.loc 1 2171 0
 4672 000c 022B     		cmp	r3, #2
 4673 000e 34D8     		bhi	.L337
 4674 0010 0E46     		mov	r6, r1
 4675 0012 0546     		mov	r5, r0
2178:../Drivers/BSP/Components/vl53l0x/vl53l0x_api.c **** 			VL53L0X_DEVICEMODE_CONTINUOUS_RANGING,
 4676              		.loc 1 2178 0
 4677 0014 0121     		movs	r1, #1
 4678              	.LVL617:
 4679 0016 01AA     		add	r2, sp, #4
 4680 0018 6B46     		mov	r3, sp
 4681 001a FFF7FEFF 		bl	VL53L0X_GetInterruptThresholds
 4682              	.LVL618:
 4683 001e 0446     		mov	r4, r0
 4684              	.LVL619:
2182:../Drivers/BSP/Components/vl53l0x/vl53l0x_api.c **** 			(ThresholdHigh > 255*65536)) &&
 4685              		.loc 1 2182 0
 4686 0020 019B     		ldr	r3, [sp, #4]
 4687 0022 B3F57F0F 		cmp	r3, #16711680
 4688 0026 03D8     		bhi	.L335
2183:../Drivers/BSP/Components/vl53l0x/vl53l0x_api.c **** 			(Status == VL53L0X_ERROR_NONE)) {
 4689              		.loc 1 2183 0 discriminator 1
 4690 0028 009B     		ldr	r3, [sp]
2182:../Drivers/BSP/Components/vl53l0x/vl53l0x_api.c **** 			(ThresholdHigh > 255*65536)) &&
 4691              		.loc 1 2182 0 discriminator 1
 4692 002a B3F57F0F 		cmp	r3, #16711680
 4693 002e 25D9     		bls	.L334
 4694              	.L335:
2183:../Drivers/BSP/Components/vl53l0x/vl53l0x_api.c **** 			(Status == VL53L0X_ERROR_NONE)) {
 4695              		.loc 1 2183 0
 4696 0030 24BB     		cbnz	r4, .L334
2186:../Drivers/BSP/Components/vl53l0x/vl53l0x_api.c **** 				Status = VL53L0X_load_tuning_settings(Dev,
 4697              		.loc 1 2186 0
 4698 0032 2EB1     		cbz	r6, .L336
2187:../Drivers/BSP/Components/vl53l0x/vl53l0x_api.c **** 					InterruptThresholdSettings);
 4699              		.loc 1 2187 0
 4700 0034 2846     		mov	r0, r5
 4701 0036 1349     		ldr	r1, .L339
 4702 0038 FFF7FEFF 		bl	VL53L0X_load_tuning_settings
 4703              	.LVL620:
 4704 003c 0446     		mov	r4, r0
 4705              	.LVL621:
 4706 003e 1DE0     		b	.L334
 4707              	.L336:
2190:../Drivers/BSP/Components/vl53l0x/vl53l0x_api.c **** 				Status |= VL53L0X_WrByte(Dev, 0x70, 0x00);
 4708              		.loc 1 2190 0
 4709 0040 2846     		mov	r0, r5
 4710 0042 FF21     		movs	r1, #255
 4711 0044 0422     		movs	r2, #4
 4712 0046 FFF7FEFF 		bl	VL53L0X_WrByte
 4713              	.LVL622:
 4714 004a 2043     		orrs	r0, r0, r4
ARM GAS  /tmp/ccflrS73.s 			page 134


 4715 004c C4B2     		uxtb	r4, r0
 4716              	.LVL623:
2191:../Drivers/BSP/Components/vl53l0x/vl53l0x_api.c **** 				Status |= VL53L0X_WrByte(Dev, 0xFF, 0x00);
 4717              		.loc 1 2191 0
 4718 004e 2846     		mov	r0, r5
 4719 0050 7021     		movs	r1, #112
 4720 0052 0022     		movs	r2, #0
 4721 0054 FFF7FEFF 		bl	VL53L0X_WrByte
 4722              	.LVL624:
 4723 0058 2043     		orrs	r0, r0, r4
 4724 005a C4B2     		uxtb	r4, r0
 4725              	.LVL625:
2192:../Drivers/BSP/Components/vl53l0x/vl53l0x_api.c **** 				Status |= VL53L0X_WrByte(Dev, 0x80, 0x00);
 4726              		.loc 1 2192 0
 4727 005c 2846     		mov	r0, r5
 4728 005e FF21     		movs	r1, #255
 4729 0060 0022     		movs	r2, #0
 4730 0062 FFF7FEFF 		bl	VL53L0X_WrByte
 4731              	.LVL626:
 4732 0066 2043     		orrs	r0, r0, r4
 4733 0068 C4B2     		uxtb	r4, r0
 4734              	.LVL627:
2193:../Drivers/BSP/Components/vl53l0x/vl53l0x_api.c **** 			}
 4735              		.loc 1 2193 0
 4736 006a 2846     		mov	r0, r5
 4737 006c 8021     		movs	r1, #128
 4738 006e 0022     		movs	r2, #0
 4739 0070 FFF7FEFF 		bl	VL53L0X_WrByte
 4740              	.LVL628:
 4741 0074 2043     		orrs	r0, r0, r4
 4742 0076 C4B2     		uxtb	r4, r0
 4743              	.LVL629:
 4744 0078 00E0     		b	.L334
 4745              	.LVL630:
 4746              	.L337:
2166:../Drivers/BSP/Components/vl53l0x/vl53l0x_api.c **** 
 4747              		.loc 1 2166 0
 4748 007a 0024     		movs	r4, #0
 4749              	.LVL631:
 4750              	.L334:
2203:../Drivers/BSP/Components/vl53l0x/vl53l0x_api.c **** 
 4751              		.loc 1 2203 0
 4752 007c 60B2     		sxtb	r0, r4
 4753 007e 02B0     		add	sp, sp, #8
 4754              	.LCFI101:
 4755              		.cfi_def_cfa_offset 16
 4756              		@ sp needed
 4757 0080 70BD     		pop	{r4, r5, r6, pc}
 4758              	.LVL632:
 4759              	.L340:
 4760 0082 00BF     		.align	2
 4761              	.L339:
 4762 0084 00000000 		.word	.LANCHOR0
 4763              		.cfi_endproc
 4764              	.LFE184:
 4766              		.section	.text.VL53L0X_StartMeasurement,"ax",%progbits
 4767              		.align	2
ARM GAS  /tmp/ccflrS73.s 			page 135


 4768              		.global	VL53L0X_StartMeasurement
 4769              		.thumb
 4770              		.thumb_func
 4772              	VL53L0X_StartMeasurement:
 4773              	.LFB185:
2207:../Drivers/BSP/Components/vl53l0x/vl53l0x_api.c **** 	VL53L0X_Error Status = VL53L0X_ERROR_NONE;
 4774              		.loc 1 2207 0
 4775              		.cfi_startproc
 4776              		@ args = 0, pretend = 0, frame = 8
 4777              		@ frame_needed = 0, uses_anonymous_args = 0
 4778              	.LVL633:
 4779 0000 30B5     		push	{r4, r5, lr}
 4780              	.LCFI102:
 4781              		.cfi_def_cfa_offset 12
 4782              		.cfi_offset 4, -12
 4783              		.cfi_offset 5, -8
 4784              		.cfi_offset 14, -4
 4785 0002 83B0     		sub	sp, sp, #12
 4786              	.LCFI103:
 4787              		.cfi_def_cfa_offset 24
 4788 0004 0446     		mov	r4, r0
 4789              	.LVL634:
2216:../Drivers/BSP/Components/vl53l0x/vl53l0x_api.c **** 
 4790              		.loc 1 2216 0
 4791 0006 0DF10701 		add	r1, sp, #7
 4792 000a FFF7FEFF 		bl	VL53L0X_GetDeviceMode
 4793              	.LVL635:
2218:../Drivers/BSP/Components/vl53l0x/vl53l0x_api.c **** 	Status = VL53L0X_WrByte(Dev, 0xFF, 0x01);
 4794              		.loc 1 2218 0
 4795 000e 2046     		mov	r0, r4
 4796 0010 8021     		movs	r1, #128
 4797 0012 0122     		movs	r2, #1
 4798 0014 FFF7FEFF 		bl	VL53L0X_WrByte
 4799              	.LVL636:
2219:../Drivers/BSP/Components/vl53l0x/vl53l0x_api.c **** 	Status = VL53L0X_WrByte(Dev, 0x00, 0x00);
 4800              		.loc 1 2219 0
 4801 0018 2046     		mov	r0, r4
 4802 001a FF21     		movs	r1, #255
 4803 001c 0122     		movs	r2, #1
 4804 001e FFF7FEFF 		bl	VL53L0X_WrByte
 4805              	.LVL637:
2220:../Drivers/BSP/Components/vl53l0x/vl53l0x_api.c **** 	Status = VL53L0X_WrByte(Dev, 0x91, PALDevDataGet(Dev, StopVariable));
 4806              		.loc 1 2220 0
 4807 0022 2046     		mov	r0, r4
 4808 0024 0021     		movs	r1, #0
 4809 0026 0A46     		mov	r2, r1
 4810 0028 FFF7FEFF 		bl	VL53L0X_WrByte
 4811              	.LVL638:
2221:../Drivers/BSP/Components/vl53l0x/vl53l0x_api.c **** 	Status = VL53L0X_WrByte(Dev, 0x00, 0x01);
 4812              		.loc 1 2221 0
 4813 002c 2046     		mov	r0, r4
 4814 002e 9121     		movs	r1, #145
 4815 0030 94F83A21 		ldrb	r2, [r4, #314]	@ zero_extendqisi2
 4816 0034 FFF7FEFF 		bl	VL53L0X_WrByte
 4817              	.LVL639:
2222:../Drivers/BSP/Components/vl53l0x/vl53l0x_api.c **** 	Status = VL53L0X_WrByte(Dev, 0xFF, 0x00);
 4818              		.loc 1 2222 0
ARM GAS  /tmp/ccflrS73.s 			page 136


 4819 0038 2046     		mov	r0, r4
 4820 003a 0021     		movs	r1, #0
 4821 003c 0122     		movs	r2, #1
 4822 003e FFF7FEFF 		bl	VL53L0X_WrByte
 4823              	.LVL640:
2223:../Drivers/BSP/Components/vl53l0x/vl53l0x_api.c **** 	Status = VL53L0X_WrByte(Dev, 0x80, 0x00);
 4824              		.loc 1 2223 0
 4825 0042 2046     		mov	r0, r4
 4826 0044 FF21     		movs	r1, #255
 4827 0046 0022     		movs	r2, #0
 4828 0048 FFF7FEFF 		bl	VL53L0X_WrByte
 4829              	.LVL641:
2224:../Drivers/BSP/Components/vl53l0x/vl53l0x_api.c **** 
 4830              		.loc 1 2224 0
 4831 004c 2046     		mov	r0, r4
 4832 004e 8021     		movs	r1, #128
 4833 0050 0022     		movs	r2, #0
 4834 0052 FFF7FEFF 		bl	VL53L0X_WrByte
 4835              	.LVL642:
2226:../Drivers/BSP/Components/vl53l0x/vl53l0x_api.c **** 	case VL53L0X_DEVICEMODE_SINGLE_RANGING:
 4836              		.loc 1 2226 0
 4837 0056 9DF80730 		ldrb	r3, [sp, #7]	@ zero_extendqisi2
 4838 005a 012B     		cmp	r3, #1
 4839 005c 24D0     		beq	.L343
 4840 005e 13B1     		cbz	r3, .L344
 4841 0060 032B     		cmp	r3, #3
 4842 0062 31D0     		beq	.L345
 4843 0064 40E0     		b	.L353
 4844              	.L344:
2228:../Drivers/BSP/Components/vl53l0x/vl53l0x_api.c **** 
 4845              		.loc 1 2228 0
 4846 0066 2046     		mov	r0, r4
 4847              	.LVL643:
 4848 0068 0021     		movs	r1, #0
 4849 006a 0122     		movs	r2, #1
 4850 006c FFF7FEFF 		bl	VL53L0X_WrByte
 4851              	.LVL644:
2230:../Drivers/BSP/Components/vl53l0x/vl53l0x_api.c **** 		if (Status == VL53L0X_ERROR_NONE) {
 4852              		.loc 1 2230 0
 4853 0070 0123     		movs	r3, #1
 4854 0072 8DF80630 		strb	r3, [sp, #6]
2231:../Drivers/BSP/Components/vl53l0x/vl53l0x_api.c **** 			/* Wait until start bit has been cleared */
 4855              		.loc 1 2231 0
 4856 0076 0346     		mov	r3, r0
 4857 0078 C8BB     		cbnz	r0, .L342
 4858 007a 0025     		movs	r5, #0
 4859              	.LVL645:
 4860              	.L348:
2235:../Drivers/BSP/Components/vl53l0x/vl53l0x_api.c **** 					Status = VL53L0X_RdByte(Dev,
 4861              		.loc 1 2235 0
 4862 007c 35B1     		cbz	r5, .L346
2236:../Drivers/BSP/Components/vl53l0x/vl53l0x_api.c **** 					VL53L0X_REG_SYSRANGE_START, &Byte);
 4863              		.loc 1 2236 0
 4864 007e 2046     		mov	r0, r4
 4865 0080 0021     		movs	r1, #0
 4866 0082 0DF10602 		add	r2, sp, #6
 4867 0086 FFF7FEFF 		bl	VL53L0X_RdByte
ARM GAS  /tmp/ccflrS73.s 			page 137


 4868              	.LVL646:
 4869 008a 0346     		mov	r3, r0
 4870              	.LVL647:
 4871              	.L346:
2238:../Drivers/BSP/Components/vl53l0x/vl53l0x_api.c **** 			} while (((Byte & StartStopByte) == StartStopByte)
 4872              		.loc 1 2238 0
 4873 008c 0135     		adds	r5, r5, #1
 4874              	.LVL648:
2239:../Drivers/BSP/Components/vl53l0x/vl53l0x_api.c **** 				&& (Status == VL53L0X_ERROR_NONE)
 4875              		.loc 1 2239 0
 4876 008e 9DF80620 		ldrb	r2, [sp, #6]	@ zero_extendqisi2
2241:../Drivers/BSP/Components/vl53l0x/vl53l0x_api.c **** 
 4877              		.loc 1 2241 0
 4878 0092 12F0010F 		tst	r2, #1
 4879 0096 03D0     		beq	.L347
2240:../Drivers/BSP/Components/vl53l0x/vl53l0x_api.c **** 				&& (LoopNb < VL53L0X_DEFAULT_MAX_LOOP));
 4880              		.loc 1 2240 0
 4881 0098 13B9     		cbnz	r3, .L347
2241:../Drivers/BSP/Components/vl53l0x/vl53l0x_api.c **** 
 4882              		.loc 1 2241 0
 4883 009a B5F5FA6F 		cmp	r5, #2000
 4884 009e EDD3     		bcc	.L348
 4885              	.L347:
2243:../Drivers/BSP/Components/vl53l0x/vl53l0x_api.c **** 				Status = VL53L0X_ERROR_TIME_OUT;
 4886              		.loc 1 2243 0
 4887 00a0 B5F5FA6F 		cmp	r5, #2000
 4888 00a4 23D3     		bcc	.L342
 4889 00a6 21E0     		b	.L352
 4890              	.LVL649:
 4891              	.L343:
2253:../Drivers/BSP/Components/vl53l0x/vl53l0x_api.c **** 			Status = VL53L0X_CheckAndLoadInterruptSettings(Dev, 1);
 4892              		.loc 1 2253 0
 4893 00a8 18B9     		cbnz	r0, .L349
2254:../Drivers/BSP/Components/vl53l0x/vl53l0x_api.c **** 
 4894              		.loc 1 2254 0
 4895 00aa 2046     		mov	r0, r4
 4896              	.LVL650:
 4897 00ac 0121     		movs	r1, #1
 4898 00ae FFF7FEFF 		bl	VL53L0X_CheckAndLoadInterruptSettings
 4899              	.LVL651:
 4900              	.L349:
2256:../Drivers/BSP/Components/vl53l0x/vl53l0x_api.c **** 		VL53L0X_REG_SYSRANGE_START,
 4901              		.loc 1 2256 0
 4902 00b2 2046     		mov	r0, r4
 4903 00b4 0021     		movs	r1, #0
 4904 00b6 0222     		movs	r2, #2
 4905 00b8 FFF7FEFF 		bl	VL53L0X_WrByte
 4906              	.LVL652:
2259:../Drivers/BSP/Components/vl53l0x/vl53l0x_api.c **** 			/* Set PAL State to Running */
 4907              		.loc 1 2259 0
 4908 00bc 0346     		mov	r3, r0
 4909 00be B0B9     		cbnz	r0, .L342
2261:../Drivers/BSP/Components/vl53l0x/vl53l0x_api.c **** 		}
 4910              		.loc 1 2261 0
 4911 00c0 0422     		movs	r2, #4
 4912 00c2 84F83221 		strb	r2, [r4, #306]
 4913 00c6 12E0     		b	.L342
ARM GAS  /tmp/ccflrS73.s 			page 138


 4914              	.L345:
2267:../Drivers/BSP/Components/vl53l0x/vl53l0x_api.c **** 			Status = VL53L0X_CheckAndLoadInterruptSettings(Dev, 1);
 4915              		.loc 1 2267 0
 4916 00c8 18B9     		cbnz	r0, .L350
2268:../Drivers/BSP/Components/vl53l0x/vl53l0x_api.c **** 
 4917              		.loc 1 2268 0
 4918 00ca 2046     		mov	r0, r4
 4919              	.LVL653:
 4920 00cc 0121     		movs	r1, #1
 4921 00ce FFF7FEFF 		bl	VL53L0X_CheckAndLoadInterruptSettings
 4922              	.LVL654:
 4923              	.L350:
2270:../Drivers/BSP/Components/vl53l0x/vl53l0x_api.c **** 		VL53L0X_REG_SYSRANGE_START,
 4924              		.loc 1 2270 0
 4925 00d2 2046     		mov	r0, r4
 4926 00d4 0021     		movs	r1, #0
 4927 00d6 0422     		movs	r2, #4
 4928 00d8 FFF7FEFF 		bl	VL53L0X_WrByte
 4929              	.LVL655:
2274:../Drivers/BSP/Components/vl53l0x/vl53l0x_api.c **** 			/* Set PAL State to Running */
 4930              		.loc 1 2274 0
 4931 00dc 0346     		mov	r3, r0
 4932 00de 30B9     		cbnz	r0, .L342
2276:../Drivers/BSP/Components/vl53l0x/vl53l0x_api.c **** 		}
 4933              		.loc 1 2276 0
 4934 00e0 0422     		movs	r2, #4
 4935 00e2 84F83221 		strb	r2, [r4, #306]
 4936 00e6 02E0     		b	.L342
 4937              	.L353:
2281:../Drivers/BSP/Components/vl53l0x/vl53l0x_api.c **** 	}
 4938              		.loc 1 2281 0
 4939 00e8 F823     		movs	r3, #248
 4940 00ea 00E0     		b	.L342
 4941              	.LVL656:
 4942              	.L352:
2244:../Drivers/BSP/Components/vl53l0x/vl53l0x_api.c **** 
 4943              		.loc 1 2244 0
 4944 00ec F923     		movs	r3, #249
 4945              	.LVL657:
 4946              	.L342:
2287:../Drivers/BSP/Components/vl53l0x/vl53l0x_api.c **** 
 4947              		.loc 1 2287 0
 4948 00ee 58B2     		sxtb	r0, r3
 4949 00f0 03B0     		add	sp, sp, #12
 4950              	.LCFI104:
 4951              		.cfi_def_cfa_offset 12
 4952              		@ sp needed
 4953 00f2 30BD     		pop	{r4, r5, pc}
 4954              		.cfi_endproc
 4955              	.LFE185:
 4957              		.section	.text.VL53L0X_PerformSingleMeasurement,"ax",%progbits
 4958              		.align	2
 4959              		.global	VL53L0X_PerformSingleMeasurement
 4960              		.thumb
 4961              		.thumb_func
 4963              	VL53L0X_PerformSingleMeasurement:
 4964              	.LFB178:
ARM GAS  /tmp/ccflrS73.s 			page 139


2065:../Drivers/BSP/Components/vl53l0x/vl53l0x_api.c **** 	VL53L0X_Error Status = VL53L0X_ERROR_NONE;
 4965              		.loc 1 2065 0
 4966              		.cfi_startproc
 4967              		@ args = 0, pretend = 0, frame = 8
 4968              		@ frame_needed = 0, uses_anonymous_args = 0
 4969              	.LVL658:
 4970 0000 10B5     		push	{r4, lr}
 4971              	.LCFI105:
 4972              		.cfi_def_cfa_offset 8
 4973              		.cfi_offset 4, -8
 4974              		.cfi_offset 14, -4
 4975 0002 82B0     		sub	sp, sp, #8
 4976              	.LCFI106:
 4977              		.cfi_def_cfa_offset 16
 4978 0004 0446     		mov	r4, r0
 4979              	.LVL659:
2072:../Drivers/BSP/Components/vl53l0x/vl53l0x_api.c **** 
 4980              		.loc 1 2072 0
 4981 0006 0DF10701 		add	r1, sp, #7
 4982 000a FFF7FEFF 		bl	VL53L0X_GetDeviceMode
 4983              	.LVL660:
2076:../Drivers/BSP/Components/vl53l0x/vl53l0x_api.c **** 		&& DeviceMode == VL53L0X_DEVICEMODE_SINGLE_RANGING)
 4984              		.loc 1 2076 0
 4985 000e 0346     		mov	r3, r0
 4986 0010 30B9     		cbnz	r0, .L356
2077:../Drivers/BSP/Components/vl53l0x/vl53l0x_api.c **** 		Status = VL53L0X_StartMeasurement(Dev);
 4987              		.loc 1 2077 0
 4988 0012 9DF80720 		ldrb	r2, [sp, #7]	@ zero_extendqisi2
 4989 0016 1AB9     		cbnz	r2, .L356
2078:../Drivers/BSP/Components/vl53l0x/vl53l0x_api.c **** 
 4990              		.loc 1 2078 0
 4991 0018 2046     		mov	r0, r4
 4992              	.LVL661:
 4993 001a FFF7FEFF 		bl	VL53L0X_StartMeasurement
 4994              	.LVL662:
 4995 001e 0346     		mov	r3, r0
 4996              	.LVL663:
 4997              	.L356:
2081:../Drivers/BSP/Components/vl53l0x/vl53l0x_api.c **** 		Status = VL53L0X_measurement_poll_for_completion(Dev);
 4998              		.loc 1 2081 0
 4999 0020 1BB9     		cbnz	r3, .L357
2082:../Drivers/BSP/Components/vl53l0x/vl53l0x_api.c **** 
 5000              		.loc 1 2082 0
 5001 0022 2046     		mov	r0, r4
 5002 0024 FFF7FEFF 		bl	VL53L0X_measurement_poll_for_completion
 5003              	.LVL664:
 5004 0028 0346     		mov	r3, r0
 5005              	.LVL665:
 5006              	.L357:
2086:../Drivers/BSP/Components/vl53l0x/vl53l0x_api.c **** 		&& DeviceMode == VL53L0X_DEVICEMODE_SINGLE_RANGING)
 5007              		.loc 1 2086 0
 5008 002a 2BB9     		cbnz	r3, .L358
2087:../Drivers/BSP/Components/vl53l0x/vl53l0x_api.c **** 		PALDevDataSet(Dev, PalState, VL53L0X_STATE_IDLE);
 5009              		.loc 1 2087 0
 5010 002c 9DF80720 		ldrb	r2, [sp, #7]	@ zero_extendqisi2
 5011 0030 12B9     		cbnz	r2, .L358
2088:../Drivers/BSP/Components/vl53l0x/vl53l0x_api.c **** 
ARM GAS  /tmp/ccflrS73.s 			page 140


 5012              		.loc 1 2088 0
 5013 0032 0322     		movs	r2, #3
 5014 0034 84F83221 		strb	r2, [r4, #306]
 5015              	.L358:
2093:../Drivers/BSP/Components/vl53l0x/vl53l0x_api.c **** 
 5016              		.loc 1 2093 0
 5017 0038 58B2     		sxtb	r0, r3
 5018 003a 02B0     		add	sp, sp, #8
 5019              	.LCFI107:
 5020              		.cfi_def_cfa_offset 8
 5021              		@ sp needed
 5022 003c 10BD     		pop	{r4, pc}
 5023              		.cfi_endproc
 5024              	.LFE178:
 5026 003e 00BF     		.section	.text.VL53L0X_StopMeasurement,"ax",%progbits
 5027              		.align	2
 5028              		.global	VL53L0X_StopMeasurement
 5029              		.thumb
 5030              		.thumb_func
 5032              	VL53L0X_StopMeasurement:
 5033              	.LFB186:
2290:../Drivers/BSP/Components/vl53l0x/vl53l0x_api.c **** 	VL53L0X_Error Status = VL53L0X_ERROR_NONE;
 5034              		.loc 1 2290 0
 5035              		.cfi_startproc
 5036              		@ args = 0, pretend = 0, frame = 0
 5037              		@ frame_needed = 0, uses_anonymous_args = 0
 5038              	.LVL666:
 5039 0000 10B5     		push	{r4, lr}
 5040              	.LCFI108:
 5041              		.cfi_def_cfa_offset 8
 5042              		.cfi_offset 4, -8
 5043              		.cfi_offset 14, -4
 5044 0002 0446     		mov	r4, r0
 5045              	.LVL667:
2294:../Drivers/BSP/Components/vl53l0x/vl53l0x_api.c **** 	VL53L0X_REG_SYSRANGE_MODE_SINGLESHOT);
 5046              		.loc 1 2294 0
 5047 0004 0021     		movs	r1, #0
 5048 0006 0A46     		mov	r2, r1
 5049 0008 FFF7FEFF 		bl	VL53L0X_WrByte
 5050              	.LVL668:
2297:../Drivers/BSP/Components/vl53l0x/vl53l0x_api.c **** 	Status = VL53L0X_WrByte(Dev, 0x00, 0x00);
 5051              		.loc 1 2297 0
 5052 000c 2046     		mov	r0, r4
 5053 000e FF21     		movs	r1, #255
 5054 0010 0122     		movs	r2, #1
 5055 0012 FFF7FEFF 		bl	VL53L0X_WrByte
 5056              	.LVL669:
2298:../Drivers/BSP/Components/vl53l0x/vl53l0x_api.c **** 	Status = VL53L0X_WrByte(Dev, 0x91, 0x00);
 5057              		.loc 1 2298 0
 5058 0016 2046     		mov	r0, r4
 5059 0018 0021     		movs	r1, #0
 5060 001a 0A46     		mov	r2, r1
 5061 001c FFF7FEFF 		bl	VL53L0X_WrByte
 5062              	.LVL670:
2299:../Drivers/BSP/Components/vl53l0x/vl53l0x_api.c **** 	Status = VL53L0X_WrByte(Dev, 0x00, 0x01);
 5063              		.loc 1 2299 0
 5064 0020 2046     		mov	r0, r4
ARM GAS  /tmp/ccflrS73.s 			page 141


 5065 0022 9121     		movs	r1, #145
 5066 0024 0022     		movs	r2, #0
 5067 0026 FFF7FEFF 		bl	VL53L0X_WrByte
 5068              	.LVL671:
2300:../Drivers/BSP/Components/vl53l0x/vl53l0x_api.c **** 	Status = VL53L0X_WrByte(Dev, 0xFF, 0x00);
 5069              		.loc 1 2300 0
 5070 002a 2046     		mov	r0, r4
 5071 002c 0021     		movs	r1, #0
 5072 002e 0122     		movs	r2, #1
 5073 0030 FFF7FEFF 		bl	VL53L0X_WrByte
 5074              	.LVL672:
2301:../Drivers/BSP/Components/vl53l0x/vl53l0x_api.c **** 
 5075              		.loc 1 2301 0
 5076 0034 2046     		mov	r0, r4
 5077 0036 FF21     		movs	r1, #255
 5078 0038 0022     		movs	r2, #0
 5079 003a FFF7FEFF 		bl	VL53L0X_WrByte
 5080              	.LVL673:
2303:../Drivers/BSP/Components/vl53l0x/vl53l0x_api.c **** 		/* Set PAL State to Idle */
 5081              		.loc 1 2303 0
 5082 003e 0346     		mov	r3, r0
 5083 0040 10B9     		cbnz	r0, .L361
2305:../Drivers/BSP/Components/vl53l0x/vl53l0x_api.c **** 	}
 5084              		.loc 1 2305 0
 5085 0042 0322     		movs	r2, #3
 5086 0044 84F83221 		strb	r2, [r4, #306]
 5087              	.L361:
2309:../Drivers/BSP/Components/vl53l0x/vl53l0x_api.c **** 		Status = VL53L0X_CheckAndLoadInterruptSettings(Dev, 0);
 5088              		.loc 1 2309 0
 5089 0048 23B9     		cbnz	r3, .L362
2310:../Drivers/BSP/Components/vl53l0x/vl53l0x_api.c **** 
 5090              		.loc 1 2310 0
 5091 004a 2046     		mov	r0, r4
 5092              	.LVL674:
 5093 004c 0021     		movs	r1, #0
 5094 004e FFF7FEFF 		bl	VL53L0X_CheckAndLoadInterruptSettings
 5095              	.LVL675:
 5096 0052 0346     		mov	r3, r0
 5097              	.LVL676:
 5098              	.L362:
2314:../Drivers/BSP/Components/vl53l0x/vl53l0x_api.c **** 
 5099              		.loc 1 2314 0
 5100 0054 58B2     		sxtb	r0, r3
 5101 0056 10BD     		pop	{r4, pc}
 5102              		.cfi_endproc
 5103              	.LFE186:
 5105              		.section	.text.VL53L0X_GetStopCompletedStatus,"ax",%progbits
 5106              		.align	2
 5107              		.global	VL53L0X_GetStopCompletedStatus
 5108              		.thumb
 5109              		.thumb_func
 5111              	VL53L0X_GetStopCompletedStatus:
 5112              	.LFB200:
2835:../Drivers/BSP/Components/vl53l0x/vl53l0x_api.c **** 
2836:../Drivers/BSP/Components/vl53l0x/vl53l0x_api.c **** VL53L0X_Error VL53L0X_GetStopCompletedStatus(VL53L0X_DEV Dev,
2837:../Drivers/BSP/Components/vl53l0x/vl53l0x_api.c **** 	uint32_t *pStopStatus)
2838:../Drivers/BSP/Components/vl53l0x/vl53l0x_api.c **** {
ARM GAS  /tmp/ccflrS73.s 			page 142


 5113              		.loc 1 2838 0
 5114              		.cfi_startproc
 5115              		@ args = 0, pretend = 0, frame = 8
 5116              		@ frame_needed = 0, uses_anonymous_args = 0
 5117              	.LVL677:
 5118 0000 30B5     		push	{r4, r5, lr}
 5119              	.LCFI109:
 5120              		.cfi_def_cfa_offset 12
 5121              		.cfi_offset 4, -12
 5122              		.cfi_offset 5, -8
 5123              		.cfi_offset 14, -4
 5124 0002 83B0     		sub	sp, sp, #12
 5125              	.LCFI110:
 5126              		.cfi_def_cfa_offset 24
 5127 0004 0446     		mov	r4, r0
 5128 0006 0D46     		mov	r5, r1
 5129              	.LVL678:
2839:../Drivers/BSP/Components/vl53l0x/vl53l0x_api.c **** 	VL53L0X_Error Status = VL53L0X_ERROR_NONE;
2840:../Drivers/BSP/Components/vl53l0x/vl53l0x_api.c **** 	uint8_t Byte = 0;
 5130              		.loc 1 2840 0
 5131 0008 0023     		movs	r3, #0
 5132 000a 8DF80730 		strb	r3, [sp, #7]
2841:../Drivers/BSP/Components/vl53l0x/vl53l0x_api.c **** 	LOG_FUNCTION_START("");
2842:../Drivers/BSP/Components/vl53l0x/vl53l0x_api.c **** 
2843:../Drivers/BSP/Components/vl53l0x/vl53l0x_api.c **** 	Status = VL53L0X_WrByte(Dev, 0xFF, 0x01);
 5133              		.loc 1 2843 0
 5134 000e FF21     		movs	r1, #255
 5135              	.LVL679:
 5136 0010 0122     		movs	r2, #1
 5137 0012 FFF7FEFF 		bl	VL53L0X_WrByte
 5138              	.LVL680:
2844:../Drivers/BSP/Components/vl53l0x/vl53l0x_api.c **** 
2845:../Drivers/BSP/Components/vl53l0x/vl53l0x_api.c **** 	if (Status == VL53L0X_ERROR_NONE)
 5139              		.loc 1 2845 0
 5140 0016 0346     		mov	r3, r0
 5141 0018 30B9     		cbnz	r0, .L365
2846:../Drivers/BSP/Components/vl53l0x/vl53l0x_api.c **** 		Status = VL53L0X_RdByte(Dev, 0x04, &Byte);
 5142              		.loc 1 2846 0
 5143 001a 2046     		mov	r0, r4
 5144              	.LVL681:
 5145 001c 0421     		movs	r1, #4
 5146 001e 0DF10702 		add	r2, sp, #7
 5147 0022 FFF7FEFF 		bl	VL53L0X_RdByte
 5148              	.LVL682:
 5149 0026 0346     		mov	r3, r0
 5150              	.LVL683:
 5151              	.L365:
2847:../Drivers/BSP/Components/vl53l0x/vl53l0x_api.c **** 
2848:../Drivers/BSP/Components/vl53l0x/vl53l0x_api.c **** 	if (Status == VL53L0X_ERROR_NONE)
 5152              		.loc 1 2848 0
 5153 0028 2BB9     		cbnz	r3, .L366
2849:../Drivers/BSP/Components/vl53l0x/vl53l0x_api.c **** 		Status = VL53L0X_WrByte(Dev, 0xFF, 0x0);
 5154              		.loc 1 2849 0
 5155 002a 2046     		mov	r0, r4
 5156 002c FF21     		movs	r1, #255
 5157 002e 0022     		movs	r2, #0
 5158 0030 FFF7FEFF 		bl	VL53L0X_WrByte
ARM GAS  /tmp/ccflrS73.s 			page 143


 5159              	.LVL684:
 5160 0034 0346     		mov	r3, r0
 5161              	.LVL685:
 5162              	.L366:
2850:../Drivers/BSP/Components/vl53l0x/vl53l0x_api.c **** 
2851:../Drivers/BSP/Components/vl53l0x/vl53l0x_api.c **** 	*pStopStatus = Byte;
 5163              		.loc 1 2851 0
 5164 0036 9DF80720 		ldrb	r2, [sp, #7]	@ zero_extendqisi2
 5165 003a 2A60     		str	r2, [r5]
2852:../Drivers/BSP/Components/vl53l0x/vl53l0x_api.c **** 
2853:../Drivers/BSP/Components/vl53l0x/vl53l0x_api.c **** 	if (Byte == 0) {
 5166              		.loc 1 2853 0
 5167 003c 22BB     		cbnz	r2, .L367
2854:../Drivers/BSP/Components/vl53l0x/vl53l0x_api.c **** 		Status = VL53L0X_WrByte(Dev, 0x80, 0x01);
 5168              		.loc 1 2854 0
 5169 003e 2046     		mov	r0, r4
 5170 0040 8021     		movs	r1, #128
 5171 0042 0122     		movs	r2, #1
 5172 0044 FFF7FEFF 		bl	VL53L0X_WrByte
 5173              	.LVL686:
2855:../Drivers/BSP/Components/vl53l0x/vl53l0x_api.c **** 		Status = VL53L0X_WrByte(Dev, 0xFF, 0x01);
 5174              		.loc 1 2855 0
 5175 0048 2046     		mov	r0, r4
 5176 004a FF21     		movs	r1, #255
 5177 004c 0122     		movs	r2, #1
 5178 004e FFF7FEFF 		bl	VL53L0X_WrByte
 5179              	.LVL687:
2856:../Drivers/BSP/Components/vl53l0x/vl53l0x_api.c **** 		Status = VL53L0X_WrByte(Dev, 0x00, 0x00);
 5180              		.loc 1 2856 0
 5181 0052 2046     		mov	r0, r4
 5182 0054 0021     		movs	r1, #0
 5183 0056 0A46     		mov	r2, r1
 5184 0058 FFF7FEFF 		bl	VL53L0X_WrByte
 5185              	.LVL688:
2857:../Drivers/BSP/Components/vl53l0x/vl53l0x_api.c **** 		Status = VL53L0X_WrByte(Dev, 0x91,
 5186              		.loc 1 2857 0
 5187 005c 2046     		mov	r0, r4
 5188 005e 9121     		movs	r1, #145
 5189 0060 94F83A21 		ldrb	r2, [r4, #314]	@ zero_extendqisi2
 5190 0064 FFF7FEFF 		bl	VL53L0X_WrByte
 5191              	.LVL689:
2858:../Drivers/BSP/Components/vl53l0x/vl53l0x_api.c **** 			PALDevDataGet(Dev, StopVariable));
2859:../Drivers/BSP/Components/vl53l0x/vl53l0x_api.c **** 		Status = VL53L0X_WrByte(Dev, 0x00, 0x01);
 5192              		.loc 1 2859 0
 5193 0068 2046     		mov	r0, r4
 5194 006a 0021     		movs	r1, #0
 5195 006c 0122     		movs	r2, #1
 5196 006e FFF7FEFF 		bl	VL53L0X_WrByte
 5197              	.LVL690:
2860:../Drivers/BSP/Components/vl53l0x/vl53l0x_api.c **** 		Status = VL53L0X_WrByte(Dev, 0xFF, 0x00);
 5198              		.loc 1 2860 0
 5199 0072 2046     		mov	r0, r4
 5200 0074 FF21     		movs	r1, #255
 5201 0076 0022     		movs	r2, #0
 5202 0078 FFF7FEFF 		bl	VL53L0X_WrByte
 5203              	.LVL691:
2861:../Drivers/BSP/Components/vl53l0x/vl53l0x_api.c **** 		Status = VL53L0X_WrByte(Dev, 0x80, 0x00);
ARM GAS  /tmp/ccflrS73.s 			page 144


 5204              		.loc 1 2861 0
 5205 007c 2046     		mov	r0, r4
 5206 007e 8021     		movs	r1, #128
 5207 0080 0022     		movs	r2, #0
 5208 0082 FFF7FEFF 		bl	VL53L0X_WrByte
 5209              	.LVL692:
 5210 0086 0346     		mov	r3, r0
 5211              	.LVL693:
 5212              	.L367:
2862:../Drivers/BSP/Components/vl53l0x/vl53l0x_api.c **** 	}
2863:../Drivers/BSP/Components/vl53l0x/vl53l0x_api.c **** 
2864:../Drivers/BSP/Components/vl53l0x/vl53l0x_api.c **** 	LOG_FUNCTION_END(Status);
2865:../Drivers/BSP/Components/vl53l0x/vl53l0x_api.c **** 	return Status;
2866:../Drivers/BSP/Components/vl53l0x/vl53l0x_api.c **** }
 5213              		.loc 1 2866 0
 5214 0088 58B2     		sxtb	r0, r3
 5215 008a 03B0     		add	sp, sp, #12
 5216              	.LCFI111:
 5217              		.cfi_def_cfa_offset 12
 5218              		@ sp needed
 5219 008c 30BD     		pop	{r4, r5, pc}
 5220              		.cfi_endproc
 5221              	.LFE200:
 5223 008e 00BF     		.section	.text.VL53L0X_ClearInterruptMask,"ax",%progbits
 5224              		.align	2
 5225              		.global	VL53L0X_ClearInterruptMask
 5226              		.thumb
 5227              		.thumb_func
 5229              	VL53L0X_ClearInterruptMask:
 5230              	.LFB201:
2867:../Drivers/BSP/Components/vl53l0x/vl53l0x_api.c **** 
2868:../Drivers/BSP/Components/vl53l0x/vl53l0x_api.c **** /* Group PAL Interrupt Functions */
2869:../Drivers/BSP/Components/vl53l0x/vl53l0x_api.c **** VL53L0X_Error VL53L0X_ClearInterruptMask(VL53L0X_DEV Dev, uint32_t InterruptMask)
2870:../Drivers/BSP/Components/vl53l0x/vl53l0x_api.c **** {
 5231              		.loc 1 2870 0
 5232              		.cfi_startproc
 5233              		@ args = 0, pretend = 0, frame = 8
 5234              		@ frame_needed = 0, uses_anonymous_args = 0
 5235              	.LVL694:
 5236 0000 70B5     		push	{r4, r5, r6, lr}
 5237              	.LCFI112:
 5238              		.cfi_def_cfa_offset 16
 5239              		.cfi_offset 4, -16
 5240              		.cfi_offset 5, -12
 5241              		.cfi_offset 6, -8
 5242              		.cfi_offset 14, -4
 5243 0002 82B0     		sub	sp, sp, #8
 5244              	.LCFI113:
 5245              		.cfi_def_cfa_offset 24
 5246 0004 0646     		mov	r6, r0
 5247              	.LVL695:
2871:../Drivers/BSP/Components/vl53l0x/vl53l0x_api.c **** 	VL53L0X_Error Status = VL53L0X_ERROR_NONE;
2872:../Drivers/BSP/Components/vl53l0x/vl53l0x_api.c **** 	uint8_t LoopCount;
2873:../Drivers/BSP/Components/vl53l0x/vl53l0x_api.c **** 	uint8_t Byte;
2874:../Drivers/BSP/Components/vl53l0x/vl53l0x_api.c **** 	LOG_FUNCTION_START("");
2875:../Drivers/BSP/Components/vl53l0x/vl53l0x_api.c **** 
2876:../Drivers/BSP/Components/vl53l0x/vl53l0x_api.c **** 	/* clear bit 0 range interrupt, bit 1 error interrupt */
ARM GAS  /tmp/ccflrS73.s 			page 145


2877:../Drivers/BSP/Components/vl53l0x/vl53l0x_api.c **** 	LoopCount = 0;
 5248              		.loc 1 2877 0
 5249 0006 0025     		movs	r5, #0
 5250              	.LVL696:
 5251              	.L371:
2878:../Drivers/BSP/Components/vl53l0x/vl53l0x_api.c **** 	do {
2879:../Drivers/BSP/Components/vl53l0x/vl53l0x_api.c **** 		Status = VL53L0X_WrByte(Dev,
 5252              		.loc 1 2879 0 discriminator 1
 5253 0008 3046     		mov	r0, r6
 5254 000a 0B21     		movs	r1, #11
 5255 000c 0122     		movs	r2, #1
 5256 000e FFF7FEFF 		bl	VL53L0X_WrByte
 5257              	.LVL697:
 5258 0012 0446     		mov	r4, r0
 5259              	.LVL698:
2880:../Drivers/BSP/Components/vl53l0x/vl53l0x_api.c **** 			VL53L0X_REG_SYSTEM_INTERRUPT_CLEAR, 0x01);
2881:../Drivers/BSP/Components/vl53l0x/vl53l0x_api.c **** 		Status |= VL53L0X_WrByte(Dev,
 5260              		.loc 1 2881 0 discriminator 1
 5261 0014 3046     		mov	r0, r6
 5262 0016 0B21     		movs	r1, #11
 5263 0018 0022     		movs	r2, #0
 5264 001a FFF7FEFF 		bl	VL53L0X_WrByte
 5265              	.LVL699:
 5266 001e 2043     		orrs	r0, r0, r4
 5267 0020 C4B2     		uxtb	r4, r0
 5268              	.LVL700:
2882:../Drivers/BSP/Components/vl53l0x/vl53l0x_api.c **** 			VL53L0X_REG_SYSTEM_INTERRUPT_CLEAR, 0x00);
2883:../Drivers/BSP/Components/vl53l0x/vl53l0x_api.c **** 		Status |= VL53L0X_RdByte(Dev,
 5269              		.loc 1 2883 0 discriminator 1
 5270 0022 3046     		mov	r0, r6
 5271 0024 1321     		movs	r1, #19
 5272 0026 0DF10702 		add	r2, sp, #7
 5273 002a FFF7FEFF 		bl	VL53L0X_RdByte
 5274              	.LVL701:
 5275 002e 2043     		orrs	r0, r0, r4
 5276 0030 C0B2     		uxtb	r0, r0
 5277              	.LVL702:
2884:../Drivers/BSP/Components/vl53l0x/vl53l0x_api.c **** 			VL53L0X_REG_RESULT_INTERRUPT_STATUS, &Byte);
2885:../Drivers/BSP/Components/vl53l0x/vl53l0x_api.c **** 		LoopCount++;
 5278              		.loc 1 2885 0 discriminator 1
 5279 0032 0135     		adds	r5, r5, #1
 5280              	.LVL703:
 5281 0034 EDB2     		uxtb	r5, r5
 5282              	.LVL704:
2886:../Drivers/BSP/Components/vl53l0x/vl53l0x_api.c **** 	} while (((Byte & 0x07) != 0x00)
 5283              		.loc 1 2886 0 discriminator 1
 5284 0036 9DF80730 		ldrb	r3, [sp, #7]	@ zero_extendqisi2
2887:../Drivers/BSP/Components/vl53l0x/vl53l0x_api.c **** 			&& (LoopCount < 3)
2888:../Drivers/BSP/Components/vl53l0x/vl53l0x_api.c **** 			&& (Status == VL53L0X_ERROR_NONE));
 5285              		.loc 1 2888 0 discriminator 1
 5286 003a 13F0070F 		tst	r3, #7
 5287 003e 03D0     		beq	.L370
2887:../Drivers/BSP/Components/vl53l0x/vl53l0x_api.c **** 			&& (LoopCount < 3)
 5288              		.loc 1 2887 0
 5289 0040 022D     		cmp	r5, #2
 5290 0042 01D8     		bhi	.L370
 5291              		.loc 1 2888 0
ARM GAS  /tmp/ccflrS73.s 			page 146


 5292 0044 0028     		cmp	r0, #0
 5293 0046 DFD0     		beq	.L371
 5294              	.L370:
2889:../Drivers/BSP/Components/vl53l0x/vl53l0x_api.c **** 
2890:../Drivers/BSP/Components/vl53l0x/vl53l0x_api.c **** 
2891:../Drivers/BSP/Components/vl53l0x/vl53l0x_api.c **** 	if (LoopCount >= 3)
 5295              		.loc 1 2891 0
 5296 0048 022D     		cmp	r5, #2
 5297 004a 00D9     		bls	.L372
2892:../Drivers/BSP/Components/vl53l0x/vl53l0x_api.c **** 		Status = VL53L0X_ERROR_INTERRUPT_NOT_CLEARED;
 5298              		.loc 1 2892 0
 5299 004c F420     		movs	r0, #244
 5300              	.LVL705:
 5301              	.L372:
2893:../Drivers/BSP/Components/vl53l0x/vl53l0x_api.c **** 
2894:../Drivers/BSP/Components/vl53l0x/vl53l0x_api.c **** 	LOG_FUNCTION_END(Status);
2895:../Drivers/BSP/Components/vl53l0x/vl53l0x_api.c **** 	return Status;
2896:../Drivers/BSP/Components/vl53l0x/vl53l0x_api.c **** }
 5302              		.loc 1 2896 0
 5303 004e 40B2     		sxtb	r0, r0
 5304 0050 02B0     		add	sp, sp, #8
 5305              	.LCFI114:
 5306              		.cfi_def_cfa_offset 16
 5307              		@ sp needed
 5308 0052 70BD     		pop	{r4, r5, r6, pc}
 5309              		.cfi_endproc
 5310              	.LFE201:
 5312              		.section	.text.VL53L0X_PerformSingleRangingMeasurement,"ax",%progbits
 5313              		.align	2
 5314              		.global	VL53L0X_PerformSingleRangingMeasurement
 5315              		.thumb
 5316              		.thumb_func
 5318              	VL53L0X_PerformSingleRangingMeasurement:
 5319              	.LFB192:
2551:../Drivers/BSP/Components/vl53l0x/vl53l0x_api.c **** 	VL53L0X_Error Status = VL53L0X_ERROR_NONE;
 5320              		.loc 1 2551 0
 5321              		.cfi_startproc
 5322              		@ args = 0, pretend = 0, frame = 0
 5323              		@ frame_needed = 0, uses_anonymous_args = 0
 5324              	.LVL706:
 5325 0000 38B5     		push	{r3, r4, r5, lr}
 5326              	.LCFI115:
 5327              		.cfi_def_cfa_offset 16
 5328              		.cfi_offset 3, -16
 5329              		.cfi_offset 4, -12
 5330              		.cfi_offset 5, -8
 5331              		.cfi_offset 14, -4
 5332 0002 0446     		mov	r4, r0
 5333 0004 0D46     		mov	r5, r1
 5334              	.LVL707:
2558:../Drivers/BSP/Components/vl53l0x/vl53l0x_api.c **** 
 5335              		.loc 1 2558 0
 5336 0006 0021     		movs	r1, #0
 5337              	.LVL708:
 5338 0008 FFF7FEFF 		bl	VL53L0X_SetDeviceMode
 5339              	.LVL709:
2560:../Drivers/BSP/Components/vl53l0x/vl53l0x_api.c **** 		Status = VL53L0X_PerformSingleMeasurement(Dev);
ARM GAS  /tmp/ccflrS73.s 			page 147


 5340              		.loc 1 2560 0
 5341 000c 0346     		mov	r3, r0
 5342 000e 18B9     		cbnz	r0, .L376
2561:../Drivers/BSP/Components/vl53l0x/vl53l0x_api.c **** 
 5343              		.loc 1 2561 0
 5344 0010 2046     		mov	r0, r4
 5345              	.LVL710:
 5346 0012 FFF7FEFF 		bl	VL53L0X_PerformSingleMeasurement
 5347              	.LVL711:
 5348 0016 0346     		mov	r3, r0
 5349              	.LVL712:
 5350              	.L376:
2564:../Drivers/BSP/Components/vl53l0x/vl53l0x_api.c **** 		Status = VL53L0X_GetRangingMeasurementData(Dev,
 5351              		.loc 1 2564 0
 5352 0018 23B9     		cbnz	r3, .L377
2565:../Drivers/BSP/Components/vl53l0x/vl53l0x_api.c **** 			pRangingMeasurementData);
 5353              		.loc 1 2565 0
 5354 001a 2046     		mov	r0, r4
 5355 001c 2946     		mov	r1, r5
 5356 001e FFF7FEFF 		bl	VL53L0X_GetRangingMeasurementData
 5357              	.LVL713:
 5358 0022 0346     		mov	r3, r0
 5359              	.LVL714:
 5360              	.L377:
2569:../Drivers/BSP/Components/vl53l0x/vl53l0x_api.c **** 		Status = VL53L0X_ClearInterruptMask(Dev, 0);
 5361              		.loc 1 2569 0
 5362 0024 23B9     		cbnz	r3, .L378
2570:../Drivers/BSP/Components/vl53l0x/vl53l0x_api.c **** 
 5363              		.loc 1 2570 0
 5364 0026 2046     		mov	r0, r4
 5365 0028 0021     		movs	r1, #0
 5366 002a FFF7FEFF 		bl	VL53L0X_ClearInterruptMask
 5367              	.LVL715:
 5368 002e 0346     		mov	r3, r0
 5369              	.LVL716:
 5370              	.L378:
2575:../Drivers/BSP/Components/vl53l0x/vl53l0x_api.c **** 
 5371              		.loc 1 2575 0
 5372 0030 58B2     		sxtb	r0, r3
 5373 0032 38BD     		pop	{r3, r4, r5, pc}
 5374              		.cfi_endproc
 5375              	.LFE192:
 5377              		.section	.text.VL53L0X_SetGpioConfig,"ax",%progbits
 5378              		.align	2
 5379              		.global	VL53L0X_SetGpioConfig
 5380              		.thumb
 5381              		.thumb_func
 5383              	VL53L0X_SetGpioConfig:
 5384              	.LFB196:
2623:../Drivers/BSP/Components/vl53l0x/vl53l0x_api.c **** 	VL53L0X_Error Status = VL53L0X_ERROR_NONE;
 5385              		.loc 1 2623 0
 5386              		.cfi_startproc
 5387              		@ args = 4, pretend = 0, frame = 0
 5388              		@ frame_needed = 0, uses_anonymous_args = 0
 5389              	.LVL717:
 5390 0000 F8B5     		push	{r3, r4, r5, r6, r7, lr}
 5391              	.LCFI116:
ARM GAS  /tmp/ccflrS73.s 			page 148


 5392              		.cfi_def_cfa_offset 24
 5393              		.cfi_offset 3, -24
 5394              		.cfi_offset 4, -20
 5395              		.cfi_offset 5, -16
 5396              		.cfi_offset 6, -12
 5397              		.cfi_offset 7, -8
 5398              		.cfi_offset 14, -4
 5399 0002 9DF81860 		ldrb	r6, [sp, #24]	@ zero_extendqisi2
 5400              	.LVL718:
2629:../Drivers/BSP/Components/vl53l0x/vl53l0x_api.c **** 		Status = VL53L0X_ERROR_GPIO_NOT_EXISTING;
 5401              		.loc 1 2629 0
 5402 0006 0029     		cmp	r1, #0
 5403 0008 40F0A780 		bne	.L396
 5404 000c 0546     		mov	r5, r0
 5405 000e 1C46     		mov	r4, r3
2631:../Drivers/BSP/Components/vl53l0x/vl53l0x_api.c **** 		if (Polarity == VL53L0X_INTERRUPTPOLARITY_LOW)
 5406              		.loc 1 2631 0
 5407 0010 142A     		cmp	r2, #20
 5408 0012 08D1     		bne	.L382
2632:../Drivers/BSP/Components/vl53l0x/vl53l0x_api.c **** 			data = 0x10;
 5409              		.loc 1 2632 0
 5410 0014 0EB9     		cbnz	r6, .L397
2633:../Drivers/BSP/Components/vl53l0x/vl53l0x_api.c **** 		else
 5411              		.loc 1 2633 0
 5412 0016 1022     		movs	r2, #16
 5413              	.LVL719:
 5414 0018 00E0     		b	.L383
 5415              	.LVL720:
 5416              	.L397:
2635:../Drivers/BSP/Components/vl53l0x/vl53l0x_api.c **** 
 5417              		.loc 1 2635 0
 5418 001a 0122     		movs	r2, #1
 5419              	.LVL721:
 5420              	.L383:
2637:../Drivers/BSP/Components/vl53l0x/vl53l0x_api.c **** 		VL53L0X_REG_GPIO_HV_MUX_ACTIVE_HIGH, data);
 5421              		.loc 1 2637 0
 5422 001c 2846     		mov	r0, r5
 5423              	.LVL722:
 5424 001e 8421     		movs	r1, #132
 5425              	.LVL723:
 5426 0020 FFF7FEFF 		bl	VL53L0X_WrByte
 5427              	.LVL724:
 5428 0024 9AE0     		b	.L381
 5429              	.LVL725:
 5430              	.L382:
2640:../Drivers/BSP/Components/vl53l0x/vl53l0x_api.c **** 
 5431              		.loc 1 2640 0
 5432 0026 152A     		cmp	r2, #21
 5433 0028 67D1     		bne	.L384
2642:../Drivers/BSP/Components/vl53l0x/vl53l0x_api.c **** 		Status |= VL53L0X_WrByte(Dev, 0x00, 0x00);
 5434              		.loc 1 2642 0
 5435 002a FF21     		movs	r1, #255
 5436              	.LVL726:
 5437 002c 0122     		movs	r2, #1
 5438              	.LVL727:
 5439 002e FFF7FEFF 		bl	VL53L0X_WrByte
 5440              	.LVL728:
ARM GAS  /tmp/ccflrS73.s 			page 149


 5441 0032 0446     		mov	r4, r0
 5442              	.LVL729:
2643:../Drivers/BSP/Components/vl53l0x/vl53l0x_api.c **** 
 5443              		.loc 1 2643 0
 5444 0034 2846     		mov	r0, r5
 5445 0036 0021     		movs	r1, #0
 5446 0038 0A46     		mov	r2, r1
 5447 003a FFF7FEFF 		bl	VL53L0X_WrByte
 5448              	.LVL730:
 5449 003e 2043     		orrs	r0, r0, r4
 5450 0040 C4B2     		uxtb	r4, r0
 5451              	.LVL731:
2645:../Drivers/BSP/Components/vl53l0x/vl53l0x_api.c **** 		Status |= VL53L0X_WrByte(Dev, 0x80, 0x01);
 5452              		.loc 1 2645 0
 5453 0042 2846     		mov	r0, r5
 5454 0044 FF21     		movs	r1, #255
 5455 0046 0022     		movs	r2, #0
 5456 0048 FFF7FEFF 		bl	VL53L0X_WrByte
 5457              	.LVL732:
 5458 004c 2043     		orrs	r0, r0, r4
 5459 004e C4B2     		uxtb	r4, r0
 5460              	.LVL733:
2646:../Drivers/BSP/Components/vl53l0x/vl53l0x_api.c **** 		Status |= VL53L0X_WrByte(Dev, 0x85, 0x02);
 5461              		.loc 1 2646 0
 5462 0050 2846     		mov	r0, r5
 5463 0052 8021     		movs	r1, #128
 5464 0054 0122     		movs	r2, #1
 5465 0056 FFF7FEFF 		bl	VL53L0X_WrByte
 5466              	.LVL734:
 5467 005a 2043     		orrs	r0, r0, r4
 5468 005c C4B2     		uxtb	r4, r0
 5469              	.LVL735:
2647:../Drivers/BSP/Components/vl53l0x/vl53l0x_api.c **** 
 5470              		.loc 1 2647 0
 5471 005e 2846     		mov	r0, r5
 5472 0060 8521     		movs	r1, #133
 5473 0062 0222     		movs	r2, #2
 5474 0064 FFF7FEFF 		bl	VL53L0X_WrByte
 5475              	.LVL736:
 5476 0068 2043     		orrs	r0, r0, r4
 5477 006a C4B2     		uxtb	r4, r0
 5478              	.LVL737:
2649:../Drivers/BSP/Components/vl53l0x/vl53l0x_api.c **** 		Status |= VL53L0X_WrByte(Dev, 0xcd, 0x00);
 5479              		.loc 1 2649 0
 5480 006c 2846     		mov	r0, r5
 5481 006e FF21     		movs	r1, #255
 5482 0070 0422     		movs	r2, #4
 5483 0072 FFF7FEFF 		bl	VL53L0X_WrByte
 5484              	.LVL738:
 5485 0076 2043     		orrs	r0, r0, r4
 5486 0078 C4B2     		uxtb	r4, r0
 5487              	.LVL739:
2650:../Drivers/BSP/Components/vl53l0x/vl53l0x_api.c **** 		Status |= VL53L0X_WrByte(Dev, 0xcc, 0x11);
 5488              		.loc 1 2650 0
 5489 007a 2846     		mov	r0, r5
 5490 007c CD21     		movs	r1, #205
 5491 007e 0022     		movs	r2, #0
ARM GAS  /tmp/ccflrS73.s 			page 150


 5492 0080 FFF7FEFF 		bl	VL53L0X_WrByte
 5493              	.LVL740:
 5494 0084 2043     		orrs	r0, r0, r4
 5495 0086 C4B2     		uxtb	r4, r0
 5496              	.LVL741:
2651:../Drivers/BSP/Components/vl53l0x/vl53l0x_api.c **** 
 5497              		.loc 1 2651 0
 5498 0088 2846     		mov	r0, r5
 5499 008a CC21     		movs	r1, #204
 5500 008c 1122     		movs	r2, #17
 5501 008e FFF7FEFF 		bl	VL53L0X_WrByte
 5502              	.LVL742:
 5503 0092 2043     		orrs	r0, r0, r4
 5504 0094 C4B2     		uxtb	r4, r0
 5505              	.LVL743:
2653:../Drivers/BSP/Components/vl53l0x/vl53l0x_api.c **** 		Status |= VL53L0X_WrByte(Dev, 0xbe, 0x00);
 5506              		.loc 1 2653 0
 5507 0096 2846     		mov	r0, r5
 5508 0098 FF21     		movs	r1, #255
 5509 009a 0722     		movs	r2, #7
 5510 009c FFF7FEFF 		bl	VL53L0X_WrByte
 5511              	.LVL744:
 5512 00a0 2043     		orrs	r0, r0, r4
 5513 00a2 C4B2     		uxtb	r4, r0
 5514              	.LVL745:
2654:../Drivers/BSP/Components/vl53l0x/vl53l0x_api.c **** 
 5515              		.loc 1 2654 0
 5516 00a4 2846     		mov	r0, r5
 5517 00a6 BE21     		movs	r1, #190
 5518 00a8 0022     		movs	r2, #0
 5519 00aa FFF7FEFF 		bl	VL53L0X_WrByte
 5520              	.LVL746:
 5521 00ae 2043     		orrs	r0, r0, r4
 5522 00b0 C4B2     		uxtb	r4, r0
 5523              	.LVL747:
2656:../Drivers/BSP/Components/vl53l0x/vl53l0x_api.c **** 		Status |= VL53L0X_WrByte(Dev, 0xcc, 0x09);
 5524              		.loc 1 2656 0
 5525 00b2 2846     		mov	r0, r5
 5526 00b4 FF21     		movs	r1, #255
 5527 00b6 0622     		movs	r2, #6
 5528 00b8 FFF7FEFF 		bl	VL53L0X_WrByte
 5529              	.LVL748:
 5530 00bc 2043     		orrs	r0, r0, r4
 5531 00be C4B2     		uxtb	r4, r0
 5532              	.LVL749:
2657:../Drivers/BSP/Components/vl53l0x/vl53l0x_api.c **** 
 5533              		.loc 1 2657 0
 5534 00c0 2846     		mov	r0, r5
 5535 00c2 CC21     		movs	r1, #204
 5536 00c4 0922     		movs	r2, #9
 5537 00c6 FFF7FEFF 		bl	VL53L0X_WrByte
 5538              	.LVL750:
 5539 00ca 2043     		orrs	r0, r0, r4
 5540 00cc C4B2     		uxtb	r4, r0
 5541              	.LVL751:
2659:../Drivers/BSP/Components/vl53l0x/vl53l0x_api.c **** 		Status |= VL53L0X_WrByte(Dev, 0xff, 0x01);
 5542              		.loc 1 2659 0
ARM GAS  /tmp/ccflrS73.s 			page 151


 5543 00ce 2846     		mov	r0, r5
 5544 00d0 FF21     		movs	r1, #255
 5545 00d2 0022     		movs	r2, #0
 5546 00d4 FFF7FEFF 		bl	VL53L0X_WrByte
 5547              	.LVL752:
 5548 00d8 2043     		orrs	r0, r0, r4
 5549 00da C4B2     		uxtb	r4, r0
 5550              	.LVL753:
2660:../Drivers/BSP/Components/vl53l0x/vl53l0x_api.c **** 		Status |= VL53L0X_WrByte(Dev, 0x00, 0x00);
 5551              		.loc 1 2660 0
 5552 00dc 2846     		mov	r0, r5
 5553 00de FF21     		movs	r1, #255
 5554 00e0 0122     		movs	r2, #1
 5555 00e2 FFF7FEFF 		bl	VL53L0X_WrByte
 5556              	.LVL754:
 5557 00e6 2043     		orrs	r0, r0, r4
 5558 00e8 C4B2     		uxtb	r4, r0
 5559              	.LVL755:
2661:../Drivers/BSP/Components/vl53l0x/vl53l0x_api.c **** 
 5560              		.loc 1 2661 0
 5561 00ea 2846     		mov	r0, r5
 5562 00ec 0021     		movs	r1, #0
 5563 00ee 0A46     		mov	r2, r1
 5564 00f0 FFF7FEFF 		bl	VL53L0X_WrByte
 5565              	.LVL756:
 5566 00f4 2043     		orrs	r0, r0, r4
 5567 00f6 C0B2     		uxtb	r0, r0
 5568              	.LVL757:
 5569 00f8 30E0     		b	.L381
 5570              	.LVL758:
 5571              	.L384:
2666:../Drivers/BSP/Components/vl53l0x/vl53l0x_api.c **** 			case VL53L0X_GPIOFUNCTIONALITY_OFF:
 5572              		.loc 1 2666 0
 5573 00fa 042C     		cmp	r4, #4
 5574 00fc 10D8     		bhi	.L385
 5575 00fe DFE804F0 		tbb	[pc, r4]
 5576              	.LVL759:
 5577              	.L387:
 5578 0102 03       		.byte	(.L386-.L387)/2
 5579 0103 11       		.byte	(.L398-.L387)/2
 5580 0104 06       		.byte	(.L389-.L387)/2
 5581 0105 09       		.byte	(.L390-.L387)/2
 5582 0106 0C       		.byte	(.L391-.L387)/2
 5583 0107 00       		.p2align 1
 5584              	.L386:
2668:../Drivers/BSP/Components/vl53l0x/vl53l0x_api.c **** 				break;
 5585              		.loc 1 2668 0
 5586 0108 0027     		movs	r7, #0
2624:../Drivers/BSP/Components/vl53l0x/vl53l0x_api.c **** 	uint8_t data;
 5587              		.loc 1 2624 0
 5588 010a 3846     		mov	r0, r7
 5589              	.LVL760:
 5590 010c 0CE0     		b	.L388
 5591              	.LVL761:
 5592              	.L389:
2674:../Drivers/BSP/Components/vl53l0x/vl53l0x_api.c **** 				break;
 5593              		.loc 1 2674 0
ARM GAS  /tmp/ccflrS73.s 			page 152


 5594 010e 0227     		movs	r7, #2
2624:../Drivers/BSP/Components/vl53l0x/vl53l0x_api.c **** 	uint8_t data;
 5595              		.loc 1 2624 0
 5596 0110 0020     		movs	r0, #0
 5597              	.LVL762:
2675:../Drivers/BSP/Components/vl53l0x/vl53l0x_api.c **** 			case VL53L0X_GPIOFUNCTIONALITY_THRESHOLD_CROSSED_OUT:
 5598              		.loc 1 2675 0
 5599 0112 09E0     		b	.L388
 5600              	.LVL763:
 5601              	.L390:
2677:../Drivers/BSP/Components/vl53l0x/vl53l0x_api.c **** 				break;
 5602              		.loc 1 2677 0
 5603 0114 0327     		movs	r7, #3
2624:../Drivers/BSP/Components/vl53l0x/vl53l0x_api.c **** 	uint8_t data;
 5604              		.loc 1 2624 0
 5605 0116 0020     		movs	r0, #0
 5606              	.LVL764:
2678:../Drivers/BSP/Components/vl53l0x/vl53l0x_api.c **** 			case VL53L0X_GPIOFUNCTIONALITY_NEW_MEASURE_READY:
 5607              		.loc 1 2678 0
 5608 0118 06E0     		b	.L388
 5609              	.LVL765:
 5610              	.L391:
2680:../Drivers/BSP/Components/vl53l0x/vl53l0x_api.c **** 				break;
 5611              		.loc 1 2680 0
 5612 011a 0427     		movs	r7, #4
2624:../Drivers/BSP/Components/vl53l0x/vl53l0x_api.c **** 	uint8_t data;
 5613              		.loc 1 2624 0
 5614 011c 0020     		movs	r0, #0
 5615              	.LVL766:
2681:../Drivers/BSP/Components/vl53l0x/vl53l0x_api.c **** 			default:
 5616              		.loc 1 2681 0
 5617 011e 03E0     		b	.L388
 5618              	.LVL767:
 5619              	.L385:
2683:../Drivers/BSP/Components/vl53l0x/vl53l0x_api.c **** 				VL53L0X_ERROR_GPIO_FUNCTIONALITY_NOT_SUPPORTED;
 5620              		.loc 1 2683 0
 5621 0120 F520     		movs	r0, #245
 5622              	.LVL768:
 5623 0122 01E0     		b	.L388
 5624              	.LVL769:
 5625              	.L398:
2671:../Drivers/BSP/Components/vl53l0x/vl53l0x_api.c **** 				break;
 5626              		.loc 1 2671 0
 5627 0124 0127     		movs	r7, #1
2624:../Drivers/BSP/Components/vl53l0x/vl53l0x_api.c **** 	uint8_t data;
 5628              		.loc 1 2624 0
 5629 0126 0020     		movs	r0, #0
 5630              	.LVL770:
 5631              	.L388:
2688:../Drivers/BSP/Components/vl53l0x/vl53l0x_api.c **** 			Status = VL53L0X_WrByte(Dev,
 5632              		.loc 1 2688 0
 5633 0128 20B9     		cbnz	r0, .L392
2689:../Drivers/BSP/Components/vl53l0x/vl53l0x_api.c **** 			VL53L0X_REG_SYSTEM_INTERRUPT_CONFIG_GPIO, data);
 5634              		.loc 1 2689 0
 5635 012a 2846     		mov	r0, r5
 5636              	.LVL771:
 5637 012c 0A21     		movs	r1, #10
ARM GAS  /tmp/ccflrS73.s 			page 153


 5638              	.LVL772:
 5639 012e 3A46     		mov	r2, r7
 5640              	.LVL773:
 5641 0130 FFF7FEFF 		bl	VL53L0X_WrByte
 5642              	.LVL774:
 5643              	.L392:
2692:../Drivers/BSP/Components/vl53l0x/vl53l0x_api.c **** 			if (Polarity == VL53L0X_INTERRUPTPOLARITY_LOW)
 5644              		.loc 1 2692 0
 5645 0134 40B9     		cbnz	r0, .L393
2693:../Drivers/BSP/Components/vl53l0x/vl53l0x_api.c **** 				data = 0;
 5646              		.loc 1 2693 0
 5647 0136 0EB9     		cbnz	r6, .L399
2694:../Drivers/BSP/Components/vl53l0x/vl53l0x_api.c **** 			else
 5648              		.loc 1 2694 0
 5649 0138 0023     		movs	r3, #0
 5650 013a 00E0     		b	.L394
 5651              	.L399:
2696:../Drivers/BSP/Components/vl53l0x/vl53l0x_api.c **** 
 5652              		.loc 1 2696 0
 5653 013c 1023     		movs	r3, #16
 5654              	.L394:
 5655              	.LVL775:
2698:../Drivers/BSP/Components/vl53l0x/vl53l0x_api.c **** 			VL53L0X_REG_GPIO_HV_MUX_ACTIVE_HIGH, 0xEF, data);
 5656              		.loc 1 2698 0
 5657 013e 2846     		mov	r0, r5
 5658              	.LVL776:
 5659 0140 8421     		movs	r1, #132
 5660 0142 EF22     		movs	r2, #239
 5661 0144 FFF7FEFF 		bl	VL53L0X_UpdateByte
 5662              	.LVL777:
 5663              	.L393:
2702:../Drivers/BSP/Components/vl53l0x/vl53l0x_api.c **** 			VL53L0X_SETDEVICESPECIFICPARAMETER(Dev,
 5664              		.loc 1 2702 0
 5665 0148 08B9     		cbnz	r0, .L395
2703:../Drivers/BSP/Components/vl53l0x/vl53l0x_api.c **** 				Pin0GpioFunctionality, Functionality);
 5666              		.loc 1 2703 0
 5667 014a 85F8DA40 		strb	r4, [r5, #218]
 5668              	.L395:
2706:../Drivers/BSP/Components/vl53l0x/vl53l0x_api.c **** 			Status = VL53L0X_ClearInterruptMask(Dev, 0);
 5669              		.loc 1 2706 0
 5670 014e 28B9     		cbnz	r0, .L381
2707:../Drivers/BSP/Components/vl53l0x/vl53l0x_api.c **** 
 5671              		.loc 1 2707 0
 5672 0150 2846     		mov	r0, r5
 5673              	.LVL778:
 5674 0152 0021     		movs	r1, #0
 5675 0154 FFF7FEFF 		bl	VL53L0X_ClearInterruptMask
 5676              	.LVL779:
 5677 0158 00E0     		b	.L381
 5678              	.LVL780:
 5679              	.L396:
2630:../Drivers/BSP/Components/vl53l0x/vl53l0x_api.c **** 	} else if (DeviceMode == VL53L0X_DEVICEMODE_GPIO_DRIVE) {
 5680              		.loc 1 2630 0
 5681 015a F620     		movs	r0, #246
 5682              	.LVL781:
 5683              	.L381:
2713:../Drivers/BSP/Components/vl53l0x/vl53l0x_api.c **** 
ARM GAS  /tmp/ccflrS73.s 			page 154


 5684              		.loc 1 2713 0
 5685 015c 40B2     		sxtb	r0, r0
 5686 015e F8BD     		pop	{r3, r4, r5, r6, r7, pc}
 5687              		.cfi_endproc
 5688              	.LFE196:
 5690              		.section	.text.VL53L0X_StaticInit,"ax",%progbits
 5691              		.align	2
 5692              		.global	VL53L0X_StaticInit
 5693              		.thumb
 5694              		.thumb_func
 5696              	VL53L0X_StaticInit:
 5697              	.LFB135:
 551:../Drivers/BSP/Components/vl53l0x/vl53l0x_api.c **** 	VL53L0X_Error Status = VL53L0X_ERROR_NONE;
 5698              		.loc 1 551 0
 5699              		.cfi_startproc
 5700              		@ args = 0, pretend = 0, frame = 80
 5701              		@ frame_needed = 0, uses_anonymous_args = 0
 5702              	.LVL782:
 5703 0000 F0B5     		push	{r4, r5, r6, r7, lr}
 5704              	.LCFI117:
 5705              		.cfi_def_cfa_offset 20
 5706              		.cfi_offset 4, -20
 5707              		.cfi_offset 5, -16
 5708              		.cfi_offset 6, -12
 5709              		.cfi_offset 7, -8
 5710              		.cfi_offset 14, -4
 5711 0002 97B0     		sub	sp, sp, #92
 5712              	.LCFI118:
 5713              		.cfi_def_cfa_offset 112
 5714 0004 0746     		mov	r7, r0
 5715              	.LVL783:
 553:../Drivers/BSP/Components/vl53l0x/vl53l0x_api.c **** 	uint8_t *pTuningSettingBuffer;
 5716              		.loc 1 553 0
 5717 0006 06A8     		add	r0, sp, #24
 5718              	.LVL784:
 5719 0008 0021     		movs	r1, #0
 5720 000a 4022     		movs	r2, #64
 5721 000c FFF7FEFF 		bl	memset
 5722              	.LVL785:
 555:../Drivers/BSP/Components/vl53l0x/vl53l0x_api.c **** 	uint8_t tempbyte = 0;
 5723              		.loc 1 555 0
 5724 0010 0023     		movs	r3, #0
 5725 0012 ADF81630 		strh	r3, [sp, #22]	@ movhi
 556:../Drivers/BSP/Components/vl53l0x/vl53l0x_api.c **** 	uint8_t UseInternalTuningSettings = 0;
 5726              		.loc 1 556 0
 5727 0016 8DF81530 		strb	r3, [sp, #21]
 5728              	.LVL786:
 559:../Drivers/BSP/Components/vl53l0x/vl53l0x_api.c **** 	uint32_t refSpadCount = 0;
 5729              		.loc 1 559 0
 5730 001a 8DF81430 		strb	r3, [sp, #20]
 560:../Drivers/BSP/Components/vl53l0x/vl53l0x_api.c **** 	uint8_t ApertureSpads = 0;
 5731              		.loc 1 560 0
 5732 001e 0493     		str	r3, [sp, #16]
 5733              	.LVL787:
 567:../Drivers/BSP/Components/vl53l0x/vl53l0x_api.c **** 
 5734              		.loc 1 567 0
 5735 0020 3846     		mov	r0, r7
ARM GAS  /tmp/ccflrS73.s 			page 155


 5736 0022 0121     		movs	r1, #1
 5737 0024 FFF7FEFF 		bl	VL53L0X_get_info_from_device
 5738              	.LVL788:
 570:../Drivers/BSP/Components/vl53l0x/vl53l0x_api.c **** 		ReferenceSpadCount);
 5739              		.loc 1 570 0
 5740 0028 97F81311 		ldrb	r1, [r7, #275]	@ zero_extendqisi2
 5741              	.LVL789:
 572:../Drivers/BSP/Components/vl53l0x/vl53l0x_api.c **** 		ReferenceSpadType);
 5742              		.loc 1 572 0
 5743 002c 97F81421 		ldrb	r2, [r7, #276]	@ zero_extendqisi2
 5744              	.LVL790:
 576:../Drivers/BSP/Components/vl53l0x/vl53l0x_api.c **** 		((ApertureSpads == 1) && (count > 32)) ||
 5745              		.loc 1 576 0
 5746 0030 012A     		cmp	r2, #1
 5747 0032 05D8     		bhi	.L402
 576:../Drivers/BSP/Components/vl53l0x/vl53l0x_api.c **** 		((ApertureSpads == 1) && (count > 32)) ||
 5748              		.loc 1 576 0 is_stmt 0 discriminator 1
 5749 0034 01D1     		bne	.L403
 577:../Drivers/BSP/Components/vl53l0x/vl53l0x_api.c **** 		((ApertureSpads == 0) && (count > 12)))
 5750              		.loc 1 577 0 is_stmt 1
 5751 0036 2029     		cmp	r1, #32
 5752 0038 02D8     		bhi	.L402
 5753              	.L403:
 577:../Drivers/BSP/Components/vl53l0x/vl53l0x_api.c **** 		((ApertureSpads == 0) && (count > 12)))
 5754              		.loc 1 577 0 is_stmt 0 discriminator 1
 5755 003a 42B9     		cbnz	r2, .L404
 578:../Drivers/BSP/Components/vl53l0x/vl53l0x_api.c **** 		Status = VL53L0X_perform_ref_spad_management(Dev, &refSpadCount,
 5756              		.loc 1 578 0 is_stmt 1
 5757 003c 0C29     		cmp	r1, #12
 5758 003e 06D9     		bls	.L404
 5759              	.L402:
 579:../Drivers/BSP/Components/vl53l0x/vl53l0x_api.c **** 			&isApertureSpads);
 5760              		.loc 1 579 0
 5761 0040 3846     		mov	r0, r7
 5762 0042 04A9     		add	r1, sp, #16
 5763              	.LVL791:
 5764 0044 05AA     		add	r2, sp, #20
 5765              	.LVL792:
 5766 0046 FFF7FEFF 		bl	VL53L0X_perform_ref_spad_management
 5767              	.LVL793:
 5768 004a 0446     		mov	r4, r0
 5769              	.LVL794:
 5770 004c 03E0     		b	.L405
 5771              	.LVL795:
 5772              	.L404:
 582:../Drivers/BSP/Components/vl53l0x/vl53l0x_api.c **** 
 5773              		.loc 1 582 0
 5774 004e 3846     		mov	r0, r7
 5775 0050 FFF7FEFF 		bl	VL53L0X_set_reference_spads
 5776              	.LVL796:
 5777 0054 0446     		mov	r4, r0
 5778              	.LVL797:
 5779              	.L405:
 588:../Drivers/BSP/Components/vl53l0x/vl53l0x_api.c **** 		UseInternalTuningSettings = PALDevDataGet(Dev,
 5780              		.loc 1 588 0
 5781 0056 2CB9     		cbnz	r4, .L426
 589:../Drivers/BSP/Components/vl53l0x/vl53l0x_api.c **** 			UseInternalTuningSettings);
ARM GAS  /tmp/ccflrS73.s 			page 156


 5782              		.loc 1 589 0
 5783 0058 97F85031 		ldrb	r3, [r7, #336]	@ zero_extendqisi2
 5784              	.LVL798:
 592:../Drivers/BSP/Components/vl53l0x/vl53l0x_api.c **** 			pTuningSettingBuffer = PALDevDataGet(Dev,
 5785              		.loc 1 592 0
 5786 005c 23B9     		cbnz	r3, .L427
 593:../Drivers/BSP/Components/vl53l0x/vl53l0x_api.c **** 				pTuningSettingsPointer);
 5787              		.loc 1 593 0
 5788 005e D7F84C11 		ldr	r1, [r7, #332]
 5789              	.LVL799:
 5790 0062 02E0     		b	.L406
 5791              	.LVL800:
 5792              	.L426:
 586:../Drivers/BSP/Components/vl53l0x/vl53l0x_api.c **** 
 5793              		.loc 1 586 0
 5794 0064 4F49     		ldr	r1, .L429
 5795 0066 00E0     		b	.L406
 5796              	.LVL801:
 5797              	.L427:
 596:../Drivers/BSP/Components/vl53l0x/vl53l0x_api.c **** 
 5798              		.loc 1 596 0
 5799 0068 4E49     		ldr	r1, .L429
 5800              	.LVL802:
 5801              	.L406:
 600:../Drivers/BSP/Components/vl53l0x/vl53l0x_api.c **** 		Status = VL53L0X_load_tuning_settings(Dev, pTuningSettingBuffer);
 5802              		.loc 1 600 0
 5803 006a 1CB9     		cbnz	r4, .L407
 601:../Drivers/BSP/Components/vl53l0x/vl53l0x_api.c **** 
 5804              		.loc 1 601 0
 5805 006c 3846     		mov	r0, r7
 5806 006e FFF7FEFF 		bl	VL53L0X_load_tuning_settings
 5807              	.LVL803:
 5808 0072 0446     		mov	r4, r0
 5809              	.LVL804:
 5810              	.L407:
 605:../Drivers/BSP/Components/vl53l0x/vl53l0x_api.c **** 		Status = VL53L0X_SetGpioConfig(Dev, 0, 0,
 5811              		.loc 1 605 0
 5812 0074 3CB9     		cbnz	r4, .L408
 606:../Drivers/BSP/Components/vl53l0x/vl53l0x_api.c **** 		VL53L0X_REG_SYSTEM_INTERRUPT_GPIO_NEW_SAMPLE_READY,
 5813              		.loc 1 606 0
 5814 0076 0022     		movs	r2, #0
 5815 0078 0092     		str	r2, [sp]
 5816 007a 3846     		mov	r0, r7
 5817 007c 1146     		mov	r1, r2
 5818 007e 0423     		movs	r3, #4
 5819 0080 FFF7FEFF 		bl	VL53L0X_SetGpioConfig
 5820              	.LVL805:
 5821 0084 0446     		mov	r4, r0
 5822              	.LVL806:
 5823              	.L408:
 611:../Drivers/BSP/Components/vl53l0x/vl53l0x_api.c **** 		Status = VL53L0X_WrByte(Dev, 0xFF, 0x01);
 5824              		.loc 1 611 0
 5825 0086 A4B9     		cbnz	r4, .L409
 612:../Drivers/BSP/Components/vl53l0x/vl53l0x_api.c **** 		Status |= VL53L0X_RdWord(Dev, 0x84, &tempword);
 5826              		.loc 1 612 0
 5827 0088 3846     		mov	r0, r7
 5828 008a FF21     		movs	r1, #255
ARM GAS  /tmp/ccflrS73.s 			page 157


 5829 008c 0122     		movs	r2, #1
 5830 008e FFF7FEFF 		bl	VL53L0X_WrByte
 5831              	.LVL807:
 5832 0092 0446     		mov	r4, r0
 5833              	.LVL808:
 613:../Drivers/BSP/Components/vl53l0x/vl53l0x_api.c **** 		Status |= VL53L0X_WrByte(Dev, 0xFF, 0x00);
 5834              		.loc 1 613 0
 5835 0094 3846     		mov	r0, r7
 5836 0096 8421     		movs	r1, #132
 5837 0098 0DF11602 		add	r2, sp, #22
 5838 009c FFF7FEFF 		bl	VL53L0X_RdWord
 5839              	.LVL809:
 5840 00a0 2043     		orrs	r0, r0, r4
 5841 00a2 C4B2     		uxtb	r4, r0
 5842              	.LVL810:
 614:../Drivers/BSP/Components/vl53l0x/vl53l0x_api.c **** 	}
 5843              		.loc 1 614 0
 5844 00a4 3846     		mov	r0, r7
 5845 00a6 FF21     		movs	r1, #255
 5846 00a8 0022     		movs	r2, #0
 5847 00aa FFF7FEFF 		bl	VL53L0X_WrByte
 5848              	.LVL811:
 5849 00ae 2043     		orrs	r0, r0, r4
 5850 00b0 C4B2     		uxtb	r4, r0
 5851              	.LVL812:
 5852              	.L409:
 617:../Drivers/BSP/Components/vl53l0x/vl53l0x_api.c **** 		VL53L0X_SETDEVICESPECIFICPARAMETER(Dev, OscFrequencyMHz,
 5853              		.loc 1 617 0
 5854 00b2 24B9     		cbnz	r4, .L410
 618:../Drivers/BSP/Components/vl53l0x/vl53l0x_api.c **** 			VL53L0X_FIXPOINT412TOFIXPOINT1616(tempword));
 5855              		.loc 1 618 0
 5856 00b4 BDF81630 		ldrh	r3, [sp, #22]
 5857 00b8 1B01     		lsls	r3, r3, #4
 5858 00ba C7F8D430 		str	r3, [r7, #212]
 5859              	.L410:
 624:../Drivers/BSP/Components/vl53l0x/vl53l0x_api.c **** 		Status = VL53L0X_GetDeviceParameters(Dev, &CurrentParameters);
 5860              		.loc 1 624 0
 5861 00be 24B9     		cbnz	r4, .L411
 625:../Drivers/BSP/Components/vl53l0x/vl53l0x_api.c **** 
 5862              		.loc 1 625 0
 5863 00c0 3846     		mov	r0, r7
 5864 00c2 06A9     		add	r1, sp, #24
 5865 00c4 FFF7FEFF 		bl	VL53L0X_GetDeviceParameters
 5866              	.LVL813:
 5867 00c8 0446     		mov	r4, r0
 5868              	.LVL814:
 5869              	.L411:
 628:../Drivers/BSP/Components/vl53l0x/vl53l0x_api.c **** 		Status = VL53L0X_GetFractionEnable(Dev, &tempbyte);
 5870              		.loc 1 628 0
 5871 00ca 54B9     		cbnz	r4, .L412
 629:../Drivers/BSP/Components/vl53l0x/vl53l0x_api.c **** 		if (Status == VL53L0X_ERROR_NONE)
 5872              		.loc 1 629 0
 5873 00cc 3846     		mov	r0, r7
 5874 00ce 0DF11501 		add	r1, sp, #21
 5875 00d2 FFF7FEFF 		bl	VL53L0X_GetFractionEnable
 5876              	.LVL815:
 630:../Drivers/BSP/Components/vl53l0x/vl53l0x_api.c **** 			PALDevDataSet(Dev, RangeFractionalEnable, tempbyte);
ARM GAS  /tmp/ccflrS73.s 			page 158


 5877              		.loc 1 630 0
 5878 00d6 0446     		mov	r4, r0
 5879 00d8 18B9     		cbnz	r0, .L412
 631:../Drivers/BSP/Components/vl53l0x/vl53l0x_api.c **** 
 5880              		.loc 1 631 0
 5881 00da 9DF81530 		ldrb	r3, [sp, #21]	@ zero_extendqisi2
 5882 00de 87F83131 		strb	r3, [r7, #305]
 5883              	.LVL816:
 5884              	.L412:
 635:../Drivers/BSP/Components/vl53l0x/vl53l0x_api.c **** 		PALDevDataSet(Dev, CurrentParameters, CurrentParameters);
 5885              		.loc 1 635 0
 5886 00e2 64B9     		cbnz	r4, .L413
 636:../Drivers/BSP/Components/vl53l0x/vl53l0x_api.c **** 
 5887              		.loc 1 636 0
 5888 00e4 07F11005 		add	r5, r7, #16
 5889 00e8 06AE     		add	r6, sp, #24
 5890 00ea 0FCE     		ldmia	r6!, {r0, r1, r2, r3}
 5891 00ec 0FC5     		stmia	r5!, {r0, r1, r2, r3}
 5892 00ee 0FCE     		ldmia	r6!, {r0, r1, r2, r3}
 5893 00f0 0FC5     		stmia	r5!, {r0, r1, r2, r3}
 5894 00f2 0FCE     		ldmia	r6!, {r0, r1, r2, r3}
 5895 00f4 0FC5     		stmia	r5!, {r0, r1, r2, r3}
 5896 00f6 96E80F00 		ldmia	r6, {r0, r1, r2, r3}
 5897 00fa 85E80F00 		stmia	r5, {r0, r1, r2, r3}
 5898              	.L413:
 640:../Drivers/BSP/Components/vl53l0x/vl53l0x_api.c **** 		Status = VL53L0X_RdByte(Dev,
 5899              		.loc 1 640 0
 5900 00fe 5CB9     		cbnz	r4, .L414
 641:../Drivers/BSP/Components/vl53l0x/vl53l0x_api.c **** 		VL53L0X_REG_SYSTEM_SEQUENCE_CONFIG, &tempbyte);
 5901              		.loc 1 641 0
 5902 0100 3846     		mov	r0, r7
 5903 0102 0121     		movs	r1, #1
 5904 0104 0DF11502 		add	r2, sp, #21
 5905 0108 FFF7FEFF 		bl	VL53L0X_RdByte
 5906              	.LVL817:
 643:../Drivers/BSP/Components/vl53l0x/vl53l0x_api.c **** 			PALDevDataSet(Dev, SequenceConfig, tempbyte);
 5907              		.loc 1 643 0
 5908 010c 0446     		mov	r4, r0
 5909 010e 18B9     		cbnz	r0, .L414
 644:../Drivers/BSP/Components/vl53l0x/vl53l0x_api.c **** 
 5910              		.loc 1 644 0
 5911 0110 9DF81530 		ldrb	r3, [sp, #21]	@ zero_extendqisi2
 5912 0114 87F83031 		strb	r3, [r7, #304]
 5913              	.LVL818:
 5914              	.L414:
 649:../Drivers/BSP/Components/vl53l0x/vl53l0x_api.c **** 		Status = VL53L0X_SetSequenceStepEnable(Dev,
 5915              		.loc 1 649 0
 5916 0118 2CB9     		cbnz	r4, .L415
 650:../Drivers/BSP/Components/vl53l0x/vl53l0x_api.c **** 					VL53L0X_SEQUENCESTEP_TCC, 0);
 5917              		.loc 1 650 0
 5918 011a 3846     		mov	r0, r7
 5919 011c 0021     		movs	r1, #0
 5920 011e 0A46     		mov	r2, r1
 5921 0120 FFF7FEFF 		bl	VL53L0X_SetSequenceStepEnable
 5922              	.LVL819:
 5923 0124 0446     		mov	r4, r0
 5924              	.LVL820:
ARM GAS  /tmp/ccflrS73.s 			page 159


 5925              	.L415:
 654:../Drivers/BSP/Components/vl53l0x/vl53l0x_api.c **** 		Status = VL53L0X_SetSequenceStepEnable(Dev,
 5926              		.loc 1 654 0
 5927 0126 2CB9     		cbnz	r4, .L416
 655:../Drivers/BSP/Components/vl53l0x/vl53l0x_api.c **** 		VL53L0X_SEQUENCESTEP_MSRC, 0);
 5928              		.loc 1 655 0
 5929 0128 3846     		mov	r0, r7
 5930 012a 0221     		movs	r1, #2
 5931 012c 0022     		movs	r2, #0
 5932 012e FFF7FEFF 		bl	VL53L0X_SetSequenceStepEnable
 5933              	.LVL821:
 5934 0132 0446     		mov	r4, r0
 5935              	.LVL822:
 5936              	.L416:
 660:../Drivers/BSP/Components/vl53l0x/vl53l0x_api.c **** 		PALDevDataSet(Dev, PalState, VL53L0X_STATE_IDLE);
 5937              		.loc 1 660 0
 5938 0134 14B9     		cbnz	r4, .L417
 661:../Drivers/BSP/Components/vl53l0x/vl53l0x_api.c **** 
 5939              		.loc 1 661 0
 5940 0136 0323     		movs	r3, #3
 5941 0138 87F83231 		strb	r3, [r7, #306]
 5942              	.L417:
 666:../Drivers/BSP/Components/vl53l0x/vl53l0x_api.c **** 		Status = VL53L0X_GetVcselPulsePeriod(
 5943              		.loc 1 666 0
 5944 013c 34B9     		cbnz	r4, .L418
 667:../Drivers/BSP/Components/vl53l0x/vl53l0x_api.c **** 			Dev,
 5945              		.loc 1 667 0
 5946 013e 3846     		mov	r0, r7
 5947 0140 0021     		movs	r1, #0
 5948 0142 0DF10F02 		add	r2, sp, #15
 5949 0146 FFF7FEFF 		bl	VL53L0X_GetVcselPulsePeriod
 5950              	.LVL823:
 5951 014a 0446     		mov	r4, r0
 5952              	.LVL824:
 5953              	.L418:
 673:../Drivers/BSP/Components/vl53l0x/vl53l0x_api.c **** 			VL53L0X_SETDEVICESPECIFICPARAMETER(
 5954              		.loc 1 673 0
 5955 014c 1CB9     		cbnz	r4, .L419
 674:../Drivers/BSP/Components/vl53l0x/vl53l0x_api.c **** 				Dev,
 5956              		.loc 1 674 0
 5957 014e 9DF80F30 		ldrb	r3, [sp, #15]	@ zero_extendqisi2
 5958 0152 87F8E830 		strb	r3, [r7, #232]
 5959              	.L419:
 681:../Drivers/BSP/Components/vl53l0x/vl53l0x_api.c **** 		Status = VL53L0X_GetVcselPulsePeriod(
 5960              		.loc 1 681 0
 5961 0156 34B9     		cbnz	r4, .L420
 682:../Drivers/BSP/Components/vl53l0x/vl53l0x_api.c **** 			Dev,
 5962              		.loc 1 682 0
 5963 0158 3846     		mov	r0, r7
 5964 015a 0121     		movs	r1, #1
 5965 015c 0DF10F02 		add	r2, sp, #15
 5966 0160 FFF7FEFF 		bl	VL53L0X_GetVcselPulsePeriod
 5967              	.LVL825:
 5968 0164 0446     		mov	r4, r0
 5969              	.LVL826:
 5970              	.L420:
 688:../Drivers/BSP/Components/vl53l0x/vl53l0x_api.c **** 			VL53L0X_SETDEVICESPECIFICPARAMETER(
ARM GAS  /tmp/ccflrS73.s 			page 160


 5971              		.loc 1 688 0
 5972 0166 1CB9     		cbnz	r4, .L421
 689:../Drivers/BSP/Components/vl53l0x/vl53l0x_api.c **** 				Dev,
 5973              		.loc 1 689 0
 5974 0168 9DF80F30 		ldrb	r3, [sp, #15]	@ zero_extendqisi2
 5975 016c 87F8E030 		strb	r3, [r7, #224]
 5976              	.L421:
 696:../Drivers/BSP/Components/vl53l0x/vl53l0x_api.c **** 		Status = get_sequence_step_timeout(
 5977              		.loc 1 696 0
 5978 0170 2CB9     		cbnz	r4, .L422
 697:../Drivers/BSP/Components/vl53l0x/vl53l0x_api.c **** 			Dev,
 5979              		.loc 1 697 0
 5980 0172 3846     		mov	r0, r7
 5981 0174 0321     		movs	r1, #3
 5982 0176 02AA     		add	r2, sp, #8
 5983 0178 FFF7FEFF 		bl	get_sequence_step_timeout
 5984              	.LVL827:
 5985 017c 0446     		mov	r4, r0
 5986              	.LVL828:
 5987              	.L422:
 703:../Drivers/BSP/Components/vl53l0x/vl53l0x_api.c **** 		VL53L0X_SETDEVICESPECIFICPARAMETER(
 5988              		.loc 1 703 0
 5989 017e 14B9     		cbnz	r4, .L423
 704:../Drivers/BSP/Components/vl53l0x/vl53l0x_api.c **** 			Dev,
 5990              		.loc 1 704 0
 5991 0180 029B     		ldr	r3, [sp, #8]
 5992 0182 C7F8E430 		str	r3, [r7, #228]
 5993              	.L423:
 711:../Drivers/BSP/Components/vl53l0x/vl53l0x_api.c **** 		Status = get_sequence_step_timeout(
 5994              		.loc 1 711 0
 5995 0186 2CB9     		cbnz	r4, .L424
 712:../Drivers/BSP/Components/vl53l0x/vl53l0x_api.c **** 			Dev,
 5996              		.loc 1 712 0
 5997 0188 3846     		mov	r0, r7
 5998 018a 0421     		movs	r1, #4
 5999 018c 02AA     		add	r2, sp, #8
 6000 018e FFF7FEFF 		bl	get_sequence_step_timeout
 6001              	.LVL829:
 6002 0192 0446     		mov	r4, r0
 6003              	.LVL830:
 6004              	.L424:
 718:../Drivers/BSP/Components/vl53l0x/vl53l0x_api.c **** 		VL53L0X_SETDEVICESPECIFICPARAMETER(
 6005              		.loc 1 718 0
 6006 0194 14B9     		cbnz	r4, .L425
 719:../Drivers/BSP/Components/vl53l0x/vl53l0x_api.c **** 			Dev,
 6007              		.loc 1 719 0
 6008 0196 029B     		ldr	r3, [sp, #8]
 6009 0198 C7F8DC30 		str	r3, [r7, #220]
 6010              	.L425:
 727:../Drivers/BSP/Components/vl53l0x/vl53l0x_api.c **** 
 6011              		.loc 1 727 0
 6012 019c 60B2     		sxtb	r0, r4
 6013 019e 17B0     		add	sp, sp, #92
 6014              	.LCFI119:
 6015              		.cfi_def_cfa_offset 20
 6016              		@ sp needed
 6017 01a0 F0BD     		pop	{r4, r5, r6, r7, pc}
ARM GAS  /tmp/ccflrS73.s 			page 161


 6018              	.LVL831:
 6019              	.L430:
 6020 01a2 00BF     		.align	2
 6021              	.L429:
 6022 01a4 00000000 		.word	.LANCHOR1
 6023              		.cfi_endproc
 6024              	.LFE135:
 6026              		.section	.text.VL53L0X_SetPowerMode,"ax",%progbits
 6027              		.align	2
 6028              		.global	VL53L0X_SetPowerMode
 6029              		.thumb
 6030              		.thumb_func
 6032              	VL53L0X_SetPowerMode:
 6033              	.LFB122:
 194:../Drivers/BSP/Components/vl53l0x/vl53l0x_api.c **** 	VL53L0X_Error Status = VL53L0X_ERROR_NONE;
 6034              		.loc 1 194 0
 6035              		.cfi_startproc
 6036              		@ args = 0, pretend = 0, frame = 0
 6037              		@ frame_needed = 0, uses_anonymous_args = 0
 6038              	.LVL832:
 6039 0000 10B5     		push	{r4, lr}
 6040              	.LCFI120:
 6041              		.cfi_def_cfa_offset 8
 6042              		.cfi_offset 4, -8
 6043              		.cfi_offset 14, -4
 6044              	.LVL833:
 199:../Drivers/BSP/Components/vl53l0x/vl53l0x_api.c **** 		&& (PowerMode != VL53L0X_POWERMODE_IDLE_LEVEL1)) {
 6045              		.loc 1 199 0
 6046 0002 0B46     		mov	r3, r1
 6047 0004 09B1     		cbz	r1, .L432
 200:../Drivers/BSP/Components/vl53l0x/vl53l0x_api.c **** 		Status = VL53L0X_ERROR_MODE_NOT_SUPPORTED;
 6048              		.loc 1 200 0
 6049 0006 0229     		cmp	r1, #2
 6050 0008 1DD1     		bne	.L436
 6051              	.L432:
 6052 000a 0446     		mov	r4, r0
 202:../Drivers/BSP/Components/vl53l0x/vl53l0x_api.c **** 		/* set the standby level1 of power mode */
 6053              		.loc 1 202 0
 6054 000c 63B9     		cbnz	r3, .L434
 204:../Drivers/BSP/Components/vl53l0x/vl53l0x_api.c **** 		if (Status == VL53L0X_ERROR_NONE) {
 6055              		.loc 1 204 0
 6056 000e 8021     		movs	r1, #128
 6057              	.LVL834:
 6058 0010 0022     		movs	r2, #0
 6059 0012 FFF7FEFF 		bl	VL53L0X_WrByte
 6060              	.LVL835:
 205:../Drivers/BSP/Components/vl53l0x/vl53l0x_api.c **** 			/* Set PAL State to standby */
 6061              		.loc 1 205 0
 6062 0016 0346     		mov	r3, r0
 6063 0018 B0B9     		cbnz	r0, .L433
 207:../Drivers/BSP/Components/vl53l0x/vl53l0x_api.c **** 			PALDevDataSet(Dev, PowerMode,
 6064              		.loc 1 207 0
 6065 001a 0222     		movs	r2, #2
 6066 001c 84F83221 		strb	r2, [r4, #306]
 208:../Drivers/BSP/Components/vl53l0x/vl53l0x_api.c **** 				VL53L0X_POWERMODE_STANDBY_LEVEL1);
 6067              		.loc 1 208 0
 6068 0020 0022     		movs	r2, #0
ARM GAS  /tmp/ccflrS73.s 			page 162


 6069 0022 84F83321 		strb	r2, [r4, #307]
 6070 0026 0FE0     		b	.L433
 6071              	.LVL836:
 6072              	.L434:
 214:../Drivers/BSP/Components/vl53l0x/vl53l0x_api.c **** 		if (Status == VL53L0X_ERROR_NONE)
 6073              		.loc 1 214 0
 6074 0028 8021     		movs	r1, #128
 6075              	.LVL837:
 6076 002a 0022     		movs	r2, #0
 6077 002c FFF7FEFF 		bl	VL53L0X_WrByte
 6078              	.LVL838:
 215:../Drivers/BSP/Components/vl53l0x/vl53l0x_api.c **** 			Status = VL53L0X_StaticInit(Dev);
 6079              		.loc 1 215 0
 6080 0030 0346     		mov	r3, r0
 6081 0032 18B9     		cbnz	r0, .L435
 216:../Drivers/BSP/Components/vl53l0x/vl53l0x_api.c **** 
 6082              		.loc 1 216 0
 6083 0034 2046     		mov	r0, r4
 6084              	.LVL839:
 6085 0036 FFF7FEFF 		bl	VL53L0X_StaticInit
 6086              	.LVL840:
 6087 003a 0346     		mov	r3, r0
 6088              	.LVL841:
 6089              	.L435:
 218:../Drivers/BSP/Components/vl53l0x/vl53l0x_api.c **** 			PALDevDataSet(Dev, PowerMode,
 6090              		.loc 1 218 0
 6091 003c 23B9     		cbnz	r3, .L433
 219:../Drivers/BSP/Components/vl53l0x/vl53l0x_api.c **** 				VL53L0X_POWERMODE_IDLE_LEVEL1);
 6092              		.loc 1 219 0
 6093 003e 0222     		movs	r2, #2
 6094 0040 84F83321 		strb	r2, [r4, #307]
 6095 0044 00E0     		b	.L433
 6096              	.LVL842:
 6097              	.L436:
 201:../Drivers/BSP/Components/vl53l0x/vl53l0x_api.c **** 	} else if (PowerMode == VL53L0X_POWERMODE_STANDBY_LEVEL1) {
 6098              		.loc 1 201 0
 6099 0046 F823     		movs	r3, #248
 6100              	.LVL843:
 6101              	.L433:
 226:../Drivers/BSP/Components/vl53l0x/vl53l0x_api.c **** 
 6102              		.loc 1 226 0
 6103 0048 58B2     		sxtb	r0, r3
 6104 004a 10BD     		pop	{r4, pc}
 6105              		.cfi_endproc
 6106              	.LFE122:
 6108              		.section	.text.VL53L0X_GetInterruptMaskStatus,"ax",%progbits
 6109              		.align	2
 6110              		.global	VL53L0X_GetInterruptMaskStatus
 6111              		.thumb
 6112              		.thumb_func
 6114              	VL53L0X_GetInterruptMaskStatus:
 6115              	.LFB202:
2897:../Drivers/BSP/Components/vl53l0x/vl53l0x_api.c **** 
2898:../Drivers/BSP/Components/vl53l0x/vl53l0x_api.c **** VL53L0X_Error VL53L0X_GetInterruptMaskStatus(VL53L0X_DEV Dev,
2899:../Drivers/BSP/Components/vl53l0x/vl53l0x_api.c **** 	uint32_t *pInterruptMaskStatus)
2900:../Drivers/BSP/Components/vl53l0x/vl53l0x_api.c **** {
 6116              		.loc 1 2900 0
ARM GAS  /tmp/ccflrS73.s 			page 163


 6117              		.cfi_startproc
 6118              		@ args = 0, pretend = 0, frame = 8
 6119              		@ frame_needed = 0, uses_anonymous_args = 0
 6120              	.LVL844:
 6121 0000 10B5     		push	{r4, lr}
 6122              	.LCFI121:
 6123              		.cfi_def_cfa_offset 8
 6124              		.cfi_offset 4, -8
 6125              		.cfi_offset 14, -4
 6126 0002 82B0     		sub	sp, sp, #8
 6127              	.LCFI122:
 6128              		.cfi_def_cfa_offset 16
 6129 0004 0C46     		mov	r4, r1
 6130              	.LVL845:
2901:../Drivers/BSP/Components/vl53l0x/vl53l0x_api.c **** 	VL53L0X_Error Status = VL53L0X_ERROR_NONE;
2902:../Drivers/BSP/Components/vl53l0x/vl53l0x_api.c **** 	uint8_t Byte;
2903:../Drivers/BSP/Components/vl53l0x/vl53l0x_api.c **** 	LOG_FUNCTION_START("");
2904:../Drivers/BSP/Components/vl53l0x/vl53l0x_api.c **** 
2905:../Drivers/BSP/Components/vl53l0x/vl53l0x_api.c **** 	Status = VL53L0X_RdByte(Dev, VL53L0X_REG_RESULT_INTERRUPT_STATUS, &Byte);
 6131              		.loc 1 2905 0
 6132 0006 1321     		movs	r1, #19
 6133              	.LVL846:
 6134 0008 0DF10702 		add	r2, sp, #7
 6135 000c FFF7FEFF 		bl	VL53L0X_RdByte
 6136              	.LVL847:
2906:../Drivers/BSP/Components/vl53l0x/vl53l0x_api.c **** 	*pInterruptMaskStatus = Byte & 0x07;
 6137              		.loc 1 2906 0
 6138 0010 9DF80730 		ldrb	r3, [sp, #7]	@ zero_extendqisi2
 6139 0014 03F00702 		and	r2, r3, #7
 6140 0018 2260     		str	r2, [r4]
2907:../Drivers/BSP/Components/vl53l0x/vl53l0x_api.c **** 
2908:../Drivers/BSP/Components/vl53l0x/vl53l0x_api.c **** 	if (Byte & 0x18)
 6141              		.loc 1 2908 0
 6142 001a 13F0180F 		tst	r3, #24
 6143 001e 00D0     		beq	.L439
2909:../Drivers/BSP/Components/vl53l0x/vl53l0x_api.c **** 		Status = VL53L0X_ERROR_RANGE_ERROR;
 6144              		.loc 1 2909 0
 6145 0020 FA20     		movs	r0, #250
 6146              	.LVL848:
 6147              	.L439:
2910:../Drivers/BSP/Components/vl53l0x/vl53l0x_api.c **** 
2911:../Drivers/BSP/Components/vl53l0x/vl53l0x_api.c **** 	LOG_FUNCTION_END(Status);
2912:../Drivers/BSP/Components/vl53l0x/vl53l0x_api.c **** 	return Status;
2913:../Drivers/BSP/Components/vl53l0x/vl53l0x_api.c **** }
 6148              		.loc 1 2913 0
 6149 0022 40B2     		sxtb	r0, r0
 6150 0024 02B0     		add	sp, sp, #8
 6151              	.LCFI123:
 6152              		.cfi_def_cfa_offset 8
 6153              		@ sp needed
 6154 0026 10BD     		pop	{r4, pc}
 6155              		.cfi_endproc
 6156              	.LFE202:
 6158              		.section	.text.VL53L0X_GetMeasurementDataReady,"ax",%progbits
 6159              		.align	2
 6160              		.global	VL53L0X_GetMeasurementDataReady
 6161              		.thumb
ARM GAS  /tmp/ccflrS73.s 			page 164


 6162              		.thumb_func
 6164              	VL53L0X_GetMeasurementDataReady:
 6165              	.LFB187:
2318:../Drivers/BSP/Components/vl53l0x/vl53l0x_api.c **** 	VL53L0X_Error Status = VL53L0X_ERROR_NONE;
 6166              		.loc 1 2318 0
 6167              		.cfi_startproc
 6168              		@ args = 0, pretend = 0, frame = 8
 6169              		@ frame_needed = 0, uses_anonymous_args = 0
 6170              	.LVL849:
 6171 0000 10B5     		push	{r4, lr}
 6172              	.LCFI124:
 6173              		.cfi_def_cfa_offset 8
 6174              		.cfi_offset 4, -8
 6175              		.cfi_offset 14, -4
 6176 0002 82B0     		sub	sp, sp, #8
 6177              	.LCFI125:
 6178              		.cfi_def_cfa_offset 16
 6179 0004 0C46     		mov	r4, r1
 6180              	.LVL850:
2325:../Drivers/BSP/Components/vl53l0x/vl53l0x_api.c **** 		Pin0GpioFunctionality);
 6181              		.loc 1 2325 0
 6182 0006 90F8DA30 		ldrb	r3, [r0, #218]	@ zero_extendqisi2
 6183              	.LVL851:
2328:../Drivers/BSP/Components/vl53l0x/vl53l0x_api.c **** 		VL53L0X_REG_SYSTEM_INTERRUPT_GPIO_NEW_SAMPLE_READY) {
 6184              		.loc 1 2328 0
 6185 000a 042B     		cmp	r3, #4
 6186 000c 0CD1     		bne	.L443
2330:../Drivers/BSP/Components/vl53l0x/vl53l0x_api.c **** 		if (InterruptMask ==
 6187              		.loc 1 2330 0
 6188 000e 6946     		mov	r1, sp
 6189              	.LVL852:
 6190 0010 FFF7FEFF 		bl	VL53L0X_GetInterruptMaskStatus
 6191              	.LVL853:
 6192 0014 0346     		mov	r3, r0
 6193              	.LVL854:
2331:../Drivers/BSP/Components/vl53l0x/vl53l0x_api.c **** 		VL53L0X_REG_SYSTEM_INTERRUPT_GPIO_NEW_SAMPLE_READY)
 6194              		.loc 1 2331 0
 6195 0016 009A     		ldr	r2, [sp]
 6196 0018 042A     		cmp	r2, #4
 6197 001a 02D1     		bne	.L444
2333:../Drivers/BSP/Components/vl53l0x/vl53l0x_api.c **** 		else
 6198              		.loc 1 2333 0
 6199 001c 0122     		movs	r2, #1
 6200 001e 2270     		strb	r2, [r4]
 6201 0020 13E0     		b	.L445
 6202              	.L444:
2335:../Drivers/BSP/Components/vl53l0x/vl53l0x_api.c **** 	} else {
 6203              		.loc 1 2335 0
 6204 0022 0022     		movs	r2, #0
 6205 0024 2270     		strb	r2, [r4]
 6206 0026 10E0     		b	.L445
 6207              	.LVL855:
 6208              	.L443:
2337:../Drivers/BSP/Components/vl53l0x/vl53l0x_api.c **** 			&SysRangeStatusRegister);
 6209              		.loc 1 2337 0
 6210 0028 1421     		movs	r1, #20
 6211              	.LVL856:
ARM GAS  /tmp/ccflrS73.s 			page 165


 6212 002a 0DF10702 		add	r2, sp, #7
 6213 002e FFF7FEFF 		bl	VL53L0X_RdByte
 6214              	.LVL857:
2339:../Drivers/BSP/Components/vl53l0x/vl53l0x_api.c **** 			if (SysRangeStatusRegister & 0x01)
 6215              		.loc 1 2339 0
 6216 0032 0346     		mov	r3, r0
 6217 0034 48B9     		cbnz	r0, .L445
2340:../Drivers/BSP/Components/vl53l0x/vl53l0x_api.c **** 				*pMeasurementDataReady = 1;
 6218              		.loc 1 2340 0
 6219 0036 9DF80720 		ldrb	r2, [sp, #7]	@ zero_extendqisi2
 6220 003a 12F0010F 		tst	r2, #1
 6221 003e 02D0     		beq	.L446
2341:../Drivers/BSP/Components/vl53l0x/vl53l0x_api.c **** 			else
 6222              		.loc 1 2341 0
 6223 0040 0122     		movs	r2, #1
 6224 0042 2270     		strb	r2, [r4]
 6225 0044 01E0     		b	.L445
 6226              	.L446:
2343:../Drivers/BSP/Components/vl53l0x/vl53l0x_api.c **** 		}
 6227              		.loc 1 2343 0
 6228 0046 0022     		movs	r2, #0
 6229 0048 2270     		strb	r2, [r4]
 6230              	.LVL858:
 6231              	.L445:
2349:../Drivers/BSP/Components/vl53l0x/vl53l0x_api.c **** 
 6232              		.loc 1 2349 0
 6233 004a 58B2     		sxtb	r0, r3
 6234 004c 02B0     		add	sp, sp, #8
 6235              	.LCFI126:
 6236              		.cfi_def_cfa_offset 8
 6237              		@ sp needed
 6238 004e 10BD     		pop	{r4, pc}
 6239              		.cfi_endproc
 6240              	.LFE187:
 6242              		.section	.text.VL53L0X_EnableInterruptMask,"ax",%progbits
 6243              		.align	2
 6244              		.global	VL53L0X_EnableInterruptMask
 6245              		.thumb
 6246              		.thumb_func
 6248              	VL53L0X_EnableInterruptMask:
 6249              	.LFB203:
2914:../Drivers/BSP/Components/vl53l0x/vl53l0x_api.c **** 
2915:../Drivers/BSP/Components/vl53l0x/vl53l0x_api.c **** VL53L0X_Error VL53L0X_EnableInterruptMask(VL53L0X_DEV Dev, uint32_t InterruptMask)
2916:../Drivers/BSP/Components/vl53l0x/vl53l0x_api.c **** {
 6250              		.loc 1 2916 0
 6251              		.cfi_startproc
 6252              		@ args = 0, pretend = 0, frame = 0
 6253              		@ frame_needed = 0, uses_anonymous_args = 0
 6254              		@ link register save eliminated.
 6255              	.LVL859:
2917:../Drivers/BSP/Components/vl53l0x/vl53l0x_api.c **** 	VL53L0X_Error Status = VL53L0X_ERROR_NOT_IMPLEMENTED;
2918:../Drivers/BSP/Components/vl53l0x/vl53l0x_api.c **** 	LOG_FUNCTION_START("");
2919:../Drivers/BSP/Components/vl53l0x/vl53l0x_api.c **** 
2920:../Drivers/BSP/Components/vl53l0x/vl53l0x_api.c **** 	/* not implemented for VL53L0X */
2921:../Drivers/BSP/Components/vl53l0x/vl53l0x_api.c **** 
2922:../Drivers/BSP/Components/vl53l0x/vl53l0x_api.c **** 	LOG_FUNCTION_END(Status);
2923:../Drivers/BSP/Components/vl53l0x/vl53l0x_api.c **** 	return Status;
ARM GAS  /tmp/ccflrS73.s 			page 166


2924:../Drivers/BSP/Components/vl53l0x/vl53l0x_api.c **** }
 6256              		.loc 1 2924 0
 6257 0000 6FF06200 		mvn	r0, #98
 6258              	.LVL860:
 6259 0004 7047     		bx	lr
 6260              		.cfi_endproc
 6261              	.LFE203:
 6263 0006 00BF     		.section	.text.VL53L0X_SetSpadAmbientDamperThreshold,"ax",%progbits
 6264              		.align	2
 6265              		.global	VL53L0X_SetSpadAmbientDamperThreshold
 6266              		.thumb
 6267              		.thumb_func
 6269              	VL53L0X_SetSpadAmbientDamperThreshold:
 6270              	.LFB204:
2925:../Drivers/BSP/Components/vl53l0x/vl53l0x_api.c **** 
2926:../Drivers/BSP/Components/vl53l0x/vl53l0x_api.c **** /* End Group PAL Interrupt Functions */
2927:../Drivers/BSP/Components/vl53l0x/vl53l0x_api.c **** 
2928:../Drivers/BSP/Components/vl53l0x/vl53l0x_api.c **** /* Group SPAD functions */
2929:../Drivers/BSP/Components/vl53l0x/vl53l0x_api.c **** 
2930:../Drivers/BSP/Components/vl53l0x/vl53l0x_api.c **** VL53L0X_Error VL53L0X_SetSpadAmbientDamperThreshold(VL53L0X_DEV Dev,
2931:../Drivers/BSP/Components/vl53l0x/vl53l0x_api.c **** 	uint16_t SpadAmbientDamperThreshold)
2932:../Drivers/BSP/Components/vl53l0x/vl53l0x_api.c **** {
 6271              		.loc 1 2932 0
 6272              		.cfi_startproc
 6273              		@ args = 0, pretend = 0, frame = 0
 6274              		@ frame_needed = 0, uses_anonymous_args = 0
 6275              	.LVL861:
 6276 0000 70B5     		push	{r4, r5, r6, lr}
 6277              	.LCFI127:
 6278              		.cfi_def_cfa_offset 16
 6279              		.cfi_offset 4, -16
 6280              		.cfi_offset 5, -12
 6281              		.cfi_offset 6, -8
 6282              		.cfi_offset 14, -4
 6283 0002 0546     		mov	r5, r0
 6284 0004 0E46     		mov	r6, r1
 6285              	.LVL862:
2933:../Drivers/BSP/Components/vl53l0x/vl53l0x_api.c **** 	VL53L0X_Error Status = VL53L0X_ERROR_NONE;
2934:../Drivers/BSP/Components/vl53l0x/vl53l0x_api.c **** 	LOG_FUNCTION_START("");
2935:../Drivers/BSP/Components/vl53l0x/vl53l0x_api.c **** 
2936:../Drivers/BSP/Components/vl53l0x/vl53l0x_api.c **** 	Status = VL53L0X_WrByte(Dev, 0xFF, 0x01);
 6286              		.loc 1 2936 0
 6287 0006 FF21     		movs	r1, #255
 6288              	.LVL863:
 6289 0008 0122     		movs	r2, #1
 6290 000a FFF7FEFF 		bl	VL53L0X_WrByte
 6291              	.LVL864:
 6292 000e 0446     		mov	r4, r0
 6293              	.LVL865:
2937:../Drivers/BSP/Components/vl53l0x/vl53l0x_api.c **** 	Status |= VL53L0X_WrWord(Dev, 0x40, SpadAmbientDamperThreshold);
 6294              		.loc 1 2937 0
 6295 0010 2846     		mov	r0, r5
 6296 0012 4021     		movs	r1, #64
 6297 0014 3246     		mov	r2, r6
 6298 0016 FFF7FEFF 		bl	VL53L0X_WrWord
 6299              	.LVL866:
 6300 001a 2043     		orrs	r0, r0, r4
ARM GAS  /tmp/ccflrS73.s 			page 167


 6301 001c C4B2     		uxtb	r4, r0
 6302              	.LVL867:
2938:../Drivers/BSP/Components/vl53l0x/vl53l0x_api.c **** 	Status |= VL53L0X_WrByte(Dev, 0xFF, 0x00);
 6303              		.loc 1 2938 0
 6304 001e 2846     		mov	r0, r5
 6305 0020 FF21     		movs	r1, #255
 6306 0022 0022     		movs	r2, #0
 6307 0024 FFF7FEFF 		bl	VL53L0X_WrByte
 6308              	.LVL868:
 6309 0028 2043     		orrs	r0, r0, r4
 6310              	.LVL869:
2939:../Drivers/BSP/Components/vl53l0x/vl53l0x_api.c **** 
2940:../Drivers/BSP/Components/vl53l0x/vl53l0x_api.c **** 	LOG_FUNCTION_END(Status);
2941:../Drivers/BSP/Components/vl53l0x/vl53l0x_api.c **** 	return Status;
2942:../Drivers/BSP/Components/vl53l0x/vl53l0x_api.c **** }
 6311              		.loc 1 2942 0
 6312 002a 40B2     		sxtb	r0, r0
 6313 002c 70BD     		pop	{r4, r5, r6, pc}
 6314              		.cfi_endproc
 6315              	.LFE204:
 6317 002e 00BF     		.section	.text.VL53L0X_GetSpadAmbientDamperThreshold,"ax",%progbits
 6318              		.align	2
 6319              		.global	VL53L0X_GetSpadAmbientDamperThreshold
 6320              		.thumb
 6321              		.thumb_func
 6323              	VL53L0X_GetSpadAmbientDamperThreshold:
 6324              	.LFB205:
2943:../Drivers/BSP/Components/vl53l0x/vl53l0x_api.c **** 
2944:../Drivers/BSP/Components/vl53l0x/vl53l0x_api.c **** VL53L0X_Error VL53L0X_GetSpadAmbientDamperThreshold(VL53L0X_DEV Dev,
2945:../Drivers/BSP/Components/vl53l0x/vl53l0x_api.c **** 	uint16_t *pSpadAmbientDamperThreshold)
2946:../Drivers/BSP/Components/vl53l0x/vl53l0x_api.c **** {
 6325              		.loc 1 2946 0
 6326              		.cfi_startproc
 6327              		@ args = 0, pretend = 0, frame = 0
 6328              		@ frame_needed = 0, uses_anonymous_args = 0
 6329              	.LVL870:
 6330 0000 70B5     		push	{r4, r5, r6, lr}
 6331              	.LCFI128:
 6332              		.cfi_def_cfa_offset 16
 6333              		.cfi_offset 4, -16
 6334              		.cfi_offset 5, -12
 6335              		.cfi_offset 6, -8
 6336              		.cfi_offset 14, -4
 6337 0002 0546     		mov	r5, r0
 6338 0004 0E46     		mov	r6, r1
 6339              	.LVL871:
2947:../Drivers/BSP/Components/vl53l0x/vl53l0x_api.c **** 	VL53L0X_Error Status = VL53L0X_ERROR_NONE;
2948:../Drivers/BSP/Components/vl53l0x/vl53l0x_api.c **** 	LOG_FUNCTION_START("");
2949:../Drivers/BSP/Components/vl53l0x/vl53l0x_api.c **** 
2950:../Drivers/BSP/Components/vl53l0x/vl53l0x_api.c **** 	Status = VL53L0X_WrByte(Dev, 0xFF, 0x01);
 6340              		.loc 1 2950 0
 6341 0006 FF21     		movs	r1, #255
 6342              	.LVL872:
 6343 0008 0122     		movs	r2, #1
 6344 000a FFF7FEFF 		bl	VL53L0X_WrByte
 6345              	.LVL873:
 6346 000e 0446     		mov	r4, r0
ARM GAS  /tmp/ccflrS73.s 			page 168


 6347              	.LVL874:
2951:../Drivers/BSP/Components/vl53l0x/vl53l0x_api.c **** 	Status |= VL53L0X_RdWord(Dev, 0x40, pSpadAmbientDamperThreshold);
 6348              		.loc 1 2951 0
 6349 0010 2846     		mov	r0, r5
 6350 0012 4021     		movs	r1, #64
 6351 0014 3246     		mov	r2, r6
 6352 0016 FFF7FEFF 		bl	VL53L0X_RdWord
 6353              	.LVL875:
 6354 001a 2043     		orrs	r0, r0, r4
 6355 001c C4B2     		uxtb	r4, r0
 6356              	.LVL876:
2952:../Drivers/BSP/Components/vl53l0x/vl53l0x_api.c **** 	Status |= VL53L0X_WrByte(Dev, 0xFF, 0x00);
 6357              		.loc 1 2952 0
 6358 001e 2846     		mov	r0, r5
 6359 0020 FF21     		movs	r1, #255
 6360 0022 0022     		movs	r2, #0
 6361 0024 FFF7FEFF 		bl	VL53L0X_WrByte
 6362              	.LVL877:
 6363 0028 2043     		orrs	r0, r0, r4
 6364              	.LVL878:
2953:../Drivers/BSP/Components/vl53l0x/vl53l0x_api.c **** 
2954:../Drivers/BSP/Components/vl53l0x/vl53l0x_api.c **** 	LOG_FUNCTION_END(Status);
2955:../Drivers/BSP/Components/vl53l0x/vl53l0x_api.c **** 	return Status;
2956:../Drivers/BSP/Components/vl53l0x/vl53l0x_api.c **** }
 6365              		.loc 1 2956 0
 6366 002a 40B2     		sxtb	r0, r0
 6367 002c 70BD     		pop	{r4, r5, r6, pc}
 6368              		.cfi_endproc
 6369              	.LFE205:
 6371 002e 00BF     		.section	.text.VL53L0X_SetSpadAmbientDamperFactor,"ax",%progbits
 6372              		.align	2
 6373              		.global	VL53L0X_SetSpadAmbientDamperFactor
 6374              		.thumb
 6375              		.thumb_func
 6377              	VL53L0X_SetSpadAmbientDamperFactor:
 6378              	.LFB206:
2957:../Drivers/BSP/Components/vl53l0x/vl53l0x_api.c **** 
2958:../Drivers/BSP/Components/vl53l0x/vl53l0x_api.c **** VL53L0X_Error VL53L0X_SetSpadAmbientDamperFactor(VL53L0X_DEV Dev,
2959:../Drivers/BSP/Components/vl53l0x/vl53l0x_api.c **** 	uint16_t SpadAmbientDamperFactor)
2960:../Drivers/BSP/Components/vl53l0x/vl53l0x_api.c **** {
 6379              		.loc 1 2960 0
 6380              		.cfi_startproc
 6381              		@ args = 0, pretend = 0, frame = 0
 6382              		@ frame_needed = 0, uses_anonymous_args = 0
 6383              	.LVL879:
 6384 0000 70B5     		push	{r4, r5, r6, lr}
 6385              	.LCFI129:
 6386              		.cfi_def_cfa_offset 16
 6387              		.cfi_offset 4, -16
 6388              		.cfi_offset 5, -12
 6389              		.cfi_offset 6, -8
 6390              		.cfi_offset 14, -4
 6391 0002 0546     		mov	r5, r0
 6392              	.LVL880:
2961:../Drivers/BSP/Components/vl53l0x/vl53l0x_api.c **** 	VL53L0X_Error Status = VL53L0X_ERROR_NONE;
2962:../Drivers/BSP/Components/vl53l0x/vl53l0x_api.c **** 	uint8_t Byte;
2963:../Drivers/BSP/Components/vl53l0x/vl53l0x_api.c **** 	LOG_FUNCTION_START("");
ARM GAS  /tmp/ccflrS73.s 			page 169


2964:../Drivers/BSP/Components/vl53l0x/vl53l0x_api.c **** 
2965:../Drivers/BSP/Components/vl53l0x/vl53l0x_api.c **** 	Byte = (uint8_t)(SpadAmbientDamperFactor & 0x00FF);
 6393              		.loc 1 2965 0
 6394 0004 CEB2     		uxtb	r6, r1
 6395              	.LVL881:
2966:../Drivers/BSP/Components/vl53l0x/vl53l0x_api.c **** 
2967:../Drivers/BSP/Components/vl53l0x/vl53l0x_api.c **** 	Status = VL53L0X_WrByte(Dev, 0xFF, 0x01);
 6396              		.loc 1 2967 0
 6397 0006 FF21     		movs	r1, #255
 6398              	.LVL882:
 6399 0008 0122     		movs	r2, #1
 6400 000a FFF7FEFF 		bl	VL53L0X_WrByte
 6401              	.LVL883:
 6402 000e 0446     		mov	r4, r0
 6403              	.LVL884:
2968:../Drivers/BSP/Components/vl53l0x/vl53l0x_api.c **** 	Status |= VL53L0X_WrByte(Dev, 0x42, Byte);
 6404              		.loc 1 2968 0
 6405 0010 2846     		mov	r0, r5
 6406 0012 4221     		movs	r1, #66
 6407 0014 3246     		mov	r2, r6
 6408 0016 FFF7FEFF 		bl	VL53L0X_WrByte
 6409              	.LVL885:
 6410 001a 2043     		orrs	r0, r0, r4
 6411 001c C4B2     		uxtb	r4, r0
 6412              	.LVL886:
2969:../Drivers/BSP/Components/vl53l0x/vl53l0x_api.c **** 	Status |= VL53L0X_WrByte(Dev, 0xFF, 0x00);
 6413              		.loc 1 2969 0
 6414 001e 2846     		mov	r0, r5
 6415 0020 FF21     		movs	r1, #255
 6416 0022 0022     		movs	r2, #0
 6417 0024 FFF7FEFF 		bl	VL53L0X_WrByte
 6418              	.LVL887:
 6419 0028 2043     		orrs	r0, r0, r4
 6420              	.LVL888:
2970:../Drivers/BSP/Components/vl53l0x/vl53l0x_api.c **** 
2971:../Drivers/BSP/Components/vl53l0x/vl53l0x_api.c **** 	LOG_FUNCTION_END(Status);
2972:../Drivers/BSP/Components/vl53l0x/vl53l0x_api.c **** 	return Status;
2973:../Drivers/BSP/Components/vl53l0x/vl53l0x_api.c **** }
 6421              		.loc 1 2973 0
 6422 002a 40B2     		sxtb	r0, r0
 6423 002c 70BD     		pop	{r4, r5, r6, pc}
 6424              		.cfi_endproc
 6425              	.LFE206:
 6427 002e 00BF     		.section	.text.VL53L0X_GetSpadAmbientDamperFactor,"ax",%progbits
 6428              		.align	2
 6429              		.global	VL53L0X_GetSpadAmbientDamperFactor
 6430              		.thumb
 6431              		.thumb_func
 6433              	VL53L0X_GetSpadAmbientDamperFactor:
 6434              	.LFB207:
2974:../Drivers/BSP/Components/vl53l0x/vl53l0x_api.c **** 
2975:../Drivers/BSP/Components/vl53l0x/vl53l0x_api.c **** VL53L0X_Error VL53L0X_GetSpadAmbientDamperFactor(VL53L0X_DEV Dev,
2976:../Drivers/BSP/Components/vl53l0x/vl53l0x_api.c **** 	uint16_t *pSpadAmbientDamperFactor)
2977:../Drivers/BSP/Components/vl53l0x/vl53l0x_api.c **** {
 6435              		.loc 1 2977 0
 6436              		.cfi_startproc
 6437              		@ args = 0, pretend = 0, frame = 8
ARM GAS  /tmp/ccflrS73.s 			page 170


 6438              		@ frame_needed = 0, uses_anonymous_args = 0
 6439              	.LVL889:
 6440 0000 70B5     		push	{r4, r5, r6, lr}
 6441              	.LCFI130:
 6442              		.cfi_def_cfa_offset 16
 6443              		.cfi_offset 4, -16
 6444              		.cfi_offset 5, -12
 6445              		.cfi_offset 6, -8
 6446              		.cfi_offset 14, -4
 6447 0002 82B0     		sub	sp, sp, #8
 6448              	.LCFI131:
 6449              		.cfi_def_cfa_offset 24
 6450 0004 0546     		mov	r5, r0
 6451 0006 0E46     		mov	r6, r1
 6452              	.LVL890:
2978:../Drivers/BSP/Components/vl53l0x/vl53l0x_api.c **** 	VL53L0X_Error Status = VL53L0X_ERROR_NONE;
2979:../Drivers/BSP/Components/vl53l0x/vl53l0x_api.c **** 	uint8_t Byte;
2980:../Drivers/BSP/Components/vl53l0x/vl53l0x_api.c **** 	LOG_FUNCTION_START("");
2981:../Drivers/BSP/Components/vl53l0x/vl53l0x_api.c **** 
2982:../Drivers/BSP/Components/vl53l0x/vl53l0x_api.c **** 	Status = VL53L0X_WrByte(Dev, 0xFF, 0x01);
 6453              		.loc 1 2982 0
 6454 0008 FF21     		movs	r1, #255
 6455              	.LVL891:
 6456 000a 0122     		movs	r2, #1
 6457 000c FFF7FEFF 		bl	VL53L0X_WrByte
 6458              	.LVL892:
 6459 0010 0446     		mov	r4, r0
 6460              	.LVL893:
2983:../Drivers/BSP/Components/vl53l0x/vl53l0x_api.c **** 	Status |= VL53L0X_RdByte(Dev, 0x42, &Byte);
 6461              		.loc 1 2983 0
 6462 0012 2846     		mov	r0, r5
 6463 0014 4221     		movs	r1, #66
 6464 0016 0DF10702 		add	r2, sp, #7
 6465 001a FFF7FEFF 		bl	VL53L0X_RdByte
 6466              	.LVL894:
 6467 001e 2043     		orrs	r0, r0, r4
 6468 0020 C4B2     		uxtb	r4, r0
 6469              	.LVL895:
2984:../Drivers/BSP/Components/vl53l0x/vl53l0x_api.c **** 	Status |= VL53L0X_WrByte(Dev, 0xFF, 0x00);
 6470              		.loc 1 2984 0
 6471 0022 2846     		mov	r0, r5
 6472 0024 FF21     		movs	r1, #255
 6473 0026 0022     		movs	r2, #0
 6474 0028 FFF7FEFF 		bl	VL53L0X_WrByte
 6475              	.LVL896:
 6476 002c 2043     		orrs	r0, r0, r4
 6477              	.LVL897:
2985:../Drivers/BSP/Components/vl53l0x/vl53l0x_api.c **** 	*pSpadAmbientDamperFactor = (uint16_t)Byte;
 6478              		.loc 1 2985 0
 6479 002e 9DF80730 		ldrb	r3, [sp, #7]	@ zero_extendqisi2
 6480 0032 3380     		strh	r3, [r6]	@ movhi
2986:../Drivers/BSP/Components/vl53l0x/vl53l0x_api.c **** 
2987:../Drivers/BSP/Components/vl53l0x/vl53l0x_api.c **** 	LOG_FUNCTION_END(Status);
2988:../Drivers/BSP/Components/vl53l0x/vl53l0x_api.c **** 	return Status;
2989:../Drivers/BSP/Components/vl53l0x/vl53l0x_api.c **** }
 6481              		.loc 1 2989 0
 6482 0034 40B2     		sxtb	r0, r0
ARM GAS  /tmp/ccflrS73.s 			page 171


 6483 0036 02B0     		add	sp, sp, #8
 6484              	.LCFI132:
 6485              		.cfi_def_cfa_offset 16
 6486              		@ sp needed
 6487 0038 70BD     		pop	{r4, r5, r6, pc}
 6488              		.cfi_endproc
 6489              	.LFE207:
 6491 003a 00BF     		.section	.text.VL53L0X_SetReferenceSpads,"ax",%progbits
 6492              		.align	2
 6493              		.global	VL53L0X_SetReferenceSpads
 6494              		.thumb
 6495              		.thumb_func
 6497              	VL53L0X_SetReferenceSpads:
 6498              	.LFB208:
2990:../Drivers/BSP/Components/vl53l0x/vl53l0x_api.c **** 
2991:../Drivers/BSP/Components/vl53l0x/vl53l0x_api.c **** /* END Group SPAD functions */
2992:../Drivers/BSP/Components/vl53l0x/vl53l0x_api.c **** 
2993:../Drivers/BSP/Components/vl53l0x/vl53l0x_api.c **** /*****************************************************************************
2994:../Drivers/BSP/Components/vl53l0x/vl53l0x_api.c ****  * Internal functions
2995:../Drivers/BSP/Components/vl53l0x/vl53l0x_api.c ****  *****************************************************************************/
2996:../Drivers/BSP/Components/vl53l0x/vl53l0x_api.c **** 
2997:../Drivers/BSP/Components/vl53l0x/vl53l0x_api.c **** VL53L0X_Error VL53L0X_SetReferenceSpads(VL53L0X_DEV Dev, uint32_t count,
2998:../Drivers/BSP/Components/vl53l0x/vl53l0x_api.c **** 	uint8_t isApertureSpads)
2999:../Drivers/BSP/Components/vl53l0x/vl53l0x_api.c **** {
 6499              		.loc 1 2999 0
 6500              		.cfi_startproc
 6501              		@ args = 0, pretend = 0, frame = 0
 6502              		@ frame_needed = 0, uses_anonymous_args = 0
 6503              	.LVL898:
 6504 0000 08B5     		push	{r3, lr}
 6505              	.LCFI133:
 6506              		.cfi_def_cfa_offset 8
 6507              		.cfi_offset 3, -8
 6508              		.cfi_offset 14, -4
 6509              	.LVL899:
3000:../Drivers/BSP/Components/vl53l0x/vl53l0x_api.c **** 	VL53L0X_Error Status = VL53L0X_ERROR_NONE;
3001:../Drivers/BSP/Components/vl53l0x/vl53l0x_api.c **** 	LOG_FUNCTION_START("");
3002:../Drivers/BSP/Components/vl53l0x/vl53l0x_api.c **** 
3003:../Drivers/BSP/Components/vl53l0x/vl53l0x_api.c **** 	Status = VL53L0X_set_reference_spads(Dev, count, isApertureSpads);
 6510              		.loc 1 3003 0
 6511 0002 FFF7FEFF 		bl	VL53L0X_set_reference_spads
 6512              	.LVL900:
3004:../Drivers/BSP/Components/vl53l0x/vl53l0x_api.c **** 
3005:../Drivers/BSP/Components/vl53l0x/vl53l0x_api.c **** 	LOG_FUNCTION_END(Status);
3006:../Drivers/BSP/Components/vl53l0x/vl53l0x_api.c **** 
3007:../Drivers/BSP/Components/vl53l0x/vl53l0x_api.c **** 	return Status;
3008:../Drivers/BSP/Components/vl53l0x/vl53l0x_api.c **** }
 6513              		.loc 1 3008 0
 6514 0006 08BD     		pop	{r3, pc}
 6515              		.cfi_endproc
 6516              	.LFE208:
 6518              		.section	.text.VL53L0X_GetReferenceSpads,"ax",%progbits
 6519              		.align	2
 6520              		.global	VL53L0X_GetReferenceSpads
 6521              		.thumb
 6522              		.thumb_func
 6524              	VL53L0X_GetReferenceSpads:
ARM GAS  /tmp/ccflrS73.s 			page 172


 6525              	.LFB209:
3009:../Drivers/BSP/Components/vl53l0x/vl53l0x_api.c **** 
3010:../Drivers/BSP/Components/vl53l0x/vl53l0x_api.c **** VL53L0X_Error VL53L0X_GetReferenceSpads(VL53L0X_DEV Dev, uint32_t *pSpadCount,
3011:../Drivers/BSP/Components/vl53l0x/vl53l0x_api.c **** 	uint8_t *pIsApertureSpads)
3012:../Drivers/BSP/Components/vl53l0x/vl53l0x_api.c **** {
 6526              		.loc 1 3012 0
 6527              		.cfi_startproc
 6528              		@ args = 0, pretend = 0, frame = 0
 6529              		@ frame_needed = 0, uses_anonymous_args = 0
 6530              	.LVL901:
 6531 0000 08B5     		push	{r3, lr}
 6532              	.LCFI134:
 6533              		.cfi_def_cfa_offset 8
 6534              		.cfi_offset 3, -8
 6535              		.cfi_offset 14, -4
 6536              	.LVL902:
3013:../Drivers/BSP/Components/vl53l0x/vl53l0x_api.c **** 	VL53L0X_Error Status = VL53L0X_ERROR_NONE;
3014:../Drivers/BSP/Components/vl53l0x/vl53l0x_api.c **** 	LOG_FUNCTION_START("");
3015:../Drivers/BSP/Components/vl53l0x/vl53l0x_api.c **** 
3016:../Drivers/BSP/Components/vl53l0x/vl53l0x_api.c **** 	Status = VL53L0X_get_reference_spads(Dev, pSpadCount, pIsApertureSpads);
 6537              		.loc 1 3016 0
 6538 0002 FFF7FEFF 		bl	VL53L0X_get_reference_spads
 6539              	.LVL903:
3017:../Drivers/BSP/Components/vl53l0x/vl53l0x_api.c **** 
3018:../Drivers/BSP/Components/vl53l0x/vl53l0x_api.c **** 	LOG_FUNCTION_END(Status);
3019:../Drivers/BSP/Components/vl53l0x/vl53l0x_api.c **** 
3020:../Drivers/BSP/Components/vl53l0x/vl53l0x_api.c **** 	return Status;
3021:../Drivers/BSP/Components/vl53l0x/vl53l0x_api.c **** }
 6540              		.loc 1 3021 0
 6541 0006 08BD     		pop	{r3, pc}
 6542              		.cfi_endproc
 6543              	.LFE209:
 6545              		.section	.text.VL53L0X_PerformRefSpadManagement,"ax",%progbits
 6546              		.align	2
 6547              		.global	VL53L0X_PerformRefSpadManagement
 6548              		.thumb
 6549              		.thumb_func
 6551              	VL53L0X_PerformRefSpadManagement:
 6552              	.LFB210:
3022:../Drivers/BSP/Components/vl53l0x/vl53l0x_api.c **** 
3023:../Drivers/BSP/Components/vl53l0x/vl53l0x_api.c **** VL53L0X_Error VL53L0X_PerformRefSpadManagement(VL53L0X_DEV Dev,
3024:../Drivers/BSP/Components/vl53l0x/vl53l0x_api.c **** 	uint32_t *refSpadCount, uint8_t *isApertureSpads)
3025:../Drivers/BSP/Components/vl53l0x/vl53l0x_api.c **** {
 6553              		.loc 1 3025 0
 6554              		.cfi_startproc
 6555              		@ args = 0, pretend = 0, frame = 0
 6556              		@ frame_needed = 0, uses_anonymous_args = 0
 6557              	.LVL904:
 6558 0000 08B5     		push	{r3, lr}
 6559              	.LCFI135:
 6560              		.cfi_def_cfa_offset 8
 6561              		.cfi_offset 3, -8
 6562              		.cfi_offset 14, -4
 6563              	.LVL905:
3026:../Drivers/BSP/Components/vl53l0x/vl53l0x_api.c **** 	VL53L0X_Error Status = VL53L0X_ERROR_NONE;
3027:../Drivers/BSP/Components/vl53l0x/vl53l0x_api.c **** 	LOG_FUNCTION_START("");
3028:../Drivers/BSP/Components/vl53l0x/vl53l0x_api.c **** 
ARM GAS  /tmp/ccflrS73.s 			page 173


3029:../Drivers/BSP/Components/vl53l0x/vl53l0x_api.c **** 	Status = VL53L0X_perform_ref_spad_management(Dev, refSpadCount,
 6564              		.loc 1 3029 0
 6565 0002 FFF7FEFF 		bl	VL53L0X_perform_ref_spad_management
 6566              	.LVL906:
3030:../Drivers/BSP/Components/vl53l0x/vl53l0x_api.c **** 		isApertureSpads);
3031:../Drivers/BSP/Components/vl53l0x/vl53l0x_api.c **** 
3032:../Drivers/BSP/Components/vl53l0x/vl53l0x_api.c **** 	LOG_FUNCTION_END(Status);
3033:../Drivers/BSP/Components/vl53l0x/vl53l0x_api.c **** 
3034:../Drivers/BSP/Components/vl53l0x/vl53l0x_api.c **** 	return Status;
3035:../Drivers/BSP/Components/vl53l0x/vl53l0x_api.c **** }
 6567              		.loc 1 3035 0
 6568 0006 08BD     		pop	{r3, pc}
 6569              		.cfi_endproc
 6570              	.LFE210:
 6572              		.global	InterruptThresholdSettings
 6573              		.global	DefaultTuningSettings
 6574              		.section	.data.DefaultTuningSettings,"aw",%progbits
 6575              		.align	2
 6576              		.set	.LANCHOR1,. + 0
 6579              	DefaultTuningSettings:
 6580 0000 01       		.byte	1
 6581 0001 FF       		.byte	-1
 6582 0002 01       		.byte	1
 6583 0003 01       		.byte	1
 6584 0004 00       		.byte	0
 6585 0005 00       		.byte	0
 6586 0006 01       		.byte	1
 6587 0007 FF       		.byte	-1
 6588 0008 00       		.byte	0
 6589 0009 01       		.byte	1
 6590 000a 09       		.byte	9
 6591 000b 00       		.byte	0
 6592 000c 01       		.byte	1
 6593 000d 10       		.byte	16
 6594 000e 00       		.byte	0
 6595 000f 01       		.byte	1
 6596 0010 11       		.byte	17
 6597 0011 00       		.byte	0
 6598 0012 01       		.byte	1
 6599 0013 24       		.byte	36
 6600 0014 01       		.byte	1
 6601 0015 01       		.byte	1
 6602 0016 25       		.byte	37
 6603 0017 FF       		.byte	-1
 6604 0018 01       		.byte	1
 6605 0019 75       		.byte	117
 6606 001a 00       		.byte	0
 6607 001b 01       		.byte	1
 6608 001c FF       		.byte	-1
 6609 001d 01       		.byte	1
 6610 001e 01       		.byte	1
 6611 001f 4E       		.byte	78
 6612 0020 2C       		.byte	44
 6613 0021 01       		.byte	1
 6614 0022 48       		.byte	72
 6615 0023 00       		.byte	0
 6616 0024 01       		.byte	1
ARM GAS  /tmp/ccflrS73.s 			page 174


 6617 0025 30       		.byte	48
 6618 0026 20       		.byte	32
 6619 0027 01       		.byte	1
 6620 0028 FF       		.byte	-1
 6621 0029 00       		.byte	0
 6622 002a 01       		.byte	1
 6623 002b 30       		.byte	48
 6624 002c 09       		.byte	9
 6625 002d 01       		.byte	1
 6626 002e 54       		.byte	84
 6627 002f 00       		.byte	0
 6628 0030 01       		.byte	1
 6629 0031 31       		.byte	49
 6630 0032 04       		.byte	4
 6631 0033 01       		.byte	1
 6632 0034 32       		.byte	50
 6633 0035 03       		.byte	3
 6634 0036 01       		.byte	1
 6635 0037 40       		.byte	64
 6636 0038 83       		.byte	-125
 6637 0039 01       		.byte	1
 6638 003a 46       		.byte	70
 6639 003b 25       		.byte	37
 6640 003c 01       		.byte	1
 6641 003d 60       		.byte	96
 6642 003e 00       		.byte	0
 6643 003f 01       		.byte	1
 6644 0040 27       		.byte	39
 6645 0041 00       		.byte	0
 6646 0042 01       		.byte	1
 6647 0043 50       		.byte	80
 6648 0044 06       		.byte	6
 6649 0045 01       		.byte	1
 6650 0046 51       		.byte	81
 6651 0047 00       		.byte	0
 6652 0048 01       		.byte	1
 6653 0049 52       		.byte	82
 6654 004a 96       		.byte	-106
 6655 004b 01       		.byte	1
 6656 004c 56       		.byte	86
 6657 004d 08       		.byte	8
 6658 004e 01       		.byte	1
 6659 004f 57       		.byte	87
 6660 0050 30       		.byte	48
 6661 0051 01       		.byte	1
 6662 0052 61       		.byte	97
 6663 0053 00       		.byte	0
 6664 0054 01       		.byte	1
 6665 0055 62       		.byte	98
 6666 0056 00       		.byte	0
 6667 0057 01       		.byte	1
 6668 0058 64       		.byte	100
 6669 0059 00       		.byte	0
 6670 005a 01       		.byte	1
 6671 005b 65       		.byte	101
 6672 005c 00       		.byte	0
 6673 005d 01       		.byte	1
ARM GAS  /tmp/ccflrS73.s 			page 175


 6674 005e 66       		.byte	102
 6675 005f A0       		.byte	-96
 6676 0060 01       		.byte	1
 6677 0061 FF       		.byte	-1
 6678 0062 01       		.byte	1
 6679 0063 01       		.byte	1
 6680 0064 22       		.byte	34
 6681 0065 32       		.byte	50
 6682 0066 01       		.byte	1
 6683 0067 47       		.byte	71
 6684 0068 14       		.byte	20
 6685 0069 01       		.byte	1
 6686 006a 49       		.byte	73
 6687 006b FF       		.byte	-1
 6688 006c 01       		.byte	1
 6689 006d 4A       		.byte	74
 6690 006e 00       		.byte	0
 6691 006f 01       		.byte	1
 6692 0070 FF       		.byte	-1
 6693 0071 00       		.byte	0
 6694 0072 01       		.byte	1
 6695 0073 7A       		.byte	122
 6696 0074 0A       		.byte	10
 6697 0075 01       		.byte	1
 6698 0076 7B       		.byte	123
 6699 0077 00       		.byte	0
 6700 0078 01       		.byte	1
 6701 0079 78       		.byte	120
 6702 007a 21       		.byte	33
 6703 007b 01       		.byte	1
 6704 007c FF       		.byte	-1
 6705 007d 01       		.byte	1
 6706 007e 01       		.byte	1
 6707 007f 23       		.byte	35
 6708 0080 34       		.byte	52
 6709 0081 01       		.byte	1
 6710 0082 42       		.byte	66
 6711 0083 00       		.byte	0
 6712 0084 01       		.byte	1
 6713 0085 44       		.byte	68
 6714 0086 FF       		.byte	-1
 6715 0087 01       		.byte	1
 6716 0088 45       		.byte	69
 6717 0089 26       		.byte	38
 6718 008a 01       		.byte	1
 6719 008b 46       		.byte	70
 6720 008c 05       		.byte	5
 6721 008d 01       		.byte	1
 6722 008e 40       		.byte	64
 6723 008f 40       		.byte	64
 6724 0090 01       		.byte	1
 6725 0091 0E       		.byte	14
 6726 0092 06       		.byte	6
 6727 0093 01       		.byte	1
 6728 0094 20       		.byte	32
 6729 0095 1A       		.byte	26
 6730 0096 01       		.byte	1
ARM GAS  /tmp/ccflrS73.s 			page 176


 6731 0097 43       		.byte	67
 6732 0098 40       		.byte	64
 6733 0099 01       		.byte	1
 6734 009a FF       		.byte	-1
 6735 009b 00       		.byte	0
 6736 009c 01       		.byte	1
 6737 009d 34       		.byte	52
 6738 009e 03       		.byte	3
 6739 009f 01       		.byte	1
 6740 00a0 35       		.byte	53
 6741 00a1 44       		.byte	68
 6742 00a2 01       		.byte	1
 6743 00a3 FF       		.byte	-1
 6744 00a4 01       		.byte	1
 6745 00a5 01       		.byte	1
 6746 00a6 31       		.byte	49
 6747 00a7 04       		.byte	4
 6748 00a8 01       		.byte	1
 6749 00a9 4B       		.byte	75
 6750 00aa 09       		.byte	9
 6751 00ab 01       		.byte	1
 6752 00ac 4C       		.byte	76
 6753 00ad 05       		.byte	5
 6754 00ae 01       		.byte	1
 6755 00af 4D       		.byte	77
 6756 00b0 04       		.byte	4
 6757 00b1 01       		.byte	1
 6758 00b2 FF       		.byte	-1
 6759 00b3 00       		.byte	0
 6760 00b4 01       		.byte	1
 6761 00b5 44       		.byte	68
 6762 00b6 00       		.byte	0
 6763 00b7 01       		.byte	1
 6764 00b8 45       		.byte	69
 6765 00b9 20       		.byte	32
 6766 00ba 01       		.byte	1
 6767 00bb 47       		.byte	71
 6768 00bc 08       		.byte	8
 6769 00bd 01       		.byte	1
 6770 00be 48       		.byte	72
 6771 00bf 28       		.byte	40
 6772 00c0 01       		.byte	1
 6773 00c1 67       		.byte	103
 6774 00c2 00       		.byte	0
 6775 00c3 01       		.byte	1
 6776 00c4 70       		.byte	112
 6777 00c5 04       		.byte	4
 6778 00c6 01       		.byte	1
 6779 00c7 71       		.byte	113
 6780 00c8 01       		.byte	1
 6781 00c9 01       		.byte	1
 6782 00ca 72       		.byte	114
 6783 00cb FE       		.byte	-2
 6784 00cc 01       		.byte	1
 6785 00cd 76       		.byte	118
 6786 00ce 00       		.byte	0
 6787 00cf 01       		.byte	1
ARM GAS  /tmp/ccflrS73.s 			page 177


 6788 00d0 77       		.byte	119
 6789 00d1 00       		.byte	0
 6790 00d2 01       		.byte	1
 6791 00d3 FF       		.byte	-1
 6792 00d4 01       		.byte	1
 6793 00d5 01       		.byte	1
 6794 00d6 0D       		.byte	13
 6795 00d7 01       		.byte	1
 6796 00d8 01       		.byte	1
 6797 00d9 FF       		.byte	-1
 6798 00da 00       		.byte	0
 6799 00db 01       		.byte	1
 6800 00dc 80       		.byte	-128
 6801 00dd 01       		.byte	1
 6802 00de 01       		.byte	1
 6803 00df 01       		.byte	1
 6804 00e0 F8       		.byte	-8
 6805 00e1 01       		.byte	1
 6806 00e2 FF       		.byte	-1
 6807 00e3 01       		.byte	1
 6808 00e4 01       		.byte	1
 6809 00e5 8E       		.byte	-114
 6810 00e6 01       		.byte	1
 6811 00e7 01       		.byte	1
 6812 00e8 00       		.byte	0
 6813 00e9 01       		.byte	1
 6814 00ea 01       		.byte	1
 6815 00eb FF       		.byte	-1
 6816 00ec 00       		.byte	0
 6817 00ed 01       		.byte	1
 6818 00ee 80       		.byte	-128
 6819 00ef 00       		.byte	0
 6820 00f0 00       		.byte	0
 6821 00f1 00       		.byte	0
 6822 00f2 00       		.byte	0
 6823              		.section	.data.InterruptThresholdSettings,"aw",%progbits
 6824              		.align	2
 6825              		.set	.LANCHOR0,. + 0
 6828              	InterruptThresholdSettings:
 6829 0000 01       		.byte	1
 6830 0001 FF       		.byte	-1
 6831 0002 00       		.byte	0
 6832 0003 01       		.byte	1
 6833 0004 80       		.byte	-128
 6834 0005 01       		.byte	1
 6835 0006 01       		.byte	1
 6836 0007 FF       		.byte	-1
 6837 0008 01       		.byte	1
 6838 0009 01       		.byte	1
 6839 000a 00       		.byte	0
 6840 000b 00       		.byte	0
 6841 000c 01       		.byte	1
 6842 000d FF       		.byte	-1
 6843 000e 01       		.byte	1
 6844 000f 01       		.byte	1
 6845 0010 4F       		.byte	79
 6846 0011 02       		.byte	2
ARM GAS  /tmp/ccflrS73.s 			page 178


 6847 0012 01       		.byte	1
 6848 0013 FF       		.byte	-1
 6849 0014 0E       		.byte	14
 6850 0015 01       		.byte	1
 6851 0016 00       		.byte	0
 6852 0017 03       		.byte	3
 6853 0018 01       		.byte	1
 6854 0019 01       		.byte	1
 6855 001a 84       		.byte	-124
 6856 001b 01       		.byte	1
 6857 001c 02       		.byte	2
 6858 001d 0A       		.byte	10
 6859 001e 01       		.byte	1
 6860 001f 03       		.byte	3
 6861 0020 03       		.byte	3
 6862 0021 01       		.byte	1
 6863 0022 04       		.byte	4
 6864 0023 08       		.byte	8
 6865 0024 01       		.byte	1
 6866 0025 05       		.byte	5
 6867 0026 C8       		.byte	-56
 6868 0027 01       		.byte	1
 6869 0028 06       		.byte	6
 6870 0029 03       		.byte	3
 6871 002a 01       		.byte	1
 6872 002b 07       		.byte	7
 6873 002c 8D       		.byte	-115
 6874 002d 01       		.byte	1
 6875 002e 08       		.byte	8
 6876 002f 08       		.byte	8
 6877 0030 01       		.byte	1
 6878 0031 09       		.byte	9
 6879 0032 C6       		.byte	-58
 6880 0033 01       		.byte	1
 6881 0034 0A       		.byte	10
 6882 0035 01       		.byte	1
 6883 0036 01       		.byte	1
 6884 0037 0B       		.byte	11
 6885 0038 02       		.byte	2
 6886 0039 01       		.byte	1
 6887 003a 0C       		.byte	12
 6888 003b 00       		.byte	0
 6889 003c 01       		.byte	1
 6890 003d 0D       		.byte	13
 6891 003e D5       		.byte	-43
 6892 003f 01       		.byte	1
 6893 0040 0E       		.byte	14
 6894 0041 18       		.byte	24
 6895 0042 01       		.byte	1
 6896 0043 0F       		.byte	15
 6897 0044 12       		.byte	18
 6898 0045 01       		.byte	1
 6899 0046 10       		.byte	16
 6900 0047 01       		.byte	1
 6901 0048 01       		.byte	1
 6902 0049 11       		.byte	17
 6903 004a 82       		.byte	-126
ARM GAS  /tmp/ccflrS73.s 			page 179


 6904 004b 01       		.byte	1
 6905 004c 12       		.byte	18
 6906 004d 00       		.byte	0
 6907 004e 01       		.byte	1
 6908 004f 13       		.byte	19
 6909 0050 D5       		.byte	-43
 6910 0051 01       		.byte	1
 6911 0052 14       		.byte	20
 6912 0053 18       		.byte	24
 6913 0054 01       		.byte	1
 6914 0055 15       		.byte	21
 6915 0056 13       		.byte	19
 6916 0057 01       		.byte	1
 6917 0058 16       		.byte	22
 6918 0059 03       		.byte	3
 6919 005a 01       		.byte	1
 6920 005b 17       		.byte	23
 6921 005c 86       		.byte	-122
 6922 005d 01       		.byte	1
 6923 005e 18       		.byte	24
 6924 005f 0A       		.byte	10
 6925 0060 01       		.byte	1
 6926 0061 19       		.byte	25
 6927 0062 09       		.byte	9
 6928 0063 01       		.byte	1
 6929 0064 1A       		.byte	26
 6930 0065 08       		.byte	8
 6931 0066 01       		.byte	1
 6932 0067 1B       		.byte	27
 6933 0068 C2       		.byte	-62
 6934 0069 01       		.byte	1
 6935 006a 1C       		.byte	28
 6936 006b 03       		.byte	3
 6937 006c 01       		.byte	1
 6938 006d 1D       		.byte	29
 6939 006e 8F       		.byte	-113
 6940 006f 01       		.byte	1
 6941 0070 1E       		.byte	30
 6942 0071 0A       		.byte	10
 6943 0072 01       		.byte	1
 6944 0073 1F       		.byte	31
 6945 0074 06       		.byte	6
 6946 0075 01       		.byte	1
 6947 0076 20       		.byte	32
 6948 0077 01       		.byte	1
 6949 0078 01       		.byte	1
 6950 0079 21       		.byte	33
 6951 007a 02       		.byte	2
 6952 007b 01       		.byte	1
 6953 007c 22       		.byte	34
 6954 007d 00       		.byte	0
 6955 007e 01       		.byte	1
 6956 007f 23       		.byte	35
 6957 0080 D5       		.byte	-43
 6958 0081 01       		.byte	1
 6959 0082 24       		.byte	36
 6960 0083 18       		.byte	24
ARM GAS  /tmp/ccflrS73.s 			page 180


 6961 0084 01       		.byte	1
 6962 0085 25       		.byte	37
 6963 0086 22       		.byte	34
 6964 0087 01       		.byte	1
 6965 0088 26       		.byte	38
 6966 0089 01       		.byte	1
 6967 008a 01       		.byte	1
 6968 008b 27       		.byte	39
 6969 008c 82       		.byte	-126
 6970 008d 01       		.byte	1
 6971 008e 28       		.byte	40
 6972 008f 00       		.byte	0
 6973 0090 01       		.byte	1
 6974 0091 29       		.byte	41
 6975 0092 D5       		.byte	-43
 6976 0093 01       		.byte	1
 6977 0094 2A       		.byte	42
 6978 0095 18       		.byte	24
 6979 0096 01       		.byte	1
 6980 0097 2B       		.byte	43
 6981 0098 0B       		.byte	11
 6982 0099 01       		.byte	1
 6983 009a 2C       		.byte	44
 6984 009b 28       		.byte	40
 6985 009c 01       		.byte	1
 6986 009d 2D       		.byte	45
 6987 009e 78       		.byte	120
 6988 009f 01       		.byte	1
 6989 00a0 2E       		.byte	46
 6990 00a1 28       		.byte	40
 6991 00a2 01       		.byte	1
 6992 00a3 2F       		.byte	47
 6993 00a4 91       		.byte	-111
 6994 00a5 01       		.byte	1
 6995 00a6 30       		.byte	48
 6996 00a7 00       		.byte	0
 6997 00a8 01       		.byte	1
 6998 00a9 31       		.byte	49
 6999 00aa 0B       		.byte	11
 7000 00ab 01       		.byte	1
 7001 00ac 32       		.byte	50
 7002 00ad 00       		.byte	0
 7003 00ae 01       		.byte	1
 7004 00af 33       		.byte	51
 7005 00b0 0B       		.byte	11
 7006 00b1 01       		.byte	1
 7007 00b2 34       		.byte	52
 7008 00b3 00       		.byte	0
 7009 00b4 01       		.byte	1
 7010 00b5 35       		.byte	53
 7011 00b6 A1       		.byte	-95
 7012 00b7 01       		.byte	1
 7013 00b8 36       		.byte	54
 7014 00b9 00       		.byte	0
 7015 00ba 01       		.byte	1
 7016 00bb 37       		.byte	55
 7017 00bc A0       		.byte	-96
ARM GAS  /tmp/ccflrS73.s 			page 181


 7018 00bd 01       		.byte	1
 7019 00be 38       		.byte	56
 7020 00bf 00       		.byte	0
 7021 00c0 01       		.byte	1
 7022 00c1 39       		.byte	57
 7023 00c2 04       		.byte	4
 7024 00c3 01       		.byte	1
 7025 00c4 3A       		.byte	58
 7026 00c5 28       		.byte	40
 7027 00c6 01       		.byte	1
 7028 00c7 3B       		.byte	59
 7029 00c8 30       		.byte	48
 7030 00c9 01       		.byte	1
 7031 00ca 3C       		.byte	60
 7032 00cb 0C       		.byte	12
 7033 00cc 01       		.byte	1
 7034 00cd 3D       		.byte	61
 7035 00ce 04       		.byte	4
 7036 00cf 01       		.byte	1
 7037 00d0 3E       		.byte	62
 7038 00d1 0F       		.byte	15
 7039 00d2 01       		.byte	1
 7040 00d3 3F       		.byte	63
 7041 00d4 79       		.byte	121
 7042 00d5 01       		.byte	1
 7043 00d6 40       		.byte	64
 7044 00d7 28       		.byte	40
 7045 00d8 01       		.byte	1
 7046 00d9 41       		.byte	65
 7047 00da 1E       		.byte	30
 7048 00db 01       		.byte	1
 7049 00dc 42       		.byte	66
 7050 00dd 2F       		.byte	47
 7051 00de 01       		.byte	1
 7052 00df 43       		.byte	67
 7053 00e0 87       		.byte	-121
 7054 00e1 01       		.byte	1
 7055 00e2 44       		.byte	68
 7056 00e3 00       		.byte	0
 7057 00e4 01       		.byte	1
 7058 00e5 45       		.byte	69
 7059 00e6 0B       		.byte	11
 7060 00e7 01       		.byte	1
 7061 00e8 46       		.byte	70
 7062 00e9 00       		.byte	0
 7063 00ea 01       		.byte	1
 7064 00eb 47       		.byte	71
 7065 00ec 0B       		.byte	11
 7066 00ed 01       		.byte	1
 7067 00ee 48       		.byte	72
 7068 00ef 00       		.byte	0
 7069 00f0 01       		.byte	1
 7070 00f1 49       		.byte	73
 7071 00f2 A7       		.byte	-89
 7072 00f3 01       		.byte	1
 7073 00f4 4A       		.byte	74
 7074 00f5 00       		.byte	0
ARM GAS  /tmp/ccflrS73.s 			page 182


 7075 00f6 01       		.byte	1
 7076 00f7 4B       		.byte	75
 7077 00f8 A6       		.byte	-90
 7078 00f9 01       		.byte	1
 7079 00fa 4C       		.byte	76
 7080 00fb 00       		.byte	0
 7081 00fc 01       		.byte	1
 7082 00fd 4D       		.byte	77
 7083 00fe 04       		.byte	4
 7084 00ff 01       		.byte	1
 7085 0100 4E       		.byte	78
 7086 0101 01       		.byte	1
 7087 0102 01       		.byte	1
 7088 0103 4F       		.byte	79
 7089 0104 00       		.byte	0
 7090 0105 01       		.byte	1
 7091 0106 50       		.byte	80
 7092 0107 00       		.byte	0
 7093 0108 01       		.byte	1
 7094 0109 51       		.byte	81
 7095 010a 80       		.byte	-128
 7096 010b 01       		.byte	1
 7097 010c 52       		.byte	82
 7098 010d 09       		.byte	9
 7099 010e 01       		.byte	1
 7100 010f 53       		.byte	83
 7101 0110 08       		.byte	8
 7102 0111 01       		.byte	1
 7103 0112 54       		.byte	84
 7104 0113 01       		.byte	1
 7105 0114 01       		.byte	1
 7106 0115 55       		.byte	85
 7107 0116 00       		.byte	0
 7108 0117 01       		.byte	1
 7109 0118 56       		.byte	86
 7110 0119 0F       		.byte	15
 7111 011a 01       		.byte	1
 7112 011b 57       		.byte	87
 7113 011c 79       		.byte	121
 7114 011d 01       		.byte	1
 7115 011e 58       		.byte	88
 7116 011f 09       		.byte	9
 7117 0120 01       		.byte	1
 7118 0121 59       		.byte	89
 7119 0122 05       		.byte	5
 7120 0123 01       		.byte	1
 7121 0124 5A       		.byte	90
 7122 0125 00       		.byte	0
 7123 0126 01       		.byte	1
 7124 0127 5B       		.byte	91
 7125 0128 60       		.byte	96
 7126 0129 01       		.byte	1
 7127 012a 5C       		.byte	92
 7128 012b 05       		.byte	5
 7129 012c 01       		.byte	1
 7130 012d 5D       		.byte	93
 7131 012e D1       		.byte	-47
ARM GAS  /tmp/ccflrS73.s 			page 183


 7132 012f 01       		.byte	1
 7133 0130 5E       		.byte	94
 7134 0131 0C       		.byte	12
 7135 0132 01       		.byte	1
 7136 0133 5F       		.byte	95
 7137 0134 3C       		.byte	60
 7138 0135 01       		.byte	1
 7139 0136 60       		.byte	96
 7140 0137 00       		.byte	0
 7141 0138 01       		.byte	1
 7142 0139 61       		.byte	97
 7143 013a D0       		.byte	-48
 7144 013b 01       		.byte	1
 7145 013c 62       		.byte	98
 7146 013d 0B       		.byte	11
 7147 013e 01       		.byte	1
 7148 013f 63       		.byte	99
 7149 0140 03       		.byte	3
 7150 0141 01       		.byte	1
 7151 0142 64       		.byte	100
 7152 0143 28       		.byte	40
 7153 0144 01       		.byte	1
 7154 0145 65       		.byte	101
 7155 0146 10       		.byte	16
 7156 0147 01       		.byte	1
 7157 0148 66       		.byte	102
 7158 0149 2A       		.byte	42
 7159 014a 01       		.byte	1
 7160 014b 67       		.byte	103
 7161 014c 39       		.byte	57
 7162 014d 01       		.byte	1
 7163 014e 68       		.byte	104
 7164 014f 0B       		.byte	11
 7165 0150 01       		.byte	1
 7166 0151 69       		.byte	105
 7167 0152 02       		.byte	2
 7168 0153 01       		.byte	1
 7169 0154 6A       		.byte	106
 7170 0155 28       		.byte	40
 7171 0156 01       		.byte	1
 7172 0157 6B       		.byte	107
 7173 0158 10       		.byte	16
 7174 0159 01       		.byte	1
 7175 015a 6C       		.byte	108
 7176 015b 2A       		.byte	42
 7177 015c 01       		.byte	1
 7178 015d 6D       		.byte	109
 7179 015e 61       		.byte	97
 7180 015f 01       		.byte	1
 7181 0160 6E       		.byte	110
 7182 0161 0C       		.byte	12
 7183 0162 01       		.byte	1
 7184 0163 6F       		.byte	111
 7185 0164 00       		.byte	0
 7186 0165 01       		.byte	1
 7187 0166 70       		.byte	112
 7188 0167 0F       		.byte	15
ARM GAS  /tmp/ccflrS73.s 			page 184


 7189 0168 01       		.byte	1
 7190 0169 71       		.byte	113
 7191 016a 79       		.byte	121
 7192 016b 01       		.byte	1
 7193 016c 72       		.byte	114
 7194 016d 00       		.byte	0
 7195 016e 01       		.byte	1
 7196 016f 73       		.byte	115
 7197 0170 0B       		.byte	11
 7198 0171 01       		.byte	1
 7199 0172 74       		.byte	116
 7200 0173 00       		.byte	0
 7201 0174 01       		.byte	1
 7202 0175 75       		.byte	117
 7203 0176 0B       		.byte	11
 7204 0177 01       		.byte	1
 7205 0178 76       		.byte	118
 7206 0179 00       		.byte	0
 7207 017a 01       		.byte	1
 7208 017b 77       		.byte	119
 7209 017c A1       		.byte	-95
 7210 017d 01       		.byte	1
 7211 017e 78       		.byte	120
 7212 017f 00       		.byte	0
 7213 0180 01       		.byte	1
 7214 0181 79       		.byte	121
 7215 0182 A0       		.byte	-96
 7216 0183 01       		.byte	1
 7217 0184 7A       		.byte	122
 7218 0185 00       		.byte	0
 7219 0186 01       		.byte	1
 7220 0187 7B       		.byte	123
 7221 0188 04       		.byte	4
 7222 0189 01       		.byte	1
 7223 018a FF       		.byte	-1
 7224 018b 04       		.byte	4
 7225 018c 01       		.byte	1
 7226 018d 79       		.byte	121
 7227 018e 1D       		.byte	29
 7228 018f 01       		.byte	1
 7229 0190 7B       		.byte	123
 7230 0191 27       		.byte	39
 7231 0192 01       		.byte	1
 7232 0193 96       		.byte	-106
 7233 0194 0E       		.byte	14
 7234 0195 01       		.byte	1
 7235 0196 97       		.byte	-105
 7236 0197 FE       		.byte	-2
 7237 0198 01       		.byte	1
 7238 0199 98       		.byte	-104
 7239 019a 03       		.byte	3
 7240 019b 01       		.byte	1
 7241 019c 99       		.byte	-103
 7242 019d EF       		.byte	-17
 7243 019e 01       		.byte	1
 7244 019f 9A       		.byte	-102
 7245 01a0 02       		.byte	2
ARM GAS  /tmp/ccflrS73.s 			page 185


 7246 01a1 01       		.byte	1
 7247 01a2 9B       		.byte	-101
 7248 01a3 44       		.byte	68
 7249 01a4 01       		.byte	1
 7250 01a5 73       		.byte	115
 7251 01a6 07       		.byte	7
 7252 01a7 01       		.byte	1
 7253 01a8 70       		.byte	112
 7254 01a9 01       		.byte	1
 7255 01aa 01       		.byte	1
 7256 01ab FF       		.byte	-1
 7257 01ac 01       		.byte	1
 7258 01ad 01       		.byte	1
 7259 01ae 00       		.byte	0
 7260 01af 01       		.byte	1
 7261 01b0 01       		.byte	1
 7262 01b1 FF       		.byte	-1
 7263 01b2 00       		.byte	0
 7264 01b3 00       		.byte	0
 7265 01b4 00       		.byte	0
 7266 01b5 00       		.byte	0
 7267              		.text
 7268              	.Letext0:
 7269              		.file 2 "/usr/include/newlib/machine/_default_types.h"
 7270              		.file 3 "/usr/include/newlib/sys/_stdint.h"
 7271              		.file 4 "../Drivers/BSP/Components/vl53l0x/vl53l0x_types.h"
 7272              		.file 5 "../Drivers/BSP/Components/vl53l0x/vl53l0x_device.h"
 7273              		.file 6 "../Drivers/BSP/Components/vl53l0x/vl53l0x_def.h"
 7274              		.file 7 "../Drivers/CMSIS/Device/ST/STM32F4xx/Include/stm32f401xe.h"
 7275              		.file 8 "../Drivers/STM32F4xx_HAL_Driver/Inc/stm32f4xx_hal_def.h"
 7276              		.file 9 "../Drivers/STM32F4xx_HAL_Driver/Inc/stm32f4xx_hal_dma.h"
 7277              		.file 10 "../Drivers/STM32F4xx_HAL_Driver/Inc/stm32f4xx_hal_i2c.h"
 7278              		.file 11 "../Drivers/BSP/X-NUCLEO-53L0A1/vl53l0x_platform.h"
 7279              		.file 12 "../Drivers/CMSIS/Include/core_cm4.h"
 7280              		.file 13 "../Drivers/BSP/Components/vl53l0x/vl53l0x_tuning.h"
 7281              		.file 14 "../Drivers/BSP/Components/vl53l0x/vl53l0x_interrupt_threshold_settings.h"
 7282              		.file 15 "../Drivers/BSP/Components/vl53l0x/vl53l0x_api_strings.h"
 7283              		.file 16 "../Drivers/BSP/Components/vl53l0x/vl53l0x_api_calibration.h"
 7284              		.file 17 "../Drivers/BSP/Components/vl53l0x/vl53l0x_api_core.h"
ARM GAS  /tmp/ccflrS73.s 			page 186


DEFINED SYMBOLS
                            *ABS*:0000000000000000 vl53l0x_api.c
     /tmp/ccflrS73.s:21     .text.VL53L0X_GetVersion:0000000000000000 $t
     /tmp/ccflrS73.s:26     .text.VL53L0X_GetVersion:0000000000000000 VL53L0X_GetVersion
     /tmp/ccflrS73.s:56     .text.VL53L0X_GetPalSpecVersion:0000000000000000 $t
     /tmp/ccflrS73.s:61     .text.VL53L0X_GetPalSpecVersion:0000000000000000 VL53L0X_GetPalSpecVersion
     /tmp/ccflrS73.s:89     .text.VL53L0X_GetProductRevision:0000000000000000 $t
     /tmp/ccflrS73.s:94     .text.VL53L0X_GetProductRevision:0000000000000000 VL53L0X_GetProductRevision
     /tmp/ccflrS73.s:137    .text.VL53L0X_GetDeviceInfo:0000000000000000 $t
     /tmp/ccflrS73.s:142    .text.VL53L0X_GetDeviceInfo:0000000000000000 VL53L0X_GetDeviceInfo
     /tmp/ccflrS73.s:164    .text.VL53L0X_GetDeviceErrorStatus:0000000000000000 $t
     /tmp/ccflrS73.s:169    .text.VL53L0X_GetDeviceErrorStatus:0000000000000000 VL53L0X_GetDeviceErrorStatus
     /tmp/ccflrS73.s:206    .text.VL53L0X_GetDeviceErrorString:0000000000000000 $t
     /tmp/ccflrS73.s:211    .text.VL53L0X_GetDeviceErrorString:0000000000000000 VL53L0X_GetDeviceErrorString
     /tmp/ccflrS73.s:233    .text.VL53L0X_GetRangeStatusString:0000000000000000 $t
     /tmp/ccflrS73.s:238    .text.VL53L0X_GetRangeStatusString:0000000000000000 VL53L0X_GetRangeStatusString
     /tmp/ccflrS73.s:260    .text.VL53L0X_GetPalErrorString:0000000000000000 $t
     /tmp/ccflrS73.s:265    .text.VL53L0X_GetPalErrorString:0000000000000000 VL53L0X_GetPalErrorString
     /tmp/ccflrS73.s:287    .text.VL53L0X_GetPalStateString:0000000000000000 $t
     /tmp/ccflrS73.s:292    .text.VL53L0X_GetPalStateString:0000000000000000 VL53L0X_GetPalStateString
     /tmp/ccflrS73.s:314    .text.VL53L0X_GetPalState:0000000000000000 $t
     /tmp/ccflrS73.s:319    .text.VL53L0X_GetPalState:0000000000000000 VL53L0X_GetPalState
     /tmp/ccflrS73.s:338    .text.VL53L0X_GetPowerMode:0000000000000000 $t
     /tmp/ccflrS73.s:343    .text.VL53L0X_GetPowerMode:0000000000000000 VL53L0X_GetPowerMode
     /tmp/ccflrS73.s:394    .text.VL53L0X_SetOffsetCalibrationDataMicroMeter:0000000000000000 $t
     /tmp/ccflrS73.s:399    .text.VL53L0X_SetOffsetCalibrationDataMicroMeter:0000000000000000 VL53L0X_SetOffsetCalibrationDataMicroMeter
     /tmp/ccflrS73.s:421    .text.VL53L0X_GetOffsetCalibrationDataMicroMeter:0000000000000000 $t
     /tmp/ccflrS73.s:426    .text.VL53L0X_GetOffsetCalibrationDataMicroMeter:0000000000000000 VL53L0X_GetOffsetCalibrationDataMicroMeter
     /tmp/ccflrS73.s:448    .text.VL53L0X_SetLinearityCorrectiveGain:0000000000000000 $t
     /tmp/ccflrS73.s:453    .text.VL53L0X_SetLinearityCorrectiveGain:0000000000000000 VL53L0X_SetLinearityCorrectiveGain
     /tmp/ccflrS73.s:501    .text.VL53L0X_GetLinearityCorrectiveGain:0000000000000000 $t
     /tmp/ccflrS73.s:506    .text.VL53L0X_GetLinearityCorrectiveGain:0000000000000000 VL53L0X_GetLinearityCorrectiveGain
     /tmp/ccflrS73.s:525    .text.VL53L0X_SetGroupParamHold:0000000000000000 $t
     /tmp/ccflrS73.s:530    .text.VL53L0X_SetGroupParamHold:0000000000000000 VL53L0X_SetGroupParamHold
     /tmp/ccflrS73.s:546    .text.VL53L0X_GetUpperLimitMilliMeter:0000000000000000 $t
     /tmp/ccflrS73.s:551    .text.VL53L0X_GetUpperLimitMilliMeter:0000000000000000 VL53L0X_GetUpperLimitMilliMeter
     /tmp/ccflrS73.s:567    .text.VL53L0X_GetTotalSignalRate:0000000000000000 $t
     /tmp/ccflrS73.s:572    .text.VL53L0X_GetTotalSignalRate:0000000000000000 VL53L0X_GetTotalSignalRate
     /tmp/ccflrS73.s:617    .text.VL53L0X_SetDeviceAddress:0000000000000000 $t
     /tmp/ccflrS73.s:622    .text.VL53L0X_SetDeviceAddress:0000000000000000 VL53L0X_SetDeviceAddress
     /tmp/ccflrS73.s:647    .text.VL53L0X_SetTuningSettingBuffer:0000000000000000 $t
     /tmp/ccflrS73.s:652    .text.VL53L0X_SetTuningSettingBuffer:0000000000000000 VL53L0X_SetTuningSettingBuffer
     /tmp/ccflrS73.s:697    .text.VL53L0X_GetTuningSettingBuffer:0000000000000000 $t
     /tmp/ccflrS73.s:702    .text.VL53L0X_GetTuningSettingBuffer:0000000000000000 VL53L0X_GetTuningSettingBuffer
     /tmp/ccflrS73.s:724    .text.VL53L0X_WaitDeviceBooted:0000000000000000 $t
     /tmp/ccflrS73.s:729    .text.VL53L0X_WaitDeviceBooted:0000000000000000 VL53L0X_WaitDeviceBooted
     /tmp/ccflrS73.s:745    .text.VL53L0X_ResetDevice:0000000000000000 $t
     /tmp/ccflrS73.s:750    .text.VL53L0X_ResetDevice:0000000000000000 VL53L0X_ResetDevice
     /tmp/ccflrS73.s:838    .text.VL53L0X_SetDeviceMode:0000000000000000 $t
     /tmp/ccflrS73.s:843    .text.VL53L0X_SetDeviceMode:0000000000000000 VL53L0X_SetDeviceMode
     /tmp/ccflrS73.s:856    .text.VL53L0X_SetDeviceMode:0000000000000008 $d
     /tmp/ccflrS73.s:878    .text.VL53L0X_SetDeviceMode:000000000000001e $t
     /tmp/ccflrS73.s:900    .text.VL53L0X_GetDeviceMode:0000000000000000 $t
     /tmp/ccflrS73.s:905    .text.VL53L0X_GetDeviceMode:0000000000000000 VL53L0X_GetDeviceMode
     /tmp/ccflrS73.s:924    .text.VL53L0X_SetRangeFractionEnable:0000000000000000 $t
     /tmp/ccflrS73.s:929    .text.VL53L0X_SetRangeFractionEnable:0000000000000000 VL53L0X_SetRangeFractionEnable
     /tmp/ccflrS73.s:966    .text.VL53L0X_GetFractionEnable:0000000000000000 $t
ARM GAS  /tmp/ccflrS73.s 			page 187


     /tmp/ccflrS73.s:971    .text.VL53L0X_GetFractionEnable:0000000000000000 VL53L0X_GetFractionEnable
     /tmp/ccflrS73.s:1007   .text.VL53L0X_SetHistogramMode:0000000000000000 $t
     /tmp/ccflrS73.s:1012   .text.VL53L0X_SetHistogramMode:0000000000000000 VL53L0X_SetHistogramMode
     /tmp/ccflrS73.s:1028   .text.VL53L0X_GetHistogramMode:0000000000000000 $t
     /tmp/ccflrS73.s:1033   .text.VL53L0X_GetHistogramMode:0000000000000000 VL53L0X_GetHistogramMode
     /tmp/ccflrS73.s:1049   .text.VL53L0X_SetMeasurementTimingBudgetMicroSeconds:0000000000000000 $t
     /tmp/ccflrS73.s:1054   .text.VL53L0X_SetMeasurementTimingBudgetMicroSeconds:0000000000000000 VL53L0X_SetMeasurementTimingBudgetMicroSeconds
     /tmp/ccflrS73.s:1076   .text.VL53L0X_GetMeasurementTimingBudgetMicroSeconds:0000000000000000 $t
     /tmp/ccflrS73.s:1081   .text.VL53L0X_GetMeasurementTimingBudgetMicroSeconds:0000000000000000 VL53L0X_GetMeasurementTimingBudgetMicroSeconds
     /tmp/ccflrS73.s:1103   .text.VL53L0X_SetVcselPulsePeriod:0000000000000000 $t
     /tmp/ccflrS73.s:1108   .text.VL53L0X_SetVcselPulsePeriod:0000000000000000 VL53L0X_SetVcselPulsePeriod
     /tmp/ccflrS73.s:1130   .text.VL53L0X_GetVcselPulsePeriod:0000000000000000 $t
     /tmp/ccflrS73.s:1135   .text.VL53L0X_GetVcselPulsePeriod:0000000000000000 VL53L0X_GetVcselPulsePeriod
     /tmp/ccflrS73.s:1157   .text.VL53L0X_SetSequenceStepEnable:0000000000000000 $t
     /tmp/ccflrS73.s:1162   .text.VL53L0X_SetSequenceStepEnable:0000000000000000 VL53L0X_SetSequenceStepEnable
     /tmp/ccflrS73.s:1209   .text.VL53L0X_SetSequenceStepEnable:000000000000002c $d
     /tmp/ccflrS73.s:1256   .text.VL53L0X_SetSequenceStepEnable:0000000000000058 $d
     /tmp/ccflrS73.s:1352   .text.sequence_step_enabled:0000000000000000 $t
     /tmp/ccflrS73.s:1357   .text.sequence_step_enabled:0000000000000000 sequence_step_enabled
     /tmp/ccflrS73.s:1374   .text.sequence_step_enabled:000000000000000c $d
     /tmp/ccflrS73.s:1442   .text.VL53L0X_GetSequenceStepEnable:0000000000000000 $t
     /tmp/ccflrS73.s:1447   .text.VL53L0X_GetSequenceStepEnable:0000000000000000 VL53L0X_GetSequenceStepEnable
     /tmp/ccflrS73.s:1503   .text.VL53L0X_GetSequenceStepEnables:0000000000000000 $t
     /tmp/ccflrS73.s:1508   .text.VL53L0X_GetSequenceStepEnables:0000000000000000 VL53L0X_GetSequenceStepEnables
     /tmp/ccflrS73.s:1613   .text.VL53L0X_GetNumberOfSequenceSteps:0000000000000000 $t
     /tmp/ccflrS73.s:1618   .text.VL53L0X_GetNumberOfSequenceSteps:0000000000000000 VL53L0X_GetNumberOfSequenceSteps
     /tmp/ccflrS73.s:1637   .text.VL53L0X_GetSequenceStepsInfo:0000000000000000 $t
     /tmp/ccflrS73.s:1642   .text.VL53L0X_GetSequenceStepsInfo:0000000000000000 VL53L0X_GetSequenceStepsInfo
     /tmp/ccflrS73.s:1664   .text.VL53L0X_SetSequenceStepTimeout:0000000000000000 $t
     /tmp/ccflrS73.s:1669   .text.VL53L0X_SetSequenceStepTimeout:0000000000000000 VL53L0X_SetSequenceStepTimeout
     /tmp/ccflrS73.s:1756   .text.VL53L0X_GetSequenceStepTimeout:0000000000000000 $t
     /tmp/ccflrS73.s:1761   .text.VL53L0X_GetSequenceStepTimeout:0000000000000000 VL53L0X_GetSequenceStepTimeout
     /tmp/ccflrS73.s:1814   .text.VL53L0X_GetSequenceStepTimeout:000000000000002c $d
     /tmp/ccflrS73.s:1819   .text.VL53L0X_SetInterMeasurementPeriodMilliSeconds:0000000000000000 $t
     /tmp/ccflrS73.s:1824   .text.VL53L0X_SetInterMeasurementPeriodMilliSeconds:0000000000000000 VL53L0X_SetInterMeasurementPeriodMilliSeconds
     /tmp/ccflrS73.s:1890   .text.VL53L0X_GetInterMeasurementPeriodMilliSeconds:0000000000000000 $t
     /tmp/ccflrS73.s:1895   .text.VL53L0X_GetInterMeasurementPeriodMilliSeconds:0000000000000000 VL53L0X_GetInterMeasurementPeriodMilliSeconds
     /tmp/ccflrS73.s:1959   .text.VL53L0X_SetXTalkCompensationEnable:0000000000000000 $t
     /tmp/ccflrS73.s:1964   .text.VL53L0X_SetXTalkCompensationEnable:0000000000000000 VL53L0X_SetXTalkCompensationEnable
     /tmp/ccflrS73.s:2033   .text.VL53L0X_GetXTalkCompensationEnable:0000000000000000 $t
     /tmp/ccflrS73.s:2038   .text.VL53L0X_GetXTalkCompensationEnable:0000000000000000 VL53L0X_GetXTalkCompensationEnable
     /tmp/ccflrS73.s:2059   .text.VL53L0X_SetXTalkCompensationRateMegaCps:0000000000000000 $t
     /tmp/ccflrS73.s:2064   .text.VL53L0X_SetXTalkCompensationRateMegaCps:0000000000000000 VL53L0X_SetXTalkCompensationRateMegaCps
     /tmp/ccflrS73.s:2126   .text.VL53L0X_GetXTalkCompensationRateMegaCps:0000000000000000 $t
     /tmp/ccflrS73.s:2131   .text.VL53L0X_GetXTalkCompensationRateMegaCps:0000000000000000 VL53L0X_GetXTalkCompensationRateMegaCps
     /tmp/ccflrS73.s:2199   .text.VL53L0X_SetRefCalibration:0000000000000000 $t
     /tmp/ccflrS73.s:2204   .text.VL53L0X_SetRefCalibration:0000000000000000 VL53L0X_SetRefCalibration
     /tmp/ccflrS73.s:2226   .text.VL53L0X_GetRefCalibration:0000000000000000 $t
     /tmp/ccflrS73.s:2231   .text.VL53L0X_GetRefCalibration:0000000000000000 VL53L0X_GetRefCalibration
     /tmp/ccflrS73.s:2253   .text.VL53L0X_GetNumberOfLimitCheck:0000000000000000 $t
     /tmp/ccflrS73.s:2258   .text.VL53L0X_GetNumberOfLimitCheck:0000000000000000 VL53L0X_GetNumberOfLimitCheck
     /tmp/ccflrS73.s:2277   .text.VL53L0X_GetLimitCheckInfo:0000000000000000 $t
     /tmp/ccflrS73.s:2282   .text.VL53L0X_GetLimitCheckInfo:0000000000000000 VL53L0X_GetLimitCheckInfo
     /tmp/ccflrS73.s:2304   .text.VL53L0X_GetLimitCheckStatus:0000000000000000 $t
     /tmp/ccflrS73.s:2309   .text.VL53L0X_GetLimitCheckStatus:0000000000000000 VL53L0X_GetLimitCheckStatus
     /tmp/ccflrS73.s:2344   .text.VL53L0X_SetLimitCheckEnable:0000000000000000 $t
     /tmp/ccflrS73.s:2349   .text.VL53L0X_SetLimitCheckEnable:0000000000000000 VL53L0X_SetLimitCheckEnable
ARM GAS  /tmp/ccflrS73.s 			page 188


     /tmp/ccflrS73.s:2399   .text.VL53L0X_SetLimitCheckEnable:0000000000000028 $d
     /tmp/ccflrS73.s:2405   .text.VL53L0X_SetLimitCheckEnable:000000000000002e $t
     /tmp/ccflrS73.s:2501   .text.VL53L0X_GetLimitCheckEnable:0000000000000000 $t
     /tmp/ccflrS73.s:2506   .text.VL53L0X_GetLimitCheckEnable:0000000000000000 VL53L0X_GetLimitCheckEnable
     /tmp/ccflrS73.s:2545   .text.VL53L0X_SetLimitCheckValue:0000000000000000 $t
     /tmp/ccflrS73.s:2550   .text.VL53L0X_SetLimitCheckValue:0000000000000000 VL53L0X_SetLimitCheckValue
     /tmp/ccflrS73.s:2592   .text.VL53L0X_SetLimitCheckValue:0000000000000024 $d
     /tmp/ccflrS73.s:2598   .text.VL53L0X_SetLimitCheckValue:000000000000002a $t
     /tmp/ccflrS73.s:2670   .text.VL53L0X_GetLimitCheckValue:0000000000000000 $t
     /tmp/ccflrS73.s:2675   .text.VL53L0X_GetLimitCheckValue:0000000000000000 VL53L0X_GetLimitCheckValue
     /tmp/ccflrS73.s:2702   .text.VL53L0X_GetLimitCheckValue:0000000000000012 $d
     /tmp/ccflrS73.s:2708   .text.VL53L0X_GetLimitCheckValue:0000000000000018 $t
     /tmp/ccflrS73.s:2850   .text.VL53L0X_GetLimitCheckCurrent:0000000000000000 $t
     /tmp/ccflrS73.s:2855   .text.VL53L0X_GetLimitCheckCurrent:0000000000000000 VL53L0X_GetLimitCheckCurrent
     /tmp/ccflrS73.s:2882   .text.VL53L0X_GetLimitCheckCurrent:0000000000000012 $d
     /tmp/ccflrS73.s:2888   .text.VL53L0X_GetLimitCheckCurrent:0000000000000018 $t
     /tmp/ccflrS73.s:3022   .text.VL53L0X_SetWrapAroundCheckEnable:0000000000000000 $t
     /tmp/ccflrS73.s:3027   .text.VL53L0X_SetWrapAroundCheckEnable:0000000000000000 VL53L0X_SetWrapAroundCheckEnable
     /tmp/ccflrS73.s:3098   .text.VL53L0X_SetDeviceParameters:0000000000000000 $t
     /tmp/ccflrS73.s:3103   .text.VL53L0X_SetDeviceParameters:0000000000000000 VL53L0X_SetDeviceParameters
     /tmp/ccflrS73.s:3226   .text.VL53L0X_GetWrapAroundCheckEnable:0000000000000000 $t
     /tmp/ccflrS73.s:3231   .text.VL53L0X_GetWrapAroundCheckEnable:0000000000000000 VL53L0X_GetWrapAroundCheckEnable
     /tmp/ccflrS73.s:3292   .text.VL53L0X_GetDeviceParameters:0000000000000000 $t
     /tmp/ccflrS73.s:3297   .text.VL53L0X_GetDeviceParameters:0000000000000000 VL53L0X_GetDeviceParameters
     /tmp/ccflrS73.s:3429   .text.VL53L0X_DataInit:0000000000000000 $t
     /tmp/ccflrS73.s:3434   .text.VL53L0X_DataInit:0000000000000000 VL53L0X_DataInit
     /tmp/ccflrS73.s:3728   .text.VL53L0X_DataInit:00000000000001a8 $d
     /tmp/ccflrS73.s:3734   .text.VL53L0X_SetDmaxCalParameters:0000000000000000 $t
     /tmp/ccflrS73.s:3739   .text.VL53L0X_SetDmaxCalParameters:0000000000000000 VL53L0X_SetDmaxCalParameters
     /tmp/ccflrS73.s:3789   .text.VL53L0X_GetDmaxCalParameters:0000000000000000 $t
     /tmp/ccflrS73.s:3794   .text.VL53L0X_GetDmaxCalParameters:0000000000000000 VL53L0X_GetDmaxCalParameters
     /tmp/ccflrS73.s:3816   .text.VL53L0X_PerformSingleHistogramMeasurement:0000000000000000 $t
     /tmp/ccflrS73.s:3821   .text.VL53L0X_PerformSingleHistogramMeasurement:0000000000000000 VL53L0X_PerformSingleHistogramMeasurement
     /tmp/ccflrS73.s:3837   .text.VL53L0X_PerformRefCalibration:0000000000000000 $t
     /tmp/ccflrS73.s:3842   .text.VL53L0X_PerformRefCalibration:0000000000000000 VL53L0X_PerformRefCalibration
     /tmp/ccflrS73.s:3865   .text.VL53L0X_PerformXTalkMeasurement:0000000000000000 $t
     /tmp/ccflrS73.s:3870   .text.VL53L0X_PerformXTalkMeasurement:0000000000000000 VL53L0X_PerformXTalkMeasurement
     /tmp/ccflrS73.s:3886   .text.VL53L0X_PerformXTalkCalibration:0000000000000000 $t
     /tmp/ccflrS73.s:3891   .text.VL53L0X_PerformXTalkCalibration:0000000000000000 VL53L0X_PerformXTalkCalibration
     /tmp/ccflrS73.s:3913   .text.VL53L0X_PerformOffsetCalibration:0000000000000000 $t
     /tmp/ccflrS73.s:3918   .text.VL53L0X_PerformOffsetCalibration:0000000000000000 VL53L0X_PerformOffsetCalibration
     /tmp/ccflrS73.s:3940   .text.VL53L0X_WaitDeviceReadyForNewMeasurement:0000000000000000 $t
     /tmp/ccflrS73.s:3945   .text.VL53L0X_WaitDeviceReadyForNewMeasurement:0000000000000000 VL53L0X_WaitDeviceReadyForNewMeasurement
     /tmp/ccflrS73.s:3961   .text.VL53L0X_GetRangingMeasurementData:0000000000000000 $t
     /tmp/ccflrS73.s:3966   .text.VL53L0X_GetRangingMeasurementData:0000000000000000 VL53L0X_GetRangingMeasurementData
     /tmp/ccflrS73.s:4211   .text.VL53L0X_GetRangingMeasurementData:000000000000015c $d
     /tmp/ccflrS73.s:4216   .text.VL53L0X_GetMeasurementRefSignal:0000000000000000 $t
     /tmp/ccflrS73.s:4221   .text.VL53L0X_GetMeasurementRefSignal:0000000000000000 VL53L0X_GetMeasurementRefSignal
     /tmp/ccflrS73.s:4272   .text.VL53L0X_GetHistogramMeasurementData:0000000000000000 $t
     /tmp/ccflrS73.s:4277   .text.VL53L0X_GetHistogramMeasurementData:0000000000000000 VL53L0X_GetHistogramMeasurementData
     /tmp/ccflrS73.s:4293   .text.VL53L0X_SetNumberOfROIZones:0000000000000000 $t
     /tmp/ccflrS73.s:4298   .text.VL53L0X_SetNumberOfROIZones:0000000000000000 VL53L0X_SetNumberOfROIZones
     /tmp/ccflrS73.s:4326   .text.VL53L0X_GetNumberOfROIZones:0000000000000000 $t
     /tmp/ccflrS73.s:4331   .text.VL53L0X_GetNumberOfROIZones:0000000000000000 VL53L0X_GetNumberOfROIZones
     /tmp/ccflrS73.s:4350   .text.VL53L0X_GetMaxNumberOfROIZones:0000000000000000 $t
     /tmp/ccflrS73.s:4355   .text.VL53L0X_GetMaxNumberOfROIZones:0000000000000000 VL53L0X_GetMaxNumberOfROIZones
     /tmp/ccflrS73.s:4374   .text.VL53L0X_GetGpioConfig:0000000000000000 $t
ARM GAS  /tmp/ccflrS73.s 			page 189


     /tmp/ccflrS73.s:4379   .text.VL53L0X_GetGpioConfig:0000000000000000 VL53L0X_GetGpioConfig
     /tmp/ccflrS73.s:4436   .text.VL53L0X_GetGpioConfig:000000000000003a $d
     /tmp/ccflrS73.s:4521   .text.VL53L0X_SetInterruptThresholds:0000000000000000 $t
     /tmp/ccflrS73.s:4526   .text.VL53L0X_SetInterruptThresholds:0000000000000000 VL53L0X_SetInterruptThresholds
     /tmp/ccflrS73.s:4571   .text.VL53L0X_GetInterruptThresholds:0000000000000000 $t
     /tmp/ccflrS73.s:4576   .text.VL53L0X_GetInterruptThresholds:0000000000000000 VL53L0X_GetInterruptThresholds
     /tmp/ccflrS73.s:4640   .text.VL53L0X_CheckAndLoadInterruptSettings:0000000000000000 $t
     /tmp/ccflrS73.s:4645   .text.VL53L0X_CheckAndLoadInterruptSettings:0000000000000000 VL53L0X_CheckAndLoadInterruptSettings
     /tmp/ccflrS73.s:4762   .text.VL53L0X_CheckAndLoadInterruptSettings:0000000000000084 $d
     /tmp/ccflrS73.s:4767   .text.VL53L0X_StartMeasurement:0000000000000000 $t
     /tmp/ccflrS73.s:4772   .text.VL53L0X_StartMeasurement:0000000000000000 VL53L0X_StartMeasurement
     /tmp/ccflrS73.s:4958   .text.VL53L0X_PerformSingleMeasurement:0000000000000000 $t
     /tmp/ccflrS73.s:4963   .text.VL53L0X_PerformSingleMeasurement:0000000000000000 VL53L0X_PerformSingleMeasurement
     /tmp/ccflrS73.s:5027   .text.VL53L0X_StopMeasurement:0000000000000000 $t
     /tmp/ccflrS73.s:5032   .text.VL53L0X_StopMeasurement:0000000000000000 VL53L0X_StopMeasurement
     /tmp/ccflrS73.s:5106   .text.VL53L0X_GetStopCompletedStatus:0000000000000000 $t
     /tmp/ccflrS73.s:5111   .text.VL53L0X_GetStopCompletedStatus:0000000000000000 VL53L0X_GetStopCompletedStatus
     /tmp/ccflrS73.s:5224   .text.VL53L0X_ClearInterruptMask:0000000000000000 $t
     /tmp/ccflrS73.s:5229   .text.VL53L0X_ClearInterruptMask:0000000000000000 VL53L0X_ClearInterruptMask
     /tmp/ccflrS73.s:5313   .text.VL53L0X_PerformSingleRangingMeasurement:0000000000000000 $t
     /tmp/ccflrS73.s:5318   .text.VL53L0X_PerformSingleRangingMeasurement:0000000000000000 VL53L0X_PerformSingleRangingMeasurement
     /tmp/ccflrS73.s:5378   .text.VL53L0X_SetGpioConfig:0000000000000000 $t
     /tmp/ccflrS73.s:5383   .text.VL53L0X_SetGpioConfig:0000000000000000 VL53L0X_SetGpioConfig
     /tmp/ccflrS73.s:5578   .text.VL53L0X_SetGpioConfig:0000000000000102 $d
     /tmp/ccflrS73.s:5691   .text.VL53L0X_StaticInit:0000000000000000 $t
     /tmp/ccflrS73.s:5696   .text.VL53L0X_StaticInit:0000000000000000 VL53L0X_StaticInit
     /tmp/ccflrS73.s:6022   .text.VL53L0X_StaticInit:00000000000001a4 $d
     /tmp/ccflrS73.s:6027   .text.VL53L0X_SetPowerMode:0000000000000000 $t
     /tmp/ccflrS73.s:6032   .text.VL53L0X_SetPowerMode:0000000000000000 VL53L0X_SetPowerMode
     /tmp/ccflrS73.s:6109   .text.VL53L0X_GetInterruptMaskStatus:0000000000000000 $t
     /tmp/ccflrS73.s:6114   .text.VL53L0X_GetInterruptMaskStatus:0000000000000000 VL53L0X_GetInterruptMaskStatus
     /tmp/ccflrS73.s:6159   .text.VL53L0X_GetMeasurementDataReady:0000000000000000 $t
     /tmp/ccflrS73.s:6164   .text.VL53L0X_GetMeasurementDataReady:0000000000000000 VL53L0X_GetMeasurementDataReady
     /tmp/ccflrS73.s:6243   .text.VL53L0X_EnableInterruptMask:0000000000000000 $t
     /tmp/ccflrS73.s:6248   .text.VL53L0X_EnableInterruptMask:0000000000000000 VL53L0X_EnableInterruptMask
     /tmp/ccflrS73.s:6264   .text.VL53L0X_SetSpadAmbientDamperThreshold:0000000000000000 $t
     /tmp/ccflrS73.s:6269   .text.VL53L0X_SetSpadAmbientDamperThreshold:0000000000000000 VL53L0X_SetSpadAmbientDamperThreshold
     /tmp/ccflrS73.s:6318   .text.VL53L0X_GetSpadAmbientDamperThreshold:0000000000000000 $t
     /tmp/ccflrS73.s:6323   .text.VL53L0X_GetSpadAmbientDamperThreshold:0000000000000000 VL53L0X_GetSpadAmbientDamperThreshold
     /tmp/ccflrS73.s:6372   .text.VL53L0X_SetSpadAmbientDamperFactor:0000000000000000 $t
     /tmp/ccflrS73.s:6377   .text.VL53L0X_SetSpadAmbientDamperFactor:0000000000000000 VL53L0X_SetSpadAmbientDamperFactor
     /tmp/ccflrS73.s:6428   .text.VL53L0X_GetSpadAmbientDamperFactor:0000000000000000 $t
     /tmp/ccflrS73.s:6433   .text.VL53L0X_GetSpadAmbientDamperFactor:0000000000000000 VL53L0X_GetSpadAmbientDamperFactor
     /tmp/ccflrS73.s:6492   .text.VL53L0X_SetReferenceSpads:0000000000000000 $t
     /tmp/ccflrS73.s:6497   .text.VL53L0X_SetReferenceSpads:0000000000000000 VL53L0X_SetReferenceSpads
     /tmp/ccflrS73.s:6519   .text.VL53L0X_GetReferenceSpads:0000000000000000 $t
     /tmp/ccflrS73.s:6524   .text.VL53L0X_GetReferenceSpads:0000000000000000 VL53L0X_GetReferenceSpads
     /tmp/ccflrS73.s:6546   .text.VL53L0X_PerformRefSpadManagement:0000000000000000 $t
     /tmp/ccflrS73.s:6551   .text.VL53L0X_PerformRefSpadManagement:0000000000000000 VL53L0X_PerformRefSpadManagement
     /tmp/ccflrS73.s:6828   .data.InterruptThresholdSettings:0000000000000000 InterruptThresholdSettings
     /tmp/ccflrS73.s:6579   .data.DefaultTuningSettings:0000000000000000 DefaultTuningSettings
     /tmp/ccflrS73.s:6575   .data.DefaultTuningSettings:0000000000000000 $d
     /tmp/ccflrS73.s:6824   .data.InterruptThresholdSettings:0000000000000000 $d
                     .debug_frame:0000000000000010 $d
     /tmp/ccflrS73.s:1214   .text.VL53L0X_SetSequenceStepEnable:0000000000000031 $d
     /tmp/ccflrS73.s:1214   .text.VL53L0X_SetSequenceStepEnable:0000000000000032 $t
     /tmp/ccflrS73.s:1261   .text.VL53L0X_SetSequenceStepEnable:000000000000005d $d
ARM GAS  /tmp/ccflrS73.s 			page 190


     /tmp/ccflrS73.s:1261   .text.VL53L0X_SetSequenceStepEnable:000000000000005e $t
     /tmp/ccflrS73.s:1379   .text.sequence_step_enabled:0000000000000011 $d
     /tmp/ccflrS73.s:1379   .text.sequence_step_enabled:0000000000000012 $t
     /tmp/ccflrS73.s:4441   .text.VL53L0X_GetGpioConfig:000000000000003f $d
     /tmp/ccflrS73.s:4441   .text.VL53L0X_GetGpioConfig:0000000000000040 $t
     /tmp/ccflrS73.s:5583   .text.VL53L0X_SetGpioConfig:0000000000000107 $d
     /tmp/ccflrS73.s:5583   .text.VL53L0X_SetGpioConfig:0000000000000108 $t

UNDEFINED SYMBOLS
VL53L0X_RdByte
VL53L0X_get_device_info
VL53L0X_get_device_error_string
VL53L0X_get_range_status_string
VL53L0X_get_pal_error_string
VL53L0X_get_pal_state_string
VL53L0X_set_offset_calibration_data_micro_meter
VL53L0X_get_offset_calibration_data_micro_meter
VL53L0X_WrWord
VL53L0X_get_total_signal_rate
VL53L0X_WrByte
VL53L0X_PollingDelay
VL53L0X_set_measurement_timing_budget_micro_seconds
VL53L0X_get_measurement_timing_budget_micro_seconds
VL53L0X_set_vcsel_pulse_period
VL53L0X_get_vcsel_pulse_period
VL53L0X_get_sequence_steps_info
get_sequence_step_timeout
set_sequence_step_timeout
VL53L0X_RdWord
VL53L0X_WrDWord
VL53L0X_RdDWord
VL53L0X_set_ref_calibration
VL53L0X_get_ref_calibration
VL53L0X_get_limit_check_info
VL53L0X_UpdateByte
VL53L0X_get_info_from_device
VL53L0X_perform_ref_calibration
VL53L0X_perform_xtalk_calibration
VL53L0X_perform_offset_calibration
VL53L0X_ReadMulti
VL53L0X_get_pal_range_status
VL53L0X_load_tuning_settings
VL53L0X_measurement_poll_for_completion
memset
VL53L0X_perform_ref_spad_management
VL53L0X_set_reference_spads
VL53L0X_get_reference_spads
