ARM GAS  /tmp/ccflrS73.s 			page 1


   1              		.syntax unified
   2              		.cpu cortex-m4
   3              		.eabi_attribute 27, 1
   4              		.eabi_attribute 28, 1
   5              		.fpu fpv4-sp-d16
   6              		.eabi_attribute 20, 1
   7              		.eabi_attribute 21, 1
   8              		.eabi_attribute 23, 3
   9              		.eabi_attribute 24, 1
  10              		.eabi_attribute 25, 1
  11              		.eabi_attribute 26, 1
  12              		.eabi_attribute 30, 1
  13              		.eabi_attribute 34, 1
  14              		.eabi_attribute 18, 4
  15              		.thumb
  16              		.file	"vl53l0x_api.c"
  17              		.text
  18              	.Ltext0:
  19              		.cfi_sections	.debug_frame
  20              		.section	.text.VL53L0X_GetVersion,"ax",%progbits
  21              		.align	2
  22              		.global	VL53L0X_GetVersion
  23              		.thumb
  24              		.thumb_func
  26              	VL53L0X_GetVersion:
  27              	.LFB112:
  28              		.file 1 "../Drivers/BSP/Components/vl53l0x/vl53l0x_api.c"
   1:../Drivers/BSP/Components/vl53l0x/vl53l0x_api.c **** /*******************************************************************************
   2:../Drivers/BSP/Components/vl53l0x/vl53l0x_api.c ****  Copyright © 2016, STMicroelectronics International N.V.
   3:../Drivers/BSP/Components/vl53l0x/vl53l0x_api.c ****  All rights reserved.
   4:../Drivers/BSP/Components/vl53l0x/vl53l0x_api.c **** 
   5:../Drivers/BSP/Components/vl53l0x/vl53l0x_api.c ****  Redistribution and use in source and binary forms, with or without
   6:../Drivers/BSP/Components/vl53l0x/vl53l0x_api.c ****  modification, are permitted provided that the following conditions are met:
   7:../Drivers/BSP/Components/vl53l0x/vl53l0x_api.c ****  * Redistributions of source code must retain the above copyright
   8:../Drivers/BSP/Components/vl53l0x/vl53l0x_api.c ****  notice, this list of conditions and the following disclaimer.
   9:../Drivers/BSP/Components/vl53l0x/vl53l0x_api.c ****  * Redistributions in binary form must reproduce the above copyright
  10:../Drivers/BSP/Components/vl53l0x/vl53l0x_api.c ****  notice, this list of conditions and the following disclaimer in the
  11:../Drivers/BSP/Components/vl53l0x/vl53l0x_api.c ****  documentation and/or other materials provided with the distribution.
  12:../Drivers/BSP/Components/vl53l0x/vl53l0x_api.c ****  * Neither the name of STMicroelectronics nor the
  13:../Drivers/BSP/Components/vl53l0x/vl53l0x_api.c ****  names of its contributors may be used to endorse or promote products
  14:../Drivers/BSP/Components/vl53l0x/vl53l0x_api.c ****  derived from this software without specific prior written permission.
  15:../Drivers/BSP/Components/vl53l0x/vl53l0x_api.c **** 
  16:../Drivers/BSP/Components/vl53l0x/vl53l0x_api.c ****  THIS SOFTWARE IS PROVIDED BY THE COPYRIGHT HOLDERS AND CONTRIBUTORS "AS IS" AND
  17:../Drivers/BSP/Components/vl53l0x/vl53l0x_api.c ****  ANY EXPRESS OR IMPLIED WARRANTIES, INCLUDING, BUT NOT LIMITED TO, THE IMPLIED
  18:../Drivers/BSP/Components/vl53l0x/vl53l0x_api.c ****  WARRANTIES OF MERCHANTABILITY, FITNESS FOR A PARTICULAR PURPOSE, AND
  19:../Drivers/BSP/Components/vl53l0x/vl53l0x_api.c ****  NON-INFRINGEMENT OF INTELLECTUAL PROPERTY RIGHTS ARE DISCLAIMED.
  20:../Drivers/BSP/Components/vl53l0x/vl53l0x_api.c ****  IN NO EVENT SHALL STMICROELECTRONICS INTERNATIONAL N.V. BE LIABLE FOR ANY
  21:../Drivers/BSP/Components/vl53l0x/vl53l0x_api.c ****  DIRECT, INDIRECT, INCIDENTAL, SPECIAL, EXEMPLARY, OR CONSEQUENTIAL DAMAGES
  22:../Drivers/BSP/Components/vl53l0x/vl53l0x_api.c ****  (INCLUDING, BUT NOT LIMITED TO, PROCUREMENT OF SUBSTITUTE GOODS OR SERVICES;
  23:../Drivers/BSP/Components/vl53l0x/vl53l0x_api.c ****  LOSS OF USE, DATA, OR PROFITS; OR BUSINESS INTERRUPTION) HOWEVER CAUSED AND
  24:../Drivers/BSP/Components/vl53l0x/vl53l0x_api.c ****  ON ANY THEORY OF LIABILITY, WHETHER IN CONTRACT, STRICT LIABILITY, OR TORT
  25:../Drivers/BSP/Components/vl53l0x/vl53l0x_api.c ****  (INCLUDING NEGLIGENCE OR OTHERWISE) ARISING IN ANY WAY OUT OF THE USE OF THIS
  26:../Drivers/BSP/Components/vl53l0x/vl53l0x_api.c ****  SOFTWARE, EVEN IF ADVISED OF THE POSSIBILITY OF SUCH DAMAGE.
  27:../Drivers/BSP/Components/vl53l0x/vl53l0x_api.c ****  ******************************************************************************/
  28:../Drivers/BSP/Components/vl53l0x/vl53l0x_api.c **** 
  29:../Drivers/BSP/Components/vl53l0x/vl53l0x_api.c **** #include "vl53l0x_api.h"
  30:../Drivers/BSP/Components/vl53l0x/vl53l0x_api.c **** #include "vl53l0x_tuning.h"
ARM GAS  /tmp/ccflrS73.s 			page 2


  31:../Drivers/BSP/Components/vl53l0x/vl53l0x_api.c **** #include "vl53l0x_interrupt_threshold_settings.h"
  32:../Drivers/BSP/Components/vl53l0x/vl53l0x_api.c **** #include "vl53l0x_api_core.h"
  33:../Drivers/BSP/Components/vl53l0x/vl53l0x_api.c **** #include "vl53l0x_api_calibration.h"
  34:../Drivers/BSP/Components/vl53l0x/vl53l0x_api.c **** #include "vl53l0x_api_strings.h"
  35:../Drivers/BSP/Components/vl53l0x/vl53l0x_api.c **** 
  36:../Drivers/BSP/Components/vl53l0x/vl53l0x_api.c **** #ifndef __KERNEL__
  37:../Drivers/BSP/Components/vl53l0x/vl53l0x_api.c **** #include <stdlib.h>
  38:../Drivers/BSP/Components/vl53l0x/vl53l0x_api.c **** #endif
  39:../Drivers/BSP/Components/vl53l0x/vl53l0x_api.c **** #define LOG_FUNCTION_START(fmt, ...) \
  40:../Drivers/BSP/Components/vl53l0x/vl53l0x_api.c **** 	_LOG_FUNCTION_START(TRACE_MODULE_API, fmt, ##__VA_ARGS__)
  41:../Drivers/BSP/Components/vl53l0x/vl53l0x_api.c **** #define LOG_FUNCTION_END(status, ...) \
  42:../Drivers/BSP/Components/vl53l0x/vl53l0x_api.c **** 	_LOG_FUNCTION_END(TRACE_MODULE_API, status, ##__VA_ARGS__)
  43:../Drivers/BSP/Components/vl53l0x/vl53l0x_api.c **** #define LOG_FUNCTION_END_FMT(status, fmt, ...) \
  44:../Drivers/BSP/Components/vl53l0x/vl53l0x_api.c **** 	_LOG_FUNCTION_END_FMT(TRACE_MODULE_API, status, fmt, ##__VA_ARGS__)
  45:../Drivers/BSP/Components/vl53l0x/vl53l0x_api.c **** 
  46:../Drivers/BSP/Components/vl53l0x/vl53l0x_api.c **** #ifdef VL53L0X_LOG_ENABLE
  47:../Drivers/BSP/Components/vl53l0x/vl53l0x_api.c **** #define trace_print(level, ...) trace_print_module_function(TRACE_MODULE_API, \
  48:../Drivers/BSP/Components/vl53l0x/vl53l0x_api.c **** 	level, TRACE_FUNCTION_NONE, ##__VA_ARGS__)
  49:../Drivers/BSP/Components/vl53l0x/vl53l0x_api.c **** #endif
  50:../Drivers/BSP/Components/vl53l0x/vl53l0x_api.c **** 
  51:../Drivers/BSP/Components/vl53l0x/vl53l0x_api.c **** /* Group PAL General Functions */
  52:../Drivers/BSP/Components/vl53l0x/vl53l0x_api.c **** 
  53:../Drivers/BSP/Components/vl53l0x/vl53l0x_api.c **** VL53L0X_Error VL53L0X_GetVersion(VL53L0X_Version_t *pVersion)
  54:../Drivers/BSP/Components/vl53l0x/vl53l0x_api.c **** {
  29              		.loc 1 54 0
  30              		.cfi_startproc
  31              		@ args = 0, pretend = 0, frame = 0
  32              		@ frame_needed = 0, uses_anonymous_args = 0
  33              		@ link register save eliminated.
  34              	.LVL0:
  35 0000 0346     		mov	r3, r0
  36              	.LVL1:
  55:../Drivers/BSP/Components/vl53l0x/vl53l0x_api.c **** 	VL53L0X_Error Status = VL53L0X_ERROR_NONE;
  56:../Drivers/BSP/Components/vl53l0x/vl53l0x_api.c **** 	LOG_FUNCTION_START("");
  57:../Drivers/BSP/Components/vl53l0x/vl53l0x_api.c **** 
  58:../Drivers/BSP/Components/vl53l0x/vl53l0x_api.c **** 	pVersion->major = VL53L0X_IMPLEMENTATION_VER_MAJOR;
  37              		.loc 1 58 0
  38 0002 0122     		movs	r2, #1
  39 0004 0271     		strb	r2, [r0, #4]
  59:../Drivers/BSP/Components/vl53l0x/vl53l0x_api.c **** 	pVersion->minor = VL53L0X_IMPLEMENTATION_VER_MINOR;
  40              		.loc 1 59 0
  41 0006 0020     		movs	r0, #0
  42              	.LVL2:
  43 0008 5871     		strb	r0, [r3, #5]
  60:../Drivers/BSP/Components/vl53l0x/vl53l0x_api.c **** 	pVersion->build = VL53L0X_IMPLEMENTATION_VER_SUB;
  44              		.loc 1 60 0
  45 000a 0222     		movs	r2, #2
  46 000c 9A71     		strb	r2, [r3, #6]
  61:../Drivers/BSP/Components/vl53l0x/vl53l0x_api.c **** 
  62:../Drivers/BSP/Components/vl53l0x/vl53l0x_api.c **** 	pVersion->revision = VL53L0X_IMPLEMENTATION_VER_REVISION;
  47              		.loc 1 62 0
  48 000e 41F2D722 		movw	r2, #4823
  49 0012 1A60     		str	r2, [r3]
  63:../Drivers/BSP/Components/vl53l0x/vl53l0x_api.c **** 
  64:../Drivers/BSP/Components/vl53l0x/vl53l0x_api.c **** 	LOG_FUNCTION_END(Status);
  65:../Drivers/BSP/Components/vl53l0x/vl53l0x_api.c **** 	return Status;
  66:../Drivers/BSP/Components/vl53l0x/vl53l0x_api.c **** }
ARM GAS  /tmp/ccflrS73.s 			page 3


  50              		.loc 1 66 0
  51 0014 7047     		bx	lr
  52              		.cfi_endproc
  53              	.LFE112:
  55 0016 00BF     		.section	.text.VL53L0X_GetPalSpecVersion,"ax",%progbits
  56              		.align	2
  57              		.global	VL53L0X_GetPalSpecVersion
  58              		.thumb
  59              		.thumb_func
  61              	VL53L0X_GetPalSpecVersion:
  62              	.LFB113:
  67:../Drivers/BSP/Components/vl53l0x/vl53l0x_api.c **** 
  68:../Drivers/BSP/Components/vl53l0x/vl53l0x_api.c **** VL53L0X_Error VL53L0X_GetPalSpecVersion(VL53L0X_Version_t *pPalSpecVersion)
  69:../Drivers/BSP/Components/vl53l0x/vl53l0x_api.c **** {
  63              		.loc 1 69 0
  64              		.cfi_startproc
  65              		@ args = 0, pretend = 0, frame = 0
  66              		@ frame_needed = 0, uses_anonymous_args = 0
  67              		@ link register save eliminated.
  68              	.LVL3:
  70:../Drivers/BSP/Components/vl53l0x/vl53l0x_api.c **** 	VL53L0X_Error Status = VL53L0X_ERROR_NONE;
  71:../Drivers/BSP/Components/vl53l0x/vl53l0x_api.c **** 
  72:../Drivers/BSP/Components/vl53l0x/vl53l0x_api.c **** 	LOG_FUNCTION_START("");
  73:../Drivers/BSP/Components/vl53l0x/vl53l0x_api.c **** 
  74:../Drivers/BSP/Components/vl53l0x/vl53l0x_api.c **** 	pPalSpecVersion->major = VL53L0X_SPECIFICATION_VER_MAJOR;
  69              		.loc 1 74 0
  70 0000 0123     		movs	r3, #1
  71 0002 0371     		strb	r3, [r0, #4]
  75:../Drivers/BSP/Components/vl53l0x/vl53l0x_api.c **** 	pPalSpecVersion->minor = VL53L0X_SPECIFICATION_VER_MINOR;
  72              		.loc 1 75 0
  73 0004 0223     		movs	r3, #2
  74 0006 4371     		strb	r3, [r0, #5]
  76:../Drivers/BSP/Components/vl53l0x/vl53l0x_api.c **** 	pPalSpecVersion->build = VL53L0X_SPECIFICATION_VER_SUB;
  75              		.loc 1 76 0
  76 0008 0723     		movs	r3, #7
  77 000a 8371     		strb	r3, [r0, #6]
  77:../Drivers/BSP/Components/vl53l0x/vl53l0x_api.c **** 
  78:../Drivers/BSP/Components/vl53l0x/vl53l0x_api.c **** 	pPalSpecVersion->revision = VL53L0X_SPECIFICATION_VER_REVISION;
  78              		.loc 1 78 0
  79 000c 4FF4B463 		mov	r3, #1440
  80 0010 0360     		str	r3, [r0]
  79:../Drivers/BSP/Components/vl53l0x/vl53l0x_api.c **** 
  80:../Drivers/BSP/Components/vl53l0x/vl53l0x_api.c **** 	LOG_FUNCTION_END(Status);
  81:../Drivers/BSP/Components/vl53l0x/vl53l0x_api.c **** 	return Status;
  82:../Drivers/BSP/Components/vl53l0x/vl53l0x_api.c **** }
  81              		.loc 1 82 0
  82 0012 0020     		movs	r0, #0
  83              	.LVL4:
  84 0014 7047     		bx	lr
  85              		.cfi_endproc
  86              	.LFE113:
  88 0016 00BF     		.section	.text.VL53L0X_GetProductRevision,"ax",%progbits
  89              		.align	2
  90              		.global	VL53L0X_GetProductRevision
  91              		.thumb
  92              		.thumb_func
  94              	VL53L0X_GetProductRevision:
ARM GAS  /tmp/ccflrS73.s 			page 4


  95              	.LFB114:
  83:../Drivers/BSP/Components/vl53l0x/vl53l0x_api.c **** 
  84:../Drivers/BSP/Components/vl53l0x/vl53l0x_api.c **** VL53L0X_Error VL53L0X_GetProductRevision(VL53L0X_DEV Dev,
  85:../Drivers/BSP/Components/vl53l0x/vl53l0x_api.c **** 	uint8_t *pProductRevisionMajor, uint8_t *pProductRevisionMinor)
  86:../Drivers/BSP/Components/vl53l0x/vl53l0x_api.c **** {
  96              		.loc 1 86 0
  97              		.cfi_startproc
  98              		@ args = 0, pretend = 0, frame = 8
  99              		@ frame_needed = 0, uses_anonymous_args = 0
 100              	.LVL5:
 101 0000 30B5     		push	{r4, r5, lr}
 102              	.LCFI0:
 103              		.cfi_def_cfa_offset 12
 104              		.cfi_offset 4, -12
 105              		.cfi_offset 5, -8
 106              		.cfi_offset 14, -4
 107 0002 83B0     		sub	sp, sp, #12
 108              	.LCFI1:
 109              		.cfi_def_cfa_offset 24
 110 0004 0D46     		mov	r5, r1
 111 0006 1446     		mov	r4, r2
 112              	.LVL6:
  87:../Drivers/BSP/Components/vl53l0x/vl53l0x_api.c **** 	VL53L0X_Error Status = VL53L0X_ERROR_NONE;
  88:../Drivers/BSP/Components/vl53l0x/vl53l0x_api.c **** 	uint8_t revision_id;
  89:../Drivers/BSP/Components/vl53l0x/vl53l0x_api.c **** 
  90:../Drivers/BSP/Components/vl53l0x/vl53l0x_api.c **** 	LOG_FUNCTION_START("");
  91:../Drivers/BSP/Components/vl53l0x/vl53l0x_api.c **** 
  92:../Drivers/BSP/Components/vl53l0x/vl53l0x_api.c **** 	Status = VL53L0X_RdByte(Dev, VL53L0X_REG_IDENTIFICATION_REVISION_ID,
 113              		.loc 1 92 0
 114 0008 C221     		movs	r1, #194
 115              	.LVL7:
 116 000a 0DF10702 		add	r2, sp, #7
 117              	.LVL8:
 118 000e FFF7FEFF 		bl	VL53L0X_RdByte
 119              	.LVL9:
  93:../Drivers/BSP/Components/vl53l0x/vl53l0x_api.c **** 		&revision_id);
  94:../Drivers/BSP/Components/vl53l0x/vl53l0x_api.c **** 	*pProductRevisionMajor = 1;
 120              		.loc 1 94 0
 121 0012 0123     		movs	r3, #1
 122 0014 2B70     		strb	r3, [r5]
  95:../Drivers/BSP/Components/vl53l0x/vl53l0x_api.c **** 	*pProductRevisionMinor = (revision_id & 0xF0) >> 4;
 123              		.loc 1 95 0
 124 0016 9DF80730 		ldrb	r3, [sp, #7]	@ zero_extendqisi2
 125 001a 1B09     		lsrs	r3, r3, #4
 126 001c 2370     		strb	r3, [r4]
  96:../Drivers/BSP/Components/vl53l0x/vl53l0x_api.c **** 
  97:../Drivers/BSP/Components/vl53l0x/vl53l0x_api.c **** 	LOG_FUNCTION_END(Status);
  98:../Drivers/BSP/Components/vl53l0x/vl53l0x_api.c **** 	return Status;
  99:../Drivers/BSP/Components/vl53l0x/vl53l0x_api.c **** 
 100:../Drivers/BSP/Components/vl53l0x/vl53l0x_api.c **** }
 127              		.loc 1 100 0
 128 001e 03B0     		add	sp, sp, #12
 129              	.LCFI2:
 130              		.cfi_def_cfa_offset 12
 131              		@ sp needed
 132 0020 30BD     		pop	{r4, r5, pc}
 133              		.cfi_endproc
ARM GAS  /tmp/ccflrS73.s 			page 5


 134              	.LFE114:
 136 0022 00BF     		.section	.text.VL53L0X_GetDeviceInfo,"ax",%progbits
 137              		.align	2
 138              		.global	VL53L0X_GetDeviceInfo
 139              		.thumb
 140              		.thumb_func
 142              	VL53L0X_GetDeviceInfo:
 143              	.LFB115:
 101:../Drivers/BSP/Components/vl53l0x/vl53l0x_api.c **** 
 102:../Drivers/BSP/Components/vl53l0x/vl53l0x_api.c **** VL53L0X_Error VL53L0X_GetDeviceInfo(VL53L0X_DEV Dev,
 103:../Drivers/BSP/Components/vl53l0x/vl53l0x_api.c **** 	VL53L0X_DeviceInfo_t *pVL53L0X_DeviceInfo)
 104:../Drivers/BSP/Components/vl53l0x/vl53l0x_api.c **** {
 144              		.loc 1 104 0
 145              		.cfi_startproc
 146              		@ args = 0, pretend = 0, frame = 0
 147              		@ frame_needed = 0, uses_anonymous_args = 0
 148              	.LVL10:
 149 0000 08B5     		push	{r3, lr}
 150              	.LCFI3:
 151              		.cfi_def_cfa_offset 8
 152              		.cfi_offset 3, -8
 153              		.cfi_offset 14, -4
 154              	.LVL11:
 105:../Drivers/BSP/Components/vl53l0x/vl53l0x_api.c **** 	VL53L0X_Error Status = VL53L0X_ERROR_NONE;
 106:../Drivers/BSP/Components/vl53l0x/vl53l0x_api.c **** 	LOG_FUNCTION_START("");
 107:../Drivers/BSP/Components/vl53l0x/vl53l0x_api.c **** 
 108:../Drivers/BSP/Components/vl53l0x/vl53l0x_api.c **** 	Status = VL53L0X_get_device_info(Dev, pVL53L0X_DeviceInfo);
 155              		.loc 1 108 0
 156 0002 FFF7FEFF 		bl	VL53L0X_get_device_info
 157              	.LVL12:
 109:../Drivers/BSP/Components/vl53l0x/vl53l0x_api.c **** 
 110:../Drivers/BSP/Components/vl53l0x/vl53l0x_api.c **** 	LOG_FUNCTION_END(Status);
 111:../Drivers/BSP/Components/vl53l0x/vl53l0x_api.c **** 	return Status;
 112:../Drivers/BSP/Components/vl53l0x/vl53l0x_api.c **** }
 158              		.loc 1 112 0
 159 0006 08BD     		pop	{r3, pc}
 160              		.cfi_endproc
 161              	.LFE115:
 163              		.section	.text.VL53L0X_GetDeviceErrorStatus,"ax",%progbits
 164              		.align	2
 165              		.global	VL53L0X_GetDeviceErrorStatus
 166              		.thumb
 167              		.thumb_func
 169              	VL53L0X_GetDeviceErrorStatus:
 170              	.LFB116:
 113:../Drivers/BSP/Components/vl53l0x/vl53l0x_api.c **** 
 114:../Drivers/BSP/Components/vl53l0x/vl53l0x_api.c **** VL53L0X_Error VL53L0X_GetDeviceErrorStatus(VL53L0X_DEV Dev,
 115:../Drivers/BSP/Components/vl53l0x/vl53l0x_api.c **** 	VL53L0X_DeviceError *pDeviceErrorStatus)
 116:../Drivers/BSP/Components/vl53l0x/vl53l0x_api.c **** {
 171              		.loc 1 116 0
 172              		.cfi_startproc
 173              		@ args = 0, pretend = 0, frame = 8
 174              		@ frame_needed = 0, uses_anonymous_args = 0
 175              	.LVL13:
 176 0000 10B5     		push	{r4, lr}
 177              	.LCFI4:
 178              		.cfi_def_cfa_offset 8
ARM GAS  /tmp/ccflrS73.s 			page 6


 179              		.cfi_offset 4, -8
 180              		.cfi_offset 14, -4
 181 0002 82B0     		sub	sp, sp, #8
 182              	.LCFI5:
 183              		.cfi_def_cfa_offset 16
 184 0004 0C46     		mov	r4, r1
 185              	.LVL14:
 117:../Drivers/BSP/Components/vl53l0x/vl53l0x_api.c **** 	VL53L0X_Error Status = VL53L0X_ERROR_NONE;
 118:../Drivers/BSP/Components/vl53l0x/vl53l0x_api.c **** 	uint8_t RangeStatus;
 119:../Drivers/BSP/Components/vl53l0x/vl53l0x_api.c **** 
 120:../Drivers/BSP/Components/vl53l0x/vl53l0x_api.c **** 	LOG_FUNCTION_START("");
 121:../Drivers/BSP/Components/vl53l0x/vl53l0x_api.c **** 
 122:../Drivers/BSP/Components/vl53l0x/vl53l0x_api.c **** 	Status = VL53L0X_RdByte(Dev, VL53L0X_REG_RESULT_RANGE_STATUS,
 186              		.loc 1 122 0
 187 0006 1421     		movs	r1, #20
 188              	.LVL15:
 189 0008 0DF10702 		add	r2, sp, #7
 190 000c FFF7FEFF 		bl	VL53L0X_RdByte
 191              	.LVL16:
 123:../Drivers/BSP/Components/vl53l0x/vl53l0x_api.c **** 		&RangeStatus);
 124:../Drivers/BSP/Components/vl53l0x/vl53l0x_api.c **** 
 125:../Drivers/BSP/Components/vl53l0x/vl53l0x_api.c **** 	*pDeviceErrorStatus = (VL53L0X_DeviceError)((RangeStatus & 0x78) >> 3);
 192              		.loc 1 125 0
 193 0010 9DF80730 		ldrb	r3, [sp, #7]	@ zero_extendqisi2
 194 0014 C3F3C303 		ubfx	r3, r3, #3, #4
 195 0018 2370     		strb	r3, [r4]
 126:../Drivers/BSP/Components/vl53l0x/vl53l0x_api.c **** 
 127:../Drivers/BSP/Components/vl53l0x/vl53l0x_api.c **** 	LOG_FUNCTION_END(Status);
 128:../Drivers/BSP/Components/vl53l0x/vl53l0x_api.c **** 	return Status;
 129:../Drivers/BSP/Components/vl53l0x/vl53l0x_api.c **** }
 196              		.loc 1 129 0
 197 001a 02B0     		add	sp, sp, #8
 198              	.LCFI6:
 199              		.cfi_def_cfa_offset 8
 200              		@ sp needed
 201 001c 10BD     		pop	{r4, pc}
 202              		.cfi_endproc
 203              	.LFE116:
 205 001e 00BF     		.section	.text.VL53L0X_GetDeviceErrorString,"ax",%progbits
 206              		.align	2
 207              		.global	VL53L0X_GetDeviceErrorString
 208              		.thumb
 209              		.thumb_func
 211              	VL53L0X_GetDeviceErrorString:
 212              	.LFB117:
 130:../Drivers/BSP/Components/vl53l0x/vl53l0x_api.c **** 
 131:../Drivers/BSP/Components/vl53l0x/vl53l0x_api.c **** 
 132:../Drivers/BSP/Components/vl53l0x/vl53l0x_api.c **** VL53L0X_Error VL53L0X_GetDeviceErrorString(VL53L0X_DeviceError ErrorCode,
 133:../Drivers/BSP/Components/vl53l0x/vl53l0x_api.c **** 	char *pDeviceErrorString)
 134:../Drivers/BSP/Components/vl53l0x/vl53l0x_api.c **** {
 213              		.loc 1 134 0
 214              		.cfi_startproc
 215              		@ args = 0, pretend = 0, frame = 0
 216              		@ frame_needed = 0, uses_anonymous_args = 0
 217              	.LVL17:
 218 0000 08B5     		push	{r3, lr}
 219              	.LCFI7:
ARM GAS  /tmp/ccflrS73.s 			page 7


 220              		.cfi_def_cfa_offset 8
 221              		.cfi_offset 3, -8
 222              		.cfi_offset 14, -4
 223              	.LVL18:
 135:../Drivers/BSP/Components/vl53l0x/vl53l0x_api.c **** 	VL53L0X_Error Status = VL53L0X_ERROR_NONE;
 136:../Drivers/BSP/Components/vl53l0x/vl53l0x_api.c **** 
 137:../Drivers/BSP/Components/vl53l0x/vl53l0x_api.c **** 	LOG_FUNCTION_START("");
 138:../Drivers/BSP/Components/vl53l0x/vl53l0x_api.c **** 
 139:../Drivers/BSP/Components/vl53l0x/vl53l0x_api.c **** 	Status = VL53L0X_get_device_error_string(ErrorCode, pDeviceErrorString);
 224              		.loc 1 139 0
 225 0002 FFF7FEFF 		bl	VL53L0X_get_device_error_string
 226              	.LVL19:
 140:../Drivers/BSP/Components/vl53l0x/vl53l0x_api.c **** 
 141:../Drivers/BSP/Components/vl53l0x/vl53l0x_api.c **** 	LOG_FUNCTION_END(Status);
 142:../Drivers/BSP/Components/vl53l0x/vl53l0x_api.c **** 	return Status;
 143:../Drivers/BSP/Components/vl53l0x/vl53l0x_api.c **** }
 227              		.loc 1 143 0
 228 0006 08BD     		pop	{r3, pc}
 229              		.cfi_endproc
 230              	.LFE117:
 232              		.section	.text.VL53L0X_GetRangeStatusString,"ax",%progbits
 233              		.align	2
 234              		.global	VL53L0X_GetRangeStatusString
 235              		.thumb
 236              		.thumb_func
 238              	VL53L0X_GetRangeStatusString:
 239              	.LFB118:
 144:../Drivers/BSP/Components/vl53l0x/vl53l0x_api.c **** 
 145:../Drivers/BSP/Components/vl53l0x/vl53l0x_api.c **** VL53L0X_Error VL53L0X_GetRangeStatusString(uint8_t RangeStatus,
 146:../Drivers/BSP/Components/vl53l0x/vl53l0x_api.c **** 	char *pRangeStatusString)
 147:../Drivers/BSP/Components/vl53l0x/vl53l0x_api.c **** {
 240              		.loc 1 147 0
 241              		.cfi_startproc
 242              		@ args = 0, pretend = 0, frame = 0
 243              		@ frame_needed = 0, uses_anonymous_args = 0
 244              	.LVL20:
 245 0000 08B5     		push	{r3, lr}
 246              	.LCFI8:
 247              		.cfi_def_cfa_offset 8
 248              		.cfi_offset 3, -8
 249              		.cfi_offset 14, -4
 250              	.LVL21:
 148:../Drivers/BSP/Components/vl53l0x/vl53l0x_api.c **** 	VL53L0X_Error Status = VL53L0X_ERROR_NONE;
 149:../Drivers/BSP/Components/vl53l0x/vl53l0x_api.c **** 	LOG_FUNCTION_START("");
 150:../Drivers/BSP/Components/vl53l0x/vl53l0x_api.c **** 
 151:../Drivers/BSP/Components/vl53l0x/vl53l0x_api.c **** 	Status = VL53L0X_get_range_status_string(RangeStatus,
 251              		.loc 1 151 0
 252 0002 FFF7FEFF 		bl	VL53L0X_get_range_status_string
 253              	.LVL22:
 152:../Drivers/BSP/Components/vl53l0x/vl53l0x_api.c **** 		pRangeStatusString);
 153:../Drivers/BSP/Components/vl53l0x/vl53l0x_api.c **** 
 154:../Drivers/BSP/Components/vl53l0x/vl53l0x_api.c **** 	LOG_FUNCTION_END(Status);
 155:../Drivers/BSP/Components/vl53l0x/vl53l0x_api.c **** 	return Status;
 156:../Drivers/BSP/Components/vl53l0x/vl53l0x_api.c **** }
 254              		.loc 1 156 0
 255 0006 08BD     		pop	{r3, pc}
 256              		.cfi_endproc
ARM GAS  /tmp/ccflrS73.s 			page 8


 257              	.LFE118:
 259              		.section	.text.VL53L0X_GetPalErrorString,"ax",%progbits
 260              		.align	2
 261              		.global	VL53L0X_GetPalErrorString
 262              		.thumb
 263              		.thumb_func
 265              	VL53L0X_GetPalErrorString:
 266              	.LFB119:
 157:../Drivers/BSP/Components/vl53l0x/vl53l0x_api.c **** 
 158:../Drivers/BSP/Components/vl53l0x/vl53l0x_api.c **** VL53L0X_Error VL53L0X_GetPalErrorString(VL53L0X_Error PalErrorCode,
 159:../Drivers/BSP/Components/vl53l0x/vl53l0x_api.c **** 	char *pPalErrorString)
 160:../Drivers/BSP/Components/vl53l0x/vl53l0x_api.c **** {
 267              		.loc 1 160 0
 268              		.cfi_startproc
 269              		@ args = 0, pretend = 0, frame = 0
 270              		@ frame_needed = 0, uses_anonymous_args = 0
 271              	.LVL23:
 272 0000 08B5     		push	{r3, lr}
 273              	.LCFI9:
 274              		.cfi_def_cfa_offset 8
 275              		.cfi_offset 3, -8
 276              		.cfi_offset 14, -4
 277              	.LVL24:
 161:../Drivers/BSP/Components/vl53l0x/vl53l0x_api.c **** 	VL53L0X_Error Status = VL53L0X_ERROR_NONE;
 162:../Drivers/BSP/Components/vl53l0x/vl53l0x_api.c **** 	LOG_FUNCTION_START("");
 163:../Drivers/BSP/Components/vl53l0x/vl53l0x_api.c **** 
 164:../Drivers/BSP/Components/vl53l0x/vl53l0x_api.c **** 	Status = VL53L0X_get_pal_error_string(PalErrorCode, pPalErrorString);
 278              		.loc 1 164 0
 279 0002 FFF7FEFF 		bl	VL53L0X_get_pal_error_string
 280              	.LVL25:
 165:../Drivers/BSP/Components/vl53l0x/vl53l0x_api.c **** 
 166:../Drivers/BSP/Components/vl53l0x/vl53l0x_api.c **** 	LOG_FUNCTION_END(Status);
 167:../Drivers/BSP/Components/vl53l0x/vl53l0x_api.c **** 	return Status;
 168:../Drivers/BSP/Components/vl53l0x/vl53l0x_api.c **** }
 281              		.loc 1 168 0
 282 0006 08BD     		pop	{r3, pc}
 283              		.cfi_endproc
 284              	.LFE119:
 286              		.section	.text.VL53L0X_GetPalStateString,"ax",%progbits
 287              		.align	2
 288              		.global	VL53L0X_GetPalStateString
 289              		.thumb
 290              		.thumb_func
 292              	VL53L0X_GetPalStateString:
 293              	.LFB120:
 169:../Drivers/BSP/Components/vl53l0x/vl53l0x_api.c **** 
 170:../Drivers/BSP/Components/vl53l0x/vl53l0x_api.c **** VL53L0X_Error VL53L0X_GetPalStateString(VL53L0X_State PalStateCode,
 171:../Drivers/BSP/Components/vl53l0x/vl53l0x_api.c **** 	char *pPalStateString)
 172:../Drivers/BSP/Components/vl53l0x/vl53l0x_api.c **** {
 294              		.loc 1 172 0
 295              		.cfi_startproc
 296              		@ args = 0, pretend = 0, frame = 0
 297              		@ frame_needed = 0, uses_anonymous_args = 0
 298              	.LVL26:
 299 0000 08B5     		push	{r3, lr}
 300              	.LCFI10:
 301              		.cfi_def_cfa_offset 8
ARM GAS  /tmp/ccflrS73.s 			page 9


 302              		.cfi_offset 3, -8
 303              		.cfi_offset 14, -4
 304              	.LVL27:
 173:../Drivers/BSP/Components/vl53l0x/vl53l0x_api.c **** 	VL53L0X_Error Status = VL53L0X_ERROR_NONE;
 174:../Drivers/BSP/Components/vl53l0x/vl53l0x_api.c **** 	LOG_FUNCTION_START("");
 175:../Drivers/BSP/Components/vl53l0x/vl53l0x_api.c **** 
 176:../Drivers/BSP/Components/vl53l0x/vl53l0x_api.c **** 	Status = VL53L0X_get_pal_state_string(PalStateCode, pPalStateString);
 305              		.loc 1 176 0
 306 0002 FFF7FEFF 		bl	VL53L0X_get_pal_state_string
 307              	.LVL28:
 177:../Drivers/BSP/Components/vl53l0x/vl53l0x_api.c **** 
 178:../Drivers/BSP/Components/vl53l0x/vl53l0x_api.c **** 	LOG_FUNCTION_END(Status);
 179:../Drivers/BSP/Components/vl53l0x/vl53l0x_api.c **** 	return Status;
 180:../Drivers/BSP/Components/vl53l0x/vl53l0x_api.c **** }
 308              		.loc 1 180 0
 309 0006 08BD     		pop	{r3, pc}
 310              		.cfi_endproc
 311              	.LFE120:
 313              		.section	.text.VL53L0X_GetPalState,"ax",%progbits
 314              		.align	2
 315              		.global	VL53L0X_GetPalState
 316              		.thumb
 317              		.thumb_func
 319              	VL53L0X_GetPalState:
 320              	.LFB121:
 181:../Drivers/BSP/Components/vl53l0x/vl53l0x_api.c **** 
 182:../Drivers/BSP/Components/vl53l0x/vl53l0x_api.c **** VL53L0X_Error VL53L0X_GetPalState(VL53L0X_DEV Dev, VL53L0X_State *pPalState)
 183:../Drivers/BSP/Components/vl53l0x/vl53l0x_api.c **** {
 321              		.loc 1 183 0
 322              		.cfi_startproc
 323              		@ args = 0, pretend = 0, frame = 0
 324              		@ frame_needed = 0, uses_anonymous_args = 0
 325              		@ link register save eliminated.
 326              	.LVL29:
 184:../Drivers/BSP/Components/vl53l0x/vl53l0x_api.c **** 	VL53L0X_Error Status = VL53L0X_ERROR_NONE;
 185:../Drivers/BSP/Components/vl53l0x/vl53l0x_api.c **** 	LOG_FUNCTION_START("");
 186:../Drivers/BSP/Components/vl53l0x/vl53l0x_api.c **** 
 187:../Drivers/BSP/Components/vl53l0x/vl53l0x_api.c **** 	*pPalState = PALDevDataGet(Dev, PalState);
 327              		.loc 1 187 0
 328 0000 90F83231 		ldrb	r3, [r0, #306]	@ zero_extendqisi2
 329 0004 0B70     		strb	r3, [r1]
 188:../Drivers/BSP/Components/vl53l0x/vl53l0x_api.c **** 
 189:../Drivers/BSP/Components/vl53l0x/vl53l0x_api.c **** 	LOG_FUNCTION_END(Status);
 190:../Drivers/BSP/Components/vl53l0x/vl53l0x_api.c **** 	return Status;
 191:../Drivers/BSP/Components/vl53l0x/vl53l0x_api.c **** }
 330              		.loc 1 191 0
 331 0006 0020     		movs	r0, #0
 332              	.LVL30:
 333 0008 7047     		bx	lr
 334              		.cfi_endproc
 335              	.LFE121:
 337 000a 00BF     		.section	.text.VL53L0X_GetPowerMode,"ax",%progbits
 338              		.align	2
 339              		.global	VL53L0X_GetPowerMode
 340              		.thumb
 341              		.thumb_func
 343              	VL53L0X_GetPowerMode:
ARM GAS  /tmp/ccflrS73.s 			page 10


 344              	.LFB123:
 192:../Drivers/BSP/Components/vl53l0x/vl53l0x_api.c **** 
 193:../Drivers/BSP/Components/vl53l0x/vl53l0x_api.c **** VL53L0X_Error VL53L0X_SetPowerMode(VL53L0X_DEV Dev, VL53L0X_PowerModes PowerMode)
 194:../Drivers/BSP/Components/vl53l0x/vl53l0x_api.c **** {
 195:../Drivers/BSP/Components/vl53l0x/vl53l0x_api.c **** 	VL53L0X_Error Status = VL53L0X_ERROR_NONE;
 196:../Drivers/BSP/Components/vl53l0x/vl53l0x_api.c **** 	LOG_FUNCTION_START("");
 197:../Drivers/BSP/Components/vl53l0x/vl53l0x_api.c **** 
 198:../Drivers/BSP/Components/vl53l0x/vl53l0x_api.c **** 	/* Only level1 of Power mode exists */
 199:../Drivers/BSP/Components/vl53l0x/vl53l0x_api.c **** 	if ((PowerMode != VL53L0X_POWERMODE_STANDBY_LEVEL1)
 200:../Drivers/BSP/Components/vl53l0x/vl53l0x_api.c **** 		&& (PowerMode != VL53L0X_POWERMODE_IDLE_LEVEL1)) {
 201:../Drivers/BSP/Components/vl53l0x/vl53l0x_api.c **** 		Status = VL53L0X_ERROR_MODE_NOT_SUPPORTED;
 202:../Drivers/BSP/Components/vl53l0x/vl53l0x_api.c **** 	} else if (PowerMode == VL53L0X_POWERMODE_STANDBY_LEVEL1) {
 203:../Drivers/BSP/Components/vl53l0x/vl53l0x_api.c **** 		/* set the standby level1 of power mode */
 204:../Drivers/BSP/Components/vl53l0x/vl53l0x_api.c **** 		Status = VL53L0X_WrByte(Dev, 0x80, 0x00);
 205:../Drivers/BSP/Components/vl53l0x/vl53l0x_api.c **** 		if (Status == VL53L0X_ERROR_NONE) {
 206:../Drivers/BSP/Components/vl53l0x/vl53l0x_api.c **** 			/* Set PAL State to standby */
 207:../Drivers/BSP/Components/vl53l0x/vl53l0x_api.c **** 			PALDevDataSet(Dev, PalState, VL53L0X_STATE_STANDBY);
 208:../Drivers/BSP/Components/vl53l0x/vl53l0x_api.c **** 			PALDevDataSet(Dev, PowerMode,
 209:../Drivers/BSP/Components/vl53l0x/vl53l0x_api.c **** 				VL53L0X_POWERMODE_STANDBY_LEVEL1);
 210:../Drivers/BSP/Components/vl53l0x/vl53l0x_api.c **** 		}
 211:../Drivers/BSP/Components/vl53l0x/vl53l0x_api.c **** 
 212:../Drivers/BSP/Components/vl53l0x/vl53l0x_api.c **** 	} else {
 213:../Drivers/BSP/Components/vl53l0x/vl53l0x_api.c **** 		/* VL53L0X_POWERMODE_IDLE_LEVEL1 */
 214:../Drivers/BSP/Components/vl53l0x/vl53l0x_api.c **** 		Status = VL53L0X_WrByte(Dev, 0x80, 0x00);
 215:../Drivers/BSP/Components/vl53l0x/vl53l0x_api.c **** 		if (Status == VL53L0X_ERROR_NONE)
 216:../Drivers/BSP/Components/vl53l0x/vl53l0x_api.c **** 			Status = VL53L0X_StaticInit(Dev);
 217:../Drivers/BSP/Components/vl53l0x/vl53l0x_api.c **** 
 218:../Drivers/BSP/Components/vl53l0x/vl53l0x_api.c **** 		if (Status == VL53L0X_ERROR_NONE)
 219:../Drivers/BSP/Components/vl53l0x/vl53l0x_api.c **** 			PALDevDataSet(Dev, PowerMode,
 220:../Drivers/BSP/Components/vl53l0x/vl53l0x_api.c **** 				VL53L0X_POWERMODE_IDLE_LEVEL1);
 221:../Drivers/BSP/Components/vl53l0x/vl53l0x_api.c **** 
 222:../Drivers/BSP/Components/vl53l0x/vl53l0x_api.c **** 	}
 223:../Drivers/BSP/Components/vl53l0x/vl53l0x_api.c **** 
 224:../Drivers/BSP/Components/vl53l0x/vl53l0x_api.c **** 	LOG_FUNCTION_END(Status);
 225:../Drivers/BSP/Components/vl53l0x/vl53l0x_api.c **** 	return Status;
 226:../Drivers/BSP/Components/vl53l0x/vl53l0x_api.c **** }
 227:../Drivers/BSP/Components/vl53l0x/vl53l0x_api.c **** 
 228:../Drivers/BSP/Components/vl53l0x/vl53l0x_api.c **** VL53L0X_Error VL53L0X_GetPowerMode(VL53L0X_DEV Dev, VL53L0X_PowerModes *pPowerMode)
 229:../Drivers/BSP/Components/vl53l0x/vl53l0x_api.c **** {
 345              		.loc 1 229 0
 346              		.cfi_startproc
 347              		@ args = 0, pretend = 0, frame = 8
 348              		@ frame_needed = 0, uses_anonymous_args = 0
 349              	.LVL31:
 350 0000 10B5     		push	{r4, lr}
 351              	.LCFI11:
 352              		.cfi_def_cfa_offset 8
 353              		.cfi_offset 4, -8
 354              		.cfi_offset 14, -4
 355 0002 82B0     		sub	sp, sp, #8
 356              	.LCFI12:
 357              		.cfi_def_cfa_offset 16
 358 0004 0446     		mov	r4, r0
 359              	.LVL32:
 230:../Drivers/BSP/Components/vl53l0x/vl53l0x_api.c **** 	VL53L0X_Error Status = VL53L0X_ERROR_NONE;
 231:../Drivers/BSP/Components/vl53l0x/vl53l0x_api.c **** 	uint8_t Byte;
 232:../Drivers/BSP/Components/vl53l0x/vl53l0x_api.c **** 	LOG_FUNCTION_START("");
ARM GAS  /tmp/ccflrS73.s 			page 11


 233:../Drivers/BSP/Components/vl53l0x/vl53l0x_api.c **** 
 234:../Drivers/BSP/Components/vl53l0x/vl53l0x_api.c **** 	/* Only level1 of Power mode exists */
 235:../Drivers/BSP/Components/vl53l0x/vl53l0x_api.c **** 	Status = VL53L0X_RdByte(Dev, 0x80, &Byte);
 360              		.loc 1 235 0
 361 0006 8021     		movs	r1, #128
 362              	.LVL33:
 363 0008 0DF10702 		add	r2, sp, #7
 364 000c FFF7FEFF 		bl	VL53L0X_RdByte
 365              	.LVL34:
 236:../Drivers/BSP/Components/vl53l0x/vl53l0x_api.c **** 
 237:../Drivers/BSP/Components/vl53l0x/vl53l0x_api.c **** 	if (Status == VL53L0X_ERROR_NONE) {
 366              		.loc 1 237 0
 367 0010 0346     		mov	r3, r0
 368 0012 50B9     		cbnz	r0, .L19
 238:../Drivers/BSP/Components/vl53l0x/vl53l0x_api.c **** 		if (Byte == 1) {
 369              		.loc 1 238 0
 370 0014 9DF80720 		ldrb	r2, [sp, #7]	@ zero_extendqisi2
 371 0018 012A     		cmp	r2, #1
 372 001a 03D1     		bne	.L20
 239:../Drivers/BSP/Components/vl53l0x/vl53l0x_api.c **** 			PALDevDataSet(Dev, PowerMode,
 373              		.loc 1 239 0
 374 001c 0222     		movs	r2, #2
 375 001e 84F83321 		strb	r2, [r4, #307]
 376 0022 02E0     		b	.L19
 377              	.L20:
 240:../Drivers/BSP/Components/vl53l0x/vl53l0x_api.c **** 				VL53L0X_POWERMODE_IDLE_LEVEL1);
 241:../Drivers/BSP/Components/vl53l0x/vl53l0x_api.c **** 		} else {
 242:../Drivers/BSP/Components/vl53l0x/vl53l0x_api.c **** 			PALDevDataSet(Dev, PowerMode,
 378              		.loc 1 242 0
 379 0024 0022     		movs	r2, #0
 380 0026 84F83321 		strb	r2, [r4, #307]
 381              	.L19:
 243:../Drivers/BSP/Components/vl53l0x/vl53l0x_api.c **** 				VL53L0X_POWERMODE_STANDBY_LEVEL1);
 244:../Drivers/BSP/Components/vl53l0x/vl53l0x_api.c **** 		}
 245:../Drivers/BSP/Components/vl53l0x/vl53l0x_api.c **** 	}
 246:../Drivers/BSP/Components/vl53l0x/vl53l0x_api.c **** 
 247:../Drivers/BSP/Components/vl53l0x/vl53l0x_api.c **** 	LOG_FUNCTION_END(Status);
 248:../Drivers/BSP/Components/vl53l0x/vl53l0x_api.c **** 	return Status;
 249:../Drivers/BSP/Components/vl53l0x/vl53l0x_api.c **** }
 382              		.loc 1 249 0
 383 002a 1846     		mov	r0, r3
 384              	.LVL35:
 385 002c 02B0     		add	sp, sp, #8
 386              	.LCFI13:
 387              		.cfi_def_cfa_offset 8
 388              		@ sp needed
 389 002e 10BD     		pop	{r4, pc}
 390              		.cfi_endproc
 391              	.LFE123:
 393              		.section	.text.VL53L0X_SetOffsetCalibrationDataMicroMeter,"ax",%progbits
 394              		.align	2
 395              		.global	VL53L0X_SetOffsetCalibrationDataMicroMeter
 396              		.thumb
 397              		.thumb_func
 399              	VL53L0X_SetOffsetCalibrationDataMicroMeter:
 400              	.LFB124:
 250:../Drivers/BSP/Components/vl53l0x/vl53l0x_api.c **** 
ARM GAS  /tmp/ccflrS73.s 			page 12


 251:../Drivers/BSP/Components/vl53l0x/vl53l0x_api.c **** VL53L0X_Error VL53L0X_SetOffsetCalibrationDataMicroMeter(VL53L0X_DEV Dev,
 252:../Drivers/BSP/Components/vl53l0x/vl53l0x_api.c **** 	int32_t OffsetCalibrationDataMicroMeter)
 253:../Drivers/BSP/Components/vl53l0x/vl53l0x_api.c **** {
 401              		.loc 1 253 0
 402              		.cfi_startproc
 403              		@ args = 0, pretend = 0, frame = 0
 404              		@ frame_needed = 0, uses_anonymous_args = 0
 405              	.LVL36:
 406 0000 08B5     		push	{r3, lr}
 407              	.LCFI14:
 408              		.cfi_def_cfa_offset 8
 409              		.cfi_offset 3, -8
 410              		.cfi_offset 14, -4
 411              	.LVL37:
 254:../Drivers/BSP/Components/vl53l0x/vl53l0x_api.c **** 	VL53L0X_Error Status = VL53L0X_ERROR_NONE;
 255:../Drivers/BSP/Components/vl53l0x/vl53l0x_api.c **** 	LOG_FUNCTION_START("");
 256:../Drivers/BSP/Components/vl53l0x/vl53l0x_api.c **** 
 257:../Drivers/BSP/Components/vl53l0x/vl53l0x_api.c **** 	Status = VL53L0X_set_offset_calibration_data_micro_meter(Dev,
 412              		.loc 1 257 0
 413 0002 FFF7FEFF 		bl	VL53L0X_set_offset_calibration_data_micro_meter
 414              	.LVL38:
 258:../Drivers/BSP/Components/vl53l0x/vl53l0x_api.c **** 		OffsetCalibrationDataMicroMeter);
 259:../Drivers/BSP/Components/vl53l0x/vl53l0x_api.c **** 
 260:../Drivers/BSP/Components/vl53l0x/vl53l0x_api.c **** 	LOG_FUNCTION_END(Status);
 261:../Drivers/BSP/Components/vl53l0x/vl53l0x_api.c **** 	return Status;
 262:../Drivers/BSP/Components/vl53l0x/vl53l0x_api.c **** }
 415              		.loc 1 262 0
 416 0006 08BD     		pop	{r3, pc}
 417              		.cfi_endproc
 418              	.LFE124:
 420              		.section	.text.VL53L0X_GetOffsetCalibrationDataMicroMeter,"ax",%progbits
 421              		.align	2
 422              		.global	VL53L0X_GetOffsetCalibrationDataMicroMeter
 423              		.thumb
 424              		.thumb_func
 426              	VL53L0X_GetOffsetCalibrationDataMicroMeter:
 427              	.LFB125:
 263:../Drivers/BSP/Components/vl53l0x/vl53l0x_api.c **** 
 264:../Drivers/BSP/Components/vl53l0x/vl53l0x_api.c **** VL53L0X_Error VL53L0X_GetOffsetCalibrationDataMicroMeter(VL53L0X_DEV Dev,
 265:../Drivers/BSP/Components/vl53l0x/vl53l0x_api.c **** 	int32_t *pOffsetCalibrationDataMicroMeter)
 266:../Drivers/BSP/Components/vl53l0x/vl53l0x_api.c **** {
 428              		.loc 1 266 0
 429              		.cfi_startproc
 430              		@ args = 0, pretend = 0, frame = 0
 431              		@ frame_needed = 0, uses_anonymous_args = 0
 432              	.LVL39:
 433 0000 08B5     		push	{r3, lr}
 434              	.LCFI15:
 435              		.cfi_def_cfa_offset 8
 436              		.cfi_offset 3, -8
 437              		.cfi_offset 14, -4
 438              	.LVL40:
 267:../Drivers/BSP/Components/vl53l0x/vl53l0x_api.c **** 	VL53L0X_Error Status = VL53L0X_ERROR_NONE;
 268:../Drivers/BSP/Components/vl53l0x/vl53l0x_api.c **** 	LOG_FUNCTION_START("");
 269:../Drivers/BSP/Components/vl53l0x/vl53l0x_api.c **** 
 270:../Drivers/BSP/Components/vl53l0x/vl53l0x_api.c **** 	Status = VL53L0X_get_offset_calibration_data_micro_meter(Dev,
 439              		.loc 1 270 0
ARM GAS  /tmp/ccflrS73.s 			page 13


 440 0002 FFF7FEFF 		bl	VL53L0X_get_offset_calibration_data_micro_meter
 441              	.LVL41:
 271:../Drivers/BSP/Components/vl53l0x/vl53l0x_api.c **** 		pOffsetCalibrationDataMicroMeter);
 272:../Drivers/BSP/Components/vl53l0x/vl53l0x_api.c **** 
 273:../Drivers/BSP/Components/vl53l0x/vl53l0x_api.c **** 	LOG_FUNCTION_END(Status);
 274:../Drivers/BSP/Components/vl53l0x/vl53l0x_api.c **** 	return Status;
 275:../Drivers/BSP/Components/vl53l0x/vl53l0x_api.c **** }
 442              		.loc 1 275 0
 443 0006 08BD     		pop	{r3, pc}
 444              		.cfi_endproc
 445              	.LFE125:
 447              		.section	.text.VL53L0X_SetLinearityCorrectiveGain,"ax",%progbits
 448              		.align	2
 449              		.global	VL53L0X_SetLinearityCorrectiveGain
 450              		.thumb
 451              		.thumb_func
 453              	VL53L0X_SetLinearityCorrectiveGain:
 454              	.LFB126:
 276:../Drivers/BSP/Components/vl53l0x/vl53l0x_api.c **** 
 277:../Drivers/BSP/Components/vl53l0x/vl53l0x_api.c **** VL53L0X_Error VL53L0X_SetLinearityCorrectiveGain(VL53L0X_DEV Dev,
 278:../Drivers/BSP/Components/vl53l0x/vl53l0x_api.c **** 	int16_t LinearityCorrectiveGain)
 279:../Drivers/BSP/Components/vl53l0x/vl53l0x_api.c **** {
 455              		.loc 1 279 0
 456              		.cfi_startproc
 457              		@ args = 0, pretend = 0, frame = 0
 458              		@ frame_needed = 0, uses_anonymous_args = 0
 459              	.LVL42:
 460 0000 08B5     		push	{r3, lr}
 461              	.LCFI16:
 462              		.cfi_def_cfa_offset 8
 463              		.cfi_offset 3, -8
 464              		.cfi_offset 14, -4
 465              	.LVL43:
 280:../Drivers/BSP/Components/vl53l0x/vl53l0x_api.c **** 	VL53L0X_Error Status = VL53L0X_ERROR_NONE;
 281:../Drivers/BSP/Components/vl53l0x/vl53l0x_api.c **** 	LOG_FUNCTION_START("");
 282:../Drivers/BSP/Components/vl53l0x/vl53l0x_api.c **** 
 283:../Drivers/BSP/Components/vl53l0x/vl53l0x_api.c **** 	if ((LinearityCorrectiveGain < 0) || (LinearityCorrectiveGain > 1000))
 466              		.loc 1 283 0
 467 0002 8BB2     		uxth	r3, r1
 468 0004 B3F57A7F 		cmp	r3, #1000
 469 0008 09D8     		bhi	.L28
 284:../Drivers/BSP/Components/vl53l0x/vl53l0x_api.c **** 		Status = VL53L0X_ERROR_INVALID_PARAMS;
 285:../Drivers/BSP/Components/vl53l0x/vl53l0x_api.c **** 	else {
 286:../Drivers/BSP/Components/vl53l0x/vl53l0x_api.c **** 		PALDevDataSet(Dev, LinearityCorrectiveGain,
 470              		.loc 1 286 0
 471 000a A0F85231 		strh	r3, [r0, #338]	@ movhi
 287:../Drivers/BSP/Components/vl53l0x/vl53l0x_api.c **** 			LinearityCorrectiveGain);
 288:../Drivers/BSP/Components/vl53l0x/vl53l0x_api.c **** 
 289:../Drivers/BSP/Components/vl53l0x/vl53l0x_api.c **** 		if (LinearityCorrectiveGain != 1000) {
 472              		.loc 1 289 0
 473 000e B1F57A7F 		cmp	r1, #1000
 474 0012 06D0     		beq	.L29
 290:../Drivers/BSP/Components/vl53l0x/vl53l0x_api.c **** 			/* Disable FW Xtalk */
 291:../Drivers/BSP/Components/vl53l0x/vl53l0x_api.c **** 			Status = VL53L0X_WrWord(Dev,
 475              		.loc 1 291 0
 476 0014 2021     		movs	r1, #32
 477              	.LVL44:
ARM GAS  /tmp/ccflrS73.s 			page 14


 478 0016 0022     		movs	r2, #0
 479 0018 FFF7FEFF 		bl	VL53L0X_WrWord
 480              	.LVL45:
 481 001c 02E0     		b	.L27
 482              	.LVL46:
 483              	.L28:
 284:../Drivers/BSP/Components/vl53l0x/vl53l0x_api.c **** 	else {
 484              		.loc 1 284 0
 485 001e FC20     		movs	r0, #252
 486              	.LVL47:
 487 0020 00E0     		b	.L27
 488              	.LVL48:
 489              	.L29:
 280:../Drivers/BSP/Components/vl53l0x/vl53l0x_api.c **** 	LOG_FUNCTION_START("");
 490              		.loc 1 280 0
 491 0022 0020     		movs	r0, #0
 492              	.LVL49:
 493              	.L27:
 292:../Drivers/BSP/Components/vl53l0x/vl53l0x_api.c **** 			VL53L0X_REG_CROSSTALK_COMPENSATION_PEAK_RATE_MCPS, 0);
 293:../Drivers/BSP/Components/vl53l0x/vl53l0x_api.c **** 		}
 294:../Drivers/BSP/Components/vl53l0x/vl53l0x_api.c **** 	}
 295:../Drivers/BSP/Components/vl53l0x/vl53l0x_api.c **** 
 296:../Drivers/BSP/Components/vl53l0x/vl53l0x_api.c **** 	LOG_FUNCTION_END(Status);
 297:../Drivers/BSP/Components/vl53l0x/vl53l0x_api.c **** 	return Status;
 298:../Drivers/BSP/Components/vl53l0x/vl53l0x_api.c **** }
 494              		.loc 1 298 0
 495 0024 40B2     		sxtb	r0, r0
 496 0026 08BD     		pop	{r3, pc}
 497              		.cfi_endproc
 498              	.LFE126:
 500              		.section	.text.VL53L0X_GetLinearityCorrectiveGain,"ax",%progbits
 501              		.align	2
 502              		.global	VL53L0X_GetLinearityCorrectiveGain
 503              		.thumb
 504              		.thumb_func
 506              	VL53L0X_GetLinearityCorrectiveGain:
 507              	.LFB127:
 299:../Drivers/BSP/Components/vl53l0x/vl53l0x_api.c **** 
 300:../Drivers/BSP/Components/vl53l0x/vl53l0x_api.c **** VL53L0X_Error VL53L0X_GetLinearityCorrectiveGain(VL53L0X_DEV Dev,
 301:../Drivers/BSP/Components/vl53l0x/vl53l0x_api.c **** 	uint16_t *pLinearityCorrectiveGain)
 302:../Drivers/BSP/Components/vl53l0x/vl53l0x_api.c **** {
 508              		.loc 1 302 0
 509              		.cfi_startproc
 510              		@ args = 0, pretend = 0, frame = 0
 511              		@ frame_needed = 0, uses_anonymous_args = 0
 512              		@ link register save eliminated.
 513              	.LVL50:
 303:../Drivers/BSP/Components/vl53l0x/vl53l0x_api.c **** 	VL53L0X_Error Status = VL53L0X_ERROR_NONE;
 304:../Drivers/BSP/Components/vl53l0x/vl53l0x_api.c **** 	LOG_FUNCTION_START("");
 305:../Drivers/BSP/Components/vl53l0x/vl53l0x_api.c **** 
 306:../Drivers/BSP/Components/vl53l0x/vl53l0x_api.c **** 	*pLinearityCorrectiveGain = PALDevDataGet(Dev, LinearityCorrectiveGain);
 514              		.loc 1 306 0
 515 0000 B0F85231 		ldrh	r3, [r0, #338]
 516 0004 0B80     		strh	r3, [r1]	@ movhi
 307:../Drivers/BSP/Components/vl53l0x/vl53l0x_api.c **** 
 308:../Drivers/BSP/Components/vl53l0x/vl53l0x_api.c **** 	LOG_FUNCTION_END(Status);
 309:../Drivers/BSP/Components/vl53l0x/vl53l0x_api.c **** 	return Status;
ARM GAS  /tmp/ccflrS73.s 			page 15


 310:../Drivers/BSP/Components/vl53l0x/vl53l0x_api.c **** }
 517              		.loc 1 310 0
 518 0006 0020     		movs	r0, #0
 519              	.LVL51:
 520 0008 7047     		bx	lr
 521              		.cfi_endproc
 522              	.LFE127:
 524 000a 00BF     		.section	.text.VL53L0X_SetGroupParamHold,"ax",%progbits
 525              		.align	2
 526              		.global	VL53L0X_SetGroupParamHold
 527              		.thumb
 528              		.thumb_func
 530              	VL53L0X_SetGroupParamHold:
 531              	.LFB128:
 311:../Drivers/BSP/Components/vl53l0x/vl53l0x_api.c **** 
 312:../Drivers/BSP/Components/vl53l0x/vl53l0x_api.c **** VL53L0X_Error VL53L0X_SetGroupParamHold(VL53L0X_DEV Dev, uint8_t GroupParamHold)
 313:../Drivers/BSP/Components/vl53l0x/vl53l0x_api.c **** {
 532              		.loc 1 313 0
 533              		.cfi_startproc
 534              		@ args = 0, pretend = 0, frame = 0
 535              		@ frame_needed = 0, uses_anonymous_args = 0
 536              		@ link register save eliminated.
 537              	.LVL52:
 314:../Drivers/BSP/Components/vl53l0x/vl53l0x_api.c **** 	VL53L0X_Error Status = VL53L0X_ERROR_NOT_IMPLEMENTED;
 315:../Drivers/BSP/Components/vl53l0x/vl53l0x_api.c **** 	LOG_FUNCTION_START("");
 316:../Drivers/BSP/Components/vl53l0x/vl53l0x_api.c **** 
 317:../Drivers/BSP/Components/vl53l0x/vl53l0x_api.c **** 	/* not implemented on VL53L0X */
 318:../Drivers/BSP/Components/vl53l0x/vl53l0x_api.c **** 
 319:../Drivers/BSP/Components/vl53l0x/vl53l0x_api.c **** 	LOG_FUNCTION_END(Status);
 320:../Drivers/BSP/Components/vl53l0x/vl53l0x_api.c **** 	return Status;
 321:../Drivers/BSP/Components/vl53l0x/vl53l0x_api.c **** }
 538              		.loc 1 321 0
 539 0000 6FF06200 		mvn	r0, #98
 540              	.LVL53:
 541 0004 7047     		bx	lr
 542              		.cfi_endproc
 543              	.LFE128:
 545 0006 00BF     		.section	.text.VL53L0X_GetUpperLimitMilliMeter,"ax",%progbits
 546              		.align	2
 547              		.global	VL53L0X_GetUpperLimitMilliMeter
 548              		.thumb
 549              		.thumb_func
 551              	VL53L0X_GetUpperLimitMilliMeter:
 552              	.LFB129:
 322:../Drivers/BSP/Components/vl53l0x/vl53l0x_api.c **** 
 323:../Drivers/BSP/Components/vl53l0x/vl53l0x_api.c **** VL53L0X_Error VL53L0X_GetUpperLimitMilliMeter(VL53L0X_DEV Dev,
 324:../Drivers/BSP/Components/vl53l0x/vl53l0x_api.c **** 	uint16_t *pUpperLimitMilliMeter)
 325:../Drivers/BSP/Components/vl53l0x/vl53l0x_api.c **** {
 553              		.loc 1 325 0
 554              		.cfi_startproc
 555              		@ args = 0, pretend = 0, frame = 0
 556              		@ frame_needed = 0, uses_anonymous_args = 0
 557              		@ link register save eliminated.
 558              	.LVL54:
 326:../Drivers/BSP/Components/vl53l0x/vl53l0x_api.c **** 	VL53L0X_Error Status = VL53L0X_ERROR_NOT_IMPLEMENTED;
 327:../Drivers/BSP/Components/vl53l0x/vl53l0x_api.c **** 	LOG_FUNCTION_START("");
 328:../Drivers/BSP/Components/vl53l0x/vl53l0x_api.c **** 
ARM GAS  /tmp/ccflrS73.s 			page 16


 329:../Drivers/BSP/Components/vl53l0x/vl53l0x_api.c **** 	/* not implemented on VL53L0X */
 330:../Drivers/BSP/Components/vl53l0x/vl53l0x_api.c **** 
 331:../Drivers/BSP/Components/vl53l0x/vl53l0x_api.c **** 	LOG_FUNCTION_END(Status);
 332:../Drivers/BSP/Components/vl53l0x/vl53l0x_api.c **** 	return Status;
 333:../Drivers/BSP/Components/vl53l0x/vl53l0x_api.c **** }
 559              		.loc 1 333 0
 560 0000 6FF06200 		mvn	r0, #98
 561              	.LVL55:
 562 0004 7047     		bx	lr
 563              		.cfi_endproc
 564              	.LFE129:
 566 0006 00BF     		.section	.text.VL53L0X_GetTotalSignalRate,"ax",%progbits
 567              		.align	2
 568              		.global	VL53L0X_GetTotalSignalRate
 569              		.thumb
 570              		.thumb_func
 572              	VL53L0X_GetTotalSignalRate:
 573              	.LFB130:
 334:../Drivers/BSP/Components/vl53l0x/vl53l0x_api.c **** 
 335:../Drivers/BSP/Components/vl53l0x/vl53l0x_api.c **** VL53L0X_Error VL53L0X_GetTotalSignalRate(VL53L0X_DEV Dev,
 336:../Drivers/BSP/Components/vl53l0x/vl53l0x_api.c **** 	FixPoint1616_t *pTotalSignalRate)
 337:../Drivers/BSP/Components/vl53l0x/vl53l0x_api.c **** {
 574              		.loc 1 337 0
 575              		.cfi_startproc
 576              		@ args = 0, pretend = 0, frame = 32
 577              		@ frame_needed = 0, uses_anonymous_args = 0
 578              	.LVL56:
 579 0000 F0B5     		push	{r4, r5, r6, r7, lr}
 580              	.LCFI17:
 581              		.cfi_def_cfa_offset 20
 582              		.cfi_offset 4, -20
 583              		.cfi_offset 5, -16
 584              		.cfi_offset 6, -12
 585              		.cfi_offset 7, -8
 586              		.cfi_offset 14, -4
 587 0002 89B0     		sub	sp, sp, #36
 588              	.LCFI18:
 589              		.cfi_def_cfa_offset 56
 590 0004 0646     		mov	r6, r0
 591 0006 0F46     		mov	r7, r1
 592              	.LVL57:
 338:../Drivers/BSP/Components/vl53l0x/vl53l0x_api.c **** 	VL53L0X_Error Status = VL53L0X_ERROR_NONE;
 339:../Drivers/BSP/Components/vl53l0x/vl53l0x_api.c **** 	VL53L0X_RangingMeasurementData_t LastRangeDataBuffer;
 340:../Drivers/BSP/Components/vl53l0x/vl53l0x_api.c **** 
 341:../Drivers/BSP/Components/vl53l0x/vl53l0x_api.c **** 	LOG_FUNCTION_START("");
 342:../Drivers/BSP/Components/vl53l0x/vl53l0x_api.c **** 
 343:../Drivers/BSP/Components/vl53l0x/vl53l0x_api.c **** 	LastRangeDataBuffer = PALDevDataGet(Dev, LastRangeMeasure);
 593              		.loc 1 343 0
 594 0008 01AC     		add	r4, sp, #4
 595 000a 00F15005 		add	r5, r0, #80
 596 000e 0FCD     		ldmia	r5!, {r0, r1, r2, r3}
 597              	.LVL58:
 598 0010 0FC4     		stmia	r4!, {r0, r1, r2, r3}
 599 0012 95E80700 		ldmia	r5, {r0, r1, r2}
 600 0016 84E80700 		stmia	r4, {r0, r1, r2}
 344:../Drivers/BSP/Components/vl53l0x/vl53l0x_api.c **** 
 345:../Drivers/BSP/Components/vl53l0x/vl53l0x_api.c **** 	Status = VL53L0X_get_total_signal_rate(
ARM GAS  /tmp/ccflrS73.s 			page 17


 601              		.loc 1 345 0
 602 001a 3046     		mov	r0, r6
 603 001c 01A9     		add	r1, sp, #4
 604 001e 3A46     		mov	r2, r7
 605 0020 FFF7FEFF 		bl	VL53L0X_get_total_signal_rate
 606              	.LVL59:
 346:../Drivers/BSP/Components/vl53l0x/vl53l0x_api.c **** 		Dev, &LastRangeDataBuffer, pTotalSignalRate);
 347:../Drivers/BSP/Components/vl53l0x/vl53l0x_api.c **** 
 348:../Drivers/BSP/Components/vl53l0x/vl53l0x_api.c **** 	LOG_FUNCTION_END(Status);
 349:../Drivers/BSP/Components/vl53l0x/vl53l0x_api.c **** 	return Status;
 350:../Drivers/BSP/Components/vl53l0x/vl53l0x_api.c **** }
 607              		.loc 1 350 0
 608 0024 09B0     		add	sp, sp, #36
 609              	.LCFI19:
 610              		.cfi_def_cfa_offset 20
 611              		@ sp needed
 612 0026 F0BD     		pop	{r4, r5, r6, r7, pc}
 613              		.cfi_endproc
 614              	.LFE130:
 616              		.section	.text.VL53L0X_SetDeviceAddress,"ax",%progbits
 617              		.align	2
 618              		.global	VL53L0X_SetDeviceAddress
 619              		.thumb
 620              		.thumb_func
 622              	VL53L0X_SetDeviceAddress:
 623              	.LFB131:
 351:../Drivers/BSP/Components/vl53l0x/vl53l0x_api.c **** 
 352:../Drivers/BSP/Components/vl53l0x/vl53l0x_api.c **** /* End Group PAL General Functions */
 353:../Drivers/BSP/Components/vl53l0x/vl53l0x_api.c **** 
 354:../Drivers/BSP/Components/vl53l0x/vl53l0x_api.c **** /* Group PAL Init Functions */
 355:../Drivers/BSP/Components/vl53l0x/vl53l0x_api.c **** VL53L0X_Error VL53L0X_SetDeviceAddress(VL53L0X_DEV Dev, uint8_t DeviceAddress)
 356:../Drivers/BSP/Components/vl53l0x/vl53l0x_api.c **** {
 624              		.loc 1 356 0
 625              		.cfi_startproc
 626              		@ args = 0, pretend = 0, frame = 0
 627              		@ frame_needed = 0, uses_anonymous_args = 0
 628              	.LVL60:
 629 0000 08B5     		push	{r3, lr}
 630              	.LCFI20:
 631              		.cfi_def_cfa_offset 8
 632              		.cfi_offset 3, -8
 633              		.cfi_offset 14, -4
 634              	.LVL61:
 357:../Drivers/BSP/Components/vl53l0x/vl53l0x_api.c **** 	VL53L0X_Error Status = VL53L0X_ERROR_NONE;
 358:../Drivers/BSP/Components/vl53l0x/vl53l0x_api.c **** 	LOG_FUNCTION_START("");
 359:../Drivers/BSP/Components/vl53l0x/vl53l0x_api.c **** 
 360:../Drivers/BSP/Components/vl53l0x/vl53l0x_api.c **** 	Status = VL53L0X_WrByte(Dev, VL53L0X_REG_I2C_SLAVE_DEVICE_ADDRESS,
 635              		.loc 1 360 0
 636 0002 4A08     		lsrs	r2, r1, #1
 637 0004 8A21     		movs	r1, #138
 638              	.LVL62:
 639 0006 FFF7FEFF 		bl	VL53L0X_WrByte
 640              	.LVL63:
 361:../Drivers/BSP/Components/vl53l0x/vl53l0x_api.c **** 		DeviceAddress / 2);
 362:../Drivers/BSP/Components/vl53l0x/vl53l0x_api.c **** 
 363:../Drivers/BSP/Components/vl53l0x/vl53l0x_api.c **** 	LOG_FUNCTION_END(Status);
 364:../Drivers/BSP/Components/vl53l0x/vl53l0x_api.c **** 	return Status;
ARM GAS  /tmp/ccflrS73.s 			page 18


 365:../Drivers/BSP/Components/vl53l0x/vl53l0x_api.c **** }
 641              		.loc 1 365 0
 642 000a 08BD     		pop	{r3, pc}
 643              		.cfi_endproc
 644              	.LFE131:
 646              		.section	.text.VL53L0X_SetTuningSettingBuffer,"ax",%progbits
 647              		.align	2
 648              		.global	VL53L0X_SetTuningSettingBuffer
 649              		.thumb
 650              		.thumb_func
 652              	VL53L0X_SetTuningSettingBuffer:
 653              	.LFB133:
 366:../Drivers/BSP/Components/vl53l0x/vl53l0x_api.c **** 
 367:../Drivers/BSP/Components/vl53l0x/vl53l0x_api.c **** VL53L0X_Error VL53L0X_DataInit(VL53L0X_DEV Dev)
 368:../Drivers/BSP/Components/vl53l0x/vl53l0x_api.c **** {
 369:../Drivers/BSP/Components/vl53l0x/vl53l0x_api.c **** 	VL53L0X_Error Status = VL53L0X_ERROR_NONE;
 370:../Drivers/BSP/Components/vl53l0x/vl53l0x_api.c **** 	VL53L0X_DeviceParameters_t CurrentParameters;
 371:../Drivers/BSP/Components/vl53l0x/vl53l0x_api.c **** 	int i;
 372:../Drivers/BSP/Components/vl53l0x/vl53l0x_api.c **** 	uint8_t StopVariable;
 373:../Drivers/BSP/Components/vl53l0x/vl53l0x_api.c **** 
 374:../Drivers/BSP/Components/vl53l0x/vl53l0x_api.c **** 	LOG_FUNCTION_START("");
 375:../Drivers/BSP/Components/vl53l0x/vl53l0x_api.c **** 
 376:../Drivers/BSP/Components/vl53l0x/vl53l0x_api.c **** 	/* by default the I2C is running at 1V8 if you want to change it you
 377:../Drivers/BSP/Components/vl53l0x/vl53l0x_api.c **** 	 * need to include this define at compilation level. */
 378:../Drivers/BSP/Components/vl53l0x/vl53l0x_api.c **** #ifdef USE_I2C_2V8
 379:../Drivers/BSP/Components/vl53l0x/vl53l0x_api.c **** 	Status = VL53L0X_UpdateByte(Dev,
 380:../Drivers/BSP/Components/vl53l0x/vl53l0x_api.c **** 		VL53L0X_REG_VHV_CONFIG_PAD_SCL_SDA__EXTSUP_HV,
 381:../Drivers/BSP/Components/vl53l0x/vl53l0x_api.c **** 		0xFE,
 382:../Drivers/BSP/Components/vl53l0x/vl53l0x_api.c **** 		0x01);
 383:../Drivers/BSP/Components/vl53l0x/vl53l0x_api.c **** #endif
 384:../Drivers/BSP/Components/vl53l0x/vl53l0x_api.c **** 
 385:../Drivers/BSP/Components/vl53l0x/vl53l0x_api.c **** 	/* Set I2C standard mode */
 386:../Drivers/BSP/Components/vl53l0x/vl53l0x_api.c **** 	if (Status == VL53L0X_ERROR_NONE)
 387:../Drivers/BSP/Components/vl53l0x/vl53l0x_api.c **** 		Status = VL53L0X_WrByte(Dev, 0x88, 0x00);
 388:../Drivers/BSP/Components/vl53l0x/vl53l0x_api.c **** 
 389:../Drivers/BSP/Components/vl53l0x/vl53l0x_api.c **** 	VL53L0X_SETDEVICESPECIFICPARAMETER(Dev, ReadDataFromDeviceDone, 0);
 390:../Drivers/BSP/Components/vl53l0x/vl53l0x_api.c **** 
 391:../Drivers/BSP/Components/vl53l0x/vl53l0x_api.c **** #ifdef USE_IQC_STATION
 392:../Drivers/BSP/Components/vl53l0x/vl53l0x_api.c **** 	if (Status == VL53L0X_ERROR_NONE)
 393:../Drivers/BSP/Components/vl53l0x/vl53l0x_api.c **** 		Status = VL53L0X_apply_offset_adjustment(Dev);
 394:../Drivers/BSP/Components/vl53l0x/vl53l0x_api.c **** #endif
 395:../Drivers/BSP/Components/vl53l0x/vl53l0x_api.c **** 
 396:../Drivers/BSP/Components/vl53l0x/vl53l0x_api.c **** 	/* Default value is 1000 for Linearity Corrective Gain */
 397:../Drivers/BSP/Components/vl53l0x/vl53l0x_api.c **** 	PALDevDataSet(Dev, LinearityCorrectiveGain, 1000);
 398:../Drivers/BSP/Components/vl53l0x/vl53l0x_api.c **** 
 399:../Drivers/BSP/Components/vl53l0x/vl53l0x_api.c **** 	/* Dmax default Parameter */
 400:../Drivers/BSP/Components/vl53l0x/vl53l0x_api.c **** 	PALDevDataSet(Dev, DmaxCalRangeMilliMeter, 400);
 401:../Drivers/BSP/Components/vl53l0x/vl53l0x_api.c **** 	PALDevDataSet(Dev, DmaxCalSignalRateRtnMegaCps,
 402:../Drivers/BSP/Components/vl53l0x/vl53l0x_api.c **** 		(FixPoint1616_t)((0x00016B85))); /* 1.42 No Cover Glass*/
 403:../Drivers/BSP/Components/vl53l0x/vl53l0x_api.c **** 
 404:../Drivers/BSP/Components/vl53l0x/vl53l0x_api.c **** 	/* Set Default static parameters
 405:../Drivers/BSP/Components/vl53l0x/vl53l0x_api.c **** 	 *set first temporary values 9.44MHz * 65536 = 618660 */
 406:../Drivers/BSP/Components/vl53l0x/vl53l0x_api.c **** 	VL53L0X_SETDEVICESPECIFICPARAMETER(Dev, OscFrequencyMHz, 618660);
 407:../Drivers/BSP/Components/vl53l0x/vl53l0x_api.c **** 
 408:../Drivers/BSP/Components/vl53l0x/vl53l0x_api.c **** 	/* Set Default XTalkCompensationRateMegaCps to 0  */
 409:../Drivers/BSP/Components/vl53l0x/vl53l0x_api.c **** 	VL53L0X_SETPARAMETERFIELD(Dev, XTalkCompensationRateMegaCps, 0);
 410:../Drivers/BSP/Components/vl53l0x/vl53l0x_api.c **** 
ARM GAS  /tmp/ccflrS73.s 			page 19


 411:../Drivers/BSP/Components/vl53l0x/vl53l0x_api.c **** 	/* Get default parameters */
 412:../Drivers/BSP/Components/vl53l0x/vl53l0x_api.c **** 	Status = VL53L0X_GetDeviceParameters(Dev, &CurrentParameters);
 413:../Drivers/BSP/Components/vl53l0x/vl53l0x_api.c **** 	if (Status == VL53L0X_ERROR_NONE) {
 414:../Drivers/BSP/Components/vl53l0x/vl53l0x_api.c **** 		/* initialize PAL values */
 415:../Drivers/BSP/Components/vl53l0x/vl53l0x_api.c **** 		CurrentParameters.DeviceMode = VL53L0X_DEVICEMODE_SINGLE_RANGING;
 416:../Drivers/BSP/Components/vl53l0x/vl53l0x_api.c **** 		CurrentParameters.HistogramMode = VL53L0X_HISTOGRAMMODE_DISABLED;
 417:../Drivers/BSP/Components/vl53l0x/vl53l0x_api.c **** 		PALDevDataSet(Dev, CurrentParameters, CurrentParameters);
 418:../Drivers/BSP/Components/vl53l0x/vl53l0x_api.c **** 	}
 419:../Drivers/BSP/Components/vl53l0x/vl53l0x_api.c **** 
 420:../Drivers/BSP/Components/vl53l0x/vl53l0x_api.c **** 	/* Sigma estimator variable */
 421:../Drivers/BSP/Components/vl53l0x/vl53l0x_api.c **** 	PALDevDataSet(Dev, SigmaEstRefArray, 100);
 422:../Drivers/BSP/Components/vl53l0x/vl53l0x_api.c **** 	PALDevDataSet(Dev, SigmaEstEffPulseWidth, 900);
 423:../Drivers/BSP/Components/vl53l0x/vl53l0x_api.c **** 	PALDevDataSet(Dev, SigmaEstEffAmbWidth, 500);
 424:../Drivers/BSP/Components/vl53l0x/vl53l0x_api.c **** 	PALDevDataSet(Dev, targetRefRate, 0x0A00); /* 20 MCPS in 9:7 format */
 425:../Drivers/BSP/Components/vl53l0x/vl53l0x_api.c **** 
 426:../Drivers/BSP/Components/vl53l0x/vl53l0x_api.c **** 	/* Use internal default settings */
 427:../Drivers/BSP/Components/vl53l0x/vl53l0x_api.c **** 	PALDevDataSet(Dev, UseInternalTuningSettings, 1);
 428:../Drivers/BSP/Components/vl53l0x/vl53l0x_api.c **** 
 429:../Drivers/BSP/Components/vl53l0x/vl53l0x_api.c **** 	Status |= VL53L0X_WrByte(Dev, 0x80, 0x01);
 430:../Drivers/BSP/Components/vl53l0x/vl53l0x_api.c **** 	Status |= VL53L0X_WrByte(Dev, 0xFF, 0x01);
 431:../Drivers/BSP/Components/vl53l0x/vl53l0x_api.c **** 	Status |= VL53L0X_WrByte(Dev, 0x00, 0x00);
 432:../Drivers/BSP/Components/vl53l0x/vl53l0x_api.c **** 	Status |= VL53L0X_RdByte(Dev, 0x91, &StopVariable);
 433:../Drivers/BSP/Components/vl53l0x/vl53l0x_api.c **** 	PALDevDataSet(Dev, StopVariable, StopVariable);
 434:../Drivers/BSP/Components/vl53l0x/vl53l0x_api.c **** 	Status |= VL53L0X_WrByte(Dev, 0x00, 0x01);
 435:../Drivers/BSP/Components/vl53l0x/vl53l0x_api.c **** 	Status |= VL53L0X_WrByte(Dev, 0xFF, 0x00);
 436:../Drivers/BSP/Components/vl53l0x/vl53l0x_api.c **** 	Status |= VL53L0X_WrByte(Dev, 0x80, 0x00);
 437:../Drivers/BSP/Components/vl53l0x/vl53l0x_api.c **** 
 438:../Drivers/BSP/Components/vl53l0x/vl53l0x_api.c **** 	/* Enable all check */
 439:../Drivers/BSP/Components/vl53l0x/vl53l0x_api.c **** 	for (i = 0; i < VL53L0X_CHECKENABLE_NUMBER_OF_CHECKS; i++) {
 440:../Drivers/BSP/Components/vl53l0x/vl53l0x_api.c **** 		if (Status == VL53L0X_ERROR_NONE)
 441:../Drivers/BSP/Components/vl53l0x/vl53l0x_api.c **** 			Status |= VL53L0X_SetLimitCheckEnable(Dev, i, 1);
 442:../Drivers/BSP/Components/vl53l0x/vl53l0x_api.c **** 		else
 443:../Drivers/BSP/Components/vl53l0x/vl53l0x_api.c **** 			break;
 444:../Drivers/BSP/Components/vl53l0x/vl53l0x_api.c **** 
 445:../Drivers/BSP/Components/vl53l0x/vl53l0x_api.c **** 	}
 446:../Drivers/BSP/Components/vl53l0x/vl53l0x_api.c **** 
 447:../Drivers/BSP/Components/vl53l0x/vl53l0x_api.c **** 	/* Disable the following checks */
 448:../Drivers/BSP/Components/vl53l0x/vl53l0x_api.c **** 	if (Status == VL53L0X_ERROR_NONE)
 449:../Drivers/BSP/Components/vl53l0x/vl53l0x_api.c **** 		Status = VL53L0X_SetLimitCheckEnable(Dev,
 450:../Drivers/BSP/Components/vl53l0x/vl53l0x_api.c **** 			VL53L0X_CHECKENABLE_SIGNAL_REF_CLIP, 0);
 451:../Drivers/BSP/Components/vl53l0x/vl53l0x_api.c **** 
 452:../Drivers/BSP/Components/vl53l0x/vl53l0x_api.c **** 	if (Status == VL53L0X_ERROR_NONE)
 453:../Drivers/BSP/Components/vl53l0x/vl53l0x_api.c **** 		Status = VL53L0X_SetLimitCheckEnable(Dev,
 454:../Drivers/BSP/Components/vl53l0x/vl53l0x_api.c **** 			VL53L0X_CHECKENABLE_RANGE_IGNORE_THRESHOLD, 0);
 455:../Drivers/BSP/Components/vl53l0x/vl53l0x_api.c **** 
 456:../Drivers/BSP/Components/vl53l0x/vl53l0x_api.c **** 	if (Status == VL53L0X_ERROR_NONE)
 457:../Drivers/BSP/Components/vl53l0x/vl53l0x_api.c **** 		Status = VL53L0X_SetLimitCheckEnable(Dev,
 458:../Drivers/BSP/Components/vl53l0x/vl53l0x_api.c **** 			VL53L0X_CHECKENABLE_SIGNAL_RATE_MSRC, 0);
 459:../Drivers/BSP/Components/vl53l0x/vl53l0x_api.c **** 
 460:../Drivers/BSP/Components/vl53l0x/vl53l0x_api.c **** 	if (Status == VL53L0X_ERROR_NONE)
 461:../Drivers/BSP/Components/vl53l0x/vl53l0x_api.c **** 		Status = VL53L0X_SetLimitCheckEnable(Dev,
 462:../Drivers/BSP/Components/vl53l0x/vl53l0x_api.c **** 			VL53L0X_CHECKENABLE_SIGNAL_RATE_PRE_RANGE, 0);
 463:../Drivers/BSP/Components/vl53l0x/vl53l0x_api.c **** 
 464:../Drivers/BSP/Components/vl53l0x/vl53l0x_api.c **** 	/* Limit default values */
 465:../Drivers/BSP/Components/vl53l0x/vl53l0x_api.c **** 	if (Status == VL53L0X_ERROR_NONE) {
 466:../Drivers/BSP/Components/vl53l0x/vl53l0x_api.c **** 		Status = VL53L0X_SetLimitCheckValue(Dev,
 467:../Drivers/BSP/Components/vl53l0x/vl53l0x_api.c **** 			VL53L0X_CHECKENABLE_SIGMA_FINAL_RANGE,
ARM GAS  /tmp/ccflrS73.s 			page 20


 468:../Drivers/BSP/Components/vl53l0x/vl53l0x_api.c **** 				(FixPoint1616_t)(18 * 65536));
 469:../Drivers/BSP/Components/vl53l0x/vl53l0x_api.c **** 	}
 470:../Drivers/BSP/Components/vl53l0x/vl53l0x_api.c **** 	if (Status == VL53L0X_ERROR_NONE) {
 471:../Drivers/BSP/Components/vl53l0x/vl53l0x_api.c **** 		Status = VL53L0X_SetLimitCheckValue(Dev,
 472:../Drivers/BSP/Components/vl53l0x/vl53l0x_api.c **** 			VL53L0X_CHECKENABLE_SIGNAL_RATE_FINAL_RANGE,
 473:../Drivers/BSP/Components/vl53l0x/vl53l0x_api.c **** 				(FixPoint1616_t)(25 * 65536 / 100));
 474:../Drivers/BSP/Components/vl53l0x/vl53l0x_api.c **** 				/* 0.25 * 65536 */
 475:../Drivers/BSP/Components/vl53l0x/vl53l0x_api.c **** 	}
 476:../Drivers/BSP/Components/vl53l0x/vl53l0x_api.c **** 
 477:../Drivers/BSP/Components/vl53l0x/vl53l0x_api.c **** 	if (Status == VL53L0X_ERROR_NONE) {
 478:../Drivers/BSP/Components/vl53l0x/vl53l0x_api.c **** 		Status = VL53L0X_SetLimitCheckValue(Dev,
 479:../Drivers/BSP/Components/vl53l0x/vl53l0x_api.c **** 			VL53L0X_CHECKENABLE_SIGNAL_REF_CLIP,
 480:../Drivers/BSP/Components/vl53l0x/vl53l0x_api.c **** 				(FixPoint1616_t)(35 * 65536));
 481:../Drivers/BSP/Components/vl53l0x/vl53l0x_api.c **** 	}
 482:../Drivers/BSP/Components/vl53l0x/vl53l0x_api.c **** 
 483:../Drivers/BSP/Components/vl53l0x/vl53l0x_api.c **** 	if (Status == VL53L0X_ERROR_NONE) {
 484:../Drivers/BSP/Components/vl53l0x/vl53l0x_api.c **** 		Status = VL53L0X_SetLimitCheckValue(Dev,
 485:../Drivers/BSP/Components/vl53l0x/vl53l0x_api.c **** 			VL53L0X_CHECKENABLE_RANGE_IGNORE_THRESHOLD,
 486:../Drivers/BSP/Components/vl53l0x/vl53l0x_api.c **** 				(FixPoint1616_t)(0 * 65536));
 487:../Drivers/BSP/Components/vl53l0x/vl53l0x_api.c **** 	}
 488:../Drivers/BSP/Components/vl53l0x/vl53l0x_api.c **** 
 489:../Drivers/BSP/Components/vl53l0x/vl53l0x_api.c **** 	if (Status == VL53L0X_ERROR_NONE) {
 490:../Drivers/BSP/Components/vl53l0x/vl53l0x_api.c **** 
 491:../Drivers/BSP/Components/vl53l0x/vl53l0x_api.c **** 		PALDevDataSet(Dev, SequenceConfig, 0xFF);
 492:../Drivers/BSP/Components/vl53l0x/vl53l0x_api.c **** 		Status = VL53L0X_WrByte(Dev, VL53L0X_REG_SYSTEM_SEQUENCE_CONFIG,
 493:../Drivers/BSP/Components/vl53l0x/vl53l0x_api.c **** 			0xFF);
 494:../Drivers/BSP/Components/vl53l0x/vl53l0x_api.c **** 
 495:../Drivers/BSP/Components/vl53l0x/vl53l0x_api.c **** 		/* Set PAL state to tell that we are waiting for call to
 496:../Drivers/BSP/Components/vl53l0x/vl53l0x_api.c **** 		 * VL53L0X_StaticInit */
 497:../Drivers/BSP/Components/vl53l0x/vl53l0x_api.c **** 		PALDevDataSet(Dev, PalState, VL53L0X_STATE_WAIT_STATICINIT);
 498:../Drivers/BSP/Components/vl53l0x/vl53l0x_api.c **** 	}
 499:../Drivers/BSP/Components/vl53l0x/vl53l0x_api.c **** 
 500:../Drivers/BSP/Components/vl53l0x/vl53l0x_api.c **** 	if (Status == VL53L0X_ERROR_NONE)
 501:../Drivers/BSP/Components/vl53l0x/vl53l0x_api.c **** 		VL53L0X_SETDEVICESPECIFICPARAMETER(Dev, RefSpadsInitialised, 0);
 502:../Drivers/BSP/Components/vl53l0x/vl53l0x_api.c **** 
 503:../Drivers/BSP/Components/vl53l0x/vl53l0x_api.c **** 
 504:../Drivers/BSP/Components/vl53l0x/vl53l0x_api.c **** 	LOG_FUNCTION_END(Status);
 505:../Drivers/BSP/Components/vl53l0x/vl53l0x_api.c **** 	return Status;
 506:../Drivers/BSP/Components/vl53l0x/vl53l0x_api.c **** }
 507:../Drivers/BSP/Components/vl53l0x/vl53l0x_api.c **** 
 508:../Drivers/BSP/Components/vl53l0x/vl53l0x_api.c **** VL53L0X_Error VL53L0X_SetTuningSettingBuffer(VL53L0X_DEV Dev,
 509:../Drivers/BSP/Components/vl53l0x/vl53l0x_api.c **** 	uint8_t *pTuningSettingBuffer, uint8_t UseInternalTuningSettings)
 510:../Drivers/BSP/Components/vl53l0x/vl53l0x_api.c **** {
 654              		.loc 1 510 0
 655              		.cfi_startproc
 656              		@ args = 0, pretend = 0, frame = 0
 657              		@ frame_needed = 0, uses_anonymous_args = 0
 658              		@ link register save eliminated.
 659              	.LVL64:
 511:../Drivers/BSP/Components/vl53l0x/vl53l0x_api.c **** 	VL53L0X_Error Status = VL53L0X_ERROR_NONE;
 512:../Drivers/BSP/Components/vl53l0x/vl53l0x_api.c **** 
 513:../Drivers/BSP/Components/vl53l0x/vl53l0x_api.c **** 	LOG_FUNCTION_START("");
 514:../Drivers/BSP/Components/vl53l0x/vl53l0x_api.c **** 
 515:../Drivers/BSP/Components/vl53l0x/vl53l0x_api.c **** 	if (UseInternalTuningSettings == 1) {
 660              		.loc 1 515 0
 661 0000 012A     		cmp	r2, #1
 662 0002 04D1     		bne	.L39
ARM GAS  /tmp/ccflrS73.s 			page 21


 516:../Drivers/BSP/Components/vl53l0x/vl53l0x_api.c **** 		/* Force use internal settings */
 517:../Drivers/BSP/Components/vl53l0x/vl53l0x_api.c **** 		PALDevDataSet(Dev, UseInternalTuningSettings, 1);
 663              		.loc 1 517 0
 664 0004 0123     		movs	r3, #1
 665 0006 80F85031 		strb	r3, [r0, #336]
 511:../Drivers/BSP/Components/vl53l0x/vl53l0x_api.c **** 	VL53L0X_Error Status = VL53L0X_ERROR_NONE;
 666              		.loc 1 511 0
 667 000a 0020     		movs	r0, #0
 668              	.LVL65:
 669 000c 09E0     		b	.L40
 670              	.LVL66:
 671              	.L39:
 518:../Drivers/BSP/Components/vl53l0x/vl53l0x_api.c **** 	} else {
 519:../Drivers/BSP/Components/vl53l0x/vl53l0x_api.c **** 
 520:../Drivers/BSP/Components/vl53l0x/vl53l0x_api.c **** 		/* check that the first byte is not 0 */
 521:../Drivers/BSP/Components/vl53l0x/vl53l0x_api.c **** 		if (*pTuningSettingBuffer != 0) {
 672              		.loc 1 521 0
 673 000e 0B78     		ldrb	r3, [r1]	@ zero_extendqisi2
 674 0010 33B1     		cbz	r3, .L41
 522:../Drivers/BSP/Components/vl53l0x/vl53l0x_api.c **** 			PALDevDataSet(Dev, pTuningSettingsPointer,
 675              		.loc 1 522 0
 676 0012 C0F84C11 		str	r1, [r0, #332]
 523:../Drivers/BSP/Components/vl53l0x/vl53l0x_api.c **** 				pTuningSettingBuffer);
 524:../Drivers/BSP/Components/vl53l0x/vl53l0x_api.c **** 			PALDevDataSet(Dev, UseInternalTuningSettings, 0);
 677              		.loc 1 524 0
 678 0016 0023     		movs	r3, #0
 679 0018 80F85031 		strb	r3, [r0, #336]
 511:../Drivers/BSP/Components/vl53l0x/vl53l0x_api.c **** 
 680              		.loc 1 511 0
 681 001c 1846     		mov	r0, r3
 682              	.LVL67:
 683 001e 00E0     		b	.L40
 684              	.LVL68:
 685              	.L41:
 525:../Drivers/BSP/Components/vl53l0x/vl53l0x_api.c **** 
 526:../Drivers/BSP/Components/vl53l0x/vl53l0x_api.c **** 		} else {
 527:../Drivers/BSP/Components/vl53l0x/vl53l0x_api.c **** 			Status = VL53L0X_ERROR_INVALID_PARAMS;
 686              		.loc 1 527 0
 687 0020 FC20     		movs	r0, #252
 688              	.LVL69:
 689              	.L40:
 528:../Drivers/BSP/Components/vl53l0x/vl53l0x_api.c **** 		}
 529:../Drivers/BSP/Components/vl53l0x/vl53l0x_api.c **** 	}
 530:../Drivers/BSP/Components/vl53l0x/vl53l0x_api.c **** 
 531:../Drivers/BSP/Components/vl53l0x/vl53l0x_api.c **** 	LOG_FUNCTION_END(Status);
 532:../Drivers/BSP/Components/vl53l0x/vl53l0x_api.c **** 	return Status;
 533:../Drivers/BSP/Components/vl53l0x/vl53l0x_api.c **** }
 690              		.loc 1 533 0
 691 0022 40B2     		sxtb	r0, r0
 692 0024 7047     		bx	lr
 693              		.cfi_endproc
 694              	.LFE133:
 696 0026 00BF     		.section	.text.VL53L0X_GetTuningSettingBuffer,"ax",%progbits
 697              		.align	2
 698              		.global	VL53L0X_GetTuningSettingBuffer
 699              		.thumb
 700              		.thumb_func
ARM GAS  /tmp/ccflrS73.s 			page 22


 702              	VL53L0X_GetTuningSettingBuffer:
 703              	.LFB134:
 534:../Drivers/BSP/Components/vl53l0x/vl53l0x_api.c **** 
 535:../Drivers/BSP/Components/vl53l0x/vl53l0x_api.c **** VL53L0X_Error VL53L0X_GetTuningSettingBuffer(VL53L0X_DEV Dev,
 536:../Drivers/BSP/Components/vl53l0x/vl53l0x_api.c **** 	uint8_t **ppTuningSettingBuffer, uint8_t *pUseInternalTuningSettings)
 537:../Drivers/BSP/Components/vl53l0x/vl53l0x_api.c **** {
 704              		.loc 1 537 0
 705              		.cfi_startproc
 706              		@ args = 0, pretend = 0, frame = 0
 707              		@ frame_needed = 0, uses_anonymous_args = 0
 708              		@ link register save eliminated.
 709              	.LVL70:
 538:../Drivers/BSP/Components/vl53l0x/vl53l0x_api.c **** 	VL53L0X_Error Status = VL53L0X_ERROR_NONE;
 539:../Drivers/BSP/Components/vl53l0x/vl53l0x_api.c **** 
 540:../Drivers/BSP/Components/vl53l0x/vl53l0x_api.c **** 	LOG_FUNCTION_START("");
 541:../Drivers/BSP/Components/vl53l0x/vl53l0x_api.c **** 
 542:../Drivers/BSP/Components/vl53l0x/vl53l0x_api.c **** 	*ppTuningSettingBuffer = PALDevDataGet(Dev, pTuningSettingsPointer);
 710              		.loc 1 542 0
 711 0000 D0F84C31 		ldr	r3, [r0, #332]
 712 0004 0B60     		str	r3, [r1]
 543:../Drivers/BSP/Components/vl53l0x/vl53l0x_api.c **** 	*pUseInternalTuningSettings = PALDevDataGet(Dev,
 713              		.loc 1 543 0
 714 0006 90F85031 		ldrb	r3, [r0, #336]	@ zero_extendqisi2
 715 000a 1370     		strb	r3, [r2]
 544:../Drivers/BSP/Components/vl53l0x/vl53l0x_api.c **** 		UseInternalTuningSettings);
 545:../Drivers/BSP/Components/vl53l0x/vl53l0x_api.c **** 
 546:../Drivers/BSP/Components/vl53l0x/vl53l0x_api.c **** 	LOG_FUNCTION_END(Status);
 547:../Drivers/BSP/Components/vl53l0x/vl53l0x_api.c **** 	return Status;
 548:../Drivers/BSP/Components/vl53l0x/vl53l0x_api.c **** }
 716              		.loc 1 548 0
 717 000c 0020     		movs	r0, #0
 718              	.LVL71:
 719 000e 7047     		bx	lr
 720              		.cfi_endproc
 721              	.LFE134:
 723              		.section	.text.VL53L0X_WaitDeviceBooted,"ax",%progbits
 724              		.align	2
 725              		.global	VL53L0X_WaitDeviceBooted
 726              		.thumb
 727              		.thumb_func
 729              	VL53L0X_WaitDeviceBooted:
 730              	.LFB136:
 549:../Drivers/BSP/Components/vl53l0x/vl53l0x_api.c **** 
 550:../Drivers/BSP/Components/vl53l0x/vl53l0x_api.c **** VL53L0X_Error VL53L0X_StaticInit(VL53L0X_DEV Dev)
 551:../Drivers/BSP/Components/vl53l0x/vl53l0x_api.c **** {
 552:../Drivers/BSP/Components/vl53l0x/vl53l0x_api.c **** 	VL53L0X_Error Status = VL53L0X_ERROR_NONE;
 553:../Drivers/BSP/Components/vl53l0x/vl53l0x_api.c **** 	VL53L0X_DeviceParameters_t CurrentParameters = {0};
 554:../Drivers/BSP/Components/vl53l0x/vl53l0x_api.c **** 	uint8_t *pTuningSettingBuffer;
 555:../Drivers/BSP/Components/vl53l0x/vl53l0x_api.c **** 	uint16_t tempword = 0;
 556:../Drivers/BSP/Components/vl53l0x/vl53l0x_api.c **** 	uint8_t tempbyte = 0;
 557:../Drivers/BSP/Components/vl53l0x/vl53l0x_api.c **** 	uint8_t UseInternalTuningSettings = 0;
 558:../Drivers/BSP/Components/vl53l0x/vl53l0x_api.c **** 	uint32_t count = 0;
 559:../Drivers/BSP/Components/vl53l0x/vl53l0x_api.c **** 	uint8_t isApertureSpads = 0;
 560:../Drivers/BSP/Components/vl53l0x/vl53l0x_api.c **** 	uint32_t refSpadCount = 0;
 561:../Drivers/BSP/Components/vl53l0x/vl53l0x_api.c **** 	uint8_t ApertureSpads = 0;
 562:../Drivers/BSP/Components/vl53l0x/vl53l0x_api.c **** 	uint8_t vcselPulsePeriodPCLK;
 563:../Drivers/BSP/Components/vl53l0x/vl53l0x_api.c **** 	uint32_t seqTimeoutMicroSecs;
ARM GAS  /tmp/ccflrS73.s 			page 23


 564:../Drivers/BSP/Components/vl53l0x/vl53l0x_api.c **** 
 565:../Drivers/BSP/Components/vl53l0x/vl53l0x_api.c **** 	LOG_FUNCTION_START("");
 566:../Drivers/BSP/Components/vl53l0x/vl53l0x_api.c **** 
 567:../Drivers/BSP/Components/vl53l0x/vl53l0x_api.c **** 	Status = VL53L0X_get_info_from_device(Dev, 1);
 568:../Drivers/BSP/Components/vl53l0x/vl53l0x_api.c **** 
 569:../Drivers/BSP/Components/vl53l0x/vl53l0x_api.c **** 	/* set the ref spad from NVM */
 570:../Drivers/BSP/Components/vl53l0x/vl53l0x_api.c **** 	count	= (uint32_t)VL53L0X_GETDEVICESPECIFICPARAMETER(Dev,
 571:../Drivers/BSP/Components/vl53l0x/vl53l0x_api.c **** 		ReferenceSpadCount);
 572:../Drivers/BSP/Components/vl53l0x/vl53l0x_api.c **** 	ApertureSpads = VL53L0X_GETDEVICESPECIFICPARAMETER(Dev,
 573:../Drivers/BSP/Components/vl53l0x/vl53l0x_api.c **** 		ReferenceSpadType);
 574:../Drivers/BSP/Components/vl53l0x/vl53l0x_api.c **** 
 575:../Drivers/BSP/Components/vl53l0x/vl53l0x_api.c **** 	/* NVM value invalid */
 576:../Drivers/BSP/Components/vl53l0x/vl53l0x_api.c **** 	if ((ApertureSpads > 1) ||
 577:../Drivers/BSP/Components/vl53l0x/vl53l0x_api.c **** 		((ApertureSpads == 1) && (count > 32)) ||
 578:../Drivers/BSP/Components/vl53l0x/vl53l0x_api.c **** 		((ApertureSpads == 0) && (count > 12)))
 579:../Drivers/BSP/Components/vl53l0x/vl53l0x_api.c **** 		Status = VL53L0X_perform_ref_spad_management(Dev, &refSpadCount,
 580:../Drivers/BSP/Components/vl53l0x/vl53l0x_api.c **** 			&isApertureSpads);
 581:../Drivers/BSP/Components/vl53l0x/vl53l0x_api.c **** 	else
 582:../Drivers/BSP/Components/vl53l0x/vl53l0x_api.c **** 		Status = VL53L0X_set_reference_spads(Dev, count, ApertureSpads);
 583:../Drivers/BSP/Components/vl53l0x/vl53l0x_api.c **** 
 584:../Drivers/BSP/Components/vl53l0x/vl53l0x_api.c **** 
 585:../Drivers/BSP/Components/vl53l0x/vl53l0x_api.c **** 	/* Initialize tuning settings buffer to prevent compiler warning. */
 586:../Drivers/BSP/Components/vl53l0x/vl53l0x_api.c **** 	pTuningSettingBuffer = DefaultTuningSettings;
 587:../Drivers/BSP/Components/vl53l0x/vl53l0x_api.c **** 
 588:../Drivers/BSP/Components/vl53l0x/vl53l0x_api.c **** 	if (Status == VL53L0X_ERROR_NONE) {
 589:../Drivers/BSP/Components/vl53l0x/vl53l0x_api.c **** 		UseInternalTuningSettings = PALDevDataGet(Dev,
 590:../Drivers/BSP/Components/vl53l0x/vl53l0x_api.c **** 			UseInternalTuningSettings);
 591:../Drivers/BSP/Components/vl53l0x/vl53l0x_api.c **** 
 592:../Drivers/BSP/Components/vl53l0x/vl53l0x_api.c **** 		if (UseInternalTuningSettings == 0)
 593:../Drivers/BSP/Components/vl53l0x/vl53l0x_api.c **** 			pTuningSettingBuffer = PALDevDataGet(Dev,
 594:../Drivers/BSP/Components/vl53l0x/vl53l0x_api.c **** 				pTuningSettingsPointer);
 595:../Drivers/BSP/Components/vl53l0x/vl53l0x_api.c **** 		else
 596:../Drivers/BSP/Components/vl53l0x/vl53l0x_api.c **** 			pTuningSettingBuffer = DefaultTuningSettings;
 597:../Drivers/BSP/Components/vl53l0x/vl53l0x_api.c **** 
 598:../Drivers/BSP/Components/vl53l0x/vl53l0x_api.c **** 	}
 599:../Drivers/BSP/Components/vl53l0x/vl53l0x_api.c **** 
 600:../Drivers/BSP/Components/vl53l0x/vl53l0x_api.c **** 	if (Status == VL53L0X_ERROR_NONE)
 601:../Drivers/BSP/Components/vl53l0x/vl53l0x_api.c **** 		Status = VL53L0X_load_tuning_settings(Dev, pTuningSettingBuffer);
 602:../Drivers/BSP/Components/vl53l0x/vl53l0x_api.c **** 
 603:../Drivers/BSP/Components/vl53l0x/vl53l0x_api.c **** 
 604:../Drivers/BSP/Components/vl53l0x/vl53l0x_api.c **** 	/* Set interrupt config to new sample ready */
 605:../Drivers/BSP/Components/vl53l0x/vl53l0x_api.c **** 	if (Status == VL53L0X_ERROR_NONE) {
 606:../Drivers/BSP/Components/vl53l0x/vl53l0x_api.c **** 		Status = VL53L0X_SetGpioConfig(Dev, 0, 0,
 607:../Drivers/BSP/Components/vl53l0x/vl53l0x_api.c **** 		VL53L0X_REG_SYSTEM_INTERRUPT_GPIO_NEW_SAMPLE_READY,
 608:../Drivers/BSP/Components/vl53l0x/vl53l0x_api.c **** 		VL53L0X_INTERRUPTPOLARITY_LOW);
 609:../Drivers/BSP/Components/vl53l0x/vl53l0x_api.c **** 	}
 610:../Drivers/BSP/Components/vl53l0x/vl53l0x_api.c **** 
 611:../Drivers/BSP/Components/vl53l0x/vl53l0x_api.c **** 	if (Status == VL53L0X_ERROR_NONE) {
 612:../Drivers/BSP/Components/vl53l0x/vl53l0x_api.c **** 		Status = VL53L0X_WrByte(Dev, 0xFF, 0x01);
 613:../Drivers/BSP/Components/vl53l0x/vl53l0x_api.c **** 		Status |= VL53L0X_RdWord(Dev, 0x84, &tempword);
 614:../Drivers/BSP/Components/vl53l0x/vl53l0x_api.c **** 		Status |= VL53L0X_WrByte(Dev, 0xFF, 0x00);
 615:../Drivers/BSP/Components/vl53l0x/vl53l0x_api.c **** 	}
 616:../Drivers/BSP/Components/vl53l0x/vl53l0x_api.c **** 
 617:../Drivers/BSP/Components/vl53l0x/vl53l0x_api.c **** 	if (Status == VL53L0X_ERROR_NONE) {
 618:../Drivers/BSP/Components/vl53l0x/vl53l0x_api.c **** 		VL53L0X_SETDEVICESPECIFICPARAMETER(Dev, OscFrequencyMHz,
 619:../Drivers/BSP/Components/vl53l0x/vl53l0x_api.c **** 			VL53L0X_FIXPOINT412TOFIXPOINT1616(tempword));
 620:../Drivers/BSP/Components/vl53l0x/vl53l0x_api.c **** 	}
ARM GAS  /tmp/ccflrS73.s 			page 24


 621:../Drivers/BSP/Components/vl53l0x/vl53l0x_api.c **** 
 622:../Drivers/BSP/Components/vl53l0x/vl53l0x_api.c **** 	/* After static init, some device parameters may be changed,
 623:../Drivers/BSP/Components/vl53l0x/vl53l0x_api.c **** 	 * so update them */
 624:../Drivers/BSP/Components/vl53l0x/vl53l0x_api.c **** 	if (Status == VL53L0X_ERROR_NONE)
 625:../Drivers/BSP/Components/vl53l0x/vl53l0x_api.c **** 		Status = VL53L0X_GetDeviceParameters(Dev, &CurrentParameters);
 626:../Drivers/BSP/Components/vl53l0x/vl53l0x_api.c **** 
 627:../Drivers/BSP/Components/vl53l0x/vl53l0x_api.c **** 
 628:../Drivers/BSP/Components/vl53l0x/vl53l0x_api.c **** 	if (Status == VL53L0X_ERROR_NONE) {
 629:../Drivers/BSP/Components/vl53l0x/vl53l0x_api.c **** 		Status = VL53L0X_GetFractionEnable(Dev, &tempbyte);
 630:../Drivers/BSP/Components/vl53l0x/vl53l0x_api.c **** 		if (Status == VL53L0X_ERROR_NONE)
 631:../Drivers/BSP/Components/vl53l0x/vl53l0x_api.c **** 			PALDevDataSet(Dev, RangeFractionalEnable, tempbyte);
 632:../Drivers/BSP/Components/vl53l0x/vl53l0x_api.c **** 
 633:../Drivers/BSP/Components/vl53l0x/vl53l0x_api.c **** 	}
 634:../Drivers/BSP/Components/vl53l0x/vl53l0x_api.c **** 
 635:../Drivers/BSP/Components/vl53l0x/vl53l0x_api.c **** 	if (Status == VL53L0X_ERROR_NONE)
 636:../Drivers/BSP/Components/vl53l0x/vl53l0x_api.c **** 		PALDevDataSet(Dev, CurrentParameters, CurrentParameters);
 637:../Drivers/BSP/Components/vl53l0x/vl53l0x_api.c **** 
 638:../Drivers/BSP/Components/vl53l0x/vl53l0x_api.c **** 
 639:../Drivers/BSP/Components/vl53l0x/vl53l0x_api.c **** 	/* read the sequence config and save it */
 640:../Drivers/BSP/Components/vl53l0x/vl53l0x_api.c **** 	if (Status == VL53L0X_ERROR_NONE) {
 641:../Drivers/BSP/Components/vl53l0x/vl53l0x_api.c **** 		Status = VL53L0X_RdByte(Dev,
 642:../Drivers/BSP/Components/vl53l0x/vl53l0x_api.c **** 		VL53L0X_REG_SYSTEM_SEQUENCE_CONFIG, &tempbyte);
 643:../Drivers/BSP/Components/vl53l0x/vl53l0x_api.c **** 		if (Status == VL53L0X_ERROR_NONE)
 644:../Drivers/BSP/Components/vl53l0x/vl53l0x_api.c **** 			PALDevDataSet(Dev, SequenceConfig, tempbyte);
 645:../Drivers/BSP/Components/vl53l0x/vl53l0x_api.c **** 
 646:../Drivers/BSP/Components/vl53l0x/vl53l0x_api.c **** 	}
 647:../Drivers/BSP/Components/vl53l0x/vl53l0x_api.c **** 
 648:../Drivers/BSP/Components/vl53l0x/vl53l0x_api.c **** 	/* Disable MSRC and TCC by default */
 649:../Drivers/BSP/Components/vl53l0x/vl53l0x_api.c **** 	if (Status == VL53L0X_ERROR_NONE)
 650:../Drivers/BSP/Components/vl53l0x/vl53l0x_api.c **** 		Status = VL53L0X_SetSequenceStepEnable(Dev,
 651:../Drivers/BSP/Components/vl53l0x/vl53l0x_api.c **** 					VL53L0X_SEQUENCESTEP_TCC, 0);
 652:../Drivers/BSP/Components/vl53l0x/vl53l0x_api.c **** 
 653:../Drivers/BSP/Components/vl53l0x/vl53l0x_api.c **** 
 654:../Drivers/BSP/Components/vl53l0x/vl53l0x_api.c **** 	if (Status == VL53L0X_ERROR_NONE)
 655:../Drivers/BSP/Components/vl53l0x/vl53l0x_api.c **** 		Status = VL53L0X_SetSequenceStepEnable(Dev,
 656:../Drivers/BSP/Components/vl53l0x/vl53l0x_api.c **** 		VL53L0X_SEQUENCESTEP_MSRC, 0);
 657:../Drivers/BSP/Components/vl53l0x/vl53l0x_api.c **** 
 658:../Drivers/BSP/Components/vl53l0x/vl53l0x_api.c **** 
 659:../Drivers/BSP/Components/vl53l0x/vl53l0x_api.c **** 	/* Set PAL State to standby */
 660:../Drivers/BSP/Components/vl53l0x/vl53l0x_api.c **** 	if (Status == VL53L0X_ERROR_NONE)
 661:../Drivers/BSP/Components/vl53l0x/vl53l0x_api.c **** 		PALDevDataSet(Dev, PalState, VL53L0X_STATE_IDLE);
 662:../Drivers/BSP/Components/vl53l0x/vl53l0x_api.c **** 
 663:../Drivers/BSP/Components/vl53l0x/vl53l0x_api.c **** 
 664:../Drivers/BSP/Components/vl53l0x/vl53l0x_api.c **** 
 665:../Drivers/BSP/Components/vl53l0x/vl53l0x_api.c **** 	/* Store pre-range vcsel period */
 666:../Drivers/BSP/Components/vl53l0x/vl53l0x_api.c **** 	if (Status == VL53L0X_ERROR_NONE) {
 667:../Drivers/BSP/Components/vl53l0x/vl53l0x_api.c **** 		Status = VL53L0X_GetVcselPulsePeriod(
 668:../Drivers/BSP/Components/vl53l0x/vl53l0x_api.c **** 			Dev,
 669:../Drivers/BSP/Components/vl53l0x/vl53l0x_api.c **** 			VL53L0X_VCSEL_PERIOD_PRE_RANGE,
 670:../Drivers/BSP/Components/vl53l0x/vl53l0x_api.c **** 			&vcselPulsePeriodPCLK);
 671:../Drivers/BSP/Components/vl53l0x/vl53l0x_api.c **** 	}
 672:../Drivers/BSP/Components/vl53l0x/vl53l0x_api.c **** 
 673:../Drivers/BSP/Components/vl53l0x/vl53l0x_api.c **** 	if (Status == VL53L0X_ERROR_NONE) {
 674:../Drivers/BSP/Components/vl53l0x/vl53l0x_api.c **** 			VL53L0X_SETDEVICESPECIFICPARAMETER(
 675:../Drivers/BSP/Components/vl53l0x/vl53l0x_api.c **** 				Dev,
 676:../Drivers/BSP/Components/vl53l0x/vl53l0x_api.c **** 				PreRangeVcselPulsePeriod,
 677:../Drivers/BSP/Components/vl53l0x/vl53l0x_api.c **** 				vcselPulsePeriodPCLK);
ARM GAS  /tmp/ccflrS73.s 			page 25


 678:../Drivers/BSP/Components/vl53l0x/vl53l0x_api.c **** 	}
 679:../Drivers/BSP/Components/vl53l0x/vl53l0x_api.c **** 
 680:../Drivers/BSP/Components/vl53l0x/vl53l0x_api.c **** 	/* Store final-range vcsel period */
 681:../Drivers/BSP/Components/vl53l0x/vl53l0x_api.c **** 	if (Status == VL53L0X_ERROR_NONE) {
 682:../Drivers/BSP/Components/vl53l0x/vl53l0x_api.c **** 		Status = VL53L0X_GetVcselPulsePeriod(
 683:../Drivers/BSP/Components/vl53l0x/vl53l0x_api.c **** 			Dev,
 684:../Drivers/BSP/Components/vl53l0x/vl53l0x_api.c **** 			VL53L0X_VCSEL_PERIOD_FINAL_RANGE,
 685:../Drivers/BSP/Components/vl53l0x/vl53l0x_api.c **** 			&vcselPulsePeriodPCLK);
 686:../Drivers/BSP/Components/vl53l0x/vl53l0x_api.c **** 	}
 687:../Drivers/BSP/Components/vl53l0x/vl53l0x_api.c **** 
 688:../Drivers/BSP/Components/vl53l0x/vl53l0x_api.c **** 	if (Status == VL53L0X_ERROR_NONE) {
 689:../Drivers/BSP/Components/vl53l0x/vl53l0x_api.c **** 			VL53L0X_SETDEVICESPECIFICPARAMETER(
 690:../Drivers/BSP/Components/vl53l0x/vl53l0x_api.c **** 				Dev,
 691:../Drivers/BSP/Components/vl53l0x/vl53l0x_api.c **** 				FinalRangeVcselPulsePeriod,
 692:../Drivers/BSP/Components/vl53l0x/vl53l0x_api.c **** 				vcselPulsePeriodPCLK);
 693:../Drivers/BSP/Components/vl53l0x/vl53l0x_api.c **** 	}
 694:../Drivers/BSP/Components/vl53l0x/vl53l0x_api.c **** 
 695:../Drivers/BSP/Components/vl53l0x/vl53l0x_api.c **** 	/* Store pre-range timeout */
 696:../Drivers/BSP/Components/vl53l0x/vl53l0x_api.c **** 	if (Status == VL53L0X_ERROR_NONE) {
 697:../Drivers/BSP/Components/vl53l0x/vl53l0x_api.c **** 		Status = get_sequence_step_timeout(
 698:../Drivers/BSP/Components/vl53l0x/vl53l0x_api.c **** 			Dev,
 699:../Drivers/BSP/Components/vl53l0x/vl53l0x_api.c **** 			VL53L0X_SEQUENCESTEP_PRE_RANGE,
 700:../Drivers/BSP/Components/vl53l0x/vl53l0x_api.c **** 			&seqTimeoutMicroSecs);
 701:../Drivers/BSP/Components/vl53l0x/vl53l0x_api.c **** 	}
 702:../Drivers/BSP/Components/vl53l0x/vl53l0x_api.c **** 
 703:../Drivers/BSP/Components/vl53l0x/vl53l0x_api.c **** 	if (Status == VL53L0X_ERROR_NONE) {
 704:../Drivers/BSP/Components/vl53l0x/vl53l0x_api.c **** 		VL53L0X_SETDEVICESPECIFICPARAMETER(
 705:../Drivers/BSP/Components/vl53l0x/vl53l0x_api.c **** 			Dev,
 706:../Drivers/BSP/Components/vl53l0x/vl53l0x_api.c **** 			PreRangeTimeoutMicroSecs,
 707:../Drivers/BSP/Components/vl53l0x/vl53l0x_api.c **** 			seqTimeoutMicroSecs);
 708:../Drivers/BSP/Components/vl53l0x/vl53l0x_api.c **** 	}
 709:../Drivers/BSP/Components/vl53l0x/vl53l0x_api.c **** 
 710:../Drivers/BSP/Components/vl53l0x/vl53l0x_api.c **** 	/* Store final-range timeout */
 711:../Drivers/BSP/Components/vl53l0x/vl53l0x_api.c **** 	if (Status == VL53L0X_ERROR_NONE) {
 712:../Drivers/BSP/Components/vl53l0x/vl53l0x_api.c **** 		Status = get_sequence_step_timeout(
 713:../Drivers/BSP/Components/vl53l0x/vl53l0x_api.c **** 			Dev,
 714:../Drivers/BSP/Components/vl53l0x/vl53l0x_api.c **** 			VL53L0X_SEQUENCESTEP_FINAL_RANGE,
 715:../Drivers/BSP/Components/vl53l0x/vl53l0x_api.c **** 			&seqTimeoutMicroSecs);
 716:../Drivers/BSP/Components/vl53l0x/vl53l0x_api.c **** 	}
 717:../Drivers/BSP/Components/vl53l0x/vl53l0x_api.c **** 
 718:../Drivers/BSP/Components/vl53l0x/vl53l0x_api.c **** 	if (Status == VL53L0X_ERROR_NONE) {
 719:../Drivers/BSP/Components/vl53l0x/vl53l0x_api.c **** 		VL53L0X_SETDEVICESPECIFICPARAMETER(
 720:../Drivers/BSP/Components/vl53l0x/vl53l0x_api.c **** 			Dev,
 721:../Drivers/BSP/Components/vl53l0x/vl53l0x_api.c **** 			FinalRangeTimeoutMicroSecs,
 722:../Drivers/BSP/Components/vl53l0x/vl53l0x_api.c **** 			seqTimeoutMicroSecs);
 723:../Drivers/BSP/Components/vl53l0x/vl53l0x_api.c **** 	}
 724:../Drivers/BSP/Components/vl53l0x/vl53l0x_api.c **** 
 725:../Drivers/BSP/Components/vl53l0x/vl53l0x_api.c **** 	LOG_FUNCTION_END(Status);
 726:../Drivers/BSP/Components/vl53l0x/vl53l0x_api.c **** 	return Status;
 727:../Drivers/BSP/Components/vl53l0x/vl53l0x_api.c **** }
 728:../Drivers/BSP/Components/vl53l0x/vl53l0x_api.c **** 
 729:../Drivers/BSP/Components/vl53l0x/vl53l0x_api.c **** VL53L0X_Error VL53L0X_WaitDeviceBooted(VL53L0X_DEV Dev)
 730:../Drivers/BSP/Components/vl53l0x/vl53l0x_api.c **** {
 731              		.loc 1 730 0
 732              		.cfi_startproc
 733              		@ args = 0, pretend = 0, frame = 0
 734              		@ frame_needed = 0, uses_anonymous_args = 0
ARM GAS  /tmp/ccflrS73.s 			page 26


 735              		@ link register save eliminated.
 736              	.LVL72:
 731:../Drivers/BSP/Components/vl53l0x/vl53l0x_api.c **** 	VL53L0X_Error Status = VL53L0X_ERROR_NOT_IMPLEMENTED;
 732:../Drivers/BSP/Components/vl53l0x/vl53l0x_api.c **** 	LOG_FUNCTION_START("");
 733:../Drivers/BSP/Components/vl53l0x/vl53l0x_api.c **** 
 734:../Drivers/BSP/Components/vl53l0x/vl53l0x_api.c **** 	/* not implemented on VL53L0X */
 735:../Drivers/BSP/Components/vl53l0x/vl53l0x_api.c **** 
 736:../Drivers/BSP/Components/vl53l0x/vl53l0x_api.c **** 	LOG_FUNCTION_END(Status);
 737:../Drivers/BSP/Components/vl53l0x/vl53l0x_api.c **** 	return Status;
 738:../Drivers/BSP/Components/vl53l0x/vl53l0x_api.c **** }
 737              		.loc 1 738 0
 738 0000 6FF06200 		mvn	r0, #98
 739              	.LVL73:
 740 0004 7047     		bx	lr
 741              		.cfi_endproc
 742              	.LFE136:
 744 0006 00BF     		.section	.text.VL53L0X_ResetDevice,"ax",%progbits
 745              		.align	2
 746              		.global	VL53L0X_ResetDevice
 747              		.thumb
 748              		.thumb_func
 750              	VL53L0X_ResetDevice:
 751              	.LFB137:
 739:../Drivers/BSP/Components/vl53l0x/vl53l0x_api.c **** 
 740:../Drivers/BSP/Components/vl53l0x/vl53l0x_api.c **** VL53L0X_Error VL53L0X_ResetDevice(VL53L0X_DEV Dev)
 741:../Drivers/BSP/Components/vl53l0x/vl53l0x_api.c **** {
 752              		.loc 1 741 0
 753              		.cfi_startproc
 754              		@ args = 0, pretend = 0, frame = 8
 755              		@ frame_needed = 0, uses_anonymous_args = 0
 756              	.LVL74:
 757 0000 30B5     		push	{r4, r5, lr}
 758              	.LCFI21:
 759              		.cfi_def_cfa_offset 12
 760              		.cfi_offset 4, -12
 761              		.cfi_offset 5, -8
 762              		.cfi_offset 14, -4
 763 0002 83B0     		sub	sp, sp, #12
 764              	.LCFI22:
 765              		.cfi_def_cfa_offset 24
 766 0004 0446     		mov	r4, r0
 767              	.LVL75:
 742:../Drivers/BSP/Components/vl53l0x/vl53l0x_api.c **** 	VL53L0X_Error Status = VL53L0X_ERROR_NONE;
 743:../Drivers/BSP/Components/vl53l0x/vl53l0x_api.c **** 	uint8_t Byte;
 744:../Drivers/BSP/Components/vl53l0x/vl53l0x_api.c **** 	LOG_FUNCTION_START("");
 745:../Drivers/BSP/Components/vl53l0x/vl53l0x_api.c **** 
 746:../Drivers/BSP/Components/vl53l0x/vl53l0x_api.c **** 	/* Set reset bit */
 747:../Drivers/BSP/Components/vl53l0x/vl53l0x_api.c **** 	Status = VL53L0X_WrByte(Dev, VL53L0X_REG_SOFT_RESET_GO2_SOFT_RESET_N,
 768              		.loc 1 747 0
 769 0006 BF21     		movs	r1, #191
 770 0008 0022     		movs	r2, #0
 771 000a FFF7FEFF 		bl	VL53L0X_WrByte
 772              	.LVL76:
 748:../Drivers/BSP/Components/vl53l0x/vl53l0x_api.c **** 		0x00);
 749:../Drivers/BSP/Components/vl53l0x/vl53l0x_api.c **** 
 750:../Drivers/BSP/Components/vl53l0x/vl53l0x_api.c **** 	/* Wait for some time */
 751:../Drivers/BSP/Components/vl53l0x/vl53l0x_api.c **** 	if (Status == VL53L0X_ERROR_NONE) {
ARM GAS  /tmp/ccflrS73.s 			page 27


 773              		.loc 1 751 0
 774 000e 48B9     		cbnz	r0, .L45
 775              	.LVL77:
 776              	.L46:
 752:../Drivers/BSP/Components/vl53l0x/vl53l0x_api.c **** 		do {
 753:../Drivers/BSP/Components/vl53l0x/vl53l0x_api.c **** 			Status = VL53L0X_RdByte(Dev,
 777              		.loc 1 753 0 discriminator 1
 778 0010 2046     		mov	r0, r4
 779 0012 C021     		movs	r1, #192
 780 0014 0DF10702 		add	r2, sp, #7
 781 0018 FFF7FEFF 		bl	VL53L0X_RdByte
 782              	.LVL78:
 754:../Drivers/BSP/Components/vl53l0x/vl53l0x_api.c **** 			VL53L0X_REG_IDENTIFICATION_MODEL_ID, &Byte);
 755:../Drivers/BSP/Components/vl53l0x/vl53l0x_api.c **** 		} while (Byte != 0x00);
 783              		.loc 1 755 0 discriminator 1
 784 001c 9DF80730 		ldrb	r3, [sp, #7]	@ zero_extendqisi2
 785 0020 002B     		cmp	r3, #0
 786 0022 F5D1     		bne	.L46
 787              	.L45:
 756:../Drivers/BSP/Components/vl53l0x/vl53l0x_api.c **** 	}
 757:../Drivers/BSP/Components/vl53l0x/vl53l0x_api.c **** 
 758:../Drivers/BSP/Components/vl53l0x/vl53l0x_api.c **** 	VL53L0X_PollingDelay(Dev);
 788              		.loc 1 758 0
 789 0024 2046     		mov	r0, r4
 790 0026 FFF7FEFF 		bl	VL53L0X_PollingDelay
 791              	.LVL79:
 759:../Drivers/BSP/Components/vl53l0x/vl53l0x_api.c **** 
 760:../Drivers/BSP/Components/vl53l0x/vl53l0x_api.c **** 	/* Release reset */
 761:../Drivers/BSP/Components/vl53l0x/vl53l0x_api.c **** 	Status = VL53L0X_WrByte(Dev, VL53L0X_REG_SOFT_RESET_GO2_SOFT_RESET_N,
 792              		.loc 1 761 0
 793 002a 2046     		mov	r0, r4
 794 002c BF21     		movs	r1, #191
 795 002e 0122     		movs	r2, #1
 796 0030 FFF7FEFF 		bl	VL53L0X_WrByte
 797              	.LVL80:
 762:../Drivers/BSP/Components/vl53l0x/vl53l0x_api.c **** 		0x01);
 763:../Drivers/BSP/Components/vl53l0x/vl53l0x_api.c **** 
 764:../Drivers/BSP/Components/vl53l0x/vl53l0x_api.c **** 	/* Wait until correct boot-up of the device */
 765:../Drivers/BSP/Components/vl53l0x/vl53l0x_api.c **** 	if (Status == VL53L0X_ERROR_NONE) {
 798              		.loc 1 765 0
 799 0034 0546     		mov	r5, r0
 800 0036 50B9     		cbnz	r0, .L47
 801              	.LVL81:
 802              	.L48:
 766:../Drivers/BSP/Components/vl53l0x/vl53l0x_api.c **** 		do {
 767:../Drivers/BSP/Components/vl53l0x/vl53l0x_api.c **** 			Status = VL53L0X_RdByte(Dev,
 803              		.loc 1 767 0 discriminator 1
 804 0038 2046     		mov	r0, r4
 805 003a C021     		movs	r1, #192
 806 003c 0DF10702 		add	r2, sp, #7
 807 0040 FFF7FEFF 		bl	VL53L0X_RdByte
 808              	.LVL82:
 809 0044 0546     		mov	r5, r0
 810              	.LVL83:
 768:../Drivers/BSP/Components/vl53l0x/vl53l0x_api.c **** 			VL53L0X_REG_IDENTIFICATION_MODEL_ID, &Byte);
 769:../Drivers/BSP/Components/vl53l0x/vl53l0x_api.c **** 		} while (Byte == 0x00);
 811              		.loc 1 769 0 discriminator 1
ARM GAS  /tmp/ccflrS73.s 			page 28


 812 0046 9DF80730 		ldrb	r3, [sp, #7]	@ zero_extendqisi2
 813 004a 002B     		cmp	r3, #0
 814 004c F4D0     		beq	.L48
 815              	.LVL84:
 816              	.L47:
 770:../Drivers/BSP/Components/vl53l0x/vl53l0x_api.c **** 	}
 771:../Drivers/BSP/Components/vl53l0x/vl53l0x_api.c **** 
 772:../Drivers/BSP/Components/vl53l0x/vl53l0x_api.c **** 	VL53L0X_PollingDelay(Dev);
 817              		.loc 1 772 0
 818 004e 2046     		mov	r0, r4
 819 0050 FFF7FEFF 		bl	VL53L0X_PollingDelay
 820              	.LVL85:
 773:../Drivers/BSP/Components/vl53l0x/vl53l0x_api.c **** 
 774:../Drivers/BSP/Components/vl53l0x/vl53l0x_api.c **** 	/* Set PAL State to VL53L0X_STATE_POWERDOWN */
 775:../Drivers/BSP/Components/vl53l0x/vl53l0x_api.c **** 	if (Status == VL53L0X_ERROR_NONE)
 821              		.loc 1 775 0
 822 0054 15B9     		cbnz	r5, .L49
 776:../Drivers/BSP/Components/vl53l0x/vl53l0x_api.c **** 		PALDevDataSet(Dev, PalState, VL53L0X_STATE_POWERDOWN);
 823              		.loc 1 776 0
 824 0056 0023     		movs	r3, #0
 825 0058 84F83231 		strb	r3, [r4, #306]
 826              	.L49:
 777:../Drivers/BSP/Components/vl53l0x/vl53l0x_api.c **** 
 778:../Drivers/BSP/Components/vl53l0x/vl53l0x_api.c **** 
 779:../Drivers/BSP/Components/vl53l0x/vl53l0x_api.c **** 	LOG_FUNCTION_END(Status);
 780:../Drivers/BSP/Components/vl53l0x/vl53l0x_api.c **** 	return Status;
 781:../Drivers/BSP/Components/vl53l0x/vl53l0x_api.c **** }
 827              		.loc 1 781 0
 828 005c 68B2     		sxtb	r0, r5
 829 005e 03B0     		add	sp, sp, #12
 830              	.LCFI23:
 831              		.cfi_def_cfa_offset 12
 832              		@ sp needed
 833 0060 30BD     		pop	{r4, r5, pc}
 834              		.cfi_endproc
 835              	.LFE137:
 837 0062 00BF     		.section	.text.VL53L0X_SetDeviceMode,"ax",%progbits
 838              		.align	2
 839              		.global	VL53L0X_SetDeviceMode
 840              		.thumb
 841              		.thumb_func
 843              	VL53L0X_SetDeviceMode:
 844              	.LFB140:
 782:../Drivers/BSP/Components/vl53l0x/vl53l0x_api.c **** /* End Group PAL Init Functions */
 783:../Drivers/BSP/Components/vl53l0x/vl53l0x_api.c **** 
 784:../Drivers/BSP/Components/vl53l0x/vl53l0x_api.c **** /* Group PAL Parameters Functions */
 785:../Drivers/BSP/Components/vl53l0x/vl53l0x_api.c **** VL53L0X_Error VL53L0X_SetDeviceParameters(VL53L0X_DEV Dev,
 786:../Drivers/BSP/Components/vl53l0x/vl53l0x_api.c **** 	const VL53L0X_DeviceParameters_t *pDeviceParameters)
 787:../Drivers/BSP/Components/vl53l0x/vl53l0x_api.c **** {
 788:../Drivers/BSP/Components/vl53l0x/vl53l0x_api.c **** 	VL53L0X_Error Status = VL53L0X_ERROR_NONE;
 789:../Drivers/BSP/Components/vl53l0x/vl53l0x_api.c **** 	int i;
 790:../Drivers/BSP/Components/vl53l0x/vl53l0x_api.c **** 	LOG_FUNCTION_START("");
 791:../Drivers/BSP/Components/vl53l0x/vl53l0x_api.c **** 	Status = VL53L0X_SetDeviceMode(Dev, pDeviceParameters->DeviceMode);
 792:../Drivers/BSP/Components/vl53l0x/vl53l0x_api.c **** 
 793:../Drivers/BSP/Components/vl53l0x/vl53l0x_api.c **** 	if (Status == VL53L0X_ERROR_NONE)
 794:../Drivers/BSP/Components/vl53l0x/vl53l0x_api.c **** 		Status = VL53L0X_SetInterMeasurementPeriodMilliSeconds(Dev,
 795:../Drivers/BSP/Components/vl53l0x/vl53l0x_api.c **** 			pDeviceParameters->InterMeasurementPeriodMilliSeconds);
ARM GAS  /tmp/ccflrS73.s 			page 29


 796:../Drivers/BSP/Components/vl53l0x/vl53l0x_api.c **** 
 797:../Drivers/BSP/Components/vl53l0x/vl53l0x_api.c **** 
 798:../Drivers/BSP/Components/vl53l0x/vl53l0x_api.c **** 	if (Status == VL53L0X_ERROR_NONE)
 799:../Drivers/BSP/Components/vl53l0x/vl53l0x_api.c **** 		Status = VL53L0X_SetXTalkCompensationRateMegaCps(Dev,
 800:../Drivers/BSP/Components/vl53l0x/vl53l0x_api.c **** 			pDeviceParameters->XTalkCompensationRateMegaCps);
 801:../Drivers/BSP/Components/vl53l0x/vl53l0x_api.c **** 
 802:../Drivers/BSP/Components/vl53l0x/vl53l0x_api.c **** 
 803:../Drivers/BSP/Components/vl53l0x/vl53l0x_api.c **** 	if (Status == VL53L0X_ERROR_NONE)
 804:../Drivers/BSP/Components/vl53l0x/vl53l0x_api.c **** 		Status = VL53L0X_SetOffsetCalibrationDataMicroMeter(Dev,
 805:../Drivers/BSP/Components/vl53l0x/vl53l0x_api.c **** 			pDeviceParameters->RangeOffsetMicroMeters);
 806:../Drivers/BSP/Components/vl53l0x/vl53l0x_api.c **** 
 807:../Drivers/BSP/Components/vl53l0x/vl53l0x_api.c **** 
 808:../Drivers/BSP/Components/vl53l0x/vl53l0x_api.c **** 	for (i = 0; i < VL53L0X_CHECKENABLE_NUMBER_OF_CHECKS; i++) {
 809:../Drivers/BSP/Components/vl53l0x/vl53l0x_api.c **** 		if (Status == VL53L0X_ERROR_NONE)
 810:../Drivers/BSP/Components/vl53l0x/vl53l0x_api.c **** 			Status |= VL53L0X_SetLimitCheckEnable(Dev, i,
 811:../Drivers/BSP/Components/vl53l0x/vl53l0x_api.c **** 				pDeviceParameters->LimitChecksEnable[i]);
 812:../Drivers/BSP/Components/vl53l0x/vl53l0x_api.c **** 		else
 813:../Drivers/BSP/Components/vl53l0x/vl53l0x_api.c **** 			break;
 814:../Drivers/BSP/Components/vl53l0x/vl53l0x_api.c **** 
 815:../Drivers/BSP/Components/vl53l0x/vl53l0x_api.c **** 		if (Status == VL53L0X_ERROR_NONE)
 816:../Drivers/BSP/Components/vl53l0x/vl53l0x_api.c **** 			Status |= VL53L0X_SetLimitCheckValue(Dev, i,
 817:../Drivers/BSP/Components/vl53l0x/vl53l0x_api.c **** 				pDeviceParameters->LimitChecksValue[i]);
 818:../Drivers/BSP/Components/vl53l0x/vl53l0x_api.c **** 		else
 819:../Drivers/BSP/Components/vl53l0x/vl53l0x_api.c **** 			break;
 820:../Drivers/BSP/Components/vl53l0x/vl53l0x_api.c **** 
 821:../Drivers/BSP/Components/vl53l0x/vl53l0x_api.c **** 	}
 822:../Drivers/BSP/Components/vl53l0x/vl53l0x_api.c **** 
 823:../Drivers/BSP/Components/vl53l0x/vl53l0x_api.c **** 	if (Status == VL53L0X_ERROR_NONE)
 824:../Drivers/BSP/Components/vl53l0x/vl53l0x_api.c **** 		Status = VL53L0X_SetWrapAroundCheckEnable(Dev,
 825:../Drivers/BSP/Components/vl53l0x/vl53l0x_api.c **** 			pDeviceParameters->WrapAroundCheckEnable);
 826:../Drivers/BSP/Components/vl53l0x/vl53l0x_api.c **** 
 827:../Drivers/BSP/Components/vl53l0x/vl53l0x_api.c **** 	if (Status == VL53L0X_ERROR_NONE)
 828:../Drivers/BSP/Components/vl53l0x/vl53l0x_api.c **** 		Status = VL53L0X_SetMeasurementTimingBudgetMicroSeconds(Dev,
 829:../Drivers/BSP/Components/vl53l0x/vl53l0x_api.c **** 			pDeviceParameters->MeasurementTimingBudgetMicroSeconds);
 830:../Drivers/BSP/Components/vl53l0x/vl53l0x_api.c **** 
 831:../Drivers/BSP/Components/vl53l0x/vl53l0x_api.c **** 
 832:../Drivers/BSP/Components/vl53l0x/vl53l0x_api.c **** 	LOG_FUNCTION_END(Status);
 833:../Drivers/BSP/Components/vl53l0x/vl53l0x_api.c **** 	return Status;
 834:../Drivers/BSP/Components/vl53l0x/vl53l0x_api.c **** }
 835:../Drivers/BSP/Components/vl53l0x/vl53l0x_api.c **** 
 836:../Drivers/BSP/Components/vl53l0x/vl53l0x_api.c **** VL53L0X_Error VL53L0X_GetDeviceParameters(VL53L0X_DEV Dev,
 837:../Drivers/BSP/Components/vl53l0x/vl53l0x_api.c **** 	VL53L0X_DeviceParameters_t *pDeviceParameters)
 838:../Drivers/BSP/Components/vl53l0x/vl53l0x_api.c **** {
 839:../Drivers/BSP/Components/vl53l0x/vl53l0x_api.c **** 	VL53L0X_Error Status = VL53L0X_ERROR_NONE;
 840:../Drivers/BSP/Components/vl53l0x/vl53l0x_api.c **** 	int i;
 841:../Drivers/BSP/Components/vl53l0x/vl53l0x_api.c **** 
 842:../Drivers/BSP/Components/vl53l0x/vl53l0x_api.c **** 	LOG_FUNCTION_START("");
 843:../Drivers/BSP/Components/vl53l0x/vl53l0x_api.c **** 
 844:../Drivers/BSP/Components/vl53l0x/vl53l0x_api.c **** 	Status = VL53L0X_GetDeviceMode(Dev, &(pDeviceParameters->DeviceMode));
 845:../Drivers/BSP/Components/vl53l0x/vl53l0x_api.c **** 
 846:../Drivers/BSP/Components/vl53l0x/vl53l0x_api.c **** 	if (Status == VL53L0X_ERROR_NONE)
 847:../Drivers/BSP/Components/vl53l0x/vl53l0x_api.c **** 		Status = VL53L0X_GetInterMeasurementPeriodMilliSeconds(Dev,
 848:../Drivers/BSP/Components/vl53l0x/vl53l0x_api.c **** 		&(pDeviceParameters->InterMeasurementPeriodMilliSeconds));
 849:../Drivers/BSP/Components/vl53l0x/vl53l0x_api.c **** 
 850:../Drivers/BSP/Components/vl53l0x/vl53l0x_api.c **** 
 851:../Drivers/BSP/Components/vl53l0x/vl53l0x_api.c **** 	if (Status == VL53L0X_ERROR_NONE)
 852:../Drivers/BSP/Components/vl53l0x/vl53l0x_api.c **** 		pDeviceParameters->XTalkCompensationEnable = 0;
ARM GAS  /tmp/ccflrS73.s 			page 30


 853:../Drivers/BSP/Components/vl53l0x/vl53l0x_api.c **** 
 854:../Drivers/BSP/Components/vl53l0x/vl53l0x_api.c **** 	if (Status == VL53L0X_ERROR_NONE)
 855:../Drivers/BSP/Components/vl53l0x/vl53l0x_api.c **** 		Status = VL53L0X_GetXTalkCompensationRateMegaCps(Dev,
 856:../Drivers/BSP/Components/vl53l0x/vl53l0x_api.c **** 			&(pDeviceParameters->XTalkCompensationRateMegaCps));
 857:../Drivers/BSP/Components/vl53l0x/vl53l0x_api.c **** 
 858:../Drivers/BSP/Components/vl53l0x/vl53l0x_api.c **** 
 859:../Drivers/BSP/Components/vl53l0x/vl53l0x_api.c **** 	if (Status == VL53L0X_ERROR_NONE)
 860:../Drivers/BSP/Components/vl53l0x/vl53l0x_api.c **** 		Status = VL53L0X_GetOffsetCalibrationDataMicroMeter(Dev,
 861:../Drivers/BSP/Components/vl53l0x/vl53l0x_api.c **** 			&(pDeviceParameters->RangeOffsetMicroMeters));
 862:../Drivers/BSP/Components/vl53l0x/vl53l0x_api.c **** 
 863:../Drivers/BSP/Components/vl53l0x/vl53l0x_api.c **** 
 864:../Drivers/BSP/Components/vl53l0x/vl53l0x_api.c **** 	if (Status == VL53L0X_ERROR_NONE) {
 865:../Drivers/BSP/Components/vl53l0x/vl53l0x_api.c **** 		for (i = 0; i < VL53L0X_CHECKENABLE_NUMBER_OF_CHECKS; i++) {
 866:../Drivers/BSP/Components/vl53l0x/vl53l0x_api.c **** 			/* get first the values, then the enables.
 867:../Drivers/BSP/Components/vl53l0x/vl53l0x_api.c **** 			 * VL53L0X_GetLimitCheckValue will modify the enable
 868:../Drivers/BSP/Components/vl53l0x/vl53l0x_api.c **** 			 * flags
 869:../Drivers/BSP/Components/vl53l0x/vl53l0x_api.c **** 			 */
 870:../Drivers/BSP/Components/vl53l0x/vl53l0x_api.c **** 			if (Status == VL53L0X_ERROR_NONE) {
 871:../Drivers/BSP/Components/vl53l0x/vl53l0x_api.c **** 				Status |= VL53L0X_GetLimitCheckValue(Dev, i,
 872:../Drivers/BSP/Components/vl53l0x/vl53l0x_api.c **** 				&(pDeviceParameters->LimitChecksValue[i]));
 873:../Drivers/BSP/Components/vl53l0x/vl53l0x_api.c **** 			} else {
 874:../Drivers/BSP/Components/vl53l0x/vl53l0x_api.c **** 				break;
 875:../Drivers/BSP/Components/vl53l0x/vl53l0x_api.c **** 			}
 876:../Drivers/BSP/Components/vl53l0x/vl53l0x_api.c **** 			if (Status == VL53L0X_ERROR_NONE) {
 877:../Drivers/BSP/Components/vl53l0x/vl53l0x_api.c **** 				Status |= VL53L0X_GetLimitCheckEnable(Dev, i,
 878:../Drivers/BSP/Components/vl53l0x/vl53l0x_api.c **** 				&(pDeviceParameters->LimitChecksEnable[i]));
 879:../Drivers/BSP/Components/vl53l0x/vl53l0x_api.c **** 			} else {
 880:../Drivers/BSP/Components/vl53l0x/vl53l0x_api.c **** 				break;
 881:../Drivers/BSP/Components/vl53l0x/vl53l0x_api.c **** 			}
 882:../Drivers/BSP/Components/vl53l0x/vl53l0x_api.c **** 		}
 883:../Drivers/BSP/Components/vl53l0x/vl53l0x_api.c **** 	}
 884:../Drivers/BSP/Components/vl53l0x/vl53l0x_api.c **** 
 885:../Drivers/BSP/Components/vl53l0x/vl53l0x_api.c **** 	if (Status == VL53L0X_ERROR_NONE) {
 886:../Drivers/BSP/Components/vl53l0x/vl53l0x_api.c **** 		Status = VL53L0X_GetWrapAroundCheckEnable(Dev,
 887:../Drivers/BSP/Components/vl53l0x/vl53l0x_api.c **** 			&(pDeviceParameters->WrapAroundCheckEnable));
 888:../Drivers/BSP/Components/vl53l0x/vl53l0x_api.c **** 	}
 889:../Drivers/BSP/Components/vl53l0x/vl53l0x_api.c **** 
 890:../Drivers/BSP/Components/vl53l0x/vl53l0x_api.c **** 	/* Need to be done at the end as it uses VCSELPulsePeriod */
 891:../Drivers/BSP/Components/vl53l0x/vl53l0x_api.c **** 	if (Status == VL53L0X_ERROR_NONE) {
 892:../Drivers/BSP/Components/vl53l0x/vl53l0x_api.c **** 		Status = VL53L0X_GetMeasurementTimingBudgetMicroSeconds(Dev,
 893:../Drivers/BSP/Components/vl53l0x/vl53l0x_api.c **** 		&(pDeviceParameters->MeasurementTimingBudgetMicroSeconds));
 894:../Drivers/BSP/Components/vl53l0x/vl53l0x_api.c **** 	}
 895:../Drivers/BSP/Components/vl53l0x/vl53l0x_api.c **** 
 896:../Drivers/BSP/Components/vl53l0x/vl53l0x_api.c **** 	LOG_FUNCTION_END(Status);
 897:../Drivers/BSP/Components/vl53l0x/vl53l0x_api.c **** 	return Status;
 898:../Drivers/BSP/Components/vl53l0x/vl53l0x_api.c **** }
 899:../Drivers/BSP/Components/vl53l0x/vl53l0x_api.c **** 
 900:../Drivers/BSP/Components/vl53l0x/vl53l0x_api.c **** VL53L0X_Error VL53L0X_SetDeviceMode(VL53L0X_DEV Dev, VL53L0X_DeviceModes DeviceMode)
 901:../Drivers/BSP/Components/vl53l0x/vl53l0x_api.c **** {
 845              		.loc 1 901 0
 846              		.cfi_startproc
 847              		@ args = 0, pretend = 0, frame = 0
 848              		@ frame_needed = 0, uses_anonymous_args = 0
 849              		@ link register save eliminated.
 850              	.LVL86:
 902:../Drivers/BSP/Components/vl53l0x/vl53l0x_api.c **** 	VL53L0X_Error Status = VL53L0X_ERROR_NONE;
 903:../Drivers/BSP/Components/vl53l0x/vl53l0x_api.c **** 
ARM GAS  /tmp/ccflrS73.s 			page 31


 904:../Drivers/BSP/Components/vl53l0x/vl53l0x_api.c **** 	LOG_FUNCTION_START("%d", (int)DeviceMode);
 905:../Drivers/BSP/Components/vl53l0x/vl53l0x_api.c **** 
 906:../Drivers/BSP/Components/vl53l0x/vl53l0x_api.c **** 	switch (DeviceMode) {
 851              		.loc 1 906 0
 852 0000 1529     		cmp	r1, #21
 853 0002 0FD8     		bhi	.L55
 854 0004 DFE801F0 		tbb	[pc, r1]
 855              	.L54:
 856 0008 0B       		.byte	(.L53-.L54)/2
 857 0009 0B       		.byte	(.L53-.L54)/2
 858 000a 0E       		.byte	(.L55-.L54)/2
 859 000b 0B       		.byte	(.L53-.L54)/2
 860 000c 0E       		.byte	(.L55-.L54)/2
 861 000d 0E       		.byte	(.L55-.L54)/2
 862 000e 0E       		.byte	(.L55-.L54)/2
 863 000f 0E       		.byte	(.L55-.L54)/2
 864 0010 0E       		.byte	(.L55-.L54)/2
 865 0011 0E       		.byte	(.L55-.L54)/2
 866 0012 0E       		.byte	(.L55-.L54)/2
 867 0013 0E       		.byte	(.L55-.L54)/2
 868 0014 0E       		.byte	(.L55-.L54)/2
 869 0015 0E       		.byte	(.L55-.L54)/2
 870 0016 0E       		.byte	(.L55-.L54)/2
 871 0017 0E       		.byte	(.L55-.L54)/2
 872 0018 0E       		.byte	(.L55-.L54)/2
 873 0019 0E       		.byte	(.L55-.L54)/2
 874 001a 0E       		.byte	(.L55-.L54)/2
 875 001b 0E       		.byte	(.L55-.L54)/2
 876 001c 0B       		.byte	(.L53-.L54)/2
 877 001d 0B       		.byte	(.L53-.L54)/2
 878              		.p2align 1
 879              	.L53:
 907:../Drivers/BSP/Components/vl53l0x/vl53l0x_api.c **** 	case VL53L0X_DEVICEMODE_SINGLE_RANGING:
 908:../Drivers/BSP/Components/vl53l0x/vl53l0x_api.c **** 	case VL53L0X_DEVICEMODE_CONTINUOUS_RANGING:
 909:../Drivers/BSP/Components/vl53l0x/vl53l0x_api.c **** 	case VL53L0X_DEVICEMODE_CONTINUOUS_TIMED_RANGING:
 910:../Drivers/BSP/Components/vl53l0x/vl53l0x_api.c **** 	case VL53L0X_DEVICEMODE_GPIO_DRIVE:
 911:../Drivers/BSP/Components/vl53l0x/vl53l0x_api.c **** 	case VL53L0X_DEVICEMODE_GPIO_OSC:
 912:../Drivers/BSP/Components/vl53l0x/vl53l0x_api.c **** 		/* Supported modes */
 913:../Drivers/BSP/Components/vl53l0x/vl53l0x_api.c **** 		VL53L0X_SETPARAMETERFIELD(Dev, DeviceMode, DeviceMode);
 880              		.loc 1 913 0
 881 001e 0174     		strb	r1, [r0, #16]
 902:../Drivers/BSP/Components/vl53l0x/vl53l0x_api.c **** 	VL53L0X_Error Status = VL53L0X_ERROR_NONE;
 882              		.loc 1 902 0
 883 0020 0020     		movs	r0, #0
 884              	.LVL87:
 914:../Drivers/BSP/Components/vl53l0x/vl53l0x_api.c **** 		break;
 885              		.loc 1 914 0
 886 0022 00E0     		b	.L52
 887              	.LVL88:
 888              	.L55:
 915:../Drivers/BSP/Components/vl53l0x/vl53l0x_api.c **** 	default:
 916:../Drivers/BSP/Components/vl53l0x/vl53l0x_api.c **** 		/* Unsupported mode */
 917:../Drivers/BSP/Components/vl53l0x/vl53l0x_api.c **** 		Status = VL53L0X_ERROR_MODE_NOT_SUPPORTED;
 889              		.loc 1 917 0
 890 0024 F820     		movs	r0, #248
 891              	.LVL89:
 892              	.L52:
ARM GAS  /tmp/ccflrS73.s 			page 32


 918:../Drivers/BSP/Components/vl53l0x/vl53l0x_api.c **** 	}
 919:../Drivers/BSP/Components/vl53l0x/vl53l0x_api.c **** 
 920:../Drivers/BSP/Components/vl53l0x/vl53l0x_api.c **** 	LOG_FUNCTION_END(Status);
 921:../Drivers/BSP/Components/vl53l0x/vl53l0x_api.c **** 	return Status;
 922:../Drivers/BSP/Components/vl53l0x/vl53l0x_api.c **** }
 893              		.loc 1 922 0
 894 0026 40B2     		sxtb	r0, r0
 895 0028 7047     		bx	lr
 896              		.cfi_endproc
 897              	.LFE140:
 899 002a 00BF     		.section	.text.VL53L0X_GetDeviceMode,"ax",%progbits
 900              		.align	2
 901              		.global	VL53L0X_GetDeviceMode
 902              		.thumb
 903              		.thumb_func
 905              	VL53L0X_GetDeviceMode:
 906              	.LFB141:
 923:../Drivers/BSP/Components/vl53l0x/vl53l0x_api.c **** 
 924:../Drivers/BSP/Components/vl53l0x/vl53l0x_api.c **** VL53L0X_Error VL53L0X_GetDeviceMode(VL53L0X_DEV Dev,
 925:../Drivers/BSP/Components/vl53l0x/vl53l0x_api.c **** 	VL53L0X_DeviceModes *pDeviceMode)
 926:../Drivers/BSP/Components/vl53l0x/vl53l0x_api.c **** {
 907              		.loc 1 926 0
 908              		.cfi_startproc
 909              		@ args = 0, pretend = 0, frame = 0
 910              		@ frame_needed = 0, uses_anonymous_args = 0
 911              		@ link register save eliminated.
 912              	.LVL90:
 927:../Drivers/BSP/Components/vl53l0x/vl53l0x_api.c **** 	VL53L0X_Error Status = VL53L0X_ERROR_NONE;
 928:../Drivers/BSP/Components/vl53l0x/vl53l0x_api.c **** 	LOG_FUNCTION_START("");
 929:../Drivers/BSP/Components/vl53l0x/vl53l0x_api.c **** 
 930:../Drivers/BSP/Components/vl53l0x/vl53l0x_api.c **** 	VL53L0X_GETPARAMETERFIELD(Dev, DeviceMode, *pDeviceMode);
 913              		.loc 1 930 0
 914 0000 037C     		ldrb	r3, [r0, #16]	@ zero_extendqisi2
 915 0002 0B70     		strb	r3, [r1]
 931:../Drivers/BSP/Components/vl53l0x/vl53l0x_api.c **** 
 932:../Drivers/BSP/Components/vl53l0x/vl53l0x_api.c **** 	LOG_FUNCTION_END(Status);
 933:../Drivers/BSP/Components/vl53l0x/vl53l0x_api.c **** 	return Status;
 934:../Drivers/BSP/Components/vl53l0x/vl53l0x_api.c **** }
 916              		.loc 1 934 0
 917 0004 0020     		movs	r0, #0
 918              	.LVL91:
 919 0006 7047     		bx	lr
 920              		.cfi_endproc
 921              	.LFE141:
 923              		.section	.text.VL53L0X_SetRangeFractionEnable,"ax",%progbits
 924              		.align	2
 925              		.global	VL53L0X_SetRangeFractionEnable
 926              		.thumb
 927              		.thumb_func
 929              	VL53L0X_SetRangeFractionEnable:
 930              	.LFB142:
 935:../Drivers/BSP/Components/vl53l0x/vl53l0x_api.c **** 
 936:../Drivers/BSP/Components/vl53l0x/vl53l0x_api.c **** VL53L0X_Error VL53L0X_SetRangeFractionEnable(VL53L0X_DEV Dev,	uint8_t Enable)
 937:../Drivers/BSP/Components/vl53l0x/vl53l0x_api.c **** {
 931              		.loc 1 937 0
 932              		.cfi_startproc
 933              		@ args = 0, pretend = 0, frame = 0
ARM GAS  /tmp/ccflrS73.s 			page 33


 934              		@ frame_needed = 0, uses_anonymous_args = 0
 935              	.LVL92:
 936 0000 38B5     		push	{r3, r4, r5, lr}
 937              	.LCFI24:
 938              		.cfi_def_cfa_offset 16
 939              		.cfi_offset 3, -16
 940              		.cfi_offset 4, -12
 941              		.cfi_offset 5, -8
 942              		.cfi_offset 14, -4
 943 0002 0546     		mov	r5, r0
 944 0004 0C46     		mov	r4, r1
 945              	.LVL93:
 938:../Drivers/BSP/Components/vl53l0x/vl53l0x_api.c **** 	VL53L0X_Error Status = VL53L0X_ERROR_NONE;
 939:../Drivers/BSP/Components/vl53l0x/vl53l0x_api.c **** 
 940:../Drivers/BSP/Components/vl53l0x/vl53l0x_api.c **** 	LOG_FUNCTION_START("%d", (int)Enable);
 941:../Drivers/BSP/Components/vl53l0x/vl53l0x_api.c **** 
 942:../Drivers/BSP/Components/vl53l0x/vl53l0x_api.c **** 	Status = VL53L0X_WrByte(Dev, VL53L0X_REG_SYSTEM_RANGE_CONFIG, Enable);
 946              		.loc 1 942 0
 947 0006 0921     		movs	r1, #9
 948              	.LVL94:
 949 0008 2246     		mov	r2, r4
 950 000a FFF7FEFF 		bl	VL53L0X_WrByte
 951              	.LVL95:
 943:../Drivers/BSP/Components/vl53l0x/vl53l0x_api.c **** 
 944:../Drivers/BSP/Components/vl53l0x/vl53l0x_api.c **** 	if (Status == VL53L0X_ERROR_NONE)
 952              		.loc 1 944 0
 953 000e 0346     		mov	r3, r0
 954 0010 08B9     		cbnz	r0, .L58
 945:../Drivers/BSP/Components/vl53l0x/vl53l0x_api.c **** 		PALDevDataSet(Dev, RangeFractionalEnable, Enable);
 955              		.loc 1 945 0
 956 0012 85F83141 		strb	r4, [r5, #305]
 957              	.L58:
 946:../Drivers/BSP/Components/vl53l0x/vl53l0x_api.c **** 
 947:../Drivers/BSP/Components/vl53l0x/vl53l0x_api.c **** 	LOG_FUNCTION_END(Status);
 948:../Drivers/BSP/Components/vl53l0x/vl53l0x_api.c **** 	return Status;
 949:../Drivers/BSP/Components/vl53l0x/vl53l0x_api.c **** }
 958              		.loc 1 949 0
 959 0016 1846     		mov	r0, r3
 960              	.LVL96:
 961 0018 38BD     		pop	{r3, r4, r5, pc}
 962              		.cfi_endproc
 963              	.LFE142:
 965 001a 00BF     		.section	.text.VL53L0X_GetFractionEnable,"ax",%progbits
 966              		.align	2
 967              		.global	VL53L0X_GetFractionEnable
 968              		.thumb
 969              		.thumb_func
 971              	VL53L0X_GetFractionEnable:
 972              	.LFB143:
 950:../Drivers/BSP/Components/vl53l0x/vl53l0x_api.c **** 
 951:../Drivers/BSP/Components/vl53l0x/vl53l0x_api.c **** VL53L0X_Error VL53L0X_GetFractionEnable(VL53L0X_DEV Dev, uint8_t *pEnabled)
 952:../Drivers/BSP/Components/vl53l0x/vl53l0x_api.c **** {
 973              		.loc 1 952 0
 974              		.cfi_startproc
 975              		@ args = 0, pretend = 0, frame = 0
 976              		@ frame_needed = 0, uses_anonymous_args = 0
 977              	.LVL97:
ARM GAS  /tmp/ccflrS73.s 			page 34


 978 0000 10B5     		push	{r4, lr}
 979              	.LCFI25:
 980              		.cfi_def_cfa_offset 8
 981              		.cfi_offset 4, -8
 982              		.cfi_offset 14, -4
 983 0002 0C46     		mov	r4, r1
 984              	.LVL98:
 953:../Drivers/BSP/Components/vl53l0x/vl53l0x_api.c **** 	VL53L0X_Error Status = VL53L0X_ERROR_NONE;
 954:../Drivers/BSP/Components/vl53l0x/vl53l0x_api.c **** 	LOG_FUNCTION_START("");
 955:../Drivers/BSP/Components/vl53l0x/vl53l0x_api.c **** 
 956:../Drivers/BSP/Components/vl53l0x/vl53l0x_api.c **** 	Status = VL53L0X_RdByte(Dev, VL53L0X_REG_SYSTEM_RANGE_CONFIG, pEnabled);
 985              		.loc 1 956 0
 986 0004 0921     		movs	r1, #9
 987              	.LVL99:
 988 0006 2246     		mov	r2, r4
 989 0008 FFF7FEFF 		bl	VL53L0X_RdByte
 990              	.LVL100:
 957:../Drivers/BSP/Components/vl53l0x/vl53l0x_api.c **** 
 958:../Drivers/BSP/Components/vl53l0x/vl53l0x_api.c **** 	if (Status == VL53L0X_ERROR_NONE)
 991              		.loc 1 958 0
 992 000c 0246     		mov	r2, r0
 993 000e 18B9     		cbnz	r0, .L61
 959:../Drivers/BSP/Components/vl53l0x/vl53l0x_api.c **** 		*pEnabled = (*pEnabled & 1);
 994              		.loc 1 959 0
 995 0010 2378     		ldrb	r3, [r4]	@ zero_extendqisi2
 996 0012 03F00103 		and	r3, r3, #1
 997 0016 2370     		strb	r3, [r4]
 998              	.L61:
 960:../Drivers/BSP/Components/vl53l0x/vl53l0x_api.c **** 
 961:../Drivers/BSP/Components/vl53l0x/vl53l0x_api.c **** 	LOG_FUNCTION_END(Status);
 962:../Drivers/BSP/Components/vl53l0x/vl53l0x_api.c **** 	return Status;
 963:../Drivers/BSP/Components/vl53l0x/vl53l0x_api.c **** }
 999              		.loc 1 963 0
 1000 0018 1046     		mov	r0, r2
 1001              	.LVL101:
 1002 001a 10BD     		pop	{r4, pc}
 1003              		.cfi_endproc
 1004              	.LFE143:
 1006              		.section	.text.VL53L0X_SetHistogramMode,"ax",%progbits
 1007              		.align	2
 1008              		.global	VL53L0X_SetHistogramMode
 1009              		.thumb
 1010              		.thumb_func
 1012              	VL53L0X_SetHistogramMode:
 1013              	.LFB144:
 964:../Drivers/BSP/Components/vl53l0x/vl53l0x_api.c **** 
 965:../Drivers/BSP/Components/vl53l0x/vl53l0x_api.c **** VL53L0X_Error VL53L0X_SetHistogramMode(VL53L0X_DEV Dev,
 966:../Drivers/BSP/Components/vl53l0x/vl53l0x_api.c **** 	VL53L0X_HistogramModes HistogramMode)
 967:../Drivers/BSP/Components/vl53l0x/vl53l0x_api.c **** {
 1014              		.loc 1 967 0
 1015              		.cfi_startproc
 1016              		@ args = 0, pretend = 0, frame = 0
 1017              		@ frame_needed = 0, uses_anonymous_args = 0
 1018              		@ link register save eliminated.
 1019              	.LVL102:
 968:../Drivers/BSP/Components/vl53l0x/vl53l0x_api.c **** 	VL53L0X_Error Status = VL53L0X_ERROR_NOT_IMPLEMENTED;
 969:../Drivers/BSP/Components/vl53l0x/vl53l0x_api.c **** 	LOG_FUNCTION_START("");
ARM GAS  /tmp/ccflrS73.s 			page 35


 970:../Drivers/BSP/Components/vl53l0x/vl53l0x_api.c **** 
 971:../Drivers/BSP/Components/vl53l0x/vl53l0x_api.c **** 	/* not implemented on VL53L0X */
 972:../Drivers/BSP/Components/vl53l0x/vl53l0x_api.c **** 
 973:../Drivers/BSP/Components/vl53l0x/vl53l0x_api.c **** 	LOG_FUNCTION_END(Status);
 974:../Drivers/BSP/Components/vl53l0x/vl53l0x_api.c **** 	return Status;
 975:../Drivers/BSP/Components/vl53l0x/vl53l0x_api.c **** }
 1020              		.loc 1 975 0
 1021 0000 6FF06200 		mvn	r0, #98
 1022              	.LVL103:
 1023 0004 7047     		bx	lr
 1024              		.cfi_endproc
 1025              	.LFE144:
 1027 0006 00BF     		.section	.text.VL53L0X_GetHistogramMode,"ax",%progbits
 1028              		.align	2
 1029              		.global	VL53L0X_GetHistogramMode
 1030              		.thumb
 1031              		.thumb_func
 1033              	VL53L0X_GetHistogramMode:
 1034              	.LFB145:
 976:../Drivers/BSP/Components/vl53l0x/vl53l0x_api.c **** 
 977:../Drivers/BSP/Components/vl53l0x/vl53l0x_api.c **** VL53L0X_Error VL53L0X_GetHistogramMode(VL53L0X_DEV Dev,
 978:../Drivers/BSP/Components/vl53l0x/vl53l0x_api.c **** 	VL53L0X_HistogramModes *pHistogramMode)
 979:../Drivers/BSP/Components/vl53l0x/vl53l0x_api.c **** {
 1035              		.loc 1 979 0
 1036              		.cfi_startproc
 1037              		@ args = 0, pretend = 0, frame = 0
 1038              		@ frame_needed = 0, uses_anonymous_args = 0
 1039              		@ link register save eliminated.
 1040              	.LVL104:
 980:../Drivers/BSP/Components/vl53l0x/vl53l0x_api.c **** 	VL53L0X_Error Status = VL53L0X_ERROR_NOT_IMPLEMENTED;
 981:../Drivers/BSP/Components/vl53l0x/vl53l0x_api.c **** 	LOG_FUNCTION_START("");
 982:../Drivers/BSP/Components/vl53l0x/vl53l0x_api.c **** 
 983:../Drivers/BSP/Components/vl53l0x/vl53l0x_api.c **** 	/* not implemented on VL53L0X */
 984:../Drivers/BSP/Components/vl53l0x/vl53l0x_api.c **** 
 985:../Drivers/BSP/Components/vl53l0x/vl53l0x_api.c **** 	LOG_FUNCTION_END(Status);
 986:../Drivers/BSP/Components/vl53l0x/vl53l0x_api.c **** 	return Status;
 987:../Drivers/BSP/Components/vl53l0x/vl53l0x_api.c **** }
 1041              		.loc 1 987 0
 1042 0000 6FF06200 		mvn	r0, #98
 1043              	.LVL105:
 1044 0004 7047     		bx	lr
 1045              		.cfi_endproc
 1046              	.LFE145:
 1048 0006 00BF     		.section	.text.VL53L0X_SetMeasurementTimingBudgetMicroSeconds,"ax",%progbits
 1049              		.align	2
 1050              		.global	VL53L0X_SetMeasurementTimingBudgetMicroSeconds
 1051              		.thumb
 1052              		.thumb_func
 1054              	VL53L0X_SetMeasurementTimingBudgetMicroSeconds:
 1055              	.LFB146:
 988:../Drivers/BSP/Components/vl53l0x/vl53l0x_api.c **** 
 989:../Drivers/BSP/Components/vl53l0x/vl53l0x_api.c **** VL53L0X_Error VL53L0X_SetMeasurementTimingBudgetMicroSeconds(VL53L0X_DEV Dev,
 990:../Drivers/BSP/Components/vl53l0x/vl53l0x_api.c **** 	uint32_t MeasurementTimingBudgetMicroSeconds)
 991:../Drivers/BSP/Components/vl53l0x/vl53l0x_api.c **** {
 1056              		.loc 1 991 0
 1057              		.cfi_startproc
 1058              		@ args = 0, pretend = 0, frame = 0
ARM GAS  /tmp/ccflrS73.s 			page 36


 1059              		@ frame_needed = 0, uses_anonymous_args = 0
 1060              	.LVL106:
 1061 0000 08B5     		push	{r3, lr}
 1062              	.LCFI26:
 1063              		.cfi_def_cfa_offset 8
 1064              		.cfi_offset 3, -8
 1065              		.cfi_offset 14, -4
 1066              	.LVL107:
 992:../Drivers/BSP/Components/vl53l0x/vl53l0x_api.c **** 	VL53L0X_Error Status = VL53L0X_ERROR_NONE;
 993:../Drivers/BSP/Components/vl53l0x/vl53l0x_api.c **** 	LOG_FUNCTION_START("");
 994:../Drivers/BSP/Components/vl53l0x/vl53l0x_api.c **** 
 995:../Drivers/BSP/Components/vl53l0x/vl53l0x_api.c **** 	Status = VL53L0X_set_measurement_timing_budget_micro_seconds(Dev,
 1067              		.loc 1 995 0
 1068 0002 FFF7FEFF 		bl	VL53L0X_set_measurement_timing_budget_micro_seconds
 1069              	.LVL108:
 996:../Drivers/BSP/Components/vl53l0x/vl53l0x_api.c **** 		MeasurementTimingBudgetMicroSeconds);
 997:../Drivers/BSP/Components/vl53l0x/vl53l0x_api.c **** 
 998:../Drivers/BSP/Components/vl53l0x/vl53l0x_api.c **** 	LOG_FUNCTION_END(Status);
 999:../Drivers/BSP/Components/vl53l0x/vl53l0x_api.c **** 
1000:../Drivers/BSP/Components/vl53l0x/vl53l0x_api.c **** 	return Status;
1001:../Drivers/BSP/Components/vl53l0x/vl53l0x_api.c **** }
 1070              		.loc 1 1001 0
 1071 0006 08BD     		pop	{r3, pc}
 1072              		.cfi_endproc
 1073              	.LFE146:
 1075              		.section	.text.VL53L0X_GetMeasurementTimingBudgetMicroSeconds,"ax",%progbits
 1076              		.align	2
 1077              		.global	VL53L0X_GetMeasurementTimingBudgetMicroSeconds
 1078              		.thumb
 1079              		.thumb_func
 1081              	VL53L0X_GetMeasurementTimingBudgetMicroSeconds:
 1082              	.LFB147:
1002:../Drivers/BSP/Components/vl53l0x/vl53l0x_api.c **** 
1003:../Drivers/BSP/Components/vl53l0x/vl53l0x_api.c **** VL53L0X_Error VL53L0X_GetMeasurementTimingBudgetMicroSeconds(VL53L0X_DEV Dev,
1004:../Drivers/BSP/Components/vl53l0x/vl53l0x_api.c **** 	uint32_t *pMeasurementTimingBudgetMicroSeconds)
1005:../Drivers/BSP/Components/vl53l0x/vl53l0x_api.c **** {
 1083              		.loc 1 1005 0
 1084              		.cfi_startproc
 1085              		@ args = 0, pretend = 0, frame = 0
 1086              		@ frame_needed = 0, uses_anonymous_args = 0
 1087              	.LVL109:
 1088 0000 08B5     		push	{r3, lr}
 1089              	.LCFI27:
 1090              		.cfi_def_cfa_offset 8
 1091              		.cfi_offset 3, -8
 1092              		.cfi_offset 14, -4
 1093              	.LVL110:
1006:../Drivers/BSP/Components/vl53l0x/vl53l0x_api.c **** 	VL53L0X_Error Status = VL53L0X_ERROR_NONE;
1007:../Drivers/BSP/Components/vl53l0x/vl53l0x_api.c **** 	LOG_FUNCTION_START("");
1008:../Drivers/BSP/Components/vl53l0x/vl53l0x_api.c **** 
1009:../Drivers/BSP/Components/vl53l0x/vl53l0x_api.c **** 	Status = VL53L0X_get_measurement_timing_budget_micro_seconds(Dev,
 1094              		.loc 1 1009 0
 1095 0002 FFF7FEFF 		bl	VL53L0X_get_measurement_timing_budget_micro_seconds
 1096              	.LVL111:
1010:../Drivers/BSP/Components/vl53l0x/vl53l0x_api.c **** 		pMeasurementTimingBudgetMicroSeconds);
1011:../Drivers/BSP/Components/vl53l0x/vl53l0x_api.c **** 
1012:../Drivers/BSP/Components/vl53l0x/vl53l0x_api.c **** 	LOG_FUNCTION_END(Status);
ARM GAS  /tmp/ccflrS73.s 			page 37


1013:../Drivers/BSP/Components/vl53l0x/vl53l0x_api.c **** 	return Status;
1014:../Drivers/BSP/Components/vl53l0x/vl53l0x_api.c **** }
 1097              		.loc 1 1014 0
 1098 0006 08BD     		pop	{r3, pc}
 1099              		.cfi_endproc
 1100              	.LFE147:
 1102              		.section	.text.VL53L0X_SetVcselPulsePeriod,"ax",%progbits
 1103              		.align	2
 1104              		.global	VL53L0X_SetVcselPulsePeriod
 1105              		.thumb
 1106              		.thumb_func
 1108              	VL53L0X_SetVcselPulsePeriod:
 1109              	.LFB148:
1015:../Drivers/BSP/Components/vl53l0x/vl53l0x_api.c **** 
1016:../Drivers/BSP/Components/vl53l0x/vl53l0x_api.c **** VL53L0X_Error VL53L0X_SetVcselPulsePeriod(VL53L0X_DEV Dev,
1017:../Drivers/BSP/Components/vl53l0x/vl53l0x_api.c **** 	VL53L0X_VcselPeriod VcselPeriodType, uint8_t VCSELPulsePeriodPCLK)
1018:../Drivers/BSP/Components/vl53l0x/vl53l0x_api.c **** {
 1110              		.loc 1 1018 0
 1111              		.cfi_startproc
 1112              		@ args = 0, pretend = 0, frame = 0
 1113              		@ frame_needed = 0, uses_anonymous_args = 0
 1114              	.LVL112:
 1115 0000 08B5     		push	{r3, lr}
 1116              	.LCFI28:
 1117              		.cfi_def_cfa_offset 8
 1118              		.cfi_offset 3, -8
 1119              		.cfi_offset 14, -4
 1120              	.LVL113:
1019:../Drivers/BSP/Components/vl53l0x/vl53l0x_api.c **** 	VL53L0X_Error Status = VL53L0X_ERROR_NONE;
1020:../Drivers/BSP/Components/vl53l0x/vl53l0x_api.c **** 	LOG_FUNCTION_START("");
1021:../Drivers/BSP/Components/vl53l0x/vl53l0x_api.c **** 
1022:../Drivers/BSP/Components/vl53l0x/vl53l0x_api.c **** 	Status = VL53L0X_set_vcsel_pulse_period(Dev, VcselPeriodType,
 1121              		.loc 1 1022 0
 1122 0002 FFF7FEFF 		bl	VL53L0X_set_vcsel_pulse_period
 1123              	.LVL114:
1023:../Drivers/BSP/Components/vl53l0x/vl53l0x_api.c **** 		VCSELPulsePeriodPCLK);
1024:../Drivers/BSP/Components/vl53l0x/vl53l0x_api.c **** 
1025:../Drivers/BSP/Components/vl53l0x/vl53l0x_api.c **** 	LOG_FUNCTION_END(Status);
1026:../Drivers/BSP/Components/vl53l0x/vl53l0x_api.c **** 	return Status;
1027:../Drivers/BSP/Components/vl53l0x/vl53l0x_api.c **** }
 1124              		.loc 1 1027 0
 1125 0006 08BD     		pop	{r3, pc}
 1126              		.cfi_endproc
 1127              	.LFE148:
 1129              		.section	.text.VL53L0X_GetVcselPulsePeriod,"ax",%progbits
 1130              		.align	2
 1131              		.global	VL53L0X_GetVcselPulsePeriod
 1132              		.thumb
 1133              		.thumb_func
 1135              	VL53L0X_GetVcselPulsePeriod:
 1136              	.LFB149:
1028:../Drivers/BSP/Components/vl53l0x/vl53l0x_api.c **** 
1029:../Drivers/BSP/Components/vl53l0x/vl53l0x_api.c **** VL53L0X_Error VL53L0X_GetVcselPulsePeriod(VL53L0X_DEV Dev,
1030:../Drivers/BSP/Components/vl53l0x/vl53l0x_api.c **** 	VL53L0X_VcselPeriod VcselPeriodType, uint8_t *pVCSELPulsePeriodPCLK)
1031:../Drivers/BSP/Components/vl53l0x/vl53l0x_api.c **** {
 1137              		.loc 1 1031 0
 1138              		.cfi_startproc
ARM GAS  /tmp/ccflrS73.s 			page 38


 1139              		@ args = 0, pretend = 0, frame = 0
 1140              		@ frame_needed = 0, uses_anonymous_args = 0
 1141              	.LVL115:
 1142 0000 08B5     		push	{r3, lr}
 1143              	.LCFI29:
 1144              		.cfi_def_cfa_offset 8
 1145              		.cfi_offset 3, -8
 1146              		.cfi_offset 14, -4
 1147              	.LVL116:
1032:../Drivers/BSP/Components/vl53l0x/vl53l0x_api.c **** 	VL53L0X_Error Status = VL53L0X_ERROR_NONE;
1033:../Drivers/BSP/Components/vl53l0x/vl53l0x_api.c **** 	LOG_FUNCTION_START("");
1034:../Drivers/BSP/Components/vl53l0x/vl53l0x_api.c **** 
1035:../Drivers/BSP/Components/vl53l0x/vl53l0x_api.c **** 	Status = VL53L0X_get_vcsel_pulse_period(Dev, VcselPeriodType,
 1148              		.loc 1 1035 0
 1149 0002 FFF7FEFF 		bl	VL53L0X_get_vcsel_pulse_period
 1150              	.LVL117:
1036:../Drivers/BSP/Components/vl53l0x/vl53l0x_api.c **** 		pVCSELPulsePeriodPCLK);
1037:../Drivers/BSP/Components/vl53l0x/vl53l0x_api.c **** 
1038:../Drivers/BSP/Components/vl53l0x/vl53l0x_api.c **** 	LOG_FUNCTION_END(Status);
1039:../Drivers/BSP/Components/vl53l0x/vl53l0x_api.c **** 	return Status;
1040:../Drivers/BSP/Components/vl53l0x/vl53l0x_api.c **** }
 1151              		.loc 1 1040 0
 1152 0006 08BD     		pop	{r3, pc}
 1153              		.cfi_endproc
 1154              	.LFE149:
 1156              		.section	.text.VL53L0X_SetSequenceStepEnable,"ax",%progbits
 1157              		.align	2
 1158              		.global	VL53L0X_SetSequenceStepEnable
 1159              		.thumb
 1160              		.thumb_func
 1162              	VL53L0X_SetSequenceStepEnable:
 1163              	.LFB150:
1041:../Drivers/BSP/Components/vl53l0x/vl53l0x_api.c **** 
1042:../Drivers/BSP/Components/vl53l0x/vl53l0x_api.c **** VL53L0X_Error VL53L0X_SetSequenceStepEnable(VL53L0X_DEV Dev,
1043:../Drivers/BSP/Components/vl53l0x/vl53l0x_api.c **** 	VL53L0X_SequenceStepId SequenceStepId, uint8_t SequenceStepEnabled)
1044:../Drivers/BSP/Components/vl53l0x/vl53l0x_api.c **** {
 1164              		.loc 1 1044 0
 1165              		.cfi_startproc
 1166              		@ args = 0, pretend = 0, frame = 8
 1167              		@ frame_needed = 0, uses_anonymous_args = 0
 1168              	.LVL118:
 1169 0000 F0B5     		push	{r4, r5, r6, r7, lr}
 1170              	.LCFI30:
 1171              		.cfi_def_cfa_offset 20
 1172              		.cfi_offset 4, -20
 1173              		.cfi_offset 5, -16
 1174              		.cfi_offset 6, -12
 1175              		.cfi_offset 7, -8
 1176              		.cfi_offset 14, -4
 1177 0002 83B0     		sub	sp, sp, #12
 1178              	.LCFI31:
 1179              		.cfi_def_cfa_offset 32
 1180 0004 0646     		mov	r6, r0
 1181 0006 0D46     		mov	r5, r1
 1182 0008 1746     		mov	r7, r2
 1183              	.LVL119:
1045:../Drivers/BSP/Components/vl53l0x/vl53l0x_api.c **** 	VL53L0X_Error Status = VL53L0X_ERROR_NONE;
ARM GAS  /tmp/ccflrS73.s 			page 39


1046:../Drivers/BSP/Components/vl53l0x/vl53l0x_api.c **** 	uint8_t SequenceConfig = 0;
 1184              		.loc 1 1046 0
 1185 000a 02AA     		add	r2, sp, #8
 1186              	.LVL120:
 1187 000c 0023     		movs	r3, #0
 1188 000e 02F8013D 		strb	r3, [r2, #-1]!
 1189              	.LVL121:
1047:../Drivers/BSP/Components/vl53l0x/vl53l0x_api.c **** 	uint8_t SequenceConfigNew = 0;
1048:../Drivers/BSP/Components/vl53l0x/vl53l0x_api.c **** 	uint32_t MeasurementTimingBudgetMicroSeconds;
1049:../Drivers/BSP/Components/vl53l0x/vl53l0x_api.c **** 	LOG_FUNCTION_START("");
1050:../Drivers/BSP/Components/vl53l0x/vl53l0x_api.c **** 
1051:../Drivers/BSP/Components/vl53l0x/vl53l0x_api.c **** 	Status = VL53L0X_RdByte(Dev, VL53L0X_REG_SYSTEM_SEQUENCE_CONFIG,
 1190              		.loc 1 1051 0
 1191 0012 0121     		movs	r1, #1
 1192              	.LVL122:
 1193 0014 FFF7FEFF 		bl	VL53L0X_RdByte
 1194              	.LVL123:
1052:../Drivers/BSP/Components/vl53l0x/vl53l0x_api.c **** 		&SequenceConfig);
1053:../Drivers/BSP/Components/vl53l0x/vl53l0x_api.c **** 
1054:../Drivers/BSP/Components/vl53l0x/vl53l0x_api.c **** 	SequenceConfigNew = SequenceConfig;
 1195              		.loc 1 1054 0
 1196 0018 9DF80730 		ldrb	r3, [sp, #7]	@ zero_extendqisi2
 1197              	.LVL124:
1055:../Drivers/BSP/Components/vl53l0x/vl53l0x_api.c **** 
1056:../Drivers/BSP/Components/vl53l0x/vl53l0x_api.c **** 	if (Status == VL53L0X_ERROR_NONE) {
 1198              		.loc 1 1056 0
 1199 001c 0446     		mov	r4, r0
 1200 001e 68BB     		cbnz	r0, .L91
1057:../Drivers/BSP/Components/vl53l0x/vl53l0x_api.c **** 		if (SequenceStepEnabled == 1) {
 1201              		.loc 1 1057 0
 1202 0020 012F     		cmp	r7, #1
 1203 0022 15D1     		bne	.L75
1058:../Drivers/BSP/Components/vl53l0x/vl53l0x_api.c **** 
1059:../Drivers/BSP/Components/vl53l0x/vl53l0x_api.c **** 			/* Enable requested sequence step
1060:../Drivers/BSP/Components/vl53l0x/vl53l0x_api.c **** 			 */
1061:../Drivers/BSP/Components/vl53l0x/vl53l0x_api.c **** 			switch (SequenceStepId) {
 1204              		.loc 1 1061 0
 1205 0024 042D     		cmp	r5, #4
 1206 0026 2BD8     		bhi	.L92
 1207 0028 DFE805F0 		tbb	[pc, r5]
 1208              	.L77:
 1209 002c 03       		.byte	(.L76-.L77)/2
 1210 002d 06       		.byte	(.L78-.L77)/2
 1211 002e 09       		.byte	(.L79-.L77)/2
 1212 002f 0C       		.byte	(.L80-.L77)/2
 1213 0030 0F       		.byte	(.L81-.L77)/2
 1214 0031 00       		.p2align 1
 1215              	.L76:
1062:../Drivers/BSP/Components/vl53l0x/vl53l0x_api.c **** 			case VL53L0X_SEQUENCESTEP_TCC:
1063:../Drivers/BSP/Components/vl53l0x/vl53l0x_api.c **** 				SequenceConfigNew |= 0x10;
 1216              		.loc 1 1063 0
 1217 0032 43F01005 		orr	r5, r3, #16
 1218              	.LVL125:
1064:../Drivers/BSP/Components/vl53l0x/vl53l0x_api.c **** 				break;
 1219              		.loc 1 1064 0
 1220 0036 28E0     		b	.L74
 1221              	.LVL126:
ARM GAS  /tmp/ccflrS73.s 			page 40


 1222              	.L78:
1065:../Drivers/BSP/Components/vl53l0x/vl53l0x_api.c **** 			case VL53L0X_SEQUENCESTEP_DSS:
1066:../Drivers/BSP/Components/vl53l0x/vl53l0x_api.c **** 				SequenceConfigNew |= 0x28;
 1223              		.loc 1 1066 0
 1224 0038 43F02805 		orr	r5, r3, #40
 1225              	.LVL127:
1067:../Drivers/BSP/Components/vl53l0x/vl53l0x_api.c **** 				break;
 1226              		.loc 1 1067 0
 1227 003c 25E0     		b	.L74
 1228              	.LVL128:
 1229              	.L79:
1068:../Drivers/BSP/Components/vl53l0x/vl53l0x_api.c **** 			case VL53L0X_SEQUENCESTEP_MSRC:
1069:../Drivers/BSP/Components/vl53l0x/vl53l0x_api.c **** 				SequenceConfigNew |= 0x04;
 1230              		.loc 1 1069 0
 1231 003e 43F00405 		orr	r5, r3, #4
 1232              	.LVL129:
1070:../Drivers/BSP/Components/vl53l0x/vl53l0x_api.c **** 				break;
 1233              		.loc 1 1070 0
 1234 0042 22E0     		b	.L74
 1235              	.LVL130:
 1236              	.L80:
1071:../Drivers/BSP/Components/vl53l0x/vl53l0x_api.c **** 			case VL53L0X_SEQUENCESTEP_PRE_RANGE:
1072:../Drivers/BSP/Components/vl53l0x/vl53l0x_api.c **** 				SequenceConfigNew |= 0x40;
 1237              		.loc 1 1072 0
 1238 0044 43F04005 		orr	r5, r3, #64
 1239              	.LVL131:
1073:../Drivers/BSP/Components/vl53l0x/vl53l0x_api.c **** 				break;
 1240              		.loc 1 1073 0
 1241 0048 1FE0     		b	.L74
 1242              	.LVL132:
 1243              	.L81:
1074:../Drivers/BSP/Components/vl53l0x/vl53l0x_api.c **** 			case VL53L0X_SEQUENCESTEP_FINAL_RANGE:
1075:../Drivers/BSP/Components/vl53l0x/vl53l0x_api.c **** 				SequenceConfigNew |= 0x80;
 1244              		.loc 1 1075 0
 1245 004a 43F08005 		orr	r5, r3, #128
 1246              	.LVL133:
1076:../Drivers/BSP/Components/vl53l0x/vl53l0x_api.c **** 				break;
 1247              		.loc 1 1076 0
 1248 004e 1CE0     		b	.L74
 1249              	.LVL134:
 1250              	.L75:
1077:../Drivers/BSP/Components/vl53l0x/vl53l0x_api.c **** 			default:
1078:../Drivers/BSP/Components/vl53l0x/vl53l0x_api.c **** 				Status = VL53L0X_ERROR_INVALID_PARAMS;
1079:../Drivers/BSP/Components/vl53l0x/vl53l0x_api.c **** 			}
1080:../Drivers/BSP/Components/vl53l0x/vl53l0x_api.c **** 		} else {
1081:../Drivers/BSP/Components/vl53l0x/vl53l0x_api.c **** 			/* Disable requested sequence step
1082:../Drivers/BSP/Components/vl53l0x/vl53l0x_api.c **** 			 */
1083:../Drivers/BSP/Components/vl53l0x/vl53l0x_api.c **** 			switch (SequenceStepId) {
 1251              		.loc 1 1083 0
 1252 0050 042D     		cmp	r5, #4
 1253 0052 18D8     		bhi	.L93
 1254 0054 DFE805F0 		tbb	[pc, r5]
 1255              	.L83:
 1256 0058 03       		.byte	(.L82-.L83)/2
 1257 0059 06       		.byte	(.L84-.L83)/2
 1258 005a 09       		.byte	(.L85-.L83)/2
 1259 005b 0C       		.byte	(.L86-.L83)/2
ARM GAS  /tmp/ccflrS73.s 			page 41


 1260 005c 0F       		.byte	(.L87-.L83)/2
 1261 005d 00       		.p2align 1
 1262              	.L82:
1084:../Drivers/BSP/Components/vl53l0x/vl53l0x_api.c **** 			case VL53L0X_SEQUENCESTEP_TCC:
1085:../Drivers/BSP/Components/vl53l0x/vl53l0x_api.c **** 				SequenceConfigNew &= 0xef;
 1263              		.loc 1 1085 0
 1264 005e 03F0EF05 		and	r5, r3, #239
 1265              	.LVL135:
1086:../Drivers/BSP/Components/vl53l0x/vl53l0x_api.c **** 				break;
 1266              		.loc 1 1086 0
 1267 0062 12E0     		b	.L74
 1268              	.LVL136:
 1269              	.L84:
1087:../Drivers/BSP/Components/vl53l0x/vl53l0x_api.c **** 			case VL53L0X_SEQUENCESTEP_DSS:
1088:../Drivers/BSP/Components/vl53l0x/vl53l0x_api.c **** 				SequenceConfigNew &= 0xd7;
 1270              		.loc 1 1088 0
 1271 0064 03F0D705 		and	r5, r3, #215
 1272              	.LVL137:
1089:../Drivers/BSP/Components/vl53l0x/vl53l0x_api.c **** 				break;
 1273              		.loc 1 1089 0
 1274 0068 0FE0     		b	.L74
 1275              	.LVL138:
 1276              	.L85:
1090:../Drivers/BSP/Components/vl53l0x/vl53l0x_api.c **** 			case VL53L0X_SEQUENCESTEP_MSRC:
1091:../Drivers/BSP/Components/vl53l0x/vl53l0x_api.c **** 				SequenceConfigNew &= 0xfb;
 1277              		.loc 1 1091 0
 1278 006a 03F0FB05 		and	r5, r3, #251
 1279              	.LVL139:
1092:../Drivers/BSP/Components/vl53l0x/vl53l0x_api.c **** 				break;
 1280              		.loc 1 1092 0
 1281 006e 0CE0     		b	.L74
 1282              	.LVL140:
 1283              	.L86:
1093:../Drivers/BSP/Components/vl53l0x/vl53l0x_api.c **** 			case VL53L0X_SEQUENCESTEP_PRE_RANGE:
1094:../Drivers/BSP/Components/vl53l0x/vl53l0x_api.c **** 				SequenceConfigNew &= 0xbf;
 1284              		.loc 1 1094 0
 1285 0070 03F0BF05 		and	r5, r3, #191
 1286              	.LVL141:
1095:../Drivers/BSP/Components/vl53l0x/vl53l0x_api.c **** 				break;
 1287              		.loc 1 1095 0
 1288 0074 09E0     		b	.L74
 1289              	.LVL142:
 1290              	.L87:
1096:../Drivers/BSP/Components/vl53l0x/vl53l0x_api.c **** 			case VL53L0X_SEQUENCESTEP_FINAL_RANGE:
1097:../Drivers/BSP/Components/vl53l0x/vl53l0x_api.c **** 				SequenceConfigNew &= 0x7f;
 1291              		.loc 1 1097 0
 1292 0076 03F07F05 		and	r5, r3, #127
 1293              	.LVL143:
1098:../Drivers/BSP/Components/vl53l0x/vl53l0x_api.c **** 				break;
 1294              		.loc 1 1098 0
 1295 007a 06E0     		b	.L74
 1296              	.LVL144:
 1297              	.L91:
1054:../Drivers/BSP/Components/vl53l0x/vl53l0x_api.c **** 
 1298              		.loc 1 1054 0
 1299 007c 1D46     		mov	r5, r3
 1300 007e 04E0     		b	.L74
ARM GAS  /tmp/ccflrS73.s 			page 42


 1301              	.L92:
 1302 0080 1D46     		mov	r5, r3
1078:../Drivers/BSP/Components/vl53l0x/vl53l0x_api.c **** 			}
 1303              		.loc 1 1078 0
 1304 0082 FC24     		movs	r4, #252
 1305 0084 01E0     		b	.L74
 1306              	.L93:
1054:../Drivers/BSP/Components/vl53l0x/vl53l0x_api.c **** 
 1307              		.loc 1 1054 0
 1308 0086 1D46     		mov	r5, r3
1099:../Drivers/BSP/Components/vl53l0x/vl53l0x_api.c **** 			default:
1100:../Drivers/BSP/Components/vl53l0x/vl53l0x_api.c **** 				Status = VL53L0X_ERROR_INVALID_PARAMS;
 1309              		.loc 1 1100 0
 1310 0088 FC24     		movs	r4, #252
 1311              	.LVL145:
 1312              	.L74:
1101:../Drivers/BSP/Components/vl53l0x/vl53l0x_api.c **** 			}
1102:../Drivers/BSP/Components/vl53l0x/vl53l0x_api.c **** 		}
1103:../Drivers/BSP/Components/vl53l0x/vl53l0x_api.c **** 	}
1104:../Drivers/BSP/Components/vl53l0x/vl53l0x_api.c **** 
1105:../Drivers/BSP/Components/vl53l0x/vl53l0x_api.c **** 	if (SequenceConfigNew != SequenceConfig) {
 1313              		.loc 1 1105 0
 1314 008a 9D42     		cmp	r5, r3
 1315 008c 0ED0     		beq	.L88
1106:../Drivers/BSP/Components/vl53l0x/vl53l0x_api.c **** 		/* Apply New Setting */
1107:../Drivers/BSP/Components/vl53l0x/vl53l0x_api.c **** 		if (Status == VL53L0X_ERROR_NONE) {
 1316              		.loc 1 1107 0
 1317 008e 2CB9     		cbnz	r4, .L89
1108:../Drivers/BSP/Components/vl53l0x/vl53l0x_api.c **** 			Status = VL53L0X_WrByte(Dev,
 1318              		.loc 1 1108 0
 1319 0090 3046     		mov	r0, r6
 1320 0092 0121     		movs	r1, #1
 1321 0094 2A46     		mov	r2, r5
 1322 0096 FFF7FEFF 		bl	VL53L0X_WrByte
 1323              	.LVL146:
 1324 009a 0446     		mov	r4, r0
 1325              	.LVL147:
 1326              	.L89:
1109:../Drivers/BSP/Components/vl53l0x/vl53l0x_api.c **** 			VL53L0X_REG_SYSTEM_SEQUENCE_CONFIG, SequenceConfigNew);
1110:../Drivers/BSP/Components/vl53l0x/vl53l0x_api.c **** 		}
1111:../Drivers/BSP/Components/vl53l0x/vl53l0x_api.c **** 		if (Status == VL53L0X_ERROR_NONE)
 1327              		.loc 1 1111 0
 1328 009c 0CB9     		cbnz	r4, .L90
1112:../Drivers/BSP/Components/vl53l0x/vl53l0x_api.c **** 			PALDevDataSet(Dev, SequenceConfig, SequenceConfigNew);
 1329              		.loc 1 1112 0
 1330 009e 86F83051 		strb	r5, [r6, #304]
 1331              	.L90:
1113:../Drivers/BSP/Components/vl53l0x/vl53l0x_api.c **** 
1114:../Drivers/BSP/Components/vl53l0x/vl53l0x_api.c **** 
1115:../Drivers/BSP/Components/vl53l0x/vl53l0x_api.c **** 		/* Recalculate timing budget */
1116:../Drivers/BSP/Components/vl53l0x/vl53l0x_api.c **** 		if (Status == VL53L0X_ERROR_NONE) {
 1332              		.loc 1 1116 0
 1333 00a2 1CB9     		cbnz	r4, .L88
 1334              	.LVL148:
1117:../Drivers/BSP/Components/vl53l0x/vl53l0x_api.c **** 			VL53L0X_GETPARAMETERFIELD(Dev,
1118:../Drivers/BSP/Components/vl53l0x/vl53l0x_api.c **** 				MeasurementTimingBudgetMicroSeconds,
1119:../Drivers/BSP/Components/vl53l0x/vl53l0x_api.c **** 				MeasurementTimingBudgetMicroSeconds);
ARM GAS  /tmp/ccflrS73.s 			page 43


1120:../Drivers/BSP/Components/vl53l0x/vl53l0x_api.c **** 
1121:../Drivers/BSP/Components/vl53l0x/vl53l0x_api.c **** 			VL53L0X_SetMeasurementTimingBudgetMicroSeconds(Dev,
 1335              		.loc 1 1121 0
 1336 00a4 3046     		mov	r0, r6
 1337 00a6 7169     		ldr	r1, [r6, #20]
 1338 00a8 FFF7FEFF 		bl	VL53L0X_SetMeasurementTimingBudgetMicroSeconds
 1339              	.LVL149:
 1340              	.L88:
1122:../Drivers/BSP/Components/vl53l0x/vl53l0x_api.c **** 				MeasurementTimingBudgetMicroSeconds);
1123:../Drivers/BSP/Components/vl53l0x/vl53l0x_api.c **** 		}
1124:../Drivers/BSP/Components/vl53l0x/vl53l0x_api.c **** 	}
1125:../Drivers/BSP/Components/vl53l0x/vl53l0x_api.c **** 
1126:../Drivers/BSP/Components/vl53l0x/vl53l0x_api.c **** 	LOG_FUNCTION_END(Status);
1127:../Drivers/BSP/Components/vl53l0x/vl53l0x_api.c **** 
1128:../Drivers/BSP/Components/vl53l0x/vl53l0x_api.c **** 	return Status;
1129:../Drivers/BSP/Components/vl53l0x/vl53l0x_api.c **** }
 1341              		.loc 1 1129 0
 1342 00ac 60B2     		sxtb	r0, r4
 1343 00ae 03B0     		add	sp, sp, #12
 1344              	.LCFI32:
 1345              		.cfi_def_cfa_offset 20
 1346              		@ sp needed
 1347 00b0 F0BD     		pop	{r4, r5, r6, r7, pc}
 1348              		.cfi_endproc
 1349              	.LFE150:
 1351 00b2 00BF     		.section	.text.sequence_step_enabled,"ax",%progbits
 1352              		.align	2
 1353              		.global	sequence_step_enabled
 1354              		.thumb
 1355              		.thumb_func
 1357              	sequence_step_enabled:
 1358              	.LFB151:
1130:../Drivers/BSP/Components/vl53l0x/vl53l0x_api.c **** 
1131:../Drivers/BSP/Components/vl53l0x/vl53l0x_api.c **** VL53L0X_Error sequence_step_enabled(VL53L0X_DEV Dev,
1132:../Drivers/BSP/Components/vl53l0x/vl53l0x_api.c **** 	VL53L0X_SequenceStepId SequenceStepId, uint8_t SequenceConfig,
1133:../Drivers/BSP/Components/vl53l0x/vl53l0x_api.c **** 	uint8_t *pSequenceStepEnabled)
1134:../Drivers/BSP/Components/vl53l0x/vl53l0x_api.c **** {
 1359              		.loc 1 1134 0
 1360              		.cfi_startproc
 1361              		@ args = 0, pretend = 0, frame = 0
 1362              		@ frame_needed = 0, uses_anonymous_args = 0
 1363              		@ link register save eliminated.
 1364              	.LVL150:
1135:../Drivers/BSP/Components/vl53l0x/vl53l0x_api.c **** 	VL53L0X_Error Status = VL53L0X_ERROR_NONE;
1136:../Drivers/BSP/Components/vl53l0x/vl53l0x_api.c **** 	*pSequenceStepEnabled = 0;
 1365              		.loc 1 1136 0
 1366 0000 0020     		movs	r0, #0
 1367              	.LVL151:
 1368 0002 1870     		strb	r0, [r3]
1137:../Drivers/BSP/Components/vl53l0x/vl53l0x_api.c **** 	LOG_FUNCTION_START("");
1138:../Drivers/BSP/Components/vl53l0x/vl53l0x_api.c **** 
1139:../Drivers/BSP/Components/vl53l0x/vl53l0x_api.c **** 	switch (SequenceStepId) {
 1369              		.loc 1 1139 0
 1370 0004 0429     		cmp	r1, #4
 1371 0006 1CD8     		bhi	.L103
 1372 0008 DFE801F0 		tbb	[pc, r1]
 1373              	.L98:
ARM GAS  /tmp/ccflrS73.s 			page 44


 1374 000c 03       		.byte	(.L97-.L98)/2
 1375 000d 08       		.byte	(.L99-.L98)/2
 1376 000e 0D       		.byte	(.L100-.L98)/2
 1377 000f 12       		.byte	(.L101-.L98)/2
 1378 0010 17       		.byte	(.L102-.L98)/2
 1379 0011 00       		.p2align 1
 1380              	.L97:
1140:../Drivers/BSP/Components/vl53l0x/vl53l0x_api.c **** 	case VL53L0X_SEQUENCESTEP_TCC:
1141:../Drivers/BSP/Components/vl53l0x/vl53l0x_api.c **** 		*pSequenceStepEnabled = (SequenceConfig & 0x10) >> 4;
 1381              		.loc 1 1141 0
 1382 0012 C2F30012 		ubfx	r2, r2, #4, #1
 1383              	.LVL152:
 1384 0016 1A70     		strb	r2, [r3]
1135:../Drivers/BSP/Components/vl53l0x/vl53l0x_api.c **** 	*pSequenceStepEnabled = 0;
 1385              		.loc 1 1135 0
 1386 0018 0020     		movs	r0, #0
1142:../Drivers/BSP/Components/vl53l0x/vl53l0x_api.c **** 		break;
 1387              		.loc 1 1142 0
 1388 001a 13E0     		b	.L96
 1389              	.LVL153:
 1390              	.L99:
1143:../Drivers/BSP/Components/vl53l0x/vl53l0x_api.c **** 	case VL53L0X_SEQUENCESTEP_DSS:
1144:../Drivers/BSP/Components/vl53l0x/vl53l0x_api.c **** 		*pSequenceStepEnabled = (SequenceConfig & 0x08) >> 3;
 1391              		.loc 1 1144 0
 1392 001c C2F3C002 		ubfx	r2, r2, #3, #1
 1393              	.LVL154:
 1394 0020 1A70     		strb	r2, [r3]
1135:../Drivers/BSP/Components/vl53l0x/vl53l0x_api.c **** 	*pSequenceStepEnabled = 0;
 1395              		.loc 1 1135 0
 1396 0022 0020     		movs	r0, #0
1145:../Drivers/BSP/Components/vl53l0x/vl53l0x_api.c **** 		break;
 1397              		.loc 1 1145 0
 1398 0024 0EE0     		b	.L96
 1399              	.LVL155:
 1400              	.L100:
1146:../Drivers/BSP/Components/vl53l0x/vl53l0x_api.c **** 	case VL53L0X_SEQUENCESTEP_MSRC:
1147:../Drivers/BSP/Components/vl53l0x/vl53l0x_api.c **** 		*pSequenceStepEnabled = (SequenceConfig & 0x04) >> 2;
 1401              		.loc 1 1147 0
 1402 0026 C2F38002 		ubfx	r2, r2, #2, #1
 1403              	.LVL156:
 1404 002a 1A70     		strb	r2, [r3]
1135:../Drivers/BSP/Components/vl53l0x/vl53l0x_api.c **** 	*pSequenceStepEnabled = 0;
 1405              		.loc 1 1135 0
 1406 002c 0020     		movs	r0, #0
1148:../Drivers/BSP/Components/vl53l0x/vl53l0x_api.c **** 		break;
 1407              		.loc 1 1148 0
 1408 002e 09E0     		b	.L96
 1409              	.LVL157:
 1410              	.L101:
1149:../Drivers/BSP/Components/vl53l0x/vl53l0x_api.c **** 	case VL53L0X_SEQUENCESTEP_PRE_RANGE:
1150:../Drivers/BSP/Components/vl53l0x/vl53l0x_api.c **** 		*pSequenceStepEnabled = (SequenceConfig & 0x40) >> 6;
 1411              		.loc 1 1150 0
 1412 0030 C2F38012 		ubfx	r2, r2, #6, #1
 1413              	.LVL158:
 1414 0034 1A70     		strb	r2, [r3]
1135:../Drivers/BSP/Components/vl53l0x/vl53l0x_api.c **** 	*pSequenceStepEnabled = 0;
 1415              		.loc 1 1135 0
ARM GAS  /tmp/ccflrS73.s 			page 45


 1416 0036 0020     		movs	r0, #0
1151:../Drivers/BSP/Components/vl53l0x/vl53l0x_api.c **** 		break;
 1417              		.loc 1 1151 0
 1418 0038 04E0     		b	.L96
 1419              	.LVL159:
 1420              	.L102:
1152:../Drivers/BSP/Components/vl53l0x/vl53l0x_api.c **** 	case VL53L0X_SEQUENCESTEP_FINAL_RANGE:
1153:../Drivers/BSP/Components/vl53l0x/vl53l0x_api.c **** 		*pSequenceStepEnabled = (SequenceConfig & 0x80) >> 7;
 1421              		.loc 1 1153 0
 1422 003a D209     		lsrs	r2, r2, #7
 1423              	.LVL160:
 1424 003c 1A70     		strb	r2, [r3]
1135:../Drivers/BSP/Components/vl53l0x/vl53l0x_api.c **** 	*pSequenceStepEnabled = 0;
 1425              		.loc 1 1135 0
 1426 003e 0020     		movs	r0, #0
1154:../Drivers/BSP/Components/vl53l0x/vl53l0x_api.c **** 		break;
 1427              		.loc 1 1154 0
 1428 0040 00E0     		b	.L96
 1429              	.LVL161:
 1430              	.L103:
1155:../Drivers/BSP/Components/vl53l0x/vl53l0x_api.c **** 	default:
1156:../Drivers/BSP/Components/vl53l0x/vl53l0x_api.c **** 		Status = VL53L0X_ERROR_INVALID_PARAMS;
 1431              		.loc 1 1156 0
 1432 0042 FC20     		movs	r0, #252
 1433              	.LVL162:
 1434              	.L96:
1157:../Drivers/BSP/Components/vl53l0x/vl53l0x_api.c **** 	}
1158:../Drivers/BSP/Components/vl53l0x/vl53l0x_api.c **** 
1159:../Drivers/BSP/Components/vl53l0x/vl53l0x_api.c **** 	LOG_FUNCTION_END(Status);
1160:../Drivers/BSP/Components/vl53l0x/vl53l0x_api.c **** 	return Status;
1161:../Drivers/BSP/Components/vl53l0x/vl53l0x_api.c **** }
 1435              		.loc 1 1161 0
 1436 0044 40B2     		sxtb	r0, r0
 1437 0046 7047     		bx	lr
 1438              		.cfi_endproc
 1439              	.LFE151:
 1441              		.section	.text.VL53L0X_GetSequenceStepEnable,"ax",%progbits
 1442              		.align	2
 1443              		.global	VL53L0X_GetSequenceStepEnable
 1444              		.thumb
 1445              		.thumb_func
 1447              	VL53L0X_GetSequenceStepEnable:
 1448              	.LFB152:
1162:../Drivers/BSP/Components/vl53l0x/vl53l0x_api.c **** 
1163:../Drivers/BSP/Components/vl53l0x/vl53l0x_api.c **** VL53L0X_Error VL53L0X_GetSequenceStepEnable(VL53L0X_DEV Dev,
1164:../Drivers/BSP/Components/vl53l0x/vl53l0x_api.c **** 	VL53L0X_SequenceStepId SequenceStepId, uint8_t *pSequenceStepEnabled)
1165:../Drivers/BSP/Components/vl53l0x/vl53l0x_api.c **** {
 1449              		.loc 1 1165 0
 1450              		.cfi_startproc
 1451              		@ args = 0, pretend = 0, frame = 8
 1452              		@ frame_needed = 0, uses_anonymous_args = 0
 1453              	.LVL163:
 1454 0000 70B5     		push	{r4, r5, r6, lr}
 1455              	.LCFI33:
 1456              		.cfi_def_cfa_offset 16
 1457              		.cfi_offset 4, -16
 1458              		.cfi_offset 5, -12
ARM GAS  /tmp/ccflrS73.s 			page 46


 1459              		.cfi_offset 6, -8
 1460              		.cfi_offset 14, -4
 1461 0002 82B0     		sub	sp, sp, #8
 1462              	.LCFI34:
 1463              		.cfi_def_cfa_offset 24
 1464 0004 0646     		mov	r6, r0
 1465 0006 0D46     		mov	r5, r1
 1466 0008 1446     		mov	r4, r2
 1467              	.LVL164:
1166:../Drivers/BSP/Components/vl53l0x/vl53l0x_api.c **** 	VL53L0X_Error Status = VL53L0X_ERROR_NONE;
1167:../Drivers/BSP/Components/vl53l0x/vl53l0x_api.c **** 	uint8_t SequenceConfig = 0;
 1468              		.loc 1 1167 0
 1469 000a 02AA     		add	r2, sp, #8
 1470              	.LVL165:
 1471 000c 0023     		movs	r3, #0
 1472 000e 02F8013D 		strb	r3, [r2, #-1]!
1168:../Drivers/BSP/Components/vl53l0x/vl53l0x_api.c **** 	LOG_FUNCTION_START("");
1169:../Drivers/BSP/Components/vl53l0x/vl53l0x_api.c **** 
1170:../Drivers/BSP/Components/vl53l0x/vl53l0x_api.c **** 	Status = VL53L0X_RdByte(Dev, VL53L0X_REG_SYSTEM_SEQUENCE_CONFIG,
 1473              		.loc 1 1170 0
 1474 0012 0121     		movs	r1, #1
 1475              	.LVL166:
 1476 0014 FFF7FEFF 		bl	VL53L0X_RdByte
 1477              	.LVL167:
1171:../Drivers/BSP/Components/vl53l0x/vl53l0x_api.c **** 		&SequenceConfig);
1172:../Drivers/BSP/Components/vl53l0x/vl53l0x_api.c **** 
1173:../Drivers/BSP/Components/vl53l0x/vl53l0x_api.c **** 	if (Status == VL53L0X_ERROR_NONE) {
 1478              		.loc 1 1173 0
 1479 0018 0346     		mov	r3, r0
 1480 001a 38B9     		cbnz	r0, .L105
1174:../Drivers/BSP/Components/vl53l0x/vl53l0x_api.c **** 		Status = sequence_step_enabled(Dev, SequenceStepId,
 1481              		.loc 1 1174 0
 1482 001c 3046     		mov	r0, r6
 1483              	.LVL168:
 1484 001e 2946     		mov	r1, r5
 1485 0020 9DF80720 		ldrb	r2, [sp, #7]	@ zero_extendqisi2
 1486 0024 2346     		mov	r3, r4
 1487 0026 FFF7FEFF 		bl	sequence_step_enabled
 1488              	.LVL169:
 1489 002a 0346     		mov	r3, r0
 1490              	.LVL170:
 1491              	.L105:
1175:../Drivers/BSP/Components/vl53l0x/vl53l0x_api.c **** 			SequenceConfig, pSequenceStepEnabled);
1176:../Drivers/BSP/Components/vl53l0x/vl53l0x_api.c **** 	}
1177:../Drivers/BSP/Components/vl53l0x/vl53l0x_api.c **** 
1178:../Drivers/BSP/Components/vl53l0x/vl53l0x_api.c **** 	LOG_FUNCTION_END(Status);
1179:../Drivers/BSP/Components/vl53l0x/vl53l0x_api.c **** 	return Status;
1180:../Drivers/BSP/Components/vl53l0x/vl53l0x_api.c **** }
 1492              		.loc 1 1180 0
 1493 002c 58B2     		sxtb	r0, r3
 1494 002e 02B0     		add	sp, sp, #8
 1495              	.LCFI35:
 1496              		.cfi_def_cfa_offset 16
 1497              		@ sp needed
 1498 0030 70BD     		pop	{r4, r5, r6, pc}
 1499              		.cfi_endproc
 1500              	.LFE152:
ARM GAS  /tmp/ccflrS73.s 			page 47


 1502 0032 00BF     		.section	.text.VL53L0X_GetSequenceStepEnables,"ax",%progbits
 1503              		.align	2
 1504              		.global	VL53L0X_GetSequenceStepEnables
 1505              		.thumb
 1506              		.thumb_func
 1508              	VL53L0X_GetSequenceStepEnables:
 1509              	.LFB153:
1181:../Drivers/BSP/Components/vl53l0x/vl53l0x_api.c **** 
1182:../Drivers/BSP/Components/vl53l0x/vl53l0x_api.c **** VL53L0X_Error VL53L0X_GetSequenceStepEnables(VL53L0X_DEV Dev,
1183:../Drivers/BSP/Components/vl53l0x/vl53l0x_api.c **** 	VL53L0X_SchedulerSequenceSteps_t *pSchedulerSequenceSteps)
1184:../Drivers/BSP/Components/vl53l0x/vl53l0x_api.c **** {
 1510              		.loc 1 1184 0
 1511              		.cfi_startproc
 1512              		@ args = 0, pretend = 0, frame = 8
 1513              		@ frame_needed = 0, uses_anonymous_args = 0
 1514              	.LVL171:
 1515 0000 30B5     		push	{r4, r5, lr}
 1516              	.LCFI36:
 1517              		.cfi_def_cfa_offset 12
 1518              		.cfi_offset 4, -12
 1519              		.cfi_offset 5, -8
 1520              		.cfi_offset 14, -4
 1521 0002 83B0     		sub	sp, sp, #12
 1522              	.LCFI37:
 1523              		.cfi_def_cfa_offset 24
 1524 0004 0546     		mov	r5, r0
 1525 0006 0C46     		mov	r4, r1
 1526              	.LVL172:
1185:../Drivers/BSP/Components/vl53l0x/vl53l0x_api.c **** 	VL53L0X_Error Status = VL53L0X_ERROR_NONE;
1186:../Drivers/BSP/Components/vl53l0x/vl53l0x_api.c **** 	uint8_t SequenceConfig = 0;
 1527              		.loc 1 1186 0
 1528 0008 02AA     		add	r2, sp, #8
 1529 000a 0023     		movs	r3, #0
 1530 000c 02F8013D 		strb	r3, [r2, #-1]!
1187:../Drivers/BSP/Components/vl53l0x/vl53l0x_api.c **** 	LOG_FUNCTION_START("");
1188:../Drivers/BSP/Components/vl53l0x/vl53l0x_api.c **** 
1189:../Drivers/BSP/Components/vl53l0x/vl53l0x_api.c **** 	Status = VL53L0X_RdByte(Dev, VL53L0X_REG_SYSTEM_SEQUENCE_CONFIG,
 1531              		.loc 1 1189 0
 1532 0010 0121     		movs	r1, #1
 1533              	.LVL173:
 1534 0012 FFF7FEFF 		bl	VL53L0X_RdByte
 1535              	.LVL174:
1190:../Drivers/BSP/Components/vl53l0x/vl53l0x_api.c **** 		&SequenceConfig);
1191:../Drivers/BSP/Components/vl53l0x/vl53l0x_api.c **** 
1192:../Drivers/BSP/Components/vl53l0x/vl53l0x_api.c **** 	if (Status == VL53L0X_ERROR_NONE) {
 1536              		.loc 1 1192 0
 1537 0016 0346     		mov	r3, r0
 1538 0018 38B9     		cbnz	r0, .L108
1193:../Drivers/BSP/Components/vl53l0x/vl53l0x_api.c **** 		Status = sequence_step_enabled(Dev,
 1539              		.loc 1 1193 0
 1540 001a 2846     		mov	r0, r5
 1541              	.LVL175:
 1542 001c 0021     		movs	r1, #0
 1543 001e 9DF80720 		ldrb	r2, [sp, #7]	@ zero_extendqisi2
 1544 0022 2346     		mov	r3, r4
 1545 0024 FFF7FEFF 		bl	sequence_step_enabled
 1546              	.LVL176:
ARM GAS  /tmp/ccflrS73.s 			page 48


 1547 0028 0346     		mov	r3, r0
 1548              	.LVL177:
 1549              	.L108:
1194:../Drivers/BSP/Components/vl53l0x/vl53l0x_api.c **** 		VL53L0X_SEQUENCESTEP_TCC, SequenceConfig,
1195:../Drivers/BSP/Components/vl53l0x/vl53l0x_api.c **** 			&pSchedulerSequenceSteps->TccOn);
1196:../Drivers/BSP/Components/vl53l0x/vl53l0x_api.c **** 	}
1197:../Drivers/BSP/Components/vl53l0x/vl53l0x_api.c **** 	if (Status == VL53L0X_ERROR_NONE) {
 1550              		.loc 1 1197 0
 1551 002a 3BB9     		cbnz	r3, .L109
1198:../Drivers/BSP/Components/vl53l0x/vl53l0x_api.c **** 		Status = sequence_step_enabled(Dev,
 1552              		.loc 1 1198 0
 1553 002c 2846     		mov	r0, r5
 1554 002e 0121     		movs	r1, #1
 1555 0030 9DF80720 		ldrb	r2, [sp, #7]	@ zero_extendqisi2
 1556 0034 A31C     		adds	r3, r4, #2
 1557              	.LVL178:
 1558 0036 FFF7FEFF 		bl	sequence_step_enabled
 1559              	.LVL179:
 1560 003a 0346     		mov	r3, r0
 1561              	.LVL180:
 1562              	.L109:
1199:../Drivers/BSP/Components/vl53l0x/vl53l0x_api.c **** 		VL53L0X_SEQUENCESTEP_DSS, SequenceConfig,
1200:../Drivers/BSP/Components/vl53l0x/vl53l0x_api.c **** 			&pSchedulerSequenceSteps->DssOn);
1201:../Drivers/BSP/Components/vl53l0x/vl53l0x_api.c **** 	}
1202:../Drivers/BSP/Components/vl53l0x/vl53l0x_api.c **** 	if (Status == VL53L0X_ERROR_NONE) {
 1563              		.loc 1 1202 0
 1564 003c 3BB9     		cbnz	r3, .L110
1203:../Drivers/BSP/Components/vl53l0x/vl53l0x_api.c **** 		Status = sequence_step_enabled(Dev,
 1565              		.loc 1 1203 0
 1566 003e 2846     		mov	r0, r5
 1567 0040 0221     		movs	r1, #2
 1568 0042 9DF80720 		ldrb	r2, [sp, #7]	@ zero_extendqisi2
 1569 0046 631C     		adds	r3, r4, #1
 1570              	.LVL181:
 1571 0048 FFF7FEFF 		bl	sequence_step_enabled
 1572              	.LVL182:
 1573 004c 0346     		mov	r3, r0
 1574              	.LVL183:
 1575              	.L110:
1204:../Drivers/BSP/Components/vl53l0x/vl53l0x_api.c **** 		VL53L0X_SEQUENCESTEP_MSRC, SequenceConfig,
1205:../Drivers/BSP/Components/vl53l0x/vl53l0x_api.c **** 			&pSchedulerSequenceSteps->MsrcOn);
1206:../Drivers/BSP/Components/vl53l0x/vl53l0x_api.c **** 	}
1207:../Drivers/BSP/Components/vl53l0x/vl53l0x_api.c **** 	if (Status == VL53L0X_ERROR_NONE) {
 1576              		.loc 1 1207 0
 1577 004e 3BB9     		cbnz	r3, .L111
1208:../Drivers/BSP/Components/vl53l0x/vl53l0x_api.c **** 		Status = sequence_step_enabled(Dev,
 1578              		.loc 1 1208 0
 1579 0050 2846     		mov	r0, r5
 1580 0052 0321     		movs	r1, #3
 1581 0054 9DF80720 		ldrb	r2, [sp, #7]	@ zero_extendqisi2
 1582 0058 6318     		adds	r3, r4, r1
 1583              	.LVL184:
 1584 005a FFF7FEFF 		bl	sequence_step_enabled
 1585              	.LVL185:
 1586 005e 0346     		mov	r3, r0
 1587              	.LVL186:
 1588              	.L111:
ARM GAS  /tmp/ccflrS73.s 			page 49


1209:../Drivers/BSP/Components/vl53l0x/vl53l0x_api.c **** 		VL53L0X_SEQUENCESTEP_PRE_RANGE, SequenceConfig,
1210:../Drivers/BSP/Components/vl53l0x/vl53l0x_api.c **** 			&pSchedulerSequenceSteps->PreRangeOn);
1211:../Drivers/BSP/Components/vl53l0x/vl53l0x_api.c **** 	}
1212:../Drivers/BSP/Components/vl53l0x/vl53l0x_api.c **** 	if (Status == VL53L0X_ERROR_NONE) {
 1589              		.loc 1 1212 0
 1590 0060 3BB9     		cbnz	r3, .L112
1213:../Drivers/BSP/Components/vl53l0x/vl53l0x_api.c **** 		Status = sequence_step_enabled(Dev,
 1591              		.loc 1 1213 0
 1592 0062 2846     		mov	r0, r5
 1593 0064 0421     		movs	r1, #4
 1594 0066 9DF80720 		ldrb	r2, [sp, #7]	@ zero_extendqisi2
 1595 006a 6318     		adds	r3, r4, r1
 1596              	.LVL187:
 1597 006c FFF7FEFF 		bl	sequence_step_enabled
 1598              	.LVL188:
 1599 0070 0346     		mov	r3, r0
 1600              	.LVL189:
 1601              	.L112:
1214:../Drivers/BSP/Components/vl53l0x/vl53l0x_api.c **** 		VL53L0X_SEQUENCESTEP_FINAL_RANGE, SequenceConfig,
1215:../Drivers/BSP/Components/vl53l0x/vl53l0x_api.c **** 			&pSchedulerSequenceSteps->FinalRangeOn);
1216:../Drivers/BSP/Components/vl53l0x/vl53l0x_api.c **** 	}
1217:../Drivers/BSP/Components/vl53l0x/vl53l0x_api.c **** 
1218:../Drivers/BSP/Components/vl53l0x/vl53l0x_api.c **** 	LOG_FUNCTION_END(Status);
1219:../Drivers/BSP/Components/vl53l0x/vl53l0x_api.c **** 	return Status;
1220:../Drivers/BSP/Components/vl53l0x/vl53l0x_api.c **** }
 1602              		.loc 1 1220 0
 1603 0072 58B2     		sxtb	r0, r3
 1604 0074 03B0     		add	sp, sp, #12
 1605              	.LCFI38:
 1606              		.cfi_def_cfa_offset 12
 1607              		@ sp needed
 1608 0076 30BD     		pop	{r4, r5, pc}
 1609              		.cfi_endproc
 1610              	.LFE153:
 1612              		.section	.text.VL53L0X_GetNumberOfSequenceSteps,"ax",%progbits
 1613              		.align	2
 1614              		.global	VL53L0X_GetNumberOfSequenceSteps
 1615              		.thumb
 1616              		.thumb_func
 1618              	VL53L0X_GetNumberOfSequenceSteps:
 1619              	.LFB154:
1221:../Drivers/BSP/Components/vl53l0x/vl53l0x_api.c **** 
1222:../Drivers/BSP/Components/vl53l0x/vl53l0x_api.c **** VL53L0X_Error VL53L0X_GetNumberOfSequenceSteps(VL53L0X_DEV Dev,
1223:../Drivers/BSP/Components/vl53l0x/vl53l0x_api.c **** 	uint8_t *pNumberOfSequenceSteps)
1224:../Drivers/BSP/Components/vl53l0x/vl53l0x_api.c **** {
 1620              		.loc 1 1224 0
 1621              		.cfi_startproc
 1622              		@ args = 0, pretend = 0, frame = 0
 1623              		@ frame_needed = 0, uses_anonymous_args = 0
 1624              		@ link register save eliminated.
 1625              	.LVL190:
1225:../Drivers/BSP/Components/vl53l0x/vl53l0x_api.c **** 	VL53L0X_Error Status = VL53L0X_ERROR_NONE;
1226:../Drivers/BSP/Components/vl53l0x/vl53l0x_api.c **** 	LOG_FUNCTION_START("");
1227:../Drivers/BSP/Components/vl53l0x/vl53l0x_api.c **** 
1228:../Drivers/BSP/Components/vl53l0x/vl53l0x_api.c **** 	*pNumberOfSequenceSteps = VL53L0X_SEQUENCESTEP_NUMBER_OF_CHECKS;
 1626              		.loc 1 1228 0
 1627 0000 0523     		movs	r3, #5
ARM GAS  /tmp/ccflrS73.s 			page 50


 1628 0002 0B70     		strb	r3, [r1]
1229:../Drivers/BSP/Components/vl53l0x/vl53l0x_api.c **** 
1230:../Drivers/BSP/Components/vl53l0x/vl53l0x_api.c **** 	LOG_FUNCTION_END(Status);
1231:../Drivers/BSP/Components/vl53l0x/vl53l0x_api.c **** 	return Status;
1232:../Drivers/BSP/Components/vl53l0x/vl53l0x_api.c **** }
 1629              		.loc 1 1232 0
 1630 0004 0020     		movs	r0, #0
 1631              	.LVL191:
 1632 0006 7047     		bx	lr
 1633              		.cfi_endproc
 1634              	.LFE154:
 1636              		.section	.text.VL53L0X_GetSequenceStepsInfo,"ax",%progbits
 1637              		.align	2
 1638              		.global	VL53L0X_GetSequenceStepsInfo
 1639              		.thumb
 1640              		.thumb_func
 1642              	VL53L0X_GetSequenceStepsInfo:
 1643              	.LFB155:
1233:../Drivers/BSP/Components/vl53l0x/vl53l0x_api.c **** 
1234:../Drivers/BSP/Components/vl53l0x/vl53l0x_api.c **** VL53L0X_Error VL53L0X_GetSequenceStepsInfo(VL53L0X_SequenceStepId SequenceStepId,
1235:../Drivers/BSP/Components/vl53l0x/vl53l0x_api.c **** 	char *pSequenceStepsString)
1236:../Drivers/BSP/Components/vl53l0x/vl53l0x_api.c **** {
 1644              		.loc 1 1236 0
 1645              		.cfi_startproc
 1646              		@ args = 0, pretend = 0, frame = 0
 1647              		@ frame_needed = 0, uses_anonymous_args = 0
 1648              	.LVL192:
 1649 0000 08B5     		push	{r3, lr}
 1650              	.LCFI39:
 1651              		.cfi_def_cfa_offset 8
 1652              		.cfi_offset 3, -8
 1653              		.cfi_offset 14, -4
 1654              	.LVL193:
1237:../Drivers/BSP/Components/vl53l0x/vl53l0x_api.c **** 	VL53L0X_Error Status = VL53L0X_ERROR_NONE;
1238:../Drivers/BSP/Components/vl53l0x/vl53l0x_api.c **** 	LOG_FUNCTION_START("");
1239:../Drivers/BSP/Components/vl53l0x/vl53l0x_api.c **** 
1240:../Drivers/BSP/Components/vl53l0x/vl53l0x_api.c **** 	Status = VL53L0X_get_sequence_steps_info(
 1655              		.loc 1 1240 0
 1656 0002 FFF7FEFF 		bl	VL53L0X_get_sequence_steps_info
 1657              	.LVL194:
1241:../Drivers/BSP/Components/vl53l0x/vl53l0x_api.c **** 			SequenceStepId,
1242:../Drivers/BSP/Components/vl53l0x/vl53l0x_api.c **** 			pSequenceStepsString);
1243:../Drivers/BSP/Components/vl53l0x/vl53l0x_api.c **** 
1244:../Drivers/BSP/Components/vl53l0x/vl53l0x_api.c **** 	LOG_FUNCTION_END(Status);
1245:../Drivers/BSP/Components/vl53l0x/vl53l0x_api.c **** 
1246:../Drivers/BSP/Components/vl53l0x/vl53l0x_api.c **** 	return Status;
1247:../Drivers/BSP/Components/vl53l0x/vl53l0x_api.c **** }
 1658              		.loc 1 1247 0
 1659 0006 08BD     		pop	{r3, pc}
 1660              		.cfi_endproc
 1661              	.LFE155:
 1663              		.section	.text.VL53L0X_SetSequenceStepTimeout,"ax",%progbits
 1664              		.align	2
 1665              		.global	VL53L0X_SetSequenceStepTimeout
 1666              		.thumb
 1667              		.thumb_func
 1669              	VL53L0X_SetSequenceStepTimeout:
ARM GAS  /tmp/ccflrS73.s 			page 51


 1670              	.LFB156:
1248:../Drivers/BSP/Components/vl53l0x/vl53l0x_api.c **** 
1249:../Drivers/BSP/Components/vl53l0x/vl53l0x_api.c **** VL53L0X_Error VL53L0X_SetSequenceStepTimeout(VL53L0X_DEV Dev,
1250:../Drivers/BSP/Components/vl53l0x/vl53l0x_api.c **** 	VL53L0X_SequenceStepId SequenceStepId, FixPoint1616_t TimeOutMilliSecs)
1251:../Drivers/BSP/Components/vl53l0x/vl53l0x_api.c **** {
 1671              		.loc 1 1251 0
 1672              		.cfi_startproc
 1673              		@ args = 0, pretend = 0, frame = 8
 1674              		@ frame_needed = 0, uses_anonymous_args = 0
 1675              	.LVL195:
 1676 0000 70B5     		push	{r4, r5, r6, lr}
 1677              	.LCFI40:
 1678              		.cfi_def_cfa_offset 16
 1679              		.cfi_offset 4, -16
 1680              		.cfi_offset 5, -12
 1681              		.cfi_offset 6, -8
 1682              		.cfi_offset 14, -4
 1683 0002 82B0     		sub	sp, sp, #8
 1684              	.LCFI41:
 1685              		.cfi_def_cfa_offset 24
 1686 0004 0546     		mov	r5, r0
 1687 0006 0E46     		mov	r6, r1
 1688              	.LVL196:
1252:../Drivers/BSP/Components/vl53l0x/vl53l0x_api.c **** 	VL53L0X_Error Status = VL53L0X_ERROR_NONE;
1253:../Drivers/BSP/Components/vl53l0x/vl53l0x_api.c **** 	VL53L0X_Error Status1 = VL53L0X_ERROR_NONE;
1254:../Drivers/BSP/Components/vl53l0x/vl53l0x_api.c **** 	uint32_t TimeoutMicroSeconds = ((TimeOutMilliSecs * 1000) + 0x8000)
 1689              		.loc 1 1254 0
 1690 0008 4FF47A73 		mov	r3, #1000
 1691 000c 03FB02F2 		mul	r2, r3, r2
 1692              	.LVL197:
 1693 0010 02F50042 		add	r2, r2, #32768
 1694 0014 140C     		lsrs	r4, r2, #16
 1695              	.LVL198:
1255:../Drivers/BSP/Components/vl53l0x/vl53l0x_api.c **** 		>> 16;
1256:../Drivers/BSP/Components/vl53l0x/vl53l0x_api.c **** 	uint32_t MeasurementTimingBudgetMicroSeconds;
1257:../Drivers/BSP/Components/vl53l0x/vl53l0x_api.c **** 	FixPoint1616_t OldTimeOutMicroSeconds;
1258:../Drivers/BSP/Components/vl53l0x/vl53l0x_api.c **** 
1259:../Drivers/BSP/Components/vl53l0x/vl53l0x_api.c **** 	LOG_FUNCTION_START("");
1260:../Drivers/BSP/Components/vl53l0x/vl53l0x_api.c **** 
1261:../Drivers/BSP/Components/vl53l0x/vl53l0x_api.c **** 	/* Read back the current value in case we need to revert back to this.
1262:../Drivers/BSP/Components/vl53l0x/vl53l0x_api.c **** 	 */
1263:../Drivers/BSP/Components/vl53l0x/vl53l0x_api.c **** 	Status = get_sequence_step_timeout(Dev, SequenceStepId,
 1696              		.loc 1 1263 0
 1697 0016 01AA     		add	r2, sp, #4
 1698 0018 FFF7FEFF 		bl	get_sequence_step_timeout
 1699              	.LVL199:
1264:../Drivers/BSP/Components/vl53l0x/vl53l0x_api.c **** 		&OldTimeOutMicroSeconds);
1265:../Drivers/BSP/Components/vl53l0x/vl53l0x_api.c **** 
1266:../Drivers/BSP/Components/vl53l0x/vl53l0x_api.c **** 	if (Status == VL53L0X_ERROR_NONE) {
 1700              		.loc 1 1266 0
 1701 001c 0346     		mov	r3, r0
 1702 001e 28B9     		cbnz	r0, .L118
1267:../Drivers/BSP/Components/vl53l0x/vl53l0x_api.c **** 		Status = set_sequence_step_timeout(Dev, SequenceStepId,
 1703              		.loc 1 1267 0
 1704 0020 2846     		mov	r0, r5
 1705              	.LVL200:
 1706 0022 3146     		mov	r1, r6
ARM GAS  /tmp/ccflrS73.s 			page 52


 1707 0024 2246     		mov	r2, r4
 1708 0026 FFF7FEFF 		bl	set_sequence_step_timeout
 1709              	.LVL201:
 1710 002a 0346     		mov	r3, r0
 1711              	.LVL202:
 1712              	.L118:
1268:../Drivers/BSP/Components/vl53l0x/vl53l0x_api.c **** 			TimeoutMicroSeconds);
1269:../Drivers/BSP/Components/vl53l0x/vl53l0x_api.c **** 	}
1270:../Drivers/BSP/Components/vl53l0x/vl53l0x_api.c **** 
1271:../Drivers/BSP/Components/vl53l0x/vl53l0x_api.c **** 	if (Status == VL53L0X_ERROR_NONE) {
 1713              		.loc 1 1271 0
 1714 002c 93B9     		cbnz	r3, .L119
1272:../Drivers/BSP/Components/vl53l0x/vl53l0x_api.c **** 		VL53L0X_GETPARAMETERFIELD(Dev,
 1715              		.loc 1 1272 0
 1716 002e 6C69     		ldr	r4, [r5, #20]
 1717              	.LVL203:
1273:../Drivers/BSP/Components/vl53l0x/vl53l0x_api.c **** 			MeasurementTimingBudgetMicroSeconds,
1274:../Drivers/BSP/Components/vl53l0x/vl53l0x_api.c **** 			MeasurementTimingBudgetMicroSeconds);
1275:../Drivers/BSP/Components/vl53l0x/vl53l0x_api.c **** 
1276:../Drivers/BSP/Components/vl53l0x/vl53l0x_api.c **** 		/* At this point we don't know if the requested value is valid,
1277:../Drivers/BSP/Components/vl53l0x/vl53l0x_api.c **** 		 therefore proceed to update the entire timing budget and
1278:../Drivers/BSP/Components/vl53l0x/vl53l0x_api.c **** 		 if this fails, revert back to the previous value.
1279:../Drivers/BSP/Components/vl53l0x/vl53l0x_api.c **** 		 */
1280:../Drivers/BSP/Components/vl53l0x/vl53l0x_api.c **** 		Status = VL53L0X_SetMeasurementTimingBudgetMicroSeconds(Dev,
 1718              		.loc 1 1280 0
 1719 0030 2846     		mov	r0, r5
 1720 0032 2146     		mov	r1, r4
 1721 0034 FFF7FEFF 		bl	VL53L0X_SetMeasurementTimingBudgetMicroSeconds
 1722              	.LVL204:
1281:../Drivers/BSP/Components/vl53l0x/vl53l0x_api.c **** 			MeasurementTimingBudgetMicroSeconds);
1282:../Drivers/BSP/Components/vl53l0x/vl53l0x_api.c **** 
1283:../Drivers/BSP/Components/vl53l0x/vl53l0x_api.c **** 		if (Status != VL53L0X_ERROR_NONE) {
 1723              		.loc 1 1283 0
 1724 0038 0346     		mov	r3, r0
 1725 003a 58B1     		cbz	r0, .L119
1284:../Drivers/BSP/Components/vl53l0x/vl53l0x_api.c **** 			Status1 = set_sequence_step_timeout(Dev, SequenceStepId,
 1726              		.loc 1 1284 0
 1727 003c 2846     		mov	r0, r5
 1728              	.LVL205:
 1729 003e 3146     		mov	r1, r6
 1730 0040 019A     		ldr	r2, [sp, #4]
 1731 0042 FFF7FEFF 		bl	set_sequence_step_timeout
 1732              	.LVL206:
1285:../Drivers/BSP/Components/vl53l0x/vl53l0x_api.c **** 				OldTimeOutMicroSeconds);
1286:../Drivers/BSP/Components/vl53l0x/vl53l0x_api.c **** 
1287:../Drivers/BSP/Components/vl53l0x/vl53l0x_api.c **** 			if (Status1 == VL53L0X_ERROR_NONE) {
 1733              		.loc 1 1287 0
 1734 0046 0346     		mov	r3, r0
 1735 0048 20B9     		cbnz	r0, .L119
1288:../Drivers/BSP/Components/vl53l0x/vl53l0x_api.c **** 				Status1 =
 1736              		.loc 1 1288 0
 1737 004a 2846     		mov	r0, r5
 1738              	.LVL207:
 1739 004c 2146     		mov	r1, r4
 1740 004e FFF7FEFF 		bl	VL53L0X_SetMeasurementTimingBudgetMicroSeconds
 1741              	.LVL208:
 1742 0052 0346     		mov	r3, r0
ARM GAS  /tmp/ccflrS73.s 			page 53


 1743              	.LVL209:
 1744              	.L119:
1289:../Drivers/BSP/Components/vl53l0x/vl53l0x_api.c **** 				VL53L0X_SetMeasurementTimingBudgetMicroSeconds(
1290:../Drivers/BSP/Components/vl53l0x/vl53l0x_api.c **** 					Dev,
1291:../Drivers/BSP/Components/vl53l0x/vl53l0x_api.c **** 					MeasurementTimingBudgetMicroSeconds);
1292:../Drivers/BSP/Components/vl53l0x/vl53l0x_api.c **** 			}
1293:../Drivers/BSP/Components/vl53l0x/vl53l0x_api.c **** 
1294:../Drivers/BSP/Components/vl53l0x/vl53l0x_api.c **** 			Status = Status1;
1295:../Drivers/BSP/Components/vl53l0x/vl53l0x_api.c **** 		}
1296:../Drivers/BSP/Components/vl53l0x/vl53l0x_api.c **** 	}
1297:../Drivers/BSP/Components/vl53l0x/vl53l0x_api.c **** 
1298:../Drivers/BSP/Components/vl53l0x/vl53l0x_api.c **** 	LOG_FUNCTION_END(Status);
1299:../Drivers/BSP/Components/vl53l0x/vl53l0x_api.c **** 
1300:../Drivers/BSP/Components/vl53l0x/vl53l0x_api.c **** 	return Status;
1301:../Drivers/BSP/Components/vl53l0x/vl53l0x_api.c **** }
 1745              		.loc 1 1301 0
 1746 0054 58B2     		sxtb	r0, r3
 1747 0056 02B0     		add	sp, sp, #8
 1748              	.LCFI42:
 1749              		.cfi_def_cfa_offset 16
 1750              		@ sp needed
 1751 0058 70BD     		pop	{r4, r5, r6, pc}
 1752              		.cfi_endproc
 1753              	.LFE156:
 1755              		.section	.text.VL53L0X_GetSequenceStepTimeout,"ax",%progbits
 1756              		.align	2
 1757              		.global	VL53L0X_GetSequenceStepTimeout
 1758              		.thumb
 1759              		.thumb_func
 1761              	VL53L0X_GetSequenceStepTimeout:
 1762              	.LFB157:
1302:../Drivers/BSP/Components/vl53l0x/vl53l0x_api.c **** 
1303:../Drivers/BSP/Components/vl53l0x/vl53l0x_api.c **** VL53L0X_Error VL53L0X_GetSequenceStepTimeout(VL53L0X_DEV Dev,
1304:../Drivers/BSP/Components/vl53l0x/vl53l0x_api.c **** 	VL53L0X_SequenceStepId SequenceStepId, FixPoint1616_t *pTimeOutMilliSecs)
1305:../Drivers/BSP/Components/vl53l0x/vl53l0x_api.c **** {
 1763              		.loc 1 1305 0
 1764              		.cfi_startproc
 1765              		@ args = 0, pretend = 0, frame = 8
 1766              		@ frame_needed = 0, uses_anonymous_args = 0
 1767              	.LVL210:
 1768 0000 10B5     		push	{r4, lr}
 1769              	.LCFI43:
 1770              		.cfi_def_cfa_offset 8
 1771              		.cfi_offset 4, -8
 1772              		.cfi_offset 14, -4
 1773 0002 82B0     		sub	sp, sp, #8
 1774              	.LCFI44:
 1775              		.cfi_def_cfa_offset 16
 1776 0004 1446     		mov	r4, r2
 1777              	.LVL211:
1306:../Drivers/BSP/Components/vl53l0x/vl53l0x_api.c **** 	VL53L0X_Error Status = VL53L0X_ERROR_NONE;
1307:../Drivers/BSP/Components/vl53l0x/vl53l0x_api.c **** 	uint32_t TimeoutMicroSeconds;
1308:../Drivers/BSP/Components/vl53l0x/vl53l0x_api.c **** 	LOG_FUNCTION_START("");
1309:../Drivers/BSP/Components/vl53l0x/vl53l0x_api.c **** 
1310:../Drivers/BSP/Components/vl53l0x/vl53l0x_api.c **** 	Status = get_sequence_step_timeout(Dev, SequenceStepId,
 1778              		.loc 1 1310 0
 1779 0006 01AA     		add	r2, sp, #4
ARM GAS  /tmp/ccflrS73.s 			page 54


 1780              	.LVL212:
 1781 0008 FFF7FEFF 		bl	get_sequence_step_timeout
 1782              	.LVL213:
1311:../Drivers/BSP/Components/vl53l0x/vl53l0x_api.c **** 		&TimeoutMicroSeconds);
1312:../Drivers/BSP/Components/vl53l0x/vl53l0x_api.c **** 	if (Status == VL53L0X_ERROR_NONE) {
 1783              		.loc 1 1312 0
 1784 000c 0246     		mov	r2, r0
 1785 000e 48B9     		cbnz	r0, .L123
1313:../Drivers/BSP/Components/vl53l0x/vl53l0x_api.c **** 		TimeoutMicroSeconds <<= 8;
 1786              		.loc 1 1313 0
 1787 0010 019B     		ldr	r3, [sp, #4]
 1788 0012 1B02     		lsls	r3, r3, #8
 1789              	.LVL214:
1314:../Drivers/BSP/Components/vl53l0x/vl53l0x_api.c **** 		*pTimeOutMilliSecs = (TimeoutMicroSeconds + 500)/1000;
 1790              		.loc 1 1314 0
 1791 0014 03F5FA73 		add	r3, r3, #500
 1792              	.LVL215:
 1793 0018 0449     		ldr	r1, .L125
 1794 001a A1FB0313 		umull	r1, r3, r1, r3
 1795              	.LVL216:
 1796 001e 9B09     		lsrs	r3, r3, #6
1315:../Drivers/BSP/Components/vl53l0x/vl53l0x_api.c **** 		*pTimeOutMilliSecs <<= 8;
 1797              		.loc 1 1315 0
 1798 0020 1B02     		lsls	r3, r3, #8
 1799 0022 2360     		str	r3, [r4]
 1800              	.LVL217:
 1801              	.L123:
1316:../Drivers/BSP/Components/vl53l0x/vl53l0x_api.c **** 	}
1317:../Drivers/BSP/Components/vl53l0x/vl53l0x_api.c **** 
1318:../Drivers/BSP/Components/vl53l0x/vl53l0x_api.c **** 	LOG_FUNCTION_END(Status);
1319:../Drivers/BSP/Components/vl53l0x/vl53l0x_api.c **** 	return Status;
1320:../Drivers/BSP/Components/vl53l0x/vl53l0x_api.c **** }
 1802              		.loc 1 1320 0
 1803 0024 1046     		mov	r0, r2
 1804              	.LVL218:
 1805 0026 02B0     		add	sp, sp, #8
 1806              	.LCFI45:
 1807              		.cfi_def_cfa_offset 8
 1808              		@ sp needed
 1809 0028 10BD     		pop	{r4, pc}
 1810              	.LVL219:
 1811              	.L126:
 1812 002a 00BF     		.align	2
 1813              	.L125:
 1814 002c D34D6210 		.word	274877907
 1815              		.cfi_endproc
 1816              	.LFE157:
 1818              		.section	.text.VL53L0X_SetInterMeasurementPeriodMilliSeconds,"ax",%progbits
 1819              		.align	2
 1820              		.global	VL53L0X_SetInterMeasurementPeriodMilliSeconds
 1821              		.thumb
 1822              		.thumb_func
 1824              	VL53L0X_SetInterMeasurementPeriodMilliSeconds:
 1825              	.LFB158:
1321:../Drivers/BSP/Components/vl53l0x/vl53l0x_api.c **** 
1322:../Drivers/BSP/Components/vl53l0x/vl53l0x_api.c **** VL53L0X_Error VL53L0X_SetInterMeasurementPeriodMilliSeconds(VL53L0X_DEV Dev,
1323:../Drivers/BSP/Components/vl53l0x/vl53l0x_api.c **** 	uint32_t InterMeasurementPeriodMilliSeconds)
ARM GAS  /tmp/ccflrS73.s 			page 55


1324:../Drivers/BSP/Components/vl53l0x/vl53l0x_api.c **** {
 1826              		.loc 1 1324 0
 1827              		.cfi_startproc
 1828              		@ args = 0, pretend = 0, frame = 8
 1829              		@ frame_needed = 0, uses_anonymous_args = 0
 1830              	.LVL220:
 1831 0000 30B5     		push	{r4, r5, lr}
 1832              	.LCFI46:
 1833              		.cfi_def_cfa_offset 12
 1834              		.cfi_offset 4, -12
 1835              		.cfi_offset 5, -8
 1836              		.cfi_offset 14, -4
 1837 0002 83B0     		sub	sp, sp, #12
 1838              	.LCFI47:
 1839              		.cfi_def_cfa_offset 24
 1840 0004 0446     		mov	r4, r0
 1841 0006 0D46     		mov	r5, r1
 1842              	.LVL221:
1325:../Drivers/BSP/Components/vl53l0x/vl53l0x_api.c **** 	VL53L0X_Error Status = VL53L0X_ERROR_NONE;
1326:../Drivers/BSP/Components/vl53l0x/vl53l0x_api.c **** 	uint16_t osc_calibrate_val;
1327:../Drivers/BSP/Components/vl53l0x/vl53l0x_api.c **** 	uint32_t IMPeriodMilliSeconds;
1328:../Drivers/BSP/Components/vl53l0x/vl53l0x_api.c **** 
1329:../Drivers/BSP/Components/vl53l0x/vl53l0x_api.c **** 	LOG_FUNCTION_START("");
1330:../Drivers/BSP/Components/vl53l0x/vl53l0x_api.c **** 
1331:../Drivers/BSP/Components/vl53l0x/vl53l0x_api.c **** 	Status = VL53L0X_RdWord(Dev, VL53L0X_REG_OSC_CALIBRATE_VAL,
 1843              		.loc 1 1331 0
 1844 0008 F821     		movs	r1, #248
 1845              	.LVL222:
 1846 000a 0DF10602 		add	r2, sp, #6
 1847 000e FFF7FEFF 		bl	VL53L0X_RdWord
 1848              	.LVL223:
1332:../Drivers/BSP/Components/vl53l0x/vl53l0x_api.c **** 		&osc_calibrate_val);
1333:../Drivers/BSP/Components/vl53l0x/vl53l0x_api.c **** 
1334:../Drivers/BSP/Components/vl53l0x/vl53l0x_api.c **** 	if (Status == VL53L0X_ERROR_NONE) {
 1849              		.loc 1 1334 0
 1850 0012 0346     		mov	r3, r0
 1851 0014 58B9     		cbnz	r0, .L128
1335:../Drivers/BSP/Components/vl53l0x/vl53l0x_api.c **** 		if (osc_calibrate_val != 0) {
 1852              		.loc 1 1335 0
 1853 0016 BDF80620 		ldrh	r2, [sp, #6]
 1854 001a 12B1     		cbz	r2, .L131
1336:../Drivers/BSP/Components/vl53l0x/vl53l0x_api.c **** 			IMPeriodMilliSeconds =
 1855              		.loc 1 1336 0
 1856 001c 05FB02F2 		mul	r2, r5, r2
 1857              	.LVL224:
 1858 0020 00E0     		b	.L129
 1859              	.LVL225:
 1860              	.L131:
1337:../Drivers/BSP/Components/vl53l0x/vl53l0x_api.c **** 				InterMeasurementPeriodMilliSeconds
1338:../Drivers/BSP/Components/vl53l0x/vl53l0x_api.c **** 					* osc_calibrate_val;
1339:../Drivers/BSP/Components/vl53l0x/vl53l0x_api.c **** 		} else {
1340:../Drivers/BSP/Components/vl53l0x/vl53l0x_api.c **** 			IMPeriodMilliSeconds =
 1861              		.loc 1 1340 0
 1862 0022 2A46     		mov	r2, r5
 1863              	.L129:
 1864              	.LVL226:
1341:../Drivers/BSP/Components/vl53l0x/vl53l0x_api.c **** 				InterMeasurementPeriodMilliSeconds;
ARM GAS  /tmp/ccflrS73.s 			page 56


1342:../Drivers/BSP/Components/vl53l0x/vl53l0x_api.c **** 		}
1343:../Drivers/BSP/Components/vl53l0x/vl53l0x_api.c **** 		Status = VL53L0X_WrDWord(Dev,
 1865              		.loc 1 1343 0
 1866 0024 2046     		mov	r0, r4
 1867              	.LVL227:
 1868 0026 0421     		movs	r1, #4
 1869 0028 FFF7FEFF 		bl	VL53L0X_WrDWord
 1870              	.LVL228:
 1871 002c 0346     		mov	r3, r0
 1872              	.LVL229:
 1873              	.L128:
1344:../Drivers/BSP/Components/vl53l0x/vl53l0x_api.c **** 		VL53L0X_REG_SYSTEM_INTERMEASUREMENT_PERIOD,
1345:../Drivers/BSP/Components/vl53l0x/vl53l0x_api.c **** 			IMPeriodMilliSeconds);
1346:../Drivers/BSP/Components/vl53l0x/vl53l0x_api.c **** 	}
1347:../Drivers/BSP/Components/vl53l0x/vl53l0x_api.c **** 
1348:../Drivers/BSP/Components/vl53l0x/vl53l0x_api.c **** 	if (Status == VL53L0X_ERROR_NONE) {
 1874              		.loc 1 1348 0
 1875 002e 03B9     		cbnz	r3, .L130
1349:../Drivers/BSP/Components/vl53l0x/vl53l0x_api.c **** 		VL53L0X_SETPARAMETERFIELD(Dev,
 1876              		.loc 1 1349 0
 1877 0030 A561     		str	r5, [r4, #24]
 1878              	.L130:
1350:../Drivers/BSP/Components/vl53l0x/vl53l0x_api.c **** 			InterMeasurementPeriodMilliSeconds,
1351:../Drivers/BSP/Components/vl53l0x/vl53l0x_api.c **** 			InterMeasurementPeriodMilliSeconds);
1352:../Drivers/BSP/Components/vl53l0x/vl53l0x_api.c **** 	}
1353:../Drivers/BSP/Components/vl53l0x/vl53l0x_api.c **** 
1354:../Drivers/BSP/Components/vl53l0x/vl53l0x_api.c **** 	LOG_FUNCTION_END(Status);
1355:../Drivers/BSP/Components/vl53l0x/vl53l0x_api.c **** 	return Status;
1356:../Drivers/BSP/Components/vl53l0x/vl53l0x_api.c **** }
 1879              		.loc 1 1356 0
 1880 0032 58B2     		sxtb	r0, r3
 1881 0034 03B0     		add	sp, sp, #12
 1882              	.LCFI48:
 1883              		.cfi_def_cfa_offset 12
 1884              		@ sp needed
 1885 0036 30BD     		pop	{r4, r5, pc}
 1886              		.cfi_endproc
 1887              	.LFE158:
 1889              		.section	.text.VL53L0X_GetInterMeasurementPeriodMilliSeconds,"ax",%progbits
 1890              		.align	2
 1891              		.global	VL53L0X_GetInterMeasurementPeriodMilliSeconds
 1892              		.thumb
 1893              		.thumb_func
 1895              	VL53L0X_GetInterMeasurementPeriodMilliSeconds:
 1896              	.LFB159:
1357:../Drivers/BSP/Components/vl53l0x/vl53l0x_api.c **** 
1358:../Drivers/BSP/Components/vl53l0x/vl53l0x_api.c **** VL53L0X_Error VL53L0X_GetInterMeasurementPeriodMilliSeconds(VL53L0X_DEV Dev,
1359:../Drivers/BSP/Components/vl53l0x/vl53l0x_api.c **** 	uint32_t *pInterMeasurementPeriodMilliSeconds)
1360:../Drivers/BSP/Components/vl53l0x/vl53l0x_api.c **** {
 1897              		.loc 1 1360 0
 1898              		.cfi_startproc
 1899              		@ args = 0, pretend = 0, frame = 8
 1900              		@ frame_needed = 0, uses_anonymous_args = 0
 1901              	.LVL230:
 1902 0000 30B5     		push	{r4, r5, lr}
 1903              	.LCFI49:
 1904              		.cfi_def_cfa_offset 12
ARM GAS  /tmp/ccflrS73.s 			page 57


 1905              		.cfi_offset 4, -12
 1906              		.cfi_offset 5, -8
 1907              		.cfi_offset 14, -4
 1908 0002 83B0     		sub	sp, sp, #12
 1909              	.LCFI50:
 1910              		.cfi_def_cfa_offset 24
 1911 0004 0546     		mov	r5, r0
 1912 0006 0C46     		mov	r4, r1
 1913              	.LVL231:
1361:../Drivers/BSP/Components/vl53l0x/vl53l0x_api.c **** 	VL53L0X_Error Status = VL53L0X_ERROR_NONE;
1362:../Drivers/BSP/Components/vl53l0x/vl53l0x_api.c **** 	uint16_t osc_calibrate_val;
1363:../Drivers/BSP/Components/vl53l0x/vl53l0x_api.c **** 	uint32_t IMPeriodMilliSeconds;
1364:../Drivers/BSP/Components/vl53l0x/vl53l0x_api.c **** 
1365:../Drivers/BSP/Components/vl53l0x/vl53l0x_api.c **** 	LOG_FUNCTION_START("");
1366:../Drivers/BSP/Components/vl53l0x/vl53l0x_api.c **** 
1367:../Drivers/BSP/Components/vl53l0x/vl53l0x_api.c **** 	Status = VL53L0X_RdWord(Dev, VL53L0X_REG_OSC_CALIBRATE_VAL,
 1914              		.loc 1 1367 0
 1915 0008 F821     		movs	r1, #248
 1916              	.LVL232:
 1917 000a 0DF10602 		add	r2, sp, #6
 1918 000e FFF7FEFF 		bl	VL53L0X_RdWord
 1919              	.LVL233:
1368:../Drivers/BSP/Components/vl53l0x/vl53l0x_api.c **** 		&osc_calibrate_val);
1369:../Drivers/BSP/Components/vl53l0x/vl53l0x_api.c **** 
1370:../Drivers/BSP/Components/vl53l0x/vl53l0x_api.c **** 	if (Status == VL53L0X_ERROR_NONE) {
 1920              		.loc 1 1370 0
 1921 0012 0346     		mov	r3, r0
 1922 0014 28B9     		cbnz	r0, .L134
1371:../Drivers/BSP/Components/vl53l0x/vl53l0x_api.c **** 		Status = VL53L0X_RdDWord(Dev,
 1923              		.loc 1 1371 0
 1924 0016 2846     		mov	r0, r5
 1925              	.LVL234:
 1926 0018 0421     		movs	r1, #4
 1927 001a 6A46     		mov	r2, sp
 1928 001c FFF7FEFF 		bl	VL53L0X_RdDWord
 1929              	.LVL235:
 1930 0020 0346     		mov	r3, r0
 1931              	.LVL236:
 1932              	.L134:
1372:../Drivers/BSP/Components/vl53l0x/vl53l0x_api.c **** 		VL53L0X_REG_SYSTEM_INTERMEASUREMENT_PERIOD,
1373:../Drivers/BSP/Components/vl53l0x/vl53l0x_api.c **** 			&IMPeriodMilliSeconds);
1374:../Drivers/BSP/Components/vl53l0x/vl53l0x_api.c **** 	}
1375:../Drivers/BSP/Components/vl53l0x/vl53l0x_api.c **** 
1376:../Drivers/BSP/Components/vl53l0x/vl53l0x_api.c **** 	if (Status == VL53L0X_ERROR_NONE) {
 1933              		.loc 1 1376 0
 1934 0022 43B9     		cbnz	r3, .L135
1377:../Drivers/BSP/Components/vl53l0x/vl53l0x_api.c **** 		if (osc_calibrate_val != 0) {
 1935              		.loc 1 1377 0
 1936 0024 BDF80620 		ldrh	r2, [sp, #6]
 1937 0028 1AB1     		cbz	r2, .L136
1378:../Drivers/BSP/Components/vl53l0x/vl53l0x_api.c **** 			*pInterMeasurementPeriodMilliSeconds =
1379:../Drivers/BSP/Components/vl53l0x/vl53l0x_api.c **** 				IMPeriodMilliSeconds / osc_calibrate_val;
 1938              		.loc 1 1379 0
 1939 002a 0099     		ldr	r1, [sp]
 1940 002c B1FBF2F2 		udiv	r2, r1, r2
1378:../Drivers/BSP/Components/vl53l0x/vl53l0x_api.c **** 			*pInterMeasurementPeriodMilliSeconds =
 1941              		.loc 1 1378 0
ARM GAS  /tmp/ccflrS73.s 			page 58


 1942 0030 2260     		str	r2, [r4]
 1943              	.L136:
1380:../Drivers/BSP/Components/vl53l0x/vl53l0x_api.c **** 		}
1381:../Drivers/BSP/Components/vl53l0x/vl53l0x_api.c **** 		VL53L0X_SETPARAMETERFIELD(Dev,
 1944              		.loc 1 1381 0
 1945 0032 2268     		ldr	r2, [r4]
 1946 0034 AA61     		str	r2, [r5, #24]
 1947              	.L135:
1382:../Drivers/BSP/Components/vl53l0x/vl53l0x_api.c **** 			InterMeasurementPeriodMilliSeconds,
1383:../Drivers/BSP/Components/vl53l0x/vl53l0x_api.c **** 			*pInterMeasurementPeriodMilliSeconds);
1384:../Drivers/BSP/Components/vl53l0x/vl53l0x_api.c **** 	}
1385:../Drivers/BSP/Components/vl53l0x/vl53l0x_api.c **** 
1386:../Drivers/BSP/Components/vl53l0x/vl53l0x_api.c **** 	LOG_FUNCTION_END(Status);
1387:../Drivers/BSP/Components/vl53l0x/vl53l0x_api.c **** 	return Status;
1388:../Drivers/BSP/Components/vl53l0x/vl53l0x_api.c **** }
 1948              		.loc 1 1388 0
 1949 0036 58B2     		sxtb	r0, r3
 1950 0038 03B0     		add	sp, sp, #12
 1951              	.LCFI51:
 1952              		.cfi_def_cfa_offset 12
 1953              		@ sp needed
 1954 003a 30BD     		pop	{r4, r5, pc}
 1955              		.cfi_endproc
 1956              	.LFE159:
 1958              		.section	.text.VL53L0X_SetXTalkCompensationEnable,"ax",%progbits
 1959              		.align	2
 1960              		.global	VL53L0X_SetXTalkCompensationEnable
 1961              		.thumb
 1962              		.thumb_func
 1964              	VL53L0X_SetXTalkCompensationEnable:
 1965              	.LFB160:
1389:../Drivers/BSP/Components/vl53l0x/vl53l0x_api.c **** 
1390:../Drivers/BSP/Components/vl53l0x/vl53l0x_api.c **** VL53L0X_Error VL53L0X_SetXTalkCompensationEnable(VL53L0X_DEV Dev,
1391:../Drivers/BSP/Components/vl53l0x/vl53l0x_api.c **** 	uint8_t XTalkCompensationEnable)
1392:../Drivers/BSP/Components/vl53l0x/vl53l0x_api.c **** {
 1966              		.loc 1 1392 0
 1967              		.cfi_startproc
 1968              		@ args = 0, pretend = 0, frame = 0
 1969              		@ frame_needed = 0, uses_anonymous_args = 0
 1970              	.LVL237:
 1971 0000 38B5     		push	{r3, r4, r5, lr}
 1972              	.LCFI52:
 1973              		.cfi_def_cfa_offset 16
 1974              		.cfi_offset 3, -16
 1975              		.cfi_offset 4, -12
 1976              		.cfi_offset 5, -8
 1977              		.cfi_offset 14, -4
 1978 0002 0446     		mov	r4, r0
 1979              	.LVL238:
1393:../Drivers/BSP/Components/vl53l0x/vl53l0x_api.c **** 	VL53L0X_Error Status = VL53L0X_ERROR_NONE;
1394:../Drivers/BSP/Components/vl53l0x/vl53l0x_api.c **** 	FixPoint1616_t TempFix1616;
1395:../Drivers/BSP/Components/vl53l0x/vl53l0x_api.c **** 	uint16_t LinearityCorrectiveGain;
1396:../Drivers/BSP/Components/vl53l0x/vl53l0x_api.c **** 
1397:../Drivers/BSP/Components/vl53l0x/vl53l0x_api.c **** 	LOG_FUNCTION_START("");
1398:../Drivers/BSP/Components/vl53l0x/vl53l0x_api.c **** 
1399:../Drivers/BSP/Components/vl53l0x/vl53l0x_api.c **** 	LinearityCorrectiveGain = PALDevDataGet(Dev, LinearityCorrectiveGain);
 1980              		.loc 1 1399 0
ARM GAS  /tmp/ccflrS73.s 			page 59


 1981 0004 B0F85231 		ldrh	r3, [r0, #338]
 1982              	.LVL239:
1400:../Drivers/BSP/Components/vl53l0x/vl53l0x_api.c **** 
1401:../Drivers/BSP/Components/vl53l0x/vl53l0x_api.c **** 	if ((XTalkCompensationEnable == 0)
 1983              		.loc 1 1401 0
 1984 0008 0D46     		mov	r5, r1
 1985 000a 21B1     		cbz	r1, .L142
1402:../Drivers/BSP/Components/vl53l0x/vl53l0x_api.c **** 		|| (LinearityCorrectiveGain != 1000)) {
 1986              		.loc 1 1402 0
 1987 000c B3F57A7F 		cmp	r3, #1000
 1988 0010 03D1     		bne	.L143
1403:../Drivers/BSP/Components/vl53l0x/vl53l0x_api.c **** 		TempFix1616 = 0;
1404:../Drivers/BSP/Components/vl53l0x/vl53l0x_api.c **** 	} else {
1405:../Drivers/BSP/Components/vl53l0x/vl53l0x_api.c **** 		VL53L0X_GETPARAMETERFIELD(Dev, XTalkCompensationRateMegaCps,
 1989              		.loc 1 1405 0
 1990 0012 026A     		ldr	r2, [r0, #32]
 1991              	.LVL240:
 1992 0014 02E0     		b	.L139
 1993              	.LVL241:
 1994              	.L142:
1403:../Drivers/BSP/Components/vl53l0x/vl53l0x_api.c **** 		TempFix1616 = 0;
 1995              		.loc 1 1403 0
 1996 0016 0022     		movs	r2, #0
 1997 0018 00E0     		b	.L139
 1998              	.L143:
 1999 001a 0022     		movs	r2, #0
 2000              	.L139:
 2001              	.LVL242:
1406:../Drivers/BSP/Components/vl53l0x/vl53l0x_api.c **** 			TempFix1616);
1407:../Drivers/BSP/Components/vl53l0x/vl53l0x_api.c **** 	}
1408:../Drivers/BSP/Components/vl53l0x/vl53l0x_api.c **** 
1409:../Drivers/BSP/Components/vl53l0x/vl53l0x_api.c **** 	/* the following register has a format 3.13 */
1410:../Drivers/BSP/Components/vl53l0x/vl53l0x_api.c **** 	Status = VL53L0X_WrWord(Dev,
 2002              		.loc 1 1410 0
 2003 001c 2046     		mov	r0, r4
 2004              	.LVL243:
 2005 001e 2021     		movs	r1, #32
 2006              	.LVL244:
 2007 0020 C2F3CF02 		ubfx	r2, r2, #3, #16
 2008              	.LVL245:
 2009 0024 FFF7FEFF 		bl	VL53L0X_WrWord
 2010              	.LVL246:
1411:../Drivers/BSP/Components/vl53l0x/vl53l0x_api.c **** 	VL53L0X_REG_CROSSTALK_COMPENSATION_PEAK_RATE_MCPS,
1412:../Drivers/BSP/Components/vl53l0x/vl53l0x_api.c **** 		VL53L0X_FIXPOINT1616TOFIXPOINT313(TempFix1616));
1413:../Drivers/BSP/Components/vl53l0x/vl53l0x_api.c **** 
1414:../Drivers/BSP/Components/vl53l0x/vl53l0x_api.c **** 	if (Status == VL53L0X_ERROR_NONE) {
 2011              		.loc 1 1414 0
 2012 0028 0346     		mov	r3, r0
 2013 002a 28B9     		cbnz	r0, .L140
1415:../Drivers/BSP/Components/vl53l0x/vl53l0x_api.c **** 		if (XTalkCompensationEnable == 0) {
 2014              		.loc 1 1415 0
 2015 002c 15B9     		cbnz	r5, .L141
1416:../Drivers/BSP/Components/vl53l0x/vl53l0x_api.c **** 			VL53L0X_SETPARAMETERFIELD(Dev, XTalkCompensationEnable,
 2016              		.loc 1 1416 0
 2017 002e 0022     		movs	r2, #0
 2018 0030 2277     		strb	r2, [r4, #28]
 2019 0032 01E0     		b	.L140
ARM GAS  /tmp/ccflrS73.s 			page 60


 2020              	.L141:
1417:../Drivers/BSP/Components/vl53l0x/vl53l0x_api.c **** 				0);
1418:../Drivers/BSP/Components/vl53l0x/vl53l0x_api.c **** 		} else {
1419:../Drivers/BSP/Components/vl53l0x/vl53l0x_api.c **** 			VL53L0X_SETPARAMETERFIELD(Dev, XTalkCompensationEnable,
 2021              		.loc 1 1419 0
 2022 0034 0122     		movs	r2, #1
 2023 0036 2277     		strb	r2, [r4, #28]
 2024              	.L140:
1420:../Drivers/BSP/Components/vl53l0x/vl53l0x_api.c **** 				1);
1421:../Drivers/BSP/Components/vl53l0x/vl53l0x_api.c **** 		}
1422:../Drivers/BSP/Components/vl53l0x/vl53l0x_api.c **** 	}
1423:../Drivers/BSP/Components/vl53l0x/vl53l0x_api.c **** 
1424:../Drivers/BSP/Components/vl53l0x/vl53l0x_api.c **** 	LOG_FUNCTION_END(Status);
1425:../Drivers/BSP/Components/vl53l0x/vl53l0x_api.c **** 	return Status;
1426:../Drivers/BSP/Components/vl53l0x/vl53l0x_api.c **** }
 2025              		.loc 1 1426 0
 2026 0038 1846     		mov	r0, r3
 2027              	.LVL247:
 2028 003a 38BD     		pop	{r3, r4, r5, pc}
 2029              		.cfi_endproc
 2030              	.LFE160:
 2032              		.section	.text.VL53L0X_GetXTalkCompensationEnable,"ax",%progbits
 2033              		.align	2
 2034              		.global	VL53L0X_GetXTalkCompensationEnable
 2035              		.thumb
 2036              		.thumb_func
 2038              	VL53L0X_GetXTalkCompensationEnable:
 2039              	.LFB161:
1427:../Drivers/BSP/Components/vl53l0x/vl53l0x_api.c **** 
1428:../Drivers/BSP/Components/vl53l0x/vl53l0x_api.c **** VL53L0X_Error VL53L0X_GetXTalkCompensationEnable(VL53L0X_DEV Dev,
1429:../Drivers/BSP/Components/vl53l0x/vl53l0x_api.c **** 	uint8_t *pXTalkCompensationEnable)
1430:../Drivers/BSP/Components/vl53l0x/vl53l0x_api.c **** {
 2040              		.loc 1 1430 0
 2041              		.cfi_startproc
 2042              		@ args = 0, pretend = 0, frame = 0
 2043              		@ frame_needed = 0, uses_anonymous_args = 0
 2044              		@ link register save eliminated.
 2045              	.LVL248:
1431:../Drivers/BSP/Components/vl53l0x/vl53l0x_api.c **** 	VL53L0X_Error Status = VL53L0X_ERROR_NONE;
1432:../Drivers/BSP/Components/vl53l0x/vl53l0x_api.c **** 	uint8_t Temp8;
1433:../Drivers/BSP/Components/vl53l0x/vl53l0x_api.c **** 	LOG_FUNCTION_START("");
1434:../Drivers/BSP/Components/vl53l0x/vl53l0x_api.c **** 
1435:../Drivers/BSP/Components/vl53l0x/vl53l0x_api.c **** 	VL53L0X_GETPARAMETERFIELD(Dev, XTalkCompensationEnable, Temp8);
 2046              		.loc 1 1435 0
 2047 0000 037F     		ldrb	r3, [r0, #28]	@ zero_extendqisi2
 2048              	.LVL249:
1436:../Drivers/BSP/Components/vl53l0x/vl53l0x_api.c **** 	*pXTalkCompensationEnable = Temp8;
 2049              		.loc 1 1436 0
 2050 0002 0B70     		strb	r3, [r1]
1437:../Drivers/BSP/Components/vl53l0x/vl53l0x_api.c **** 
1438:../Drivers/BSP/Components/vl53l0x/vl53l0x_api.c **** 	LOG_FUNCTION_END(Status);
1439:../Drivers/BSP/Components/vl53l0x/vl53l0x_api.c **** 	return Status;
1440:../Drivers/BSP/Components/vl53l0x/vl53l0x_api.c **** }
 2051              		.loc 1 1440 0
 2052 0004 0020     		movs	r0, #0
 2053              	.LVL250:
 2054 0006 7047     		bx	lr
ARM GAS  /tmp/ccflrS73.s 			page 61


 2055              		.cfi_endproc
 2056              	.LFE161:
 2058              		.section	.text.VL53L0X_SetXTalkCompensationRateMegaCps,"ax",%progbits
 2059              		.align	2
 2060              		.global	VL53L0X_SetXTalkCompensationRateMegaCps
 2061              		.thumb
 2062              		.thumb_func
 2064              	VL53L0X_SetXTalkCompensationRateMegaCps:
 2065              	.LFB162:
1441:../Drivers/BSP/Components/vl53l0x/vl53l0x_api.c **** 
1442:../Drivers/BSP/Components/vl53l0x/vl53l0x_api.c **** VL53L0X_Error VL53L0X_SetXTalkCompensationRateMegaCps(VL53L0X_DEV Dev,
1443:../Drivers/BSP/Components/vl53l0x/vl53l0x_api.c **** 	FixPoint1616_t XTalkCompensationRateMegaCps)
1444:../Drivers/BSP/Components/vl53l0x/vl53l0x_api.c **** {
 2066              		.loc 1 1444 0
 2067              		.cfi_startproc
 2068              		@ args = 0, pretend = 0, frame = 0
 2069              		@ frame_needed = 0, uses_anonymous_args = 0
 2070              	.LVL251:
 2071 0000 38B5     		push	{r3, r4, r5, lr}
 2072              	.LCFI53:
 2073              		.cfi_def_cfa_offset 16
 2074              		.cfi_offset 3, -16
 2075              		.cfi_offset 4, -12
 2076              		.cfi_offset 5, -8
 2077              		.cfi_offset 14, -4
 2078              	.LVL252:
1445:../Drivers/BSP/Components/vl53l0x/vl53l0x_api.c **** 	VL53L0X_Error Status = VL53L0X_ERROR_NONE;
1446:../Drivers/BSP/Components/vl53l0x/vl53l0x_api.c **** 	uint8_t Temp8;
1447:../Drivers/BSP/Components/vl53l0x/vl53l0x_api.c **** 	uint16_t LinearityCorrectiveGain;
1448:../Drivers/BSP/Components/vl53l0x/vl53l0x_api.c **** 	uint16_t data;
1449:../Drivers/BSP/Components/vl53l0x/vl53l0x_api.c **** 	LOG_FUNCTION_START("");
1450:../Drivers/BSP/Components/vl53l0x/vl53l0x_api.c **** 
1451:../Drivers/BSP/Components/vl53l0x/vl53l0x_api.c **** 	VL53L0X_GETPARAMETERFIELD(Dev, XTalkCompensationEnable, Temp8);
 2079              		.loc 1 1451 0
 2080 0002 037F     		ldrb	r3, [r0, #28]	@ zero_extendqisi2
 2081              	.LVL253:
1452:../Drivers/BSP/Components/vl53l0x/vl53l0x_api.c **** 	LinearityCorrectiveGain = PALDevDataGet(Dev, LinearityCorrectiveGain);
 2082              		.loc 1 1452 0
 2083 0004 B0F85221 		ldrh	r2, [r0, #338]
 2084              	.LVL254:
1453:../Drivers/BSP/Components/vl53l0x/vl53l0x_api.c **** 
1454:../Drivers/BSP/Components/vl53l0x/vl53l0x_api.c **** 	if (Temp8 == 0) { /* disabled write only internal value */
 2085              		.loc 1 1454 0
 2086 0008 0BB9     		cbnz	r3, .L147
1455:../Drivers/BSP/Components/vl53l0x/vl53l0x_api.c **** 		VL53L0X_SETPARAMETERFIELD(Dev, XTalkCompensationRateMegaCps,
 2087              		.loc 1 1455 0
 2088 000a 0162     		str	r1, [r0, #32]
 2089 000c 0EE0     		b	.L148
 2090              	.L147:
1456:../Drivers/BSP/Components/vl53l0x/vl53l0x_api.c **** 			XTalkCompensationRateMegaCps);
1457:../Drivers/BSP/Components/vl53l0x/vl53l0x_api.c **** 	} else {
1458:../Drivers/BSP/Components/vl53l0x/vl53l0x_api.c **** 		/* the following register has a format 3.13 */
1459:../Drivers/BSP/Components/vl53l0x/vl53l0x_api.c **** 		if (LinearityCorrectiveGain == 1000) {
 2091              		.loc 1 1459 0
 2092 000e B2F57A7F 		cmp	r2, #1000
 2093 0012 02D1     		bne	.L150
1460:../Drivers/BSP/Components/vl53l0x/vl53l0x_api.c **** 			data = VL53L0X_FIXPOINT1616TOFIXPOINT313(
ARM GAS  /tmp/ccflrS73.s 			page 62


 2094              		.loc 1 1460 0
 2095 0014 C1F3CF02 		ubfx	r2, r1, #3, #16
 2096              	.LVL255:
 2097 0018 00E0     		b	.L149
 2098              	.LVL256:
 2099              	.L150:
1461:../Drivers/BSP/Components/vl53l0x/vl53l0x_api.c **** 				XTalkCompensationRateMegaCps);
1462:../Drivers/BSP/Components/vl53l0x/vl53l0x_api.c **** 		} else {
1463:../Drivers/BSP/Components/vl53l0x/vl53l0x_api.c **** 			data = 0;
 2100              		.loc 1 1463 0
 2101 001a 0022     		movs	r2, #0
 2102              	.LVL257:
 2103              	.L149:
 2104 001c 0D46     		mov	r5, r1
 2105 001e 0446     		mov	r4, r0
 2106              	.LVL258:
1464:../Drivers/BSP/Components/vl53l0x/vl53l0x_api.c **** 		}
1465:../Drivers/BSP/Components/vl53l0x/vl53l0x_api.c **** 
1466:../Drivers/BSP/Components/vl53l0x/vl53l0x_api.c **** 		Status = VL53L0X_WrWord(Dev,
 2107              		.loc 1 1466 0
 2108 0020 2021     		movs	r1, #32
 2109              	.LVL259:
 2110 0022 FFF7FEFF 		bl	VL53L0X_WrWord
 2111              	.LVL260:
1467:../Drivers/BSP/Components/vl53l0x/vl53l0x_api.c **** 		VL53L0X_REG_CROSSTALK_COMPENSATION_PEAK_RATE_MCPS, data);
1468:../Drivers/BSP/Components/vl53l0x/vl53l0x_api.c **** 
1469:../Drivers/BSP/Components/vl53l0x/vl53l0x_api.c **** 		if (Status == VL53L0X_ERROR_NONE) {
 2112              		.loc 1 1469 0
 2113 0026 0346     		mov	r3, r0
 2114 0028 00B9     		cbnz	r0, .L148
1470:../Drivers/BSP/Components/vl53l0x/vl53l0x_api.c **** 			VL53L0X_SETPARAMETERFIELD(Dev,
 2115              		.loc 1 1470 0
 2116 002a 2562     		str	r5, [r4, #32]
 2117              	.LVL261:
 2118              	.L148:
1471:../Drivers/BSP/Components/vl53l0x/vl53l0x_api.c **** 				XTalkCompensationRateMegaCps,
1472:../Drivers/BSP/Components/vl53l0x/vl53l0x_api.c **** 				XTalkCompensationRateMegaCps);
1473:../Drivers/BSP/Components/vl53l0x/vl53l0x_api.c **** 		}
1474:../Drivers/BSP/Components/vl53l0x/vl53l0x_api.c **** 	}
1475:../Drivers/BSP/Components/vl53l0x/vl53l0x_api.c **** 
1476:../Drivers/BSP/Components/vl53l0x/vl53l0x_api.c **** 	LOG_FUNCTION_END(Status);
1477:../Drivers/BSP/Components/vl53l0x/vl53l0x_api.c **** 	return Status;
1478:../Drivers/BSP/Components/vl53l0x/vl53l0x_api.c **** }
 2119              		.loc 1 1478 0
 2120 002c 58B2     		sxtb	r0, r3
 2121 002e 38BD     		pop	{r3, r4, r5, pc}
 2122              		.cfi_endproc
 2123              	.LFE162:
 2125              		.section	.text.VL53L0X_GetXTalkCompensationRateMegaCps,"ax",%progbits
 2126              		.align	2
 2127              		.global	VL53L0X_GetXTalkCompensationRateMegaCps
 2128              		.thumb
 2129              		.thumb_func
 2131              	VL53L0X_GetXTalkCompensationRateMegaCps:
 2132              	.LFB163:
1479:../Drivers/BSP/Components/vl53l0x/vl53l0x_api.c **** 
1480:../Drivers/BSP/Components/vl53l0x/vl53l0x_api.c **** VL53L0X_Error VL53L0X_GetXTalkCompensationRateMegaCps(VL53L0X_DEV Dev,
ARM GAS  /tmp/ccflrS73.s 			page 63


1481:../Drivers/BSP/Components/vl53l0x/vl53l0x_api.c **** 	FixPoint1616_t *pXTalkCompensationRateMegaCps)
1482:../Drivers/BSP/Components/vl53l0x/vl53l0x_api.c **** {
 2133              		.loc 1 1482 0
 2134              		.cfi_startproc
 2135              		@ args = 0, pretend = 0, frame = 8
 2136              		@ frame_needed = 0, uses_anonymous_args = 0
 2137              	.LVL262:
 2138 0000 30B5     		push	{r4, r5, lr}
 2139              	.LCFI54:
 2140              		.cfi_def_cfa_offset 12
 2141              		.cfi_offset 4, -12
 2142              		.cfi_offset 5, -8
 2143              		.cfi_offset 14, -4
 2144 0002 83B0     		sub	sp, sp, #12
 2145              	.LCFI55:
 2146              		.cfi_def_cfa_offset 24
 2147 0004 0446     		mov	r4, r0
 2148 0006 0D46     		mov	r5, r1
 2149              	.LVL263:
1483:../Drivers/BSP/Components/vl53l0x/vl53l0x_api.c **** 	VL53L0X_Error Status = VL53L0X_ERROR_NONE;
1484:../Drivers/BSP/Components/vl53l0x/vl53l0x_api.c **** 	uint16_t Value;
1485:../Drivers/BSP/Components/vl53l0x/vl53l0x_api.c **** 	FixPoint1616_t TempFix1616;
1486:../Drivers/BSP/Components/vl53l0x/vl53l0x_api.c **** 
1487:../Drivers/BSP/Components/vl53l0x/vl53l0x_api.c **** 	LOG_FUNCTION_START("");
1488:../Drivers/BSP/Components/vl53l0x/vl53l0x_api.c **** 
1489:../Drivers/BSP/Components/vl53l0x/vl53l0x_api.c **** 	Status = VL53L0X_RdWord(Dev,
 2150              		.loc 1 1489 0
 2151 0008 2021     		movs	r1, #32
 2152              	.LVL264:
 2153 000a 0DF10602 		add	r2, sp, #6
 2154 000e FFF7FEFF 		bl	VL53L0X_RdWord
 2155              	.LVL265:
1490:../Drivers/BSP/Components/vl53l0x/vl53l0x_api.c **** 	VL53L0X_REG_CROSSTALK_COMPENSATION_PEAK_RATE_MCPS, (uint16_t *)&Value);
1491:../Drivers/BSP/Components/vl53l0x/vl53l0x_api.c **** 	if (Status == VL53L0X_ERROR_NONE) {
 2156              		.loc 1 1491 0
 2157 0012 0246     		mov	r2, r0
 2158 0014 60B9     		cbnz	r0, .L153
1492:../Drivers/BSP/Components/vl53l0x/vl53l0x_api.c **** 		if (Value == 0) {
 2159              		.loc 1 1492 0
 2160 0016 BDF80630 		ldrh	r3, [sp, #6]
 2161 001a 23B9     		cbnz	r3, .L154
1493:../Drivers/BSP/Components/vl53l0x/vl53l0x_api.c **** 			/* the Xtalk is disabled return value from memory */
1494:../Drivers/BSP/Components/vl53l0x/vl53l0x_api.c **** 			VL53L0X_GETPARAMETERFIELD(Dev,
 2162              		.loc 1 1494 0
 2163 001c 236A     		ldr	r3, [r4, #32]
 2164              	.LVL266:
1495:../Drivers/BSP/Components/vl53l0x/vl53l0x_api.c **** 				XTalkCompensationRateMegaCps, TempFix1616);
1496:../Drivers/BSP/Components/vl53l0x/vl53l0x_api.c **** 			*pXTalkCompensationRateMegaCps = TempFix1616;
 2165              		.loc 1 1496 0
 2166 001e 2B60     		str	r3, [r5]
1497:../Drivers/BSP/Components/vl53l0x/vl53l0x_api.c **** 			VL53L0X_SETPARAMETERFIELD(Dev, XTalkCompensationEnable,
 2167              		.loc 1 1497 0
 2168 0020 0023     		movs	r3, #0
 2169              	.LVL267:
 2170 0022 2377     		strb	r3, [r4, #28]
 2171              	.LVL268:
 2172 0024 04E0     		b	.L153
ARM GAS  /tmp/ccflrS73.s 			page 64


 2173              	.L154:
1498:../Drivers/BSP/Components/vl53l0x/vl53l0x_api.c **** 				0);
1499:../Drivers/BSP/Components/vl53l0x/vl53l0x_api.c **** 		} else {
1500:../Drivers/BSP/Components/vl53l0x/vl53l0x_api.c **** 			TempFix1616 = VL53L0X_FIXPOINT313TOFIXPOINT1616(Value);
 2174              		.loc 1 1500 0
 2175 0026 DB00     		lsls	r3, r3, #3
 2176              	.LVL269:
1501:../Drivers/BSP/Components/vl53l0x/vl53l0x_api.c **** 			*pXTalkCompensationRateMegaCps = TempFix1616;
 2177              		.loc 1 1501 0
 2178 0028 2B60     		str	r3, [r5]
1502:../Drivers/BSP/Components/vl53l0x/vl53l0x_api.c **** 			VL53L0X_SETPARAMETERFIELD(Dev,
 2179              		.loc 1 1502 0
 2180 002a 2362     		str	r3, [r4, #32]
1503:../Drivers/BSP/Components/vl53l0x/vl53l0x_api.c **** 				XTalkCompensationRateMegaCps, TempFix1616);
1504:../Drivers/BSP/Components/vl53l0x/vl53l0x_api.c **** 			VL53L0X_SETPARAMETERFIELD(Dev, XTalkCompensationEnable,
 2181              		.loc 1 1504 0
 2182 002c 0123     		movs	r3, #1
 2183              	.LVL270:
 2184 002e 2377     		strb	r3, [r4, #28]
 2185              	.LVL271:
 2186              	.L153:
1505:../Drivers/BSP/Components/vl53l0x/vl53l0x_api.c **** 				1);
1506:../Drivers/BSP/Components/vl53l0x/vl53l0x_api.c **** 		}
1507:../Drivers/BSP/Components/vl53l0x/vl53l0x_api.c **** 	}
1508:../Drivers/BSP/Components/vl53l0x/vl53l0x_api.c **** 
1509:../Drivers/BSP/Components/vl53l0x/vl53l0x_api.c **** 	LOG_FUNCTION_END(Status);
1510:../Drivers/BSP/Components/vl53l0x/vl53l0x_api.c **** 	return Status;
1511:../Drivers/BSP/Components/vl53l0x/vl53l0x_api.c **** }
 2187              		.loc 1 1511 0
 2188 0030 1046     		mov	r0, r2
 2189              	.LVL272:
 2190 0032 03B0     		add	sp, sp, #12
 2191              	.LCFI56:
 2192              		.cfi_def_cfa_offset 12
 2193              		@ sp needed
 2194 0034 30BD     		pop	{r4, r5, pc}
 2195              		.cfi_endproc
 2196              	.LFE163:
 2198 0036 00BF     		.section	.text.VL53L0X_SetRefCalibration,"ax",%progbits
 2199              		.align	2
 2200              		.global	VL53L0X_SetRefCalibration
 2201              		.thumb
 2202              		.thumb_func
 2204              	VL53L0X_SetRefCalibration:
 2205              	.LFB164:
1512:../Drivers/BSP/Components/vl53l0x/vl53l0x_api.c **** 
1513:../Drivers/BSP/Components/vl53l0x/vl53l0x_api.c **** VL53L0X_Error VL53L0X_SetRefCalibration(VL53L0X_DEV Dev, uint8_t VhvSettings,
1514:../Drivers/BSP/Components/vl53l0x/vl53l0x_api.c **** 	uint8_t PhaseCal)
1515:../Drivers/BSP/Components/vl53l0x/vl53l0x_api.c **** {
 2206              		.loc 1 1515 0
 2207              		.cfi_startproc
 2208              		@ args = 0, pretend = 0, frame = 0
 2209              		@ frame_needed = 0, uses_anonymous_args = 0
 2210              	.LVL273:
 2211 0000 08B5     		push	{r3, lr}
 2212              	.LCFI57:
 2213              		.cfi_def_cfa_offset 8
ARM GAS  /tmp/ccflrS73.s 			page 65


 2214              		.cfi_offset 3, -8
 2215              		.cfi_offset 14, -4
 2216              	.LVL274:
1516:../Drivers/BSP/Components/vl53l0x/vl53l0x_api.c **** 	VL53L0X_Error Status = VL53L0X_ERROR_NONE;
1517:../Drivers/BSP/Components/vl53l0x/vl53l0x_api.c **** 	LOG_FUNCTION_START("");
1518:../Drivers/BSP/Components/vl53l0x/vl53l0x_api.c **** 
1519:../Drivers/BSP/Components/vl53l0x/vl53l0x_api.c **** 	Status = VL53L0X_set_ref_calibration(Dev, VhvSettings, PhaseCal);
 2217              		.loc 1 1519 0
 2218 0002 FFF7FEFF 		bl	VL53L0X_set_ref_calibration
 2219              	.LVL275:
1520:../Drivers/BSP/Components/vl53l0x/vl53l0x_api.c **** 
1521:../Drivers/BSP/Components/vl53l0x/vl53l0x_api.c **** 	LOG_FUNCTION_END(Status);
1522:../Drivers/BSP/Components/vl53l0x/vl53l0x_api.c **** 	return Status;
1523:../Drivers/BSP/Components/vl53l0x/vl53l0x_api.c **** }
 2220              		.loc 1 1523 0
 2221 0006 08BD     		pop	{r3, pc}
 2222              		.cfi_endproc
 2223              	.LFE164:
 2225              		.section	.text.VL53L0X_GetRefCalibration,"ax",%progbits
 2226              		.align	2
 2227              		.global	VL53L0X_GetRefCalibration
 2228              		.thumb
 2229              		.thumb_func
 2231              	VL53L0X_GetRefCalibration:
 2232              	.LFB165:
1524:../Drivers/BSP/Components/vl53l0x/vl53l0x_api.c **** 
1525:../Drivers/BSP/Components/vl53l0x/vl53l0x_api.c **** VL53L0X_Error VL53L0X_GetRefCalibration(VL53L0X_DEV Dev, uint8_t *pVhvSettings,
1526:../Drivers/BSP/Components/vl53l0x/vl53l0x_api.c **** 	uint8_t *pPhaseCal)
1527:../Drivers/BSP/Components/vl53l0x/vl53l0x_api.c **** {
 2233              		.loc 1 1527 0
 2234              		.cfi_startproc
 2235              		@ args = 0, pretend = 0, frame = 0
 2236              		@ frame_needed = 0, uses_anonymous_args = 0
 2237              	.LVL276:
 2238 0000 08B5     		push	{r3, lr}
 2239              	.LCFI58:
 2240              		.cfi_def_cfa_offset 8
 2241              		.cfi_offset 3, -8
 2242              		.cfi_offset 14, -4
 2243              	.LVL277:
1528:../Drivers/BSP/Components/vl53l0x/vl53l0x_api.c **** 	VL53L0X_Error Status = VL53L0X_ERROR_NONE;
1529:../Drivers/BSP/Components/vl53l0x/vl53l0x_api.c **** 	LOG_FUNCTION_START("");
1530:../Drivers/BSP/Components/vl53l0x/vl53l0x_api.c **** 
1531:../Drivers/BSP/Components/vl53l0x/vl53l0x_api.c **** 	Status = VL53L0X_get_ref_calibration(Dev, pVhvSettings, pPhaseCal);
 2244              		.loc 1 1531 0
 2245 0002 FFF7FEFF 		bl	VL53L0X_get_ref_calibration
 2246              	.LVL278:
1532:../Drivers/BSP/Components/vl53l0x/vl53l0x_api.c **** 
1533:../Drivers/BSP/Components/vl53l0x/vl53l0x_api.c **** 	LOG_FUNCTION_END(Status);
1534:../Drivers/BSP/Components/vl53l0x/vl53l0x_api.c **** 	return Status;
1535:../Drivers/BSP/Components/vl53l0x/vl53l0x_api.c **** }
 2247              		.loc 1 1535 0
 2248 0006 08BD     		pop	{r3, pc}
 2249              		.cfi_endproc
 2250              	.LFE165:
 2252              		.section	.text.VL53L0X_GetNumberOfLimitCheck,"ax",%progbits
 2253              		.align	2
ARM GAS  /tmp/ccflrS73.s 			page 66


 2254              		.global	VL53L0X_GetNumberOfLimitCheck
 2255              		.thumb
 2256              		.thumb_func
 2258              	VL53L0X_GetNumberOfLimitCheck:
 2259              	.LFB166:
1536:../Drivers/BSP/Components/vl53l0x/vl53l0x_api.c **** 
1537:../Drivers/BSP/Components/vl53l0x/vl53l0x_api.c **** /*
1538:../Drivers/BSP/Components/vl53l0x/vl53l0x_api.c ****  * CHECK LIMIT FUNCTIONS
1539:../Drivers/BSP/Components/vl53l0x/vl53l0x_api.c ****  */
1540:../Drivers/BSP/Components/vl53l0x/vl53l0x_api.c **** 
1541:../Drivers/BSP/Components/vl53l0x/vl53l0x_api.c **** VL53L0X_Error VL53L0X_GetNumberOfLimitCheck(uint16_t *pNumberOfLimitCheck)
1542:../Drivers/BSP/Components/vl53l0x/vl53l0x_api.c **** {
 2260              		.loc 1 1542 0
 2261              		.cfi_startproc
 2262              		@ args = 0, pretend = 0, frame = 0
 2263              		@ frame_needed = 0, uses_anonymous_args = 0
 2264              		@ link register save eliminated.
 2265              	.LVL279:
1543:../Drivers/BSP/Components/vl53l0x/vl53l0x_api.c **** 	VL53L0X_Error Status = VL53L0X_ERROR_NONE;
1544:../Drivers/BSP/Components/vl53l0x/vl53l0x_api.c **** 	LOG_FUNCTION_START("");
1545:../Drivers/BSP/Components/vl53l0x/vl53l0x_api.c **** 
1546:../Drivers/BSP/Components/vl53l0x/vl53l0x_api.c **** 	*pNumberOfLimitCheck = VL53L0X_CHECKENABLE_NUMBER_OF_CHECKS;
 2266              		.loc 1 1546 0
 2267 0000 0623     		movs	r3, #6
 2268 0002 0380     		strh	r3, [r0]	@ movhi
1547:../Drivers/BSP/Components/vl53l0x/vl53l0x_api.c **** 
1548:../Drivers/BSP/Components/vl53l0x/vl53l0x_api.c **** 	LOG_FUNCTION_END(Status);
1549:../Drivers/BSP/Components/vl53l0x/vl53l0x_api.c **** 	return Status;
1550:../Drivers/BSP/Components/vl53l0x/vl53l0x_api.c **** }
 2269              		.loc 1 1550 0
 2270 0004 0020     		movs	r0, #0
 2271              	.LVL280:
 2272 0006 7047     		bx	lr
 2273              		.cfi_endproc
 2274              	.LFE166:
 2276              		.section	.text.VL53L0X_GetLimitCheckInfo,"ax",%progbits
 2277              		.align	2
 2278              		.global	VL53L0X_GetLimitCheckInfo
 2279              		.thumb
 2280              		.thumb_func
 2282              	VL53L0X_GetLimitCheckInfo:
 2283              	.LFB167:
1551:../Drivers/BSP/Components/vl53l0x/vl53l0x_api.c **** 
1552:../Drivers/BSP/Components/vl53l0x/vl53l0x_api.c **** VL53L0X_Error VL53L0X_GetLimitCheckInfo(VL53L0X_DEV Dev, uint16_t LimitCheckId,
1553:../Drivers/BSP/Components/vl53l0x/vl53l0x_api.c **** 	char *pLimitCheckString)
1554:../Drivers/BSP/Components/vl53l0x/vl53l0x_api.c **** {
 2284              		.loc 1 1554 0
 2285              		.cfi_startproc
 2286              		@ args = 0, pretend = 0, frame = 0
 2287              		@ frame_needed = 0, uses_anonymous_args = 0
 2288              	.LVL281:
 2289 0000 08B5     		push	{r3, lr}
 2290              	.LCFI59:
 2291              		.cfi_def_cfa_offset 8
 2292              		.cfi_offset 3, -8
 2293              		.cfi_offset 14, -4
 2294              	.LVL282:
ARM GAS  /tmp/ccflrS73.s 			page 67


1555:../Drivers/BSP/Components/vl53l0x/vl53l0x_api.c **** 	VL53L0X_Error Status = VL53L0X_ERROR_NONE;
1556:../Drivers/BSP/Components/vl53l0x/vl53l0x_api.c **** 
1557:../Drivers/BSP/Components/vl53l0x/vl53l0x_api.c **** 	LOG_FUNCTION_START("");
1558:../Drivers/BSP/Components/vl53l0x/vl53l0x_api.c **** 
1559:../Drivers/BSP/Components/vl53l0x/vl53l0x_api.c **** 	Status = VL53L0X_get_limit_check_info(Dev, LimitCheckId,
 2295              		.loc 1 1559 0
 2296 0002 FFF7FEFF 		bl	VL53L0X_get_limit_check_info
 2297              	.LVL283:
1560:../Drivers/BSP/Components/vl53l0x/vl53l0x_api.c **** 		pLimitCheckString);
1561:../Drivers/BSP/Components/vl53l0x/vl53l0x_api.c **** 
1562:../Drivers/BSP/Components/vl53l0x/vl53l0x_api.c **** 	LOG_FUNCTION_END(Status);
1563:../Drivers/BSP/Components/vl53l0x/vl53l0x_api.c **** 	return Status;
1564:../Drivers/BSP/Components/vl53l0x/vl53l0x_api.c **** }
 2298              		.loc 1 1564 0
 2299 0006 08BD     		pop	{r3, pc}
 2300              		.cfi_endproc
 2301              	.LFE167:
 2303              		.section	.text.VL53L0X_GetLimitCheckStatus,"ax",%progbits
 2304              		.align	2
 2305              		.global	VL53L0X_GetLimitCheckStatus
 2306              		.thumb
 2307              		.thumb_func
 2309              	VL53L0X_GetLimitCheckStatus:
 2310              	.LFB168:
1565:../Drivers/BSP/Components/vl53l0x/vl53l0x_api.c **** 
1566:../Drivers/BSP/Components/vl53l0x/vl53l0x_api.c **** VL53L0X_Error VL53L0X_GetLimitCheckStatus(VL53L0X_DEV Dev, uint16_t LimitCheckId,
1567:../Drivers/BSP/Components/vl53l0x/vl53l0x_api.c **** 	uint8_t *pLimitCheckStatus)
1568:../Drivers/BSP/Components/vl53l0x/vl53l0x_api.c **** {
 2311              		.loc 1 1568 0
 2312              		.cfi_startproc
 2313              		@ args = 0, pretend = 0, frame = 0
 2314              		@ frame_needed = 0, uses_anonymous_args = 0
 2315              		@ link register save eliminated.
 2316              	.LVL284:
1569:../Drivers/BSP/Components/vl53l0x/vl53l0x_api.c **** 	VL53L0X_Error Status = VL53L0X_ERROR_NONE;
1570:../Drivers/BSP/Components/vl53l0x/vl53l0x_api.c **** 	uint8_t Temp8;
1571:../Drivers/BSP/Components/vl53l0x/vl53l0x_api.c **** 
1572:../Drivers/BSP/Components/vl53l0x/vl53l0x_api.c **** 	LOG_FUNCTION_START("");
1573:../Drivers/BSP/Components/vl53l0x/vl53l0x_api.c **** 
1574:../Drivers/BSP/Components/vl53l0x/vl53l0x_api.c **** 	if (LimitCheckId >= VL53L0X_CHECKENABLE_NUMBER_OF_CHECKS) {
 2317              		.loc 1 1574 0
 2318 0000 0529     		cmp	r1, #5
 2319 0002 05D8     		bhi	.L165
1575:../Drivers/BSP/Components/vl53l0x/vl53l0x_api.c **** 		Status = VL53L0X_ERROR_INVALID_PARAMS;
1576:../Drivers/BSP/Components/vl53l0x/vl53l0x_api.c **** 	} else {
1577:../Drivers/BSP/Components/vl53l0x/vl53l0x_api.c **** 
1578:../Drivers/BSP/Components/vl53l0x/vl53l0x_api.c **** 		VL53L0X_GETARRAYPARAMETERFIELD(Dev, LimitChecksStatus,
 2320              		.loc 1 1578 0
 2321 0004 0144     		add	r1, r1, r0
 2322              	.LVL285:
 2323 0006 91F82E30 		ldrb	r3, [r1, #46]	@ zero_extendqisi2
 2324              	.LVL286:
1579:../Drivers/BSP/Components/vl53l0x/vl53l0x_api.c **** 			LimitCheckId, Temp8);
1580:../Drivers/BSP/Components/vl53l0x/vl53l0x_api.c **** 
1581:../Drivers/BSP/Components/vl53l0x/vl53l0x_api.c **** 		*pLimitCheckStatus = Temp8;
 2325              		.loc 1 1581 0
 2326 000a 1370     		strb	r3, [r2]
ARM GAS  /tmp/ccflrS73.s 			page 68


1569:../Drivers/BSP/Components/vl53l0x/vl53l0x_api.c **** 	uint8_t Temp8;
 2327              		.loc 1 1569 0
 2328 000c 0020     		movs	r0, #0
 2329              	.LVL287:
 2330 000e 00E0     		b	.L164
 2331              	.LVL288:
 2332              	.L165:
1575:../Drivers/BSP/Components/vl53l0x/vl53l0x_api.c **** 		Status = VL53L0X_ERROR_INVALID_PARAMS;
 2333              		.loc 1 1575 0
 2334 0010 FC20     		movs	r0, #252
 2335              	.LVL289:
 2336              	.L164:
1582:../Drivers/BSP/Components/vl53l0x/vl53l0x_api.c **** 
1583:../Drivers/BSP/Components/vl53l0x/vl53l0x_api.c **** 	}
1584:../Drivers/BSP/Components/vl53l0x/vl53l0x_api.c **** 
1585:../Drivers/BSP/Components/vl53l0x/vl53l0x_api.c **** 	LOG_FUNCTION_END(Status);
1586:../Drivers/BSP/Components/vl53l0x/vl53l0x_api.c **** 	return Status;
1587:../Drivers/BSP/Components/vl53l0x/vl53l0x_api.c **** }
 2337              		.loc 1 1587 0
 2338 0012 40B2     		sxtb	r0, r0
 2339 0014 7047     		bx	lr
 2340              		.cfi_endproc
 2341              	.LFE168:
 2343 0016 00BF     		.section	.text.VL53L0X_SetLimitCheckEnable,"ax",%progbits
 2344              		.align	2
 2345              		.global	VL53L0X_SetLimitCheckEnable
 2346              		.thumb
 2347              		.thumb_func
 2349              	VL53L0X_SetLimitCheckEnable:
 2350              	.LFB169:
1588:../Drivers/BSP/Components/vl53l0x/vl53l0x_api.c **** 
1589:../Drivers/BSP/Components/vl53l0x/vl53l0x_api.c **** VL53L0X_Error VL53L0X_SetLimitCheckEnable(VL53L0X_DEV Dev, uint16_t LimitCheckId,
1590:../Drivers/BSP/Components/vl53l0x/vl53l0x_api.c **** 	uint8_t LimitCheckEnable)
1591:../Drivers/BSP/Components/vl53l0x/vl53l0x_api.c **** {
 2351              		.loc 1 1591 0
 2352              		.cfi_startproc
 2353              		@ args = 0, pretend = 0, frame = 0
 2354              		@ frame_needed = 0, uses_anonymous_args = 0
 2355              	.LVL290:
 2356 0000 70B5     		push	{r4, r5, r6, lr}
 2357              	.LCFI60:
 2358              		.cfi_def_cfa_offset 16
 2359              		.cfi_offset 4, -16
 2360              		.cfi_offset 5, -12
 2361              		.cfi_offset 6, -8
 2362              		.cfi_offset 14, -4
 2363 0002 0546     		mov	r5, r0
 2364 0004 0C46     		mov	r4, r1
 2365 0006 1646     		mov	r6, r2
 2366              	.LVL291:
1592:../Drivers/BSP/Components/vl53l0x/vl53l0x_api.c **** 	VL53L0X_Error Status = VL53L0X_ERROR_NONE;
1593:../Drivers/BSP/Components/vl53l0x/vl53l0x_api.c **** 	FixPoint1616_t TempFix1616 = 0;
1594:../Drivers/BSP/Components/vl53l0x/vl53l0x_api.c **** 	uint8_t LimitCheckEnableInt = 0;
1595:../Drivers/BSP/Components/vl53l0x/vl53l0x_api.c **** 	uint8_t LimitCheckDisable = 0;
1596:../Drivers/BSP/Components/vl53l0x/vl53l0x_api.c **** 	uint8_t Temp8;
1597:../Drivers/BSP/Components/vl53l0x/vl53l0x_api.c **** 
1598:../Drivers/BSP/Components/vl53l0x/vl53l0x_api.c **** 	LOG_FUNCTION_START("");
ARM GAS  /tmp/ccflrS73.s 			page 69


1599:../Drivers/BSP/Components/vl53l0x/vl53l0x_api.c **** 
1600:../Drivers/BSP/Components/vl53l0x/vl53l0x_api.c **** 	if (LimitCheckId >= VL53L0X_CHECKENABLE_NUMBER_OF_CHECKS) {
 2367              		.loc 1 1600 0
 2368 0008 0529     		cmp	r1, #5
 2369 000a 31D8     		bhi	.L178
1601:../Drivers/BSP/Components/vl53l0x/vl53l0x_api.c **** 		Status = VL53L0X_ERROR_INVALID_PARAMS;
1602:../Drivers/BSP/Components/vl53l0x/vl53l0x_api.c **** 	} else {
1603:../Drivers/BSP/Components/vl53l0x/vl53l0x_api.c **** 		if (LimitCheckEnable == 0) {
 2370              		.loc 1 1603 0
 2371 000c 2AB1     		cbz	r2, .L179
1604:../Drivers/BSP/Components/vl53l0x/vl53l0x_api.c **** 			TempFix1616 = 0;
1605:../Drivers/BSP/Components/vl53l0x/vl53l0x_api.c **** 			LimitCheckEnableInt = 0;
1606:../Drivers/BSP/Components/vl53l0x/vl53l0x_api.c **** 			LimitCheckDisable = 1;
1607:../Drivers/BSP/Components/vl53l0x/vl53l0x_api.c **** 
1608:../Drivers/BSP/Components/vl53l0x/vl53l0x_api.c **** 		} else {
1609:../Drivers/BSP/Components/vl53l0x/vl53l0x_api.c **** 			VL53L0X_GETARRAYPARAMETERFIELD(Dev, LimitChecksValue,
 2372              		.loc 1 1609 0
 2373 000e 00EB8103 		add	r3, r0, r1, lsl #2
 2374 0012 5A6B     		ldr	r2, [r3, #52]
 2375              	.LVL292:
1610:../Drivers/BSP/Components/vl53l0x/vl53l0x_api.c **** 				LimitCheckId, TempFix1616);
1611:../Drivers/BSP/Components/vl53l0x/vl53l0x_api.c **** 			LimitCheckDisable = 0;
 2376              		.loc 1 1611 0
 2377 0014 0023     		movs	r3, #0
1612:../Drivers/BSP/Components/vl53l0x/vl53l0x_api.c **** 			/* this to be sure to have either 0 or 1 */
1613:../Drivers/BSP/Components/vl53l0x/vl53l0x_api.c **** 			LimitCheckEnableInt = 1;
 2378              		.loc 1 1613 0
 2379 0016 0121     		movs	r1, #1
 2380              	.LVL293:
 2381 0018 02E0     		b	.L168
 2382              	.LVL294:
 2383              	.L179:
1606:../Drivers/BSP/Components/vl53l0x/vl53l0x_api.c **** 
 2384              		.loc 1 1606 0
 2385 001a 0123     		movs	r3, #1
1605:../Drivers/BSP/Components/vl53l0x/vl53l0x_api.c **** 			LimitCheckDisable = 1;
 2386              		.loc 1 1605 0
 2387 001c 0021     		movs	r1, #0
 2388              	.LVL295:
1604:../Drivers/BSP/Components/vl53l0x/vl53l0x_api.c **** 			LimitCheckEnableInt = 0;
 2389              		.loc 1 1604 0
 2390 001e 0A46     		mov	r2, r1
 2391              	.LVL296:
 2392              	.L168:
1614:../Drivers/BSP/Components/vl53l0x/vl53l0x_api.c **** 		}
1615:../Drivers/BSP/Components/vl53l0x/vl53l0x_api.c **** 
1616:../Drivers/BSP/Components/vl53l0x/vl53l0x_api.c **** 		switch (LimitCheckId) {
 2393              		.loc 1 1616 0
 2394 0020 052C     		cmp	r4, #5
 2395 0022 27D8     		bhi	.L180
 2396 0024 DFE804F0 		tbb	[pc, r4]
 2397              	.LVL297:
 2398              	.L170:
 2399 0028 03       		.byte	(.L169-.L170)/2
 2400 0029 07       		.byte	(.L171-.L170)/2
 2401 002a 0E       		.byte	(.L172-.L170)/2
 2402 002b 12       		.byte	(.L173-.L170)/2
ARM GAS  /tmp/ccflrS73.s 			page 70


 2403 002c 16       		.byte	(.L174-.L170)/2
 2404 002d 1D       		.byte	(.L175-.L170)/2
 2405              		.p2align 1
 2406              	.L169:
1617:../Drivers/BSP/Components/vl53l0x/vl53l0x_api.c **** 
1618:../Drivers/BSP/Components/vl53l0x/vl53l0x_api.c **** 		case VL53L0X_CHECKENABLE_SIGMA_FINAL_RANGE:
1619:../Drivers/BSP/Components/vl53l0x/vl53l0x_api.c **** 			/* internal computation: */
1620:../Drivers/BSP/Components/vl53l0x/vl53l0x_api.c **** 			VL53L0X_SETARRAYPARAMETERFIELD(Dev, LimitChecksEnable,
 2407              		.loc 1 1620 0
 2408 002e 85F82810 		strb	r1, [r5, #40]
1592:../Drivers/BSP/Components/vl53l0x/vl53l0x_api.c **** 	FixPoint1616_t TempFix1616 = 0;
 2409              		.loc 1 1592 0
 2410 0032 0020     		movs	r0, #0
1621:../Drivers/BSP/Components/vl53l0x/vl53l0x_api.c **** 				VL53L0X_CHECKENABLE_SIGMA_FINAL_RANGE,
1622:../Drivers/BSP/Components/vl53l0x/vl53l0x_api.c **** 				LimitCheckEnableInt);
1623:../Drivers/BSP/Components/vl53l0x/vl53l0x_api.c **** 
1624:../Drivers/BSP/Components/vl53l0x/vl53l0x_api.c **** 			break;
 2411              		.loc 1 1624 0
 2412 0034 1FE0     		b	.L167
 2413              	.L171:
1625:../Drivers/BSP/Components/vl53l0x/vl53l0x_api.c **** 
1626:../Drivers/BSP/Components/vl53l0x/vl53l0x_api.c **** 		case VL53L0X_CHECKENABLE_SIGNAL_RATE_FINAL_RANGE:
1627:../Drivers/BSP/Components/vl53l0x/vl53l0x_api.c **** 
1628:../Drivers/BSP/Components/vl53l0x/vl53l0x_api.c **** 			Status = VL53L0X_WrWord(Dev,
 2414              		.loc 1 1628 0
 2415 0036 2846     		mov	r0, r5
 2416 0038 4421     		movs	r1, #68
 2417              	.LVL298:
 2418 003a C2F34F22 		ubfx	r2, r2, #9, #16
 2419              	.LVL299:
 2420 003e FFF7FEFF 		bl	VL53L0X_WrWord
 2421              	.LVL300:
1629:../Drivers/BSP/Components/vl53l0x/vl53l0x_api.c **** 			VL53L0X_REG_FINAL_RANGE_CONFIG_MIN_COUNT_RATE_RTN_LIMIT,
1630:../Drivers/BSP/Components/vl53l0x/vl53l0x_api.c **** 				VL53L0X_FIXPOINT1616TOFIXPOINT97(TempFix1616));
1631:../Drivers/BSP/Components/vl53l0x/vl53l0x_api.c **** 
1632:../Drivers/BSP/Components/vl53l0x/vl53l0x_api.c **** 			break;
 2422              		.loc 1 1632 0
 2423 0042 18E0     		b	.L167
 2424              	.LVL301:
 2425              	.L172:
1633:../Drivers/BSP/Components/vl53l0x/vl53l0x_api.c **** 
1634:../Drivers/BSP/Components/vl53l0x/vl53l0x_api.c **** 		case VL53L0X_CHECKENABLE_SIGNAL_REF_CLIP:
1635:../Drivers/BSP/Components/vl53l0x/vl53l0x_api.c **** 
1636:../Drivers/BSP/Components/vl53l0x/vl53l0x_api.c **** 			/* internal computation: */
1637:../Drivers/BSP/Components/vl53l0x/vl53l0x_api.c **** 			VL53L0X_SETARRAYPARAMETERFIELD(Dev, LimitChecksEnable,
 2426              		.loc 1 1637 0
 2427 0044 85F82A10 		strb	r1, [r5, #42]
1592:../Drivers/BSP/Components/vl53l0x/vl53l0x_api.c **** 	FixPoint1616_t TempFix1616 = 0;
 2428              		.loc 1 1592 0
 2429 0048 0020     		movs	r0, #0
1638:../Drivers/BSP/Components/vl53l0x/vl53l0x_api.c **** 				VL53L0X_CHECKENABLE_SIGNAL_REF_CLIP,
1639:../Drivers/BSP/Components/vl53l0x/vl53l0x_api.c **** 				LimitCheckEnableInt);
1640:../Drivers/BSP/Components/vl53l0x/vl53l0x_api.c **** 
1641:../Drivers/BSP/Components/vl53l0x/vl53l0x_api.c **** 			break;
 2430              		.loc 1 1641 0
 2431 004a 14E0     		b	.L167
 2432              	.L173:
ARM GAS  /tmp/ccflrS73.s 			page 71


1642:../Drivers/BSP/Components/vl53l0x/vl53l0x_api.c **** 
1643:../Drivers/BSP/Components/vl53l0x/vl53l0x_api.c **** 		case VL53L0X_CHECKENABLE_RANGE_IGNORE_THRESHOLD:
1644:../Drivers/BSP/Components/vl53l0x/vl53l0x_api.c **** 
1645:../Drivers/BSP/Components/vl53l0x/vl53l0x_api.c **** 			/* internal computation: */
1646:../Drivers/BSP/Components/vl53l0x/vl53l0x_api.c **** 			VL53L0X_SETARRAYPARAMETERFIELD(Dev, LimitChecksEnable,
 2433              		.loc 1 1646 0
 2434 004c 85F82B10 		strb	r1, [r5, #43]
1592:../Drivers/BSP/Components/vl53l0x/vl53l0x_api.c **** 	FixPoint1616_t TempFix1616 = 0;
 2435              		.loc 1 1592 0
 2436 0050 0020     		movs	r0, #0
1647:../Drivers/BSP/Components/vl53l0x/vl53l0x_api.c **** 				VL53L0X_CHECKENABLE_RANGE_IGNORE_THRESHOLD,
1648:../Drivers/BSP/Components/vl53l0x/vl53l0x_api.c **** 				LimitCheckEnableInt);
1649:../Drivers/BSP/Components/vl53l0x/vl53l0x_api.c **** 
1650:../Drivers/BSP/Components/vl53l0x/vl53l0x_api.c **** 			break;
 2437              		.loc 1 1650 0
 2438 0052 10E0     		b	.L167
 2439              	.L174:
 2440              	.LVL302:
1651:../Drivers/BSP/Components/vl53l0x/vl53l0x_api.c **** 
1652:../Drivers/BSP/Components/vl53l0x/vl53l0x_api.c **** 		case VL53L0X_CHECKENABLE_SIGNAL_RATE_MSRC:
1653:../Drivers/BSP/Components/vl53l0x/vl53l0x_api.c **** 
1654:../Drivers/BSP/Components/vl53l0x/vl53l0x_api.c **** 			Temp8 = (uint8_t)(LimitCheckDisable << 1);
1655:../Drivers/BSP/Components/vl53l0x/vl53l0x_api.c **** 			Status = VL53L0X_UpdateByte(Dev,
 2441              		.loc 1 1655 0
 2442 0054 2846     		mov	r0, r5
 2443 0056 6021     		movs	r1, #96
 2444              	.LVL303:
 2445 0058 FE22     		movs	r2, #254
 2446              	.LVL304:
 2447 005a 5B00     		lsls	r3, r3, #1
 2448              	.LVL305:
 2449 005c FFF7FEFF 		bl	VL53L0X_UpdateByte
 2450              	.LVL306:
1656:../Drivers/BSP/Components/vl53l0x/vl53l0x_api.c **** 				VL53L0X_REG_MSRC_CONFIG_CONTROL,
1657:../Drivers/BSP/Components/vl53l0x/vl53l0x_api.c **** 				0xFE, Temp8);
1658:../Drivers/BSP/Components/vl53l0x/vl53l0x_api.c **** 
1659:../Drivers/BSP/Components/vl53l0x/vl53l0x_api.c **** 			break;
 2451              		.loc 1 1659 0
 2452 0060 09E0     		b	.L167
 2453              	.LVL307:
 2454              	.L175:
1660:../Drivers/BSP/Components/vl53l0x/vl53l0x_api.c **** 
1661:../Drivers/BSP/Components/vl53l0x/vl53l0x_api.c **** 		case VL53L0X_CHECKENABLE_SIGNAL_RATE_PRE_RANGE:
1662:../Drivers/BSP/Components/vl53l0x/vl53l0x_api.c **** 
1663:../Drivers/BSP/Components/vl53l0x/vl53l0x_api.c **** 			Temp8 = (uint8_t)(LimitCheckDisable << 4);
1664:../Drivers/BSP/Components/vl53l0x/vl53l0x_api.c **** 			Status = VL53L0X_UpdateByte(Dev,
 2455              		.loc 1 1664 0
 2456 0062 2846     		mov	r0, r5
 2457 0064 6021     		movs	r1, #96
 2458              	.LVL308:
 2459 0066 EF22     		movs	r2, #239
 2460              	.LVL309:
 2461 0068 1B01     		lsls	r3, r3, #4
 2462              	.LVL310:
 2463 006a FFF7FEFF 		bl	VL53L0X_UpdateByte
 2464              	.LVL311:
1665:../Drivers/BSP/Components/vl53l0x/vl53l0x_api.c **** 				VL53L0X_REG_MSRC_CONFIG_CONTROL,
ARM GAS  /tmp/ccflrS73.s 			page 72


1666:../Drivers/BSP/Components/vl53l0x/vl53l0x_api.c **** 				0xEF, Temp8);
1667:../Drivers/BSP/Components/vl53l0x/vl53l0x_api.c **** 
1668:../Drivers/BSP/Components/vl53l0x/vl53l0x_api.c **** 			break;
 2465              		.loc 1 1668 0
 2466 006e 02E0     		b	.L167
 2467              	.LVL312:
 2468              	.L178:
1601:../Drivers/BSP/Components/vl53l0x/vl53l0x_api.c **** 	} else {
 2469              		.loc 1 1601 0
 2470 0070 FC20     		movs	r0, #252
 2471              	.LVL313:
 2472 0072 00E0     		b	.L167
 2473              	.LVL314:
 2474              	.L180:
1669:../Drivers/BSP/Components/vl53l0x/vl53l0x_api.c **** 
1670:../Drivers/BSP/Components/vl53l0x/vl53l0x_api.c **** 
1671:../Drivers/BSP/Components/vl53l0x/vl53l0x_api.c **** 		default:
1672:../Drivers/BSP/Components/vl53l0x/vl53l0x_api.c **** 			Status = VL53L0X_ERROR_INVALID_PARAMS;
 2475              		.loc 1 1672 0
 2476 0074 FC20     		movs	r0, #252
 2477              	.LVL315:
 2478              	.L167:
1673:../Drivers/BSP/Components/vl53l0x/vl53l0x_api.c **** 
1674:../Drivers/BSP/Components/vl53l0x/vl53l0x_api.c **** 		}
1675:../Drivers/BSP/Components/vl53l0x/vl53l0x_api.c **** 
1676:../Drivers/BSP/Components/vl53l0x/vl53l0x_api.c **** 	}
1677:../Drivers/BSP/Components/vl53l0x/vl53l0x_api.c **** 
1678:../Drivers/BSP/Components/vl53l0x/vl53l0x_api.c **** 	if (Status == VL53L0X_ERROR_NONE) {
 2479              		.loc 1 1678 0
 2480 0076 48B9     		cbnz	r0, .L176
1679:../Drivers/BSP/Components/vl53l0x/vl53l0x_api.c **** 		if (LimitCheckEnable == 0) {
 2481              		.loc 1 1679 0
 2482 0078 26B9     		cbnz	r6, .L177
1680:../Drivers/BSP/Components/vl53l0x/vl53l0x_api.c **** 			VL53L0X_SETARRAYPARAMETERFIELD(Dev, LimitChecksEnable,
 2483              		.loc 1 1680 0
 2484 007a 2C44     		add	r4, r4, r5
 2485 007c 0023     		movs	r3, #0
 2486 007e 84F82830 		strb	r3, [r4, #40]
 2487 0082 03E0     		b	.L176
 2488              	.L177:
1681:../Drivers/BSP/Components/vl53l0x/vl53l0x_api.c **** 				LimitCheckId, 0);
1682:../Drivers/BSP/Components/vl53l0x/vl53l0x_api.c **** 		} else {
1683:../Drivers/BSP/Components/vl53l0x/vl53l0x_api.c **** 			VL53L0X_SETARRAYPARAMETERFIELD(Dev, LimitChecksEnable,
 2489              		.loc 1 1683 0
 2490 0084 2C44     		add	r4, r4, r5
 2491 0086 0123     		movs	r3, #1
 2492 0088 84F82830 		strb	r3, [r4, #40]
 2493              	.L176:
1684:../Drivers/BSP/Components/vl53l0x/vl53l0x_api.c **** 				LimitCheckId, 1);
1685:../Drivers/BSP/Components/vl53l0x/vl53l0x_api.c **** 		}
1686:../Drivers/BSP/Components/vl53l0x/vl53l0x_api.c **** 	}
1687:../Drivers/BSP/Components/vl53l0x/vl53l0x_api.c **** 
1688:../Drivers/BSP/Components/vl53l0x/vl53l0x_api.c **** 	LOG_FUNCTION_END(Status);
1689:../Drivers/BSP/Components/vl53l0x/vl53l0x_api.c **** 	return Status;
1690:../Drivers/BSP/Components/vl53l0x/vl53l0x_api.c **** }
 2494              		.loc 1 1690 0
 2495 008c 40B2     		sxtb	r0, r0
ARM GAS  /tmp/ccflrS73.s 			page 73


 2496 008e 70BD     		pop	{r4, r5, r6, pc}
 2497              		.cfi_endproc
 2498              	.LFE169:
 2500              		.section	.text.VL53L0X_GetLimitCheckEnable,"ax",%progbits
 2501              		.align	2
 2502              		.global	VL53L0X_GetLimitCheckEnable
 2503              		.thumb
 2504              		.thumb_func
 2506              	VL53L0X_GetLimitCheckEnable:
 2507              	.LFB170:
1691:../Drivers/BSP/Components/vl53l0x/vl53l0x_api.c **** 
1692:../Drivers/BSP/Components/vl53l0x/vl53l0x_api.c **** VL53L0X_Error VL53L0X_GetLimitCheckEnable(VL53L0X_DEV Dev, uint16_t LimitCheckId,
1693:../Drivers/BSP/Components/vl53l0x/vl53l0x_api.c **** 	uint8_t *pLimitCheckEnable)
1694:../Drivers/BSP/Components/vl53l0x/vl53l0x_api.c **** {
 2508              		.loc 1 1694 0
 2509              		.cfi_startproc
 2510              		@ args = 0, pretend = 0, frame = 0
 2511              		@ frame_needed = 0, uses_anonymous_args = 0
 2512              		@ link register save eliminated.
 2513              	.LVL316:
1695:../Drivers/BSP/Components/vl53l0x/vl53l0x_api.c **** 	VL53L0X_Error Status = VL53L0X_ERROR_NONE;
1696:../Drivers/BSP/Components/vl53l0x/vl53l0x_api.c **** 	uint8_t Temp8;
1697:../Drivers/BSP/Components/vl53l0x/vl53l0x_api.c **** 
1698:../Drivers/BSP/Components/vl53l0x/vl53l0x_api.c **** 	LOG_FUNCTION_START("");
1699:../Drivers/BSP/Components/vl53l0x/vl53l0x_api.c **** 
1700:../Drivers/BSP/Components/vl53l0x/vl53l0x_api.c **** 	if (LimitCheckId >= VL53L0X_CHECKENABLE_NUMBER_OF_CHECKS) {
 2514              		.loc 1 1700 0
 2515 0000 0529     		cmp	r1, #5
 2516 0002 03D9     		bls	.L183
 2517              	.LVL317:
1701:../Drivers/BSP/Components/vl53l0x/vl53l0x_api.c **** 		Status = VL53L0X_ERROR_INVALID_PARAMS;
1702:../Drivers/BSP/Components/vl53l0x/vl53l0x_api.c **** 		*pLimitCheckEnable = 0;
 2518              		.loc 1 1702 0
 2519 0004 0023     		movs	r3, #0
 2520 0006 1370     		strb	r3, [r2]
1701:../Drivers/BSP/Components/vl53l0x/vl53l0x_api.c **** 		Status = VL53L0X_ERROR_INVALID_PARAMS;
 2521              		.loc 1 1701 0
 2522 0008 FC20     		movs	r0, #252
 2523              	.LVL318:
 2524 000a 04E0     		b	.L184
 2525              	.LVL319:
 2526              	.L183:
1703:../Drivers/BSP/Components/vl53l0x/vl53l0x_api.c **** 	} else {
1704:../Drivers/BSP/Components/vl53l0x/vl53l0x_api.c **** 		VL53L0X_GETARRAYPARAMETERFIELD(Dev, LimitChecksEnable,
 2527              		.loc 1 1704 0
 2528 000c 0144     		add	r1, r1, r0
 2529              	.LVL320:
 2530 000e 91F82830 		ldrb	r3, [r1, #40]	@ zero_extendqisi2
 2531              	.LVL321:
1705:../Drivers/BSP/Components/vl53l0x/vl53l0x_api.c **** 			LimitCheckId, Temp8);
1706:../Drivers/BSP/Components/vl53l0x/vl53l0x_api.c **** 		*pLimitCheckEnable = Temp8;
 2532              		.loc 1 1706 0
 2533 0012 1370     		strb	r3, [r2]
1695:../Drivers/BSP/Components/vl53l0x/vl53l0x_api.c **** 	uint8_t Temp8;
 2534              		.loc 1 1695 0
 2535 0014 0020     		movs	r0, #0
 2536              	.LVL322:
ARM GAS  /tmp/ccflrS73.s 			page 74


 2537              	.L184:
1707:../Drivers/BSP/Components/vl53l0x/vl53l0x_api.c **** 	}
1708:../Drivers/BSP/Components/vl53l0x/vl53l0x_api.c **** 
1709:../Drivers/BSP/Components/vl53l0x/vl53l0x_api.c **** 	LOG_FUNCTION_END(Status);
1710:../Drivers/BSP/Components/vl53l0x/vl53l0x_api.c **** 	return Status;
1711:../Drivers/BSP/Components/vl53l0x/vl53l0x_api.c **** }
 2538              		.loc 1 1711 0
 2539 0016 40B2     		sxtb	r0, r0
 2540 0018 7047     		bx	lr
 2541              		.cfi_endproc
 2542              	.LFE170:
 2544 001a 00BF     		.section	.text.VL53L0X_SetLimitCheckValue,"ax",%progbits
 2545              		.align	2
 2546              		.global	VL53L0X_SetLimitCheckValue
 2547              		.thumb
 2548              		.thumb_func
 2550              	VL53L0X_SetLimitCheckValue:
 2551              	.LFB171:
1712:../Drivers/BSP/Components/vl53l0x/vl53l0x_api.c **** 
1713:../Drivers/BSP/Components/vl53l0x/vl53l0x_api.c **** VL53L0X_Error VL53L0X_SetLimitCheckValue(VL53L0X_DEV Dev, uint16_t LimitCheckId,
1714:../Drivers/BSP/Components/vl53l0x/vl53l0x_api.c **** 	FixPoint1616_t LimitCheckValue)
1715:../Drivers/BSP/Components/vl53l0x/vl53l0x_api.c **** {
 2552              		.loc 1 1715 0
 2553              		.cfi_startproc
 2554              		@ args = 0, pretend = 0, frame = 0
 2555              		@ frame_needed = 0, uses_anonymous_args = 0
 2556              	.LVL323:
1716:../Drivers/BSP/Components/vl53l0x/vl53l0x_api.c **** 	VL53L0X_Error Status = VL53L0X_ERROR_NONE;
1717:../Drivers/BSP/Components/vl53l0x/vl53l0x_api.c **** 	uint8_t Temp8;
1718:../Drivers/BSP/Components/vl53l0x/vl53l0x_api.c **** 
1719:../Drivers/BSP/Components/vl53l0x/vl53l0x_api.c **** 	LOG_FUNCTION_START("");
1720:../Drivers/BSP/Components/vl53l0x/vl53l0x_api.c **** 
1721:../Drivers/BSP/Components/vl53l0x/vl53l0x_api.c **** 	VL53L0X_GETARRAYPARAMETERFIELD(Dev, LimitChecksEnable, LimitCheckId,
 2557              		.loc 1 1721 0
 2558 0000 4318     		adds	r3, r0, r1
 2559 0002 93F82830 		ldrb	r3, [r3, #40]	@ zero_extendqisi2
 2560              	.LVL324:
1722:../Drivers/BSP/Components/vl53l0x/vl53l0x_api.c **** 		Temp8);
1723:../Drivers/BSP/Components/vl53l0x/vl53l0x_api.c **** 
1724:../Drivers/BSP/Components/vl53l0x/vl53l0x_api.c **** 	if (Temp8 == 0) { /* disabled write only internal value */
 2561              		.loc 1 1724 0
 2562 0006 2BB9     		cbnz	r3, .L186
1725:../Drivers/BSP/Components/vl53l0x/vl53l0x_api.c **** 		VL53L0X_SETARRAYPARAMETERFIELD(Dev, LimitChecksValue,
 2563              		.loc 1 1725 0
 2564 0008 00EB8100 		add	r0, r0, r1, lsl #2
 2565              	.LVL325:
 2566 000c 4263     		str	r2, [r0, #52]
1716:../Drivers/BSP/Components/vl53l0x/vl53l0x_api.c **** 	VL53L0X_Error Status = VL53L0X_ERROR_NONE;
 2567              		.loc 1 1716 0
 2568 000e 0020     		movs	r0, #0
 2569              	.LVL326:
1726:../Drivers/BSP/Components/vl53l0x/vl53l0x_api.c **** 			LimitCheckId, LimitCheckValue);
1727:../Drivers/BSP/Components/vl53l0x/vl53l0x_api.c **** 	} else {
1728:../Drivers/BSP/Components/vl53l0x/vl53l0x_api.c **** 
1729:../Drivers/BSP/Components/vl53l0x/vl53l0x_api.c **** 		switch (LimitCheckId) {
1730:../Drivers/BSP/Components/vl53l0x/vl53l0x_api.c **** 
1731:../Drivers/BSP/Components/vl53l0x/vl53l0x_api.c **** 		case VL53L0X_CHECKENABLE_SIGMA_FINAL_RANGE:
ARM GAS  /tmp/ccflrS73.s 			page 75


1732:../Drivers/BSP/Components/vl53l0x/vl53l0x_api.c **** 			/* internal computation: */
1733:../Drivers/BSP/Components/vl53l0x/vl53l0x_api.c **** 			VL53L0X_SETARRAYPARAMETERFIELD(Dev, LimitChecksValue,
1734:../Drivers/BSP/Components/vl53l0x/vl53l0x_api.c **** 				VL53L0X_CHECKENABLE_SIGMA_FINAL_RANGE,
1735:../Drivers/BSP/Components/vl53l0x/vl53l0x_api.c **** 				LimitCheckValue);
1736:../Drivers/BSP/Components/vl53l0x/vl53l0x_api.c **** 			break;
1737:../Drivers/BSP/Components/vl53l0x/vl53l0x_api.c **** 
1738:../Drivers/BSP/Components/vl53l0x/vl53l0x_api.c **** 		case VL53L0X_CHECKENABLE_SIGNAL_RATE_FINAL_RANGE:
1739:../Drivers/BSP/Components/vl53l0x/vl53l0x_api.c **** 
1740:../Drivers/BSP/Components/vl53l0x/vl53l0x_api.c **** 			Status = VL53L0X_WrWord(Dev,
1741:../Drivers/BSP/Components/vl53l0x/vl53l0x_api.c **** 			VL53L0X_REG_FINAL_RANGE_CONFIG_MIN_COUNT_RATE_RTN_LIMIT,
1742:../Drivers/BSP/Components/vl53l0x/vl53l0x_api.c **** 				VL53L0X_FIXPOINT1616TOFIXPOINT97(
1743:../Drivers/BSP/Components/vl53l0x/vl53l0x_api.c **** 					LimitCheckValue));
1744:../Drivers/BSP/Components/vl53l0x/vl53l0x_api.c **** 
1745:../Drivers/BSP/Components/vl53l0x/vl53l0x_api.c **** 			break;
1746:../Drivers/BSP/Components/vl53l0x/vl53l0x_api.c **** 
1747:../Drivers/BSP/Components/vl53l0x/vl53l0x_api.c **** 		case VL53L0X_CHECKENABLE_SIGNAL_REF_CLIP:
1748:../Drivers/BSP/Components/vl53l0x/vl53l0x_api.c **** 
1749:../Drivers/BSP/Components/vl53l0x/vl53l0x_api.c **** 			/* internal computation: */
1750:../Drivers/BSP/Components/vl53l0x/vl53l0x_api.c **** 			VL53L0X_SETARRAYPARAMETERFIELD(Dev, LimitChecksValue,
1751:../Drivers/BSP/Components/vl53l0x/vl53l0x_api.c **** 				VL53L0X_CHECKENABLE_SIGNAL_REF_CLIP,
1752:../Drivers/BSP/Components/vl53l0x/vl53l0x_api.c **** 				LimitCheckValue);
1753:../Drivers/BSP/Components/vl53l0x/vl53l0x_api.c **** 
1754:../Drivers/BSP/Components/vl53l0x/vl53l0x_api.c **** 			break;
1755:../Drivers/BSP/Components/vl53l0x/vl53l0x_api.c **** 
1756:../Drivers/BSP/Components/vl53l0x/vl53l0x_api.c **** 		case VL53L0X_CHECKENABLE_RANGE_IGNORE_THRESHOLD:
1757:../Drivers/BSP/Components/vl53l0x/vl53l0x_api.c **** 
1758:../Drivers/BSP/Components/vl53l0x/vl53l0x_api.c **** 			/* internal computation: */
1759:../Drivers/BSP/Components/vl53l0x/vl53l0x_api.c **** 			VL53L0X_SETARRAYPARAMETERFIELD(Dev, LimitChecksValue,
1760:../Drivers/BSP/Components/vl53l0x/vl53l0x_api.c **** 				VL53L0X_CHECKENABLE_RANGE_IGNORE_THRESHOLD,
1761:../Drivers/BSP/Components/vl53l0x/vl53l0x_api.c **** 				LimitCheckValue);
1762:../Drivers/BSP/Components/vl53l0x/vl53l0x_api.c **** 
1763:../Drivers/BSP/Components/vl53l0x/vl53l0x_api.c **** 			break;
1764:../Drivers/BSP/Components/vl53l0x/vl53l0x_api.c **** 
1765:../Drivers/BSP/Components/vl53l0x/vl53l0x_api.c **** 		case VL53L0X_CHECKENABLE_SIGNAL_RATE_MSRC:
1766:../Drivers/BSP/Components/vl53l0x/vl53l0x_api.c **** 		case VL53L0X_CHECKENABLE_SIGNAL_RATE_PRE_RANGE:
1767:../Drivers/BSP/Components/vl53l0x/vl53l0x_api.c **** 
1768:../Drivers/BSP/Components/vl53l0x/vl53l0x_api.c **** 			Status = VL53L0X_WrWord(Dev,
1769:../Drivers/BSP/Components/vl53l0x/vl53l0x_api.c **** 				VL53L0X_REG_PRE_RANGE_MIN_COUNT_RATE_RTN_LIMIT,
1770:../Drivers/BSP/Components/vl53l0x/vl53l0x_api.c **** 				VL53L0X_FIXPOINT1616TOFIXPOINT97(
1771:../Drivers/BSP/Components/vl53l0x/vl53l0x_api.c **** 					LimitCheckValue));
1772:../Drivers/BSP/Components/vl53l0x/vl53l0x_api.c **** 
1773:../Drivers/BSP/Components/vl53l0x/vl53l0x_api.c **** 			break;
1774:../Drivers/BSP/Components/vl53l0x/vl53l0x_api.c **** 
1775:../Drivers/BSP/Components/vl53l0x/vl53l0x_api.c **** 		default:
1776:../Drivers/BSP/Components/vl53l0x/vl53l0x_api.c **** 			Status = VL53L0X_ERROR_INVALID_PARAMS;
1777:../Drivers/BSP/Components/vl53l0x/vl53l0x_api.c **** 
1778:../Drivers/BSP/Components/vl53l0x/vl53l0x_api.c **** 		}
1779:../Drivers/BSP/Components/vl53l0x/vl53l0x_api.c **** 
1780:../Drivers/BSP/Components/vl53l0x/vl53l0x_api.c **** 		if (Status == VL53L0X_ERROR_NONE) {
1781:../Drivers/BSP/Components/vl53l0x/vl53l0x_api.c **** 			VL53L0X_SETARRAYPARAMETERFIELD(Dev, LimitChecksValue,
1782:../Drivers/BSP/Components/vl53l0x/vl53l0x_api.c **** 				LimitCheckId, LimitCheckValue);
1783:../Drivers/BSP/Components/vl53l0x/vl53l0x_api.c **** 		}
1784:../Drivers/BSP/Components/vl53l0x/vl53l0x_api.c **** 	}
1785:../Drivers/BSP/Components/vl53l0x/vl53l0x_api.c **** 
1786:../Drivers/BSP/Components/vl53l0x/vl53l0x_api.c **** 	LOG_FUNCTION_END(Status);
1787:../Drivers/BSP/Components/vl53l0x/vl53l0x_api.c **** 	return Status;
1788:../Drivers/BSP/Components/vl53l0x/vl53l0x_api.c **** }
ARM GAS  /tmp/ccflrS73.s 			page 76


 2570              		.loc 1 1788 0
 2571 0010 40B2     		sxtb	r0, r0
 2572 0012 7047     		bx	lr
 2573              	.LVL327:
 2574              	.L186:
1715:../Drivers/BSP/Components/vl53l0x/vl53l0x_api.c **** 	VL53L0X_Error Status = VL53L0X_ERROR_NONE;
 2575              		.loc 1 1715 0
 2576 0014 70B5     		push	{r4, r5, r6, lr}
 2577              	.LCFI61:
 2578              		.cfi_def_cfa_offset 16
 2579              		.cfi_offset 4, -16
 2580              		.cfi_offset 5, -12
 2581              		.cfi_offset 6, -8
 2582              		.cfi_offset 14, -4
 2583 0016 1646     		mov	r6, r2
 2584 0018 0D46     		mov	r5, r1
 2585 001a 0446     		mov	r4, r0
1729:../Drivers/BSP/Components/vl53l0x/vl53l0x_api.c **** 
 2586              		.loc 1 1729 0
 2587 001c 0529     		cmp	r1, #5
 2588 001e 19D8     		bhi	.L195
 2589 0020 DFE801F0 		tbb	[pc, r1]
 2590              	.LVL328:
 2591              	.L190:
 2592 0024 03       		.byte	(.L189-.L190)/2
 2593 0025 06       		.byte	(.L191-.L190)/2
 2594 0026 0C       		.byte	(.L192-.L190)/2
 2595 0027 0F       		.byte	(.L193-.L190)/2
 2596 0028 12       		.byte	(.L194-.L190)/2
 2597 0029 12       		.byte	(.L194-.L190)/2
 2598              		.p2align 1
 2599              	.L189:
1733:../Drivers/BSP/Components/vl53l0x/vl53l0x_api.c **** 				VL53L0X_CHECKENABLE_SIGMA_FINAL_RANGE,
 2600              		.loc 1 1733 0
 2601 002a 6263     		str	r2, [r4, #52]
 2602              	.LVL329:
1716:../Drivers/BSP/Components/vl53l0x/vl53l0x_api.c **** 	uint8_t Temp8;
 2603              		.loc 1 1716 0
 2604 002c 0020     		movs	r0, #0
 2605              	.LVL330:
1736:../Drivers/BSP/Components/vl53l0x/vl53l0x_api.c **** 
 2606              		.loc 1 1736 0
 2607 002e 12E0     		b	.L188
 2608              	.LVL331:
 2609              	.L191:
1740:../Drivers/BSP/Components/vl53l0x/vl53l0x_api.c **** 			VL53L0X_REG_FINAL_RANGE_CONFIG_MIN_COUNT_RATE_RTN_LIMIT,
 2610              		.loc 1 1740 0
 2611 0030 4421     		movs	r1, #68
 2612              	.LVL332:
 2613 0032 C2F34F22 		ubfx	r2, r2, #9, #16
 2614              	.LVL333:
 2615 0036 FFF7FEFF 		bl	VL53L0X_WrWord
 2616              	.LVL334:
1745:../Drivers/BSP/Components/vl53l0x/vl53l0x_api.c **** 
 2617              		.loc 1 1745 0
 2618 003a 0CE0     		b	.L188
 2619              	.LVL335:
ARM GAS  /tmp/ccflrS73.s 			page 77


 2620              	.L192:
1750:../Drivers/BSP/Components/vl53l0x/vl53l0x_api.c **** 				VL53L0X_CHECKENABLE_SIGNAL_REF_CLIP,
 2621              		.loc 1 1750 0
 2622 003c E263     		str	r2, [r4, #60]
 2623              	.LVL336:
1716:../Drivers/BSP/Components/vl53l0x/vl53l0x_api.c **** 	uint8_t Temp8;
 2624              		.loc 1 1716 0
 2625 003e 0020     		movs	r0, #0
 2626              	.LVL337:
1754:../Drivers/BSP/Components/vl53l0x/vl53l0x_api.c **** 
 2627              		.loc 1 1754 0
 2628 0040 09E0     		b	.L188
 2629              	.LVL338:
 2630              	.L193:
1759:../Drivers/BSP/Components/vl53l0x/vl53l0x_api.c **** 				VL53L0X_CHECKENABLE_RANGE_IGNORE_THRESHOLD,
